(iplayer
Player
p1
(dp2
S'is_batsman'
p3
I00
sS'name'
p4
S'Morne Morkel'
p5
sS'dob'
p6
S'1984/10/06'
p7
sS'price'
p8
S'900000'
p9
sS'is_allrounder'
p10
I00
sS'espnid'
p11
S'46538'
p12
sS'is_overseas'
p13
I01
sS'team'
p14
S'KKR'
p15
sS'nationality'
p16
S'South African'
p17
sS'is_bowler'
p18
I01
sS'is_keeper'
p19
I00
sS'id'
p20
S'169'
p21
sS'is_uncapped'
p22
I00
sS'tournamentStats'
p23
(dp24
S'international'
p25
(dp26
S'fieldingStats'
p27
((dp28
S'c'
F4
sS'ctw'
p29
F0
sS'span_s'
p30
F2007
sS'm'
F38
sS's'
F0
sS'dismissals'
p31
F4
sS'i'
F38
sS'ctf'
p32
F4
sS'span_f'
p33
F2014
s(lp34
(dp35
S'inning'
p36
I2
sS'c'
F0
sg29
F0
sS'opp'
p37
S'New Zealand'
p38
sS't20i_num'
p39
I383
sg32
F0
sg31
F0
sS's'
F0
sS'place'
p40
S'Chittagong'
p41
sS'date'
p42
ctime
struct_time
p43
((I2014
I3
I24
I0
I0
I0
I0
I83
I-1
t(dtRp44
sa(dp45
g36
I1
sS'c'
F0
sg29
F0
sg37
S'Sri Lanka'
p46
sg39
I379
sg32
F0
sg31
F0
sS's'
F0
sg40
S'Chittagong'
p47
sg42
g43
((I2014
I3
I22
I0
I0
I0
I5
I81
I-1
t(dtRp48
sa(dp49
g36
I1
sS'c'
F0
sg29
F0
sg37
S'Pakistan'
p50
sg39
I343
sg32
F0
sg31
F0
sS's'
F0
sg40
S'Cape Town'
p51
sg42
g43
((I2013
I11
I22
I0
I0
I0
I4
I326
I-1
t(dtRp52
sa(dp53
g36
I2
sS'c'
F0
sg29
F0
sg37
S'Pakistan'
p54
sg39
I340
sg32
F0
sg31
F0
sS's'
F0
sg40
S'Johannesburg'
p55
sg42
g43
((I2013
I11
I20
I0
I0
I0
I2
I324
I-1
t(dtRp56
sa(dp57
g36
I2
sS'c'
F0
sg29
F0
sg37
S'Sri Lanka'
p58
sg39
I325
sg32
F0
sg31
F0
sS's'
F0
sg40
S'Hambantota'
p59
sg42
g43
((I2013
I8
I6
I0
I0
I0
I1
I218
I-1
t(dtRp60
sa(dp61
g36
I2
sS'c'
F0
sg29
F0
sg37
S'Sri Lanka'
p62
sg39
I324
sg32
F0
sg31
F0
sS's'
F0
sg40
S'Hambantota'
p63
sg42
g43
((I2013
I8
I4
I0
I0
I0
I6
I216
I-1
t(dtRp64
sa(dp65
g36
I2
sS'c'
F0
sg29
F0
sg37
S'Sri Lanka'
p66
sg39
I323
sg32
F0
sg31
F0
sS's'
F0
sg40
S'Colombo (RPS)'
p67
sg42
g43
((I2013
I8
I2
I0
I0
I0
I4
I214
I-1
t(dtRp68
sa(dp69
g36
I2
sS'c'
F1
sg29
F0
sg37
S'New Zealand'
p70
sg39
I297
sg32
F1
sg31
F1
sS's'
F0
sg40
S'Port Elizabeth'
p71
sg42
g43
((I2012
I12
I26
I0
I0
I0
I2
I361
I-1
t(dtRp72
sa(dp73
g36
I2
sS'c'
F0
sg29
F0
sg37
S'New Zealand'
p74
sg39
I295
sg32
F0
sg31
F0
sS's'
F0
sg40
S'East London'
p75
sg42
g43
((I2012
I12
I23
I0
I0
I0
I6
I358
I-1
t(dtRp76
sa(dp77
g36
I1
sS'c'
F0
sg29
F0
sg37
S'India'
p78
sg39
I286
sg32
F0
sg31
F0
sS's'
F0
sg40
S'Colombo (RPS)'
p79
sg42
g43
((I2012
I10
I2
I0
I0
I0
I1
I276
I-1
t(dtRp80
sa(dp81
g36
I2
sS'c'
F0
sg29
F0
sg37
S'Australia'
p82
sg39
I281
sg32
F0
sg31
F0
sS's'
F0
sg40
S'Colombo (RPS)'
p83
sg42
g43
((I2012
I9
I30
I0
I0
I0
I6
I274
I-1
t(dtRp84
sa(dp85
g36
I2
sS'c'
F0
sg29
F0
sg37
S'Pakistan'
p86
sg39
I277
sg32
F0
sg31
F0
sS's'
F0
sg40
S'Colombo (RPS)'
p87
sg42
g43
((I2012
I9
I28
I0
I0
I0
I4
I272
I-1
t(dtRp88
sa(dp89
g36
I2
sS'c'
F0
sg29
F0
sg37
S'Sri Lanka'
p90
sg39
I269
sg32
F0
sg31
F0
sS's'
F0
sg40
S'Hambantota'
p91
sg42
g43
((I2012
I9
I22
I0
I0
I0
I5
I266
I-1
t(dtRp92
sa(dp93
g36
I1
sS'c'
F0
sg29
F0
sg37
S'Zimbabwe'
p94
sg39
I266
sg32
F0
sg31
F0
sS's'
F0
sg40
S'Hambantota'
p95
sg42
g43
((I2012
I9
I20
I0
I0
I0
I3
I264
I-1
t(dtRp96
sa(dp97
g36
I1
sS'c'
F0
sg29
F0
sg37
S'England'
p98
sg39
I262
sg32
F0
sg31
F0
sS's'
F0
sg40
S'Birmingham'
p99
sg42
g43
((I2012
I9
I12
I0
I0
I0
I2
I256
I-1
t(dtRp100
sa(dp101
g36
I2
sS'c'
F1
sg29
F0
sg37
S'England'
p102
sg39
I260
sg32
F1
sg31
F1
sS's'
F0
sg40
S'Manchester'
p103
sg42
g43
((I2012
I9
I10
I0
I0
I0
I0
I254
I-1
t(dtRp104
sa(dp105
g36
I2
sS'c'
F1
sg29
F0
sg37
S'New Zealand'
p106
sg39
I223
sg32
F1
sg31
F1
sS's'
F0
sg40
S'Auckland'
p107
sg42
g43
((I2012
I2
I22
I0
I0
I0
I2
I53
I-1
t(dtRp108
sa(dp109
g36
I1
sS'c'
F0
sg29
F0
sg37
S'New Zealand'
p110
sg39
I222
sg32
F0
sg31
F0
sS's'
F0
sg40
S'Hamilton'
p111
sg42
g43
((I2012
I2
I19
I0
I0
I0
I6
I50
I-1
t(dtRp112
sa(dp113
g36
I2
sS'c'
F0
sg29
F0
sg37
S'New Zealand'
p114
sg39
I221
sg32
F0
sg31
F0
sS's'
F0
sg40
S'Wellington'
p115
sg42
g43
((I2012
I2
I17
I0
I0
I0
I4
I48
I-1
t(dtRp116
sa(dp117
g36
I1
sS'c'
F0
sg29
F0
sg37
S'Australia'
p118
sg39
I212
sg32
F0
sg31
F0
sS's'
F0
sg40
S'Johannesburg'
p119
sg42
g43
((I2011
I10
I16
I0
I0
I0
I6
I289
I-1
t(dtRp120
sa(dp121
g36
I2
sS'c'
F0
sg29
F0
sg37
S'Australia'
p122
sg39
I210
sg32
F0
sg31
F0
sS's'
F0
sg40
S'Cape Town'
p123
sg42
g43
((I2011
I10
I13
I0
I0
I0
I3
I286
I-1
t(dtRp124
sa(dp125
g36
I1
sS'c'
F0
sg29
F0
sg37
S'Pakistan'
p126
sg39
I191
sg32
F0
sg31
F0
sS's'
F0
sg40
S'Abu Dhabi'
p127
sg42
g43
((I2010
I10
I27
I0
I0
I0
I2
I300
I-1
t(dtRp128
sa(dp129
g36
I1
sS'c'
F0
sg29
F0
sg37
S'Pakistan'
p130
sg39
I190
sg32
F0
sg31
F0
sS's'
F0
sg40
S'Abu Dhabi'
p131
sg42
g43
((I2010
I10
I26
I0
I0
I0
I1
I299
I-1
t(dtRp132
sa(dp133
g36
I1
sS'c'
F0
sg29
F0
sg37
S'Zimbabwe'
p134
sg39
I188
sg32
F0
sg31
F0
sS's'
F0
sg40
S'Bloemfontein'
p135
sg42
g43
((I2010
I10
I8
I0
I0
I0
I4
I281
I-1
t(dtRp136
sa(dp137
g36
I2
sS'c'
F0
sg29
F0
sg37
S'West Indies'
p138
sg39
I179
sg32
F0
sg31
F0
sS's'
F0
sg40
S'North Sound'
p139
sg42
g43
((I2010
I5
I20
I0
I0
I0
I3
I140
I-1
t(dtRp140
sa(dp141
g36
I1
sS'c'
F0
sg29
F0
sg37
S'England'
p142
sg39
I168
sg32
F0
sg31
F0
sS's'
F0
sg40
S'Bridgetown'
p143
sg42
g43
((I2010
I5
I8
I0
I0
I0
I5
I128
I-1
t(dtRp144
sa(dp145
g36
I2
sS'c'
F0
sg29
F0
sg37
S'New Zealand'
p146
sg39
I164
sg32
F0
sg31
F0
sS's'
F0
sg40
S'Bridgetown'
p147
sg42
g43
((I2010
I5
I6
I0
I0
I0
I3
I126
I-1
t(dtRp148
sa(dp149
g36
I2
sS'c'
F0
sg29
F0
sg37
S'Afghanistan'
p150
sg39
I162
sg32
F0
sg31
F0
sS's'
F0
sg40
S'Bridgetown'
p151
sg42
g43
((I2010
I5
I5
I0
I0
I0
I2
I125
I-1
t(dtRp152
sa(dp153
g36
I1
sS'c'
F0
sg29
F0
sg37
S'India'
p154
sg39
I155
sg32
F0
sg31
F0
sS's'
F0
sg40
S'Gros Islet'
p155
sg42
g43
((I2010
I5
I2
I0
I0
I0
I6
I122
I-1
t(dtRp156
sa(dp157
g36
I2
sS'c'
F1
sg29
F0
sg37
S'India'
p158
sg39
I113
sg32
F1
sg31
F1
sS's'
F0
sg40
S'Nottingham'
p159
sg42
g43
((I2009
I6
I16
I0
I0
I0
I1
I167
I-1
t(dtRp160
sa(dp161
g36
I2
sS'c'
F0
sg29
F0
sg37
S'Australia'
p162
sg39
I81
sg32
F0
sg31
F0
sS's'
F0
sg40
S'Brisbane'
p163
sg42
g43
((I2009
I1
I13
I0
I0
I0
I1
I13
I-1
t(dtRp164
sa(dp165
g36
I2
sS'c'
F0
sg29
F0
sg37
S'Bangladesh'
p166
sg39
I77
sg32
F0
sg31
F0
sS's'
F0
sg40
S'Johannesburg'
p167
sg42
g43
((I2008
I11
I5
I0
I0
I0
I2
I310
I-1
t(dtRp168
sa(dp169
g36
I1
sS'c'
F0
sg29
F0
sg37
S'West Indies'
p170
sg39
I51
sg32
F0
sg31
F0
sS's'
F0
sg40
S'Johannesburg'
p171
sg42
g43
((I2008
I1
I18
I0
I0
I0
I4
I18
I-1
t(dtRp172
sa(dp173
g36
I1
sS'c'
F0
sg29
F0
sg37
S'India'
p174
sg39
I43
sg32
F0
sg31
F0
sS's'
F0
sg40
S'Durban'
p175
sg42
g43
((I2007
I9
I20
I0
I0
I0
I3
I263
I-1
t(dtRp176
sa(dp177
g36
I1
sS'c'
F0
sg29
F0
sg37
S'New Zealand'
p178
sg39
I39
sg32
F0
sg31
F0
sS's'
F0
sg40
S'Durban'
p179
sg42
g43
((I2007
I9
I19
I0
I0
I0
I2
I262
I-1
t(dtRp180
sa(dp181
g36
I2
sS'c'
F0
sg29
F0
sg37
S'England'
p182
sg39
I34
sg32
F0
sg31
F0
sS's'
F0
sg40
S'Cape Town'
p183
sg42
g43
((I2007
I9
I16
I0
I0
I0
I6
I259
I-1
t(dtRp184
sa(dp185
g36
I1
sS'c'
F0
sg29
F0
sg37
S'Bangladesh'
p186
sg39
I31
sg32
F0
sg31
F0
sS's'
F0
sg40
S'Cape Town'
p187
sg42
g43
((I2007
I9
I15
I0
I0
I0
I5
I258
I-1
t(dtRp188
sa(dp189
g36
I1
sS'c'
F0
sg29
F0
sg37
S'West Indies'
p190
sg39
I20
sg32
F0
sg31
F0
sS's'
F0
sg40
S'Johannesburg'
p191
sg42
g43
((I2007
I9
I11
I0
I0
I0
I1
I254
I-1
t(dtRp192
satp193
sS'bowlingStats'
p194
((dp195
S'a'
F21.888888888888889
sS'b'
F808
sS'e'
F7.314356435643564
sS'i'
F38
sS'sr'
p196
F17.955555555555556
sS'5w'
p197
F0
sS'm'
F38
sS'maid'
p198
F3
sS'r'
F985
sS'w'
F45
sS'4w'
p199
F2
sS'bbir'
p200
F17
sS'bbiw'
p201
F4
sg33
F2014
sg30
F2007
s(lp202
(dp203
g36
I2
sS'b'
F18
sS'e'
F16.666666666666668
sg39
I383
sS'pos'
p204
I4
sg198
F0
sS'r'
F50
sg40
S'Chittagong'
p205
sS'w'
F0
sg42
g43
((I2014
I3
I24
I0
I0
I0
I0
I83
I-1
t(dtRp206
sg37
S'New Zealand'
p207
sa(dp208
g36
I1
sS'b'
F24
sS'e'
F7.75
sg39
I379
sg204
I3
sg198
F0
sS'r'
F31
sg40
S'Chittagong'
p209
sS'w'
F2
sg42
g43
((I2014
I3
I22
I0
I0
I0
I5
I81
I-1
t(dtRp210
sg37
S'Sri Lanka'
p211
sa(dp212
g36
I1
sS'b'
F24
sS'e'
F9.25
sg39
I343
sg204
I1
sg198
F0
sS'r'
F37
sg40
S'Cape Town'
p213
sS'w'
F0
sg42
g43
((I2013
I11
I22
I0
I0
I0
I4
I326
I-1
t(dtRp214
sg37
S'Pakistan'
p215
sa(dp216
g36
I2
sS'b'
F6
sS'e'
F10
sg39
I340
sg204
I3
sg198
F0
sS'r'
F10
sg40
S'Johannesburg'
p217
sS'w'
F0
sg42
g43
((I2013
I11
I20
I0
I0
I0
I2
I324
I-1
t(dtRp218
sg37
S'Pakistan'
p219
sa(dp220
g36
I2
sS'b'
F19
sS'e'
F10.421052631578947
sg39
I325
sg204
I2
sg198
F0
sS'r'
F33
sg40
S'Hambantota'
p221
sS'w'
F0
sg42
g43
((I2013
I8
I6
I0
I0
I0
I1
I218
I-1
t(dtRp222
sg37
S'Sri Lanka'
p223
sa(dp224
g36
I2
sS'b'
F24
sS'e'
F8.5
sg39
I324
sg204
I2
sg198
F0
sS'r'
F34
sg40
S'Hambantota'
p225
sS'w'
F2
sg42
g43
((I2013
I8
I4
I0
I0
I0
I6
I216
I-1
t(dtRp226
sg37
S'Sri Lanka'
p227
sa(dp228
g36
I2
sS'b'
F24
sS'e'
F7
sg39
I323
sg204
I2
sg198
F0
sS'r'
F28
sg40
S'Colombo (RPS)'
p229
sS'w'
F2
sg42
g43
((I2013
I8
I2
I0
I0
I0
I4
I214
I-1
t(dtRp230
sg37
S'Sri Lanka'
p231
sa(dp232
g36
I2
sS'b'
F24
sS'e'
F9.25
sg39
I297
sg204
I3
sg198
F0
sS'r'
F37
sg40
S'Port Elizabeth'
p233
sS'w'
F0
sg42
g43
((I2012
I12
I26
I0
I0
I0
I2
I361
I-1
t(dtRp234
sg37
S'New Zealand'
p235
sa(dp236
g36
I2
sS'b'
F24
sS'e'
F7.25
sg39
I295
sg204
I2
sg198
F0
sS'r'
F29
sg40
S'East London'
p237
sS'w'
F0
sg42
g43
((I2012
I12
I23
I0
I0
I0
I6
I358
I-1
t(dtRp238
sg37
S'New Zealand'
p239
sa(dp240
g36
I1
sS'b'
F24
sS'e'
F7
sg39
I286
sg204
I2
sg198
F0
sS'r'
F28
sg40
S'Colombo (RPS)'
p241
sS'w'
F2
sg42
g43
((I2012
I10
I2
I0
I0
I0
I1
I276
I-1
t(dtRp242
sg37
S'India'
p243
sa(dp244
g36
I2
sS'b'
F18
sS'e'
F7.666666666666667
sg39
I281
sg204
I2
sg198
F0
sS'r'
F23
sg40
S'Colombo (RPS)'
p245
sS'w'
F1
sg42
g43
((I2012
I9
I30
I0
I0
I0
I6
I274
I-1
t(dtRp246
sg37
S'Australia'
p247
sa(dp248
g36
I2
sS'b'
F22
sS'e'
F9
sg39
I277
sg204
I2
sg198
F0
sS'r'
F33
sg40
S'Colombo (RPS)'
p249
sS'w'
F0
sg42
g43
((I2012
I9
I28
I0
I0
I0
I4
I272
I-1
t(dtRp250
sg37
S'Pakistan'
p251
sa(dp252
g36
I2
sS'b'
F12
sS'e'
F4.5
sg39
I269
sg204
I1
sg198
F0
sS'r'
F9
sg40
S'Hambantota'
p253
sS'w'
F0
sg42
g43
((I2012
I9
I22
I0
I0
I0
I5
I266
I-1
t(dtRp254
sg37
S'Sri Lanka'
p255
sa(dp256
g36
I1
sS'b'
F24
sS'e'
F4
sg39
I266
sg204
I2
sg198
F0
sS'r'
F16
sg40
S'Hambantota'
p257
sS'w'
F2
sg42
g43
((I2012
I9
I20
I0
I0
I0
I3
I264
I-1
t(dtRp258
sg37
S'Zimbabwe'
p259
sa(dp260
g36
I1
sS'b'
F12
sS'e'
F14
sg39
I262
sg204
I1
sg198
F0
sS'r'
F28
sg40
S'Birmingham'
p261
sS'w'
F2
sg42
g43
((I2012
I9
I12
I0
I0
I0
I2
I256
I-1
t(dtRp262
sg37
S'England'
p263
sa(dp264
g36
I2
sS'b'
F12
sS'e'
F4
sg39
I260
sg204
I1
sg198
F0
sS'r'
F8
sg40
S'Manchester'
p265
sS'w'
F0
sg42
g43
((I2012
I9
I10
I0
I0
I0
I0
I254
I-1
t(dtRp266
sg37
S'England'
p267
sa(dp268
g36
I2
sS'b'
F24
sS'e'
F7.75
sg39
I223
sg204
I4
sg198
F0
sS'r'
F31
sg40
S'Auckland'
p269
sS'w'
F2
sg42
g43
((I2012
I2
I22
I0
I0
I0
I2
I53
I-1
t(dtRp270
sg37
S'New Zealand'
p271
sa(dp272
g36
I1
sS'b'
F24
sS'e'
F9.5
sg39
I222
sg204
I3
sg198
F0
sS'r'
F38
sg40
S'Hamilton'
p273
sS'w'
F1
sg42
g43
((I2012
I2
I19
I0
I0
I0
I6
I50
I-1
t(dtRp274
sg37
S'New Zealand'
p275
sa(dp276
g36
I2
sS'b'
F24
sS'e'
F6.5
sg39
I221
sg204
I3
sg198
F1
sS'r'
F26
sg40
S'Wellington'
p277
sS'w'
F1
sg42
g43
((I2012
I2
I17
I0
I0
I0
I4
I48
I-1
t(dtRp278
sg37
S'New Zealand'
p279
sa(dp280
g36
I1
sS'b'
F24
sS'e'
F9.25
sg39
I212
sg204
I2
sg198
F0
sS'r'
F37
sg40
S'Johannesburg'
p281
sS'w'
F2
sg42
g43
((I2011
I10
I16
I0
I0
I0
I6
I289
I-1
t(dtRp282
sg37
S'Australia'
p283
sa(dp284
g36
I2
sS'b'
F24
sS'e'
F6
sg39
I210
sg204
I2
sg198
F0
sS'r'
F24
sg40
S'Cape Town'
p285
sS'w'
F1
sg42
g43
((I2011
I10
I13
I0
I0
I0
I3
I286
I-1
t(dtRp286
sg37
S'Australia'
p287
sa(dp288
g36
I1
sS'b'
F24
sS'e'
F5.5
sg39
I191
sg204
I3
sg198
F1
sS'r'
F22
sg40
S'Abu Dhabi'
p289
sS'w'
F1
sg42
g43
((I2010
I10
I27
I0
I0
I0
I2
I300
I-1
t(dtRp290
sg37
S'Pakistan'
p291
sa(dp292
g36
I1
sS'b'
F24
sS'e'
F4.5
sg39
I190
sg204
I3
sg198
F1
sS'r'
F18
sg40
S'Abu Dhabi'
p293
sS'w'
F1
sg42
g43
((I2010
I10
I26
I0
I0
I0
I1
I299
I-1
t(dtRp294
sg37
S'Pakistan'
p295
sa(dp296
g36
I1
sS'b'
F12
sS'e'
F4.5
sg39
I188
sg204
I1
sg198
F0
sS'r'
F9
sg40
S'Bloemfontein'
p297
sS'w'
F0
sg42
g43
((I2010
I10
I8
I0
I0
I0
I4
I281
I-1
t(dtRp298
sg37
S'Zimbabwe'
p299
sa(dp300
g36
I2
sS'b'
F24
sS'e'
F3.75
sg39
I179
sg204
I3
sg198
F0
sS'r'
F15
sg40
S'North Sound'
p301
sS'w'
F2
sg42
g43
((I2010
I5
I20
I0
I0
I0
I3
I140
I-1
t(dtRp302
sg37
S'West Indies'
p303
sa(dp304
g36
I1
sS'b'
F24
sS'e'
F10
sg39
I168
sg204
I3
sg198
F0
sS'r'
F40
sg40
S'Bridgetown'
p305
sS'w'
F2
sg42
g43
((I2010
I5
I8
I0
I0
I0
I5
I128
I-1
t(dtRp306
sg37
S'England'
p307
sa(dp308
g36
I2
sS'b'
F24
sS'e'
F6.75
sg39
I164
sg204
I3
sg198
F0
sS'r'
F27
sg40
S'Bridgetown'
p309
sS'w'
F2
sg42
g43
((I2010
I5
I6
I0
I0
I0
I3
I126
I-1
t(dtRp310
sg37
S'New Zealand'
p311
sa(dp312
g36
I2
sS'b'
F18
sS'e'
F6.666666666666667
sg39
I162
sg204
I3
sg198
F0
sS'r'
F20
sg40
S'Bridgetown'
p313
sS'w'
F4
sg42
g43
((I2010
I5
I5
I0
I0
I0
I2
I125
I-1
t(dtRp314
sg37
S'Afghanistan'
p315
sa(dp316
g36
I1
sS'b'
F24
sS'e'
F8
sg39
I155
sg204
I3
sg198
F0
sS'r'
F32
sg40
S'Gros Islet'
p317
sS'w'
F0
sg42
g43
((I2010
I5
I2
I0
I0
I0
I6
I122
I-1
t(dtRp318
sg37
S'India'
p319
sa(dp320
g36
I2
sS'b'
F24
sS'e'
F5.75
sg39
I113
sg204
I3
sg198
F0
sS'r'
F23
sg40
S'Nottingham'
p321
sS'w'
F0
sg42
g43
((I2009
I6
I16
I0
I0
I0
I1
I167
I-1
t(dtRp322
sg37
S'India'
p323
sa(dp324
g36
I2
sS'b'
F23
sS'e'
F8.3478260869565215
sg39
I81
sg204
I4
sg198
F0
sS'r'
F32
sg40
S'Brisbane'
p325
sS'w'
F2
sg42
g43
((I2009
I1
I13
I0
I0
I0
I1
I13
I-1
t(dtRp326
sg37
S'Australia'
p327
sa(dp328
g36
I2
sS'b'
F12
sS'e'
F7.5
sg39
I77
sg204
I4
sg198
F0
sS'r'
F15
sg40
S'Johannesburg'
p329
sS'w'
F1
sg42
g43
((I2008
I11
I5
I0
I0
I0
I2
I310
I-1
t(dtRp330
sg37
S'Bangladesh'
p331
sa(dp332
g36
I1
sS'b'
F24
sS'e'
F5.5
sg39
I51
sg204
I4
sg198
F0
sS'r'
F22
sg40
S'Johannesburg'
p333
sS'w'
F1
sg42
g43
((I2008
I1
I18
I0
I0
I0
I4
I18
I-1
t(dtRp334
sg37
S'West Indies'
p335
sa(dp336
g36
I1
sS'b'
F24
sS'e'
F8
sg39
I43
sg204
I4
sg198
F0
sS'r'
F32
sg40
S'Durban'
p337
sS'w'
F1
sg42
g43
((I2007
I9
I20
I0
I0
I0
I3
I263
I-1
t(dtRp338
sg37
S'India'
p339
sa(dp340
g36
I1
sS'b'
F24
sS'e'
F4.25
sg39
I39
sg204
I3
sg198
F0
sS'r'
F17
sg40
S'Durban'
p341
sS'w'
F4
sg42
g43
((I2007
I9
I19
I0
I0
I0
I2
I262
I-1
t(dtRp342
sg37
S'New Zealand'
p343
sa(dp344
g36
I2
sS'b'
F24
sS'e'
F5
sg39
I34
sg204
I3
sg198
F0
sS'r'
F20
sg40
S'Cape Town'
p345
sS'w'
F1
sg42
g43
((I2007
I9
I16
I0
I0
I0
I6
I259
I-1
t(dtRp346
sg37
S'England'
p347
sa(dp348
g36
I1
sS'b'
F24
sS'e'
F5.25
sg39
I31
sg204
I3
sg198
F0
sS'r'
F21
sg40
S'Cape Town'
p349
sS'w'
F2
sg42
g43
((I2007
I9
I15
I0
I0
I0
I5
I258
I-1
t(dtRp350
sg37
S'Bangladesh'
p351
sa(dp352
g36
I1
sS'b'
F24
sS'e'
F7.5
sg39
I20
sg204
I4
sg198
F0
sS'r'
F30
sg40
S'Johannesburg'
p353
sS'w'
F1
sg42
g43
((I2007
I9
I11
I0
I0
I0
I1
I254
I-1
t(dtRp354
sg37
S'West Indies'
p355
satp356
sS'battingStats'
p357
((dp358
S'a'
F8
sS'0s'
p359
F0
sS'b'
F13
sS'no'
p360
F3
sg30
F2007
sS'hs'
p361
F8
sS'm'
F38
sS'4s'
p362
F2
sg33
F2014
sS'i'
F5
sS'6s'
p363
F1
sg196
F123.07692307692308
sS'r'
F16
sS'100s'
p364
F0
sS'50s'
p365
F0
s(lp366
(dp367
g36
I2
sS'b'
F0
sg37
S'Sri Lanka'
p368
sg360
I01
sg196
F0
sg39
I379
sS'dismiss'
p369
S'not out'
p370
sg362
F0
sg204
I9
sg363
F0
sg40
S'Chittagong'
p371
sg42
g43
((I2014
I3
I22
I0
I0
I0
I5
I81
I-1
t(dtRp372
sS'r'
F0
sS'minutes'
p373
F4
sa(dp374
g36
I1
sS'b'
F5
sg37
S'Pakistan'
p375
sg360
I01
sg196
F160
sg39
I340
sg369
S'not out'
p376
sg362
F2
sg204
I9
sg363
F0
sg40
S'Johannesburg'
p377
sg42
g43
((I2013
I11
I20
I0
I0
I0
I2
I324
I-1
t(dtRp378
sS'r'
F8
sg373
F5
sa(dp379
g36
I2
sS'b'
F3
sg37
S'India'
p380
sg196
F200
sg39
I286
sg369
S'bowled'
p381
sg362
F0
sg204
I11
sg363
F1
sg40
S'Colombo (RPS)'
p382
sg42
g43
((I2012
I10
I2
I0
I0
I0
I1
I276
I-1
t(dtRp383
sS'r'
F6
sg373
F2
sa(dp384
g36
I2
sS'b'
F2
sg37
S'England'
p385
sg196
F50
sg39
I168
sg369
S'bowled'
p386
sg362
F0
sg204
I10
sg363
F0
sg40
S'Bridgetown'
p387
sg42
g43
((I2010
I5
I8
I0
I0
I0
I5
I128
I-1
t(dtRp388
sS'r'
F1
sg373
F4
sa(dp389
g36
I2
sS'b'
F3
sg37
S'India'
p390
sg360
I01
sg196
F33.333333333333336
sg39
I43
sg369
S'not out'
p391
sg362
F0
sg204
I10
sg363
F0
sg40
S'Durban'
p392
sg42
g43
((I2007
I9
I20
I0
I0
I0
I3
I263
I-1
t(dtRp393
sS'r'
F1
sg373
F6
satp394
ssS'all'
p395
(dp396
g27
(dp397
S'c'
F17
sg29
F0
sS'i'
F124
sS'm'
F124
sS's'
F0
sg31
F17
sg32
F17
ssg194
(dp398
S'a'
F23.741007194244606
sS'b'
F2713
sS'e'
F7.2981938813122005
sS'i'
F122
sg196
F19.517985611510792
sg197
F0
sS'm'
F124
sg198
F0
sS'r'
F3300
sS'w'
F139
sg199
F4
sg200
F17
sg201
F4
ssg357
(dp399
S'a'
F9.2631578947368425
sg359
F-1
sS'b'
F150
sg360
F17
sS'i'
F36
sg361
F23
sS'm'
F124
sg362
F15
sg363
F7
sg196
F117.33333333333333
sS'r'
F176
sg364
F0
sg365
F0
ssssb.