(iplayer
Player
p1
(dp2
S'is_batsman'
p3
I01
sS'name'
p4
S'David Warner'
p5
sS'dob'
p6
S'1986/10/27'
p7
sS'price'
p8
S'1000000'
p9
sS'is_allrounder'
p10
I00
sS'espnid'
p11
S'219889'
p12
sS'is_overseas'
p13
I01
sS'team'
p14
S'SRH'
p15
sS'nationality'
p16
S'Australian'
p17
sS'is_bowler'
p18
I00
sS'is_keeper'
p19
I00
sS'id'
p20
S'170'
p21
sS'is_uncapped'
p22
I00
sS'tournamentStats'
p23
(dp24
S'international'
p25
(dp26
S'fieldingStats'
p27
((dp28
S'c'
F28
sS'ctw'
p29
F0
sS'span_s'
p30
F2009
sS'm'
F51
sS's'
F0
sS'dismissals'
p31
F28
sS'i'
F51
sS'ctf'
p32
F28
sS'span_f'
p33
F2014
s(lp34
(dp35
S'inning'
p36
I1
sS'c'
F0
sg29
F0
sS'opp'
p37
S'Bangladesh'
p38
sS't20i_num'
p39
I396
sg32
F0
sg31
F0
sS's'
F0
sS'place'
p40
S'Dhaka'
p41
sS'date'
p42
ctime
struct_time
p43
((I2014
I4
I1
I0
I0
I0
I1
I91
I-1
t(dtRp44
sa(dp45
g36
I1
sS'c'
F0
sg29
F0
sg37
S'India'
p46
sg39
I393
sg32
F0
sg31
F0
sS's'
F0
sg40
S'Dhaka'
p47
sg42
g43
((I2014
I3
I30
I0
I0
I0
I6
I89
I-1
t(dtRp48
sa(dp49
g36
I2
sS'c'
F0
sg29
F0
sg37
S'West Indies'
p50
sg39
I388
sg32
F0
sg31
F0
sS's'
F0
sg40
S'Dhaka'
p51
sg42
g43
((I2014
I3
I28
I0
I0
I0
I4
I87
I-1
t(dtRp52
sa(dp53
g36
I1
sS'c'
F1
sg29
F0
sg37
S'Pakistan'
p54
sg39
I381
sg32
F1
sg31
F1
sS's'
F0
sg40
S'Dhaka'
p55
sg42
g43
((I2014
I3
I23
I0
I0
I0
I6
I82
I-1
t(dtRp56
sa(dp57
g36
I1
sS'c'
F0
sg29
F0
sg37
S'South Africa'
p58
sg39
I363
sg32
F0
sg31
F0
sS's'
F0
sg40
S'Durban'
p59
sg42
g43
((I2014
I3
I12
I0
I0
I0
I2
I71
I-1
t(dtRp60
sa(dp61
g36
I1
sS'c'
F1
sg29
F0
sg37
S'England'
p62
sg39
I329
sg32
F1
sg31
F1
sS's'
F0
sg40
S'Chester-le-Street'
p63
sg42
g43
((I2013
I8
I31
I0
I0
I0
I5
I243
I-1
t(dtRp64
sa(dp65
g36
I2
sS'c'
F1
sg29
F0
sg37
S'England'
p66
sg39
I328
sg32
F1
sg31
F1
sS's'
F0
sg40
S'Southampton'
p67
sg42
g43
((I2013
I8
I29
I0
I0
I0
I3
I241
I-1
t(dtRp68
sa(dp69
g36
I1
sS'c'
F0
sg29
F0
sg37
S'Sri Lanka'
p70
sg39
I300
sg32
F0
sg31
F0
sS's'
F0
sg40
S'Melbourne'
p71
sg42
g43
((I2013
I1
I28
I0
I0
I0
I0
I28
I-1
t(dtRp72
sa(dp73
g36
I2
sS'c'
F0
sg29
F0
sg37
S'Sri Lanka'
p74
sg39
I299
sg32
F0
sg31
F0
sS's'
F0
sg40
S'Sydney'
p75
sg42
g43
((I2013
I1
I26
I0
I0
I0
I5
I26
I-1
t(dtRp76
sa(dp77
g36
I1
sS'c'
F1
sg29
F0
sg37
S'West Indies'
p78
sg39
I288
sg32
F1
sg31
F1
sS's'
F0
sg40
S'Colombo (RPS)'
p79
sg42
g43
((I2012
I10
I5
I0
I0
I0
I4
I279
I-1
t(dtRp80
sa(dp81
g36
I1
sS'c'
F1
sg29
F0
sg37
S'Pakistan'
p82
sg39
I285
sg32
F1
sg31
F1
sS's'
F0
sg40
S'Colombo (RPS)'
p83
sg42
g43
((I2012
I10
I2
I0
I0
I0
I1
I276
I-1
t(dtRp84
sa(dp85
g36
I1
sS'c'
F0
sg29
F0
sg37
S'South Africa'
p86
sg39
I281
sg32
F0
sg31
F0
sS's'
F0
sg40
S'Colombo (RPS)'
p87
sg42
g43
((I2012
I9
I30
I0
I0
I0
I6
I274
I-1
t(dtRp88
sa(dp89
g36
I1
sS'c'
F0
sg29
F0
sg37
S'India'
p90
sg39
I278
sg32
F0
sg31
F0
sS's'
F0
sg40
S'Colombo (RPS)'
p91
sg42
g43
((I2012
I9
I28
I0
I0
I0
I4
I272
I-1
t(dtRp92
sa(dp93
g36
I1
sS'c'
F2
sg29
F0
sg37
S'West Indies'
p94
sg39
I270
sg32
F2
sg31
F2
sS's'
F0
sg40
S'Colombo (RPS)'
p95
sg42
g43
((I2012
I9
I22
I0
I0
I0
I5
I266
I-1
t(dtRp96
sa(dp97
g36
I1
sS'c'
F1
sg29
F0
sg37
S'Ireland'
p98
sg39
I264
sg32
F1
sg31
F1
sS's'
F0
sg40
S'Colombo (RPS)'
p99
sg42
g43
((I2012
I9
I19
I0
I0
I0
I2
I263
I-1
t(dtRp100
sa(dp101
g36
I2
sS'c'
F0
sg29
F0
sg37
S'Pakistan'
p102
sg39
I259
sg32
F0
sg31
F0
sS's'
F0
sg40
S'Dubai (DSC)'
p103
sg42
g43
((I2012
I9
I10
I0
I0
I0
I0
I254
I-1
t(dtRp104
sa(dp105
g36
I1
sS'c'
F1
sg29
F0
sg37
S'Pakistan'
p106
sg39
I257
sg32
F1
sg31
F1
sS's'
F0
sg40
S'Dubai (DSC)'
p107
sg42
g43
((I2012
I9
I7
I0
I0
I0
I4
I251
I-1
t(dtRp108
sa(dp109
g36
I2
sS'c'
F0
sg29
F0
sg37
S'Pakistan'
p110
sg39
I256
sg32
F0
sg31
F0
sS's'
F0
sg40
S'Dubai (DSC)'
p111
sg42
g43
((I2012
I9
I5
I0
I0
I0
I2
I249
I-1
t(dtRp112
sa(dp113
g36
I1
sS'c'
F1
sg29
F0
sg37
S'West Indies'
p114
sg39
I243
sg32
F1
sg31
F1
sS's'
F0
sg40
S'Bridgetown'
p115
sg42
g43
((I2012
I3
I30
I0
I0
I0
I4
I90
I-1
t(dtRp116
sa(dp117
g36
I1
sS'c'
F0
sg29
F0
sg37
S'West Indies'
p118
sg39
I241
sg32
F0
sg31
F0
sS's'
F0
sg40
S'Gros Islet'
p119
sg42
g43
((I2012
I3
I27
I0
I0
I0
I1
I87
I-1
t(dtRp120
sa(dp121
g36
I2
sS'c'
F0
sg29
F0
sg37
S'India'
p122
sg39
I218
sg32
F0
sg31
F0
sS's'
F0
sg40
S'Melbourne'
p123
sg42
g43
((I2012
I2
I3
I0
I0
I0
I4
I34
I-1
t(dtRp124
sa(dp125
g36
I2
sS'c'
F2
sg29
F0
sg37
S'India'
p126
sg39
I217
sg32
F2
sg31
F2
sS's'
F0
sg40
S'Sydney'
p127
sg42
g43
((I2012
I2
I1
I0
I0
I0
I2
I32
I-1
t(dtRp128
sa(dp129
g36
I2
sS'c'
F0
sg29
F0
sg37
S'South Africa'
p130
sg39
I212
sg32
F0
sg31
F0
sS's'
F0
sg40
S'Johannesburg'
p131
sg42
g43
((I2011
I10
I16
I0
I0
I0
I6
I289
I-1
t(dtRp132
sa(dp133
g36
I1
sS'c'
F1
sg29
F0
sg37
S'South Africa'
p134
sg39
I210
sg32
F1
sg31
F1
sS's'
F0
sg40
S'Cape Town'
p135
sg42
g43
((I2011
I10
I13
I0
I0
I0
I3
I286
I-1
t(dtRp136
sa(dp137
g36
I1
sS'c'
F0
sg29
F0
sg37
S'Sri Lanka'
p138
sg39
I203
sg32
F0
sg31
F0
sS's'
F0
sg40
S'Pallekele'
p139
sg42
g43
((I2011
I8
I8
I0
I0
I0
I0
I220
I-1
t(dtRp140
sa(dp141
g36
I1
sS'c'
F0
sg29
F0
sg37
S'Sri Lanka'
p142
sg39
I202
sg32
F0
sg31
F0
sS's'
F0
sg40
S'Pallekele'
p143
sg42
g43
((I2011
I8
I6
I0
I0
I0
I5
I218
I-1
t(dtRp144
sa(dp145
g36
I2
sS'c'
F2
sg29
F0
sg37
S'England'
p146
sg39
I198
sg32
F2
sg31
F2
sS's'
F0
sg40
S'Melbourne'
p147
sg42
g43
((I2011
I1
I14
I0
I0
I0
I4
I14
I-1
t(dtRp148
sa(dp149
g36
I2
sS'c'
F0
sg29
F0
sg37
S'England'
p150
sg39
I197
sg32
F0
sg31
F0
sS's'
F0
sg40
S'Adelaide'
p151
sg42
g43
((I2011
I1
I12
I0
I0
I0
I2
I12
I-1
t(dtRp152
sa(dp153
g36
I2
sS'c'
F0
sg29
F0
sg37
S'Sri Lanka'
p154
sg39
I192
sg32
F0
sg31
F0
sS's'
F0
sg40
S'Perth'
p155
sg42
g43
((I2010
I10
I31
I0
I0
I0
I6
I304
I-1
t(dtRp156
sa(dp157
g36
I1
sS'c'
F0
sg29
F0
sg37
S'Pakistan'
p158
sg39
I185
sg32
F0
sg31
F0
sS's'
F0
sg40
S'Birmingham'
p159
sg42
g43
((I2010
I7
I6
I0
I0
I0
I1
I187
I-1
t(dtRp160
sa(dp161
g36
I1
sS'c'
F1
sg29
F0
sg37
S'Pakistan'
p162
sg39
I184
sg32
F1
sg31
F1
sS's'
F0
sg40
S'Birmingham'
p163
sg42
g43
((I2010
I7
I5
I0
I0
I0
I0
I186
I-1
t(dtRp164
sa(dp165
g36
I2
sS'c'
F1
sg29
F0
sg37
S'England'
p166
sg39
I177
sg32
F1
sg31
F1
sS's'
F0
sg40
S'Bridgetown'
p167
sg42
g43
((I2010
I5
I16
I0
I0
I0
I6
I136
I-1
t(dtRp168
sa(dp169
g36
I1
sS'c'
F3
sg29
F0
sg37
S'Pakistan'
p170
sg39
I176
sg32
F3
sg31
F3
sS's'
F0
sg40
S'Gros Islet'
p171
sg42
g43
((I2010
I5
I14
I0
I0
I0
I4
I134
I-1
t(dtRp172
sa(dp173
g36
I1
sS'c'
F1
sg29
F0
sg37
S'West Indies'
p174
sg39
I174
sg32
F1
sg31
F1
sS's'
F0
sg40
S'Gros Islet'
p175
sg42
g43
((I2010
I5
I11
I0
I0
I0
I1
I131
I-1
t(dtRp176
sa(dp177
g36
I2
sS'c'
F0
sg29
F0
sg37
S'Sri Lanka'
p178
sg39
I170
sg32
F0
sg31
F0
sS's'
F0
sg40
S'Bridgetown'
p179
sg42
g43
((I2010
I5
I9
I0
I0
I0
I6
I129
I-1
t(dtRp180
sa(dp181
g36
I2
sS'c'
F1
sg29
F0
sg37
S'India'
p182
sg39
I165
sg32
F1
sg31
F1
sS's'
F0
sg40
S'Bridgetown'
p183
sg42
g43
((I2010
I5
I7
I0
I0
I0
I4
I127
I-1
t(dtRp184
sa(dp185
g36
I2
sS'c'
F1
sg29
F0
sg37
S'Bangladesh'
p186
sg39
I161
sg32
F1
sg31
F1
sS's'
F0
sg40
S'Bridgetown'
p187
sg42
g43
((I2010
I5
I5
I0
I0
I0
I2
I125
I-1
t(dtRp188
sa(dp189
g36
I2
sS'c'
F1
sg29
F0
sg37
S'Pakistan'
p190
sg39
I156
sg32
F1
sg31
F1
sS's'
F0
sg40
S'Gros Islet'
p191
sg42
g43
((I2010
I5
I2
I0
I0
I0
I6
I122
I-1
t(dtRp192
sa(dp193
g36
I1
sS'c'
F0
sg29
F0
sg37
S'New Zealand'
p194
sg39
I149
sg32
F0
sg31
F0
sS's'
F0
sg40
S'Christchurch'
p195
sg42
g43
((I2010
I2
I28
I0
I0
I0
I6
I59
I-1
t(dtRp196
sa(dp197
g36
I1
sS'c'
F0
sg29
F0
sg37
S'New Zealand'
p198
sg39
I148
sg32
F0
sg31
F0
sS's'
F0
sg40
S'Wellington'
p199
sg42
g43
((I2010
I2
I26
I0
I0
I0
I4
I57
I-1
t(dtRp200
sa(dp201
g36
I1
sS'c'
F2
sg29
F0
sg37
S'West Indies'
p202
sg39
I147
sg32
F2
sg31
F2
sS's'
F0
sg40
S'Sydney'
p203
sg42
g43
((I2010
I2
I23
I0
I0
I0
I1
I54
I-1
t(dtRp204
sa(dp205
g36
I2
sS'c'
F0
sg29
F0
sg37
S'West Indies'
p206
sg39
I146
sg32
F0
sg31
F0
sS's'
F0
sg40
S'Hobart'
p207
sg42
g43
((I2010
I2
I21
I0
I0
I0
I6
I52
I-1
t(dtRp208
sa(dp209
g36
I2
sS'c'
F1
sg29
F0
sg37
S'Pakistan'
p210
sg39
I134
sg32
F1
sg31
F1
sS's'
F0
sg40
S'Melbourne'
p211
sg42
g43
((I2010
I2
I5
I0
I0
I0
I4
I36
I-1
t(dtRp212
sa(dp213
g36
I2
sS'c'
F0
sg29
F0
sg37
S'England'
p214
sg39
I119
sg32
F0
sg31
F0
sS's'
F0
sg40
S'Manchester'
p215
sg42
g43
((I2009
I8
I30
I0
I0
I0
I6
I242
I-1
t(dtRp216
sa(dp217
g36
I2
sS'c'
F1
sg29
F0
sg37
S'Sri Lanka'
p218
sg39
I97
sg32
F1
sg31
F1
sS's'
F0
sg40
S'Nottingham'
p219
sg42
g43
((I2009
I6
I8
I0
I0
I0
I0
I159
I-1
t(dtRp220
sa(dp221
g36
I2
sS'c'
F0
sg29
F0
sg37
S'West Indies'
p222
sg39
I92
sg32
F0
sg31
F0
sS's'
F0
sg40
S'The Oval'
p223
sg42
g43
((I2009
I6
I6
I0
I0
I0
I5
I157
I-1
t(dtRp224
sa(dp225
g36
I1
sS'c'
F0
sg29
F0
sg37
S'South Africa'
p226
sg39
I88
sg32
F0
sg31
F0
sS's'
F0
sg40
S'Centurion'
p227
sg42
g43
((I2009
I3
I29
I0
I0
I0
I6
I88
I-1
t(dtRp228
sa(dp229
g36
I2
sS'c'
F0
sg29
F0
sg37
S'South Africa'
p230
sg39
I87
sg32
F0
sg31
F0
sS's'
F0
sg40
S'Johannesburg'
p231
sg42
g43
((I2009
I3
I27
I0
I0
I0
I4
I86
I-1
t(dtRp232
sa(dp233
g36
I2
sS'c'
F0
sg29
F0
sg37
S'New Zealand'
p234
sg39
I83
sg32
F0
sg31
F0
sS's'
F0
sg40
S'Sydney'
p235
sg42
g43
((I2009
I2
I15
I0
I0
I0
I6
I46
I-1
t(dtRp236
sa(dp237
g36
I1
sS'c'
F0
sg29
F0
sg37
S'South Africa'
p238
sg39
I81
sg32
F0
sg31
F0
sS's'
F0
sg40
S'Brisbane'
p239
sg42
g43
((I2009
I1
I13
I0
I0
I0
I1
I13
I-1
t(dtRp240
sa(dp241
g36
I2
sS'c'
F0
sg29
F0
sg37
S'South Africa'
p242
sg39
I80
sg32
F0
sg31
F0
sS's'
F0
sg40
S'Melbourne'
p243
sg42
g43
((I2009
I1
I11
I0
I0
I0
I6
I11
I-1
t(dtRp244
satp245
sS'bowlingStats'
p246
((dp247
S'a'
F-1
sS'b'
F0
sS'e'
F-1
sS'i'
F0
sS'sr'
p248
F-1
sS'5w'
p249
F0
sS'm'
F51
sS'maid'
p250
F0
sS'r'
F0
sS'w'
F0
sS'4w'
p251
F0
sS'bbir'
p252
F-1
sS'bbiw'
p253
F-1
sg33
F2014
sg30
F2009
s(ltp254
sS'battingStats'
p255
((dp256
S'a'
F28.387755102040817
sS'0s'
p257
F5
sS'b'
F1001
sS'no'
p258
F2
sg30
F2009
sS'hs'
p259
F90
sS'm'
F51
sS'4s'
p260
F133
sg33
F2014
sS'i'
F51
sS'6s'
p261
F63
sg248
F138.96103896103895
sS'r'
F1391
sS'100s'
p262
F0
sS'50s'
p263
F10
s(lp264
(dp265
g36
I2
sS'b'
F35
sg37
S'Bangladesh'
p266
sg248
F137.14285714285714
sg39
I396
sS'dismiss'
p267
S'bowled'
p268
sg260
F5
sS'pos'
p269
I2
sg261
F3
sg40
S'Dhaka'
p270
sg42
g43
((I2014
I4
I1
I0
I0
I0
I1
I91
I-1
t(dtRp271
sS'r'
F48
sS'minutes'
p272
F43
sa(dp273
g36
I2
sS'b'
F21
sg37
S'India'
p274
sg248
F90.476190476190482
sg39
I393
sg267
S'caught'
p275
sg260
F1
sg269
I2
sg261
F1
sg40
S'Dhaka'
p276
sg42
g43
((I2014
I3
I30
I0
I0
I0
I6
I89
I-1
t(dtRp277
sS'r'
F19
sg272
F33
sa(dp278
g36
I1
sS'b'
F14
sg37
S'West Indies'
p279
sg248
F142.85714285714286
sg39
I388
sg267
S'bowled'
p280
sg260
F4
sg269
I2
sg261
F0
sg40
S'Dhaka'
p281
sg42
g43
((I2014
I3
I28
I0
I0
I0
I4
I87
I-1
t(dtRp282
sS'r'
F20
sg272
F21
sa(dp283
g36
I2
sS'b'
F2
sg37
S'Pakistan'
p284
sg248
F200
sg39
I381
sg267
S'bowled'
p285
sg260
F1
sg269
I1
sg261
F0
sg40
S'Dhaka'
p286
sg42
g43
((I2014
I3
I23
I0
I0
I0
I6
I82
I-1
t(dtRp287
sS'r'
F4
sg272
F1
sa(dp288
g36
I2
sS'b'
F16
sg37
S'South Africa'
p289
sg248
F250
sg39
I363
sg267
S'lbw'
p290
sg260
F5
sg269
I2
sg261
F2
sg40
S'Durban'
p291
sg42
g43
((I2014
I3
I12
I0
I0
I0
I2
I71
I-1
t(dtRp292
sS'r'
F40
sg272
F22
sa(dp293
g36
I2
sS'b'
F42
sg37
S'England'
p294
sg248
F126.19047619047619
sg39
I329
sg267
S'caught'
p295
sg260
F5
sg269
I1
sg261
F3
sg40
S'Chester-le-Street'
p296
sg42
g43
((I2013
I8
I31
I0
I0
I0
I5
I243
I-1
t(dtRp297
sS'r'
F53
sg272
F56
sa(dp298
g36
I1
sS'b'
F5
sg37
S'England'
p299
sg248
F20
sg39
I328
sg267
S'caught'
p300
sg260
F0
sg269
I1
sg261
F0
sg40
S'Southampton'
p301
sg42
g43
((I2013
I8
I29
I0
I0
I0
I3
I241
I-1
t(dtRp302
sS'r'
F1
sg272
F6
sa(dp303
g36
I2
sS'b'
F6
sg37
S'Sri Lanka'
p304
sg248
F116.66666666666667
sg39
I300
sg267
S'caught'
p305
sg260
F1
sg269
I2
sg261
F0
sg40
S'Melbourne'
p306
sg42
g43
((I2013
I1
I28
I0
I0
I0
I0
I28
I-1
t(dtRp307
sS'r'
F7
sg272
F5
sa(dp308
g36
I1
sS'b'
F62
sg37
S'Sri Lanka'
p309
sg258
I01
sg248
F145.16129032258064
sg39
I299
sg267
S'not out'
p310
sg260
F5
sg269
I1
sg261
F3
sg40
S'Sydney'
p311
sg42
g43
((I2013
I1
I26
I0
I0
I0
I5
I26
I-1
t(dtRp312
sS'r'
F90
sg272
F91
sa(dp313
g36
I2
sS'b'
F3
sg37
S'West Indies'
p314
sg248
F33.333333333333336
sg39
I288
sg267
S'bowled'
p315
sg260
F0
sg269
I1
sg261
F0
sg40
S'Colombo (RPS)'
p316
sg42
g43
((I2012
I10
I5
I0
I0
I0
I4
I279
I-1
t(dtRp317
sS'r'
F1
sg272
F4
sa(dp318
g36
I2
sS'b'
F13
sg37
S'Pakistan'
p319
sg248
F61.53846153846154
sg39
I285
sg267
S'lbw'
p320
sg260
F1
sg269
I2
sg261
F0
sg40
S'Colombo (RPS)'
p321
sg42
g43
((I2012
I10
I2
I0
I0
I0
I1
I276
I-1
t(dtRp322
sS'r'
F8
sg272
F20
sa(dp323
g36
I2
sS'b'
F9
sg37
S'South Africa'
p324
sg248
F55.555555555555557
sg39
I281
sg267
S'bowled'
p325
sg260
F0
sg269
I1
sg261
F0
sg40
S'Colombo (RPS)'
p326
sg42
g43
((I2012
I9
I30
I0
I0
I0
I6
I274
I-1
t(dtRp327
sS'r'
F5
sg272
F15
sa(dp328
g36
I2
sS'b'
F41
sg37
S'India'
p329
sg258
I01
sg248
F153.65853658536585
sg39
I278
sg267
S'not out'
p330
sg260
F7
sg269
I2
sg261
F3
sg40
S'Colombo (RPS)'
p331
sg42
g43
((I2012
I9
I28
I0
I0
I0
I4
I272
I-1
t(dtRp332
sS'r'
F63
sg272
F60
sa(dp333
g36
I2
sS'b'
F14
sg37
S'West Indies'
p334
sg248
F200
sg39
I270
sg267
S'caught'
p335
sg260
F3
sg269
I1
sg261
F2
sg40
S'Colombo (RPS)'
p336
sg42
g43
((I2012
I9
I22
I0
I0
I0
I5
I266
I-1
t(dtRp337
sS'r'
F28
sg272
F10
sa(dp338
g36
I2
sS'b'
F23
sg37
S'Ireland'
p339
sg248
F113.04347826086956
sg39
I264
sg267
S'caught'
p340
sg260
F4
sg269
I1
sg261
F0
sg40
S'Colombo (RPS)'
p341
sg42
g43
((I2012
I9
I19
I0
I0
I0
I2
I263
I-1
t(dtRp342
sS'r'
F26
sg272
F33
sa(dp343
g36
I1
sS'b'
F34
sg37
S'Pakistan'
p344
sg248
F173.52941176470588
sg39
I259
sg267
S'caught'
p345
sg260
F1
sg269
I1
sg261
F6
sg40
S'Dubai (DSC)'
p346
sg42
g43
((I2012
I9
I10
I0
I0
I0
I0
I254
I-1
t(dtRp347
sS'r'
F59
sg272
F53
sa(dp348
g36
I2
sS'b'
F19
sg37
S'Pakistan'
p349
sg248
F163.15789473684211
sg39
I257
sg267
S'bowled'
p350
sg260
F3
sg269
I1
sg261
F2
sg40
S'Dubai (DSC)'
p351
sg42
g43
((I2012
I9
I7
I0
I0
I0
I4
I251
I-1
t(dtRp352
sS'r'
F31
sg272
F22
sa(dp353
g36
I1
sS'b'
F25
sg37
S'Pakistan'
p354
sg248
F88
sg39
I256
sg267
S'caught'
p355
sg260
F2
sg269
I2
sg261
F0
sg40
S'Dubai (DSC)'
p356
sg42
g43
((I2012
I9
I5
I0
I0
I0
I2
I249
I-1
t(dtRp357
sS'r'
F22
sg272
F40
sa(dp358
g36
I2
sS'b'
F43
sg37
S'West Indies'
p359
sg248
F134.88372093023256
sg39
I243
sg267
S'run out'
p360
sg260
F5
sg269
I1
sg261
F3
sg40
S'Bridgetown'
p361
sg42
g43
((I2012
I3
I30
I0
I0
I0
I4
I90
I-1
t(dtRp362
sS'r'
F58
sg272
F58
sa(dp363
g36
I2
sS'b'
F5
sg37
S'West Indies'
p364
sg248
F0
sg39
I241
sg267
S'bowled'
p365
sg260
F0
sg269
I1
sg261
F0
sg40
S'Gros Islet'
p366
sg42
g43
((I2012
I3
I27
I0
I0
I0
I1
I87
I-1
t(dtRp367
sS'r'
F0
sg272
F-1
sa(dp368
g36
I1
sS'b'
F8
sg37
S'India'
p369
sg248
F100
sg39
I218
sg267
S'caught'
p370
sg260
F1
sg269
I1
sg261
F0
sg40
S'Melbourne'
p371
sg42
g43
((I2012
I2
I3
I0
I0
I0
I4
I34
I-1
t(dtRp372
sS'r'
F8
sg272
F10
sa(dp373
g36
I1
sS'b'
F14
sg37
S'India'
p374
sg248
F178.57142857142858
sg39
I217
sg267
S'caught'
p375
sg260
F1
sg269
I1
sg261
F2
sg40
S'Sydney'
p376
sg42
g43
((I2012
I2
I1
I0
I0
I0
I2
I32
I-1
t(dtRp377
sS'r'
F25
sg272
F16
sa(dp378
g36
I1
sS'b'
F9
sg37
S'South Africa'
p379
sg248
F0
sg39
I212
sg267
S'caught'
p380
sg260
F0
sg269
I1
sg261
F0
sg40
S'Johannesburg'
p381
sg42
g43
((I2011
I10
I16
I0
I0
I0
I6
I289
I-1
t(dtRp382
sS'r'
F0
sg272
F8
sa(dp383
g36
I2
sS'b'
F1
sg37
S'South Africa'
p384
sg248
F0
sg39
I210
sg267
S'run out'
p385
sg260
F0
sg269
I2
sg261
F0
sg40
S'Cape Town'
p386
sg42
g43
((I2011
I10
I13
I0
I0
I0
I3
I286
I-1
t(dtRp387
sS'r'
F0
sg272
F2
sa(dp388
g36
I2
sS'b'
F18
sg37
S'Sri Lanka'
p389
sg248
F88.888888888888886
sg39
I203
sg267
S'caught'
p390
sg260
F2
sg269
I2
sg261
F0
sg40
S'Pallekele'
p391
sg42
g43
((I2011
I8
I8
I0
I0
I0
I0
I220
I-1
t(dtRp392
sS'r'
F16
sg272
F29
sa(dp393
g36
I2
sS'b'
F31
sg37
S'Sri Lanka'
p394
sg248
F170.96774193548387
sg39
I202
sg267
S'caught'
p395
sg260
F6
sg269
I2
sg261
F2
sg40
S'Pallekele'
p396
sg42
g43
((I2011
I8
I6
I0
I0
I0
I5
I218
I-1
t(dtRp397
sS'r'
F53
sg272
F62
sa(dp398
g36
I1
sS'b'
F26
sg37
S'England'
p399
sg248
F115.38461538461539
sg39
I198
sg267
S'caught'
p400
sg260
F3
sg269
I1
sg261
F0
sg40
S'Melbourne'
p401
sg42
g43
((I2011
I1
I14
I0
I0
I0
I4
I14
I-1
t(dtRp402
sS'r'
F30
sg272
F41
sa(dp403
g36
I1
sS'b'
F28
sg37
S'England'
p404
sg248
F107.14285714285714
sg39
I197
sg267
S'caught'
p405
sg260
F5
sg269
I1
sg261
F0
sg40
S'Adelaide'
p406
sg42
g43
((I2011
I1
I12
I0
I0
I0
I2
I12
I-1
t(dtRp407
sS'r'
F30
sg272
F45
sa(dp408
g36
I1
sS'b'
F8
sg37
S'Sri Lanka'
p409
sg248
F25
sg39
I192
sg267
S'caught'
p410
sg260
F0
sg269
I1
sg261
F0
sg40
S'Perth'
p411
sg42
g43
((I2010
I10
I31
I0
I0
I0
I6
I304
I-1
t(dtRp412
sS'r'
F2
sg272
F-1
sa(dp413
g36
I2
sS'b'
F3
sg37
S'Pakistan'
p414
sg248
F33.333333333333336
sg39
I185
sg267
S'lbw'
p415
sg260
F0
sg269
I1
sg261
F0
sg40
S'Birmingham'
p416
sg42
g43
((I2010
I7
I6
I0
I0
I0
I1
I187
I-1
t(dtRp417
sS'r'
F1
sg272
F8
sa(dp418
g36
I2
sS'b'
F31
sg37
S'Pakistan'
p419
sg248
F132.25806451612902
sg39
I184
sg267
S'bowled'
p420
sg260
F6
sg269
I1
sg261
F0
sg40
S'Birmingham'
p421
sg42
g43
((I2010
I7
I5
I0
I0
I0
I0
I186
I-1
t(dtRp422
sS'r'
F41
sg272
F50
sa(dp423
g36
I1
sS'b'
F4
sg37
S'England'
p424
sg248
F50
sg39
I177
sg267
S'run out'
p425
sg260
F0
sg269
I2
sg261
F0
sg40
S'Bridgetown'
p426
sg42
g43
((I2010
I5
I16
I0
I0
I0
I6
I136
I-1
t(dtRp427
sS'r'
F2
sg272
F11
sa(dp428
g36
I2
sS'b'
F2
sg37
S'Pakistan'
p429
sg248
F0
sg39
I176
sg267
S'caught'
p430
sg260
F0
sg269
I1
sg261
F0
sg40
S'Gros Islet'
p431
sg42
g43
((I2010
I5
I14
I0
I0
I0
I4
I134
I-1
t(dtRp432
sS'r'
F0
sg272
F2
sa(dp433
g36
I2
sS'b'
F12
sg37
S'West Indies'
p434
sg248
F208.33333333333334
sg39
I174
sg267
S'caught'
p435
sg260
F4
sg269
I1
sg261
F1
sg40
S'Gros Islet'
p436
sg42
g43
((I2010
I5
I11
I0
I0
I0
I1
I131
I-1
t(dtRp437
sS'r'
F25
sg272
F14
sa(dp438
g36
I1
sS'b'
F12
sg37
S'Sri Lanka'
p439
sg248
F75
sg39
I170
sg267
S'caught'
p440
sg260
F1
sg269
I2
sg261
F0
sg40
S'Bridgetown'
p441
sg42
g43
((I2010
I5
I9
I0
I0
I0
I6
I129
I-1
t(dtRp442
sS'r'
F9
sg272
F24
sa(dp443
g36
I1
sS'b'
F42
sg37
S'India'
p444
sg248
F171.42857142857142
sg39
I165
sg267
S'caught'
p445
sg260
F2
sg269
I2
sg261
F7
sg40
S'Bridgetown'
p446
sg42
g43
((I2010
I5
I7
I0
I0
I0
I4
I127
I-1
t(dtRp447
sS'r'
F72
sg272
F54
sa(dp448
g36
I1
sS'b'
F11
sg37
S'Bangladesh'
p449
sg248
F145.45454545454547
sg39
I161
sg267
S'caught'
p450
sg260
F2
sg269
I1
sg261
F1
sg40
S'Bridgetown'
p451
sg42
g43
((I2010
I5
I5
I0
I0
I0
I2
I125
I-1
t(dtRp452
sS'r'
F16
sg272
F17
sa(dp453
g36
I1
sS'b'
F18
sg37
S'Pakistan'
p454
sg248
F144.44444444444446
sg39
I156
sg267
S'caught'
p455
sg260
F4
sg269
I1
sg261
F1
sg40
S'Gros Islet'
p456
sg42
g43
((I2010
I5
I2
I0
I0
I0
I6
I122
I-1
t(dtRp457
sS'r'
F26
sg272
F21
sa(dp458
g36
I2
sS'b'
F10
sg37
S'New Zealand'
p459
sg248
F200
sg39
I149
sg267
S'caught'
p460
sg260
F3
sg269
I1
sg261
F1
sg40
S'Christchurch'
p461
sg42
g43
((I2010
I2
I28
I0
I0
I0
I6
I59
I-1
t(dtRp462
sS'r'
F20
sg272
F10
sa(dp463
g36
I2
sS'b'
F10
sg37
S'New Zealand'
p464
sg248
F190
sg39
I148
sg267
S'bowled'
p465
sg260
F2
sg269
I1
sg261
F1
sg40
S'Wellington'
p466
sg42
g43
((I2010
I2
I26
I0
I0
I0
I4
I57
I-1
t(dtRp467
sS'r'
F19
sg272
F11
sa(dp468
g36
I2
sS'b'
F29
sg37
S'West Indies'
p469
sg248
F231.0344827586207
sg39
I147
sg267
S'caught'
p470
sg260
F5
sg269
I2
sg261
F7
sg40
S'Sydney'
p471
sg42
g43
((I2010
I2
I23
I0
I0
I0
I1
I54
I-1
t(dtRp472
sS'r'
F67
sg272
F33
sa(dp473
g36
I1
sS'b'
F32
sg37
S'West Indies'
p474
sg248
F153.125
sg39
I146
sg267
S'caught'
p475
sg260
F6
sg269
I2
sg261
F2
sg40
S'Hobart'
p476
sg42
g43
((I2010
I2
I21
I0
I0
I0
I6
I52
I-1
t(dtRp477
sS'r'
F49
sg272
F33
sa(dp478
g36
I1
sS'b'
F14
sg37
S'Pakistan'
p479
sg248
F171.42857142857142
sg39
I134
sg267
S'caught'
p480
sg260
F1
sg269
I2
sg261
F1
sg40
S'Melbourne'
p481
sg42
g43
((I2010
I2
I5
I0
I0
I0
I4
I36
I-1
t(dtRp482
sS'r'
F24
sg272
F29
sa(dp483
g36
I1
sS'b'
F26
sg37
S'England'
p484
sg248
F126.92307692307692
sg39
I119
sg267
S'lbw'
p485
sg260
F3
sg269
I2
sg261
F0
sg40
S'Manchester'
p486
sg42
g43
((I2009
I8
I30
I0
I0
I0
I6
I242
I-1
t(dtRp487
sS'r'
F33
sg272
F-1
sa(dp488
g36
I1
sS'b'
F3
sg37
S'Sri Lanka'
p489
sg248
F0
sg39
I97
sg267
S'caught'
p490
sg260
F0
sg269
I2
sg261
F0
sg40
S'Nottingham'
p491
sg42
g43
((I2009
I6
I8
I0
I0
I0
I0
I159
I-1
t(dtRp492
sS'r'
F0
sg272
F1
sa(dp493
g36
I1
sS'b'
F53
sg37
S'West Indies'
p494
sg248
F118.86792452830188
sg39
I92
sg267
S'caught'
p495
sg260
F6
sg269
I2
sg261
F1
sg40
S'The Oval'
p496
sg42
g43
((I2009
I6
I6
I0
I0
I0
I5
I157
I-1
t(dtRp497
sS'r'
F63
sg272
F71
sa(dp498
g36
I2
sS'b'
F15
sg37
S'South Africa'
p499
sg248
F133.33333333333334
sg39
I88
sg267
S'bowled'
p500
sg260
F2
sg269
I2
sg261
F1
sg40
S'Centurion'
p501
sg42
g43
((I2009
I3
I29
I0
I0
I0
I6
I88
I-1
t(dtRp502
sS'r'
F20
sg272
F21
sa(dp503
g36
I1
sS'b'
F29
sg37
S'South Africa'
p504
sg248
F131.0344827586207
sg39
I87
sg267
S'caught'
p505
sg260
F4
sg269
I1
sg261
F1
sg40
S'Johannesburg'
p506
sg42
g43
((I2009
I3
I27
I0
I0
I0
I4
I86
I-1
t(dtRp507
sS'r'
F38
sg272
F37
sa(dp508
g36
I1
sS'b'
F15
sg37
S'New Zealand'
p509
sg248
F153.33333333333334
sg39
I83
sg267
S'caught'
p510
sg260
F4
sg269
I1
sg261
F0
sg40
S'Sydney'
p511
sg42
g43
((I2009
I2
I15
I0
I0
I0
I6
I46
I-1
t(dtRp512
sS'r'
F23
sg272
F19
sa(dp513
g36
I2
sS'b'
F12
sg37
S'South Africa'
p514
sg248
F58.333333333333336
sg39
I81
sg267
S'bowled'
p515
sg260
F0
sg269
I2
sg261
F0
sg40
S'Brisbane'
p516
sg42
g43
((I2009
I1
I13
I0
I0
I0
I1
I13
I-1
t(dtRp517
sS'r'
F7
sg272
F16
sa(dp518
g36
I1
sS'b'
F43
sg37
S'South Africa'
p519
sg248
F206.97674418604652
sg39
I80
sg267
S'caught'
p520
sg260
F7
sg269
I2
sg261
F6
sg40
S'Melbourne'
p521
sg42
g43
((I2009
I1
I11
I0
I0
I0
I6
I11
I-1
t(dtRp522
sS'r'
F89
sg272
F64
satp523
ssS'all'
p524
(dp525
g27
(dp526
S'c'
F74
sg29
F0
sS'i'
F165
sS'm'
F165
sS's'
F0
sg31
F74
sg32
F74
ssg246
(dp527
S'a'
F-1
sS'b'
F6
sS'e'
F13
sS'i'
F1
sg248
F-1
sg249
F0
sS'm'
F165
sg250
F0
sS'r'
F13
sS'w'
F0
sg251
F0
sg252
F-1
sg253
F-1
ssg255
(dp528
S'a'
F31.253333333333334
sg257
F-1
sS'b'
F3318
sg258
F14
sS'i'
F164
sg259
F135
sS'm'
F165
sg260
F471
sg261
F201
sg248
F141.28993369499699
sS'r'
F4688
sg262
F5
sg263
F30
ssssb.