(iplayer
Player
p1
(dp2
S'is_batsman'
p3
I00
sS'name'
p4
S'Amit Mishra'
p5
sS'dob'
p6
S'1982/11/24'
p7
sS'price'
p8
S'950000'
p9
sS'is_allrounder'
p10
I00
sS'espnid'
p11
S'31107'
p12
sS'is_overseas'
p13
I00
sS'team'
p14
S'SRH'
p15
sS'nationality'
p16
S'Indian'
p17
sS'is_bowler'
p18
I01
sS'is_keeper'
p19
I00
sS'id'
p20
S'30'
p21
sS'is_uncapped'
p22
I00
sS'tournamentStats'
p23
(dp24
S'international'
p25
(dp26
S'fieldingStats'
p27
((dp28
S'c'
F0
sS'ctw'
p29
F0
sS'span_s'
p30
F2010
sS'm'
F7
sS'ctf'
p31
F0
sS'dismissals'
p32
F0
sS'i'
F7
sS's'
F0
sS'span_f'
p33
F2014
s(lp34
(dp35
S'inning'
p36
I2
sS'c'
F0
sg29
F0
sS'opp'
p37
S'Sri Lanka'
p38
sS't20i_num'
p39
I400
sS's'
F0
sg32
F0
sg31
F0
sS'place'
p40
S'Dhaka'
p41
sS'date'
p42
ctime
struct_time
p43
((I2014
I4
I6
I0
I0
I0
I6
I96
I-1
t(dtRp44
sa(dp45
g36
I1
sS'c'
F0
sg29
F0
sg37
S'South Africa'
p46
sg39
I399
sS's'
F0
sg32
F0
sg31
F0
sg40
S'Dhaka'
p47
sg42
g43
((I2014
I4
I4
I0
I0
I0
I4
I94
I-1
t(dtRp48
sa(dp49
g36
I2
sS'c'
F0
sg29
F0
sg37
S'Australia'
p50
sg39
I393
sS's'
F0
sg32
F0
sg31
F0
sg40
S'Dhaka'
p51
sg42
g43
((I2014
I3
I30
I0
I0
I0
I6
I89
I-1
t(dtRp52
sa(dp53
g36
I1
sS'c'
F0
sg29
F0
sg37
S'Bangladesh'
p54
sg39
I389
sS's'
F0
sg32
F0
sg31
F0
sg40
S'Dhaka'
p55
sg42
g43
((I2014
I3
I28
I0
I0
I0
I4
I87
I-1
t(dtRp56
sa(dp57
g36
I1
sS'c'
F0
sg29
F0
sg37
S'West Indies'
p58
sg39
I382
sS's'
F0
sg32
F0
sg31
F0
sg40
S'Dhaka'
p59
sg42
g43
((I2014
I3
I23
I0
I0
I0
I6
I82
I-1
t(dtRp60
sa(dp61
g36
I1
sS'c'
F0
sg29
F0
sg37
S'Pakistan'
p62
sg39
I378
sS's'
F0
sg32
F0
sg31
F0
sg40
S'Dhaka'
p63
sg42
g43
((I2014
I3
I21
I0
I0
I0
I4
I80
I-1
t(dtRp64
sa(dp65
g36
I1
sS'c'
F0
sg29
F0
sg37
S'Zimbabwe'
p66
sg39
I183
sS's'
F0
sg32
F0
sg31
F0
sg40
S'Harare'
p67
sg42
g43
((I2010
I6
I13
I0
I0
I0
I6
I164
I-1
t(dtRp68
satp69
sS'bowlingStats'
p70
((dp71
S'a'
F15.272727272727273
sS'b'
F156
sS'e'
F6.4615384615384617
sS'i'
F7
sS'sr'
p72
F14.181818181818182
sS'5w'
p73
F0
sS'm'
F7
sS'maid'
p74
F1
sS'r'
F168
sS'w'
F11
sS'4w'
p75
F0
sS'bbir'
p76
F26
sS'bbiw'
p77
F3
sg33
F2014
sg30
F2010
s(lp78
(dp79
g36
I2
sS'b'
F24
sS'e'
F8
sg39
I400
sS'pos'
p80
I4
sg74
F0
sS'r'
F32
sg40
S'Dhaka'
p81
sS'w'
F1
sg42
g43
((I2014
I4
I6
I0
I0
I0
I6
I96
I-1
t(dtRp82
sg37
S'Sri Lanka'
p83
sa(dp84
g36
I1
sS'b'
F18
sS'e'
F12
sg39
I399
sg80
I6
sg74
F0
sS'r'
F36
sg40
S'Dhaka'
p85
sS'w'
F0
sg42
g43
((I2014
I4
I4
I0
I0
I0
I4
I94
I-1
t(dtRp86
sg37
S'South Africa'
p87
sa(dp88
g36
I2
sS'b'
F18
sS'e'
F4.333333333333333
sg39
I393
sg80
I6
sg74
F0
sS'r'
F13
sg40
S'Dhaka'
p89
sS'w'
F2
sg42
g43
((I2014
I3
I30
I0
I0
I0
I6
I89
I-1
t(dtRp90
sg37
S'Australia'
p91
sa(dp92
g36
I1
sS'b'
F24
sS'e'
F6.5
sg39
I389
sg80
I6
sg74
F0
sS'r'
F26
sg40
S'Dhaka'
p93
sS'w'
F3
sg42
g43
((I2014
I3
I28
I0
I0
I0
I4
I87
I-1
t(dtRp94
sg37
S'Bangladesh'
p95
sa(dp96
g36
I1
sS'b'
F24
sS'e'
F4.5
sg39
I382
sg80
I4
sg74
F0
sS'r'
F18
sg40
S'Dhaka'
p97
sS'w'
F2
sg42
g43
((I2014
I3
I23
I0
I0
I0
I6
I82
I-1
t(dtRp98
sg37
S'West Indies'
p99
sa(dp100
g36
I1
sS'b'
F24
sS'e'
F5.5
sg39
I378
sg80
I4
sg74
F1
sS'r'
F22
sg40
S'Dhaka'
p101
sS'w'
F2
sg42
g43
((I2014
I3
I21
I0
I0
I0
I4
I80
I-1
t(dtRp102
sg37
S'Pakistan'
p103
sa(dp104
g36
I1
sS'b'
F24
sS'e'
F5.25
sg39
I183
sg80
I4
sg74
F0
sS'r'
F21
sg40
S'Harare'
p105
sS'w'
F1
sg42
g43
((I2010
I6
I13
I0
I0
I0
I6
I164
I-1
t(dtRp106
sg37
S'Zimbabwe'
p107
satp108
sS'battingStats'
p109
((dp110
S'a'
F-1
sS'0s'
p111
F0
sS'b'
F0
sS'no'
p112
F0
sg30
F2010
sS'hs'
p113
F0
sS'm'
F7
sS'4s'
p114
F0
sS'50s'
p115
F0
sS'i'
F0
sS'6s'
p116
F0
sg72
F0
sS'r'
F0
sS'100s'
p117
F0
sg33
F2014
s(ltp118
ssS'all'
p119
(dp120
g27
(dp121
S'c'
F23
sg29
F0
sS'i'
F122
sS'm'
F122
sg31
F23
sg32
F23
sS's'
F0
ssg70
(dp122
S'a'
F19.135483870967743
sS'b'
F2623
sS'e'
F6.7845977887914604
sS'i'
F122
sg72
F16.92258064516129
sg73
F2
sS'm'
F122
sg74
F0
sS'r'
F2966
sS'w'
F155
sg75
F2
sg76
F17
sg77
F5
ssg109
(dp123
S'a'
F14.657894736842104
sg111
F-1
sS'b'
F555
sg112
F23
sS'i'
F61
sg113
F49
sS'm'
F122
sg114
F56
sg116
F4
sg72
F100.36036036036036
sS'r'
F557
sg117
F0
sg115
F0
ssssb.