(iplayer
Player
p1
(dp2
S'is_batsman'
p3
I00
sS'name'
p4
S'Bhuvneshwar Kumar'
p5
sS'dob'
p6
S'1990/12/05'
p7
sS'price'
p8
S'900000'
p9
sS'is_allrounder'
p10
I00
sS'espnid'
p11
S'326016'
p12
sS'is_overseas'
p13
I00
sS'team'
p14
S'SRH'
p15
sS'nationality'
p16
S'Indian'
p17
sS'is_bowler'
p18
I01
sS'is_keeper'
p19
I00
sS'id'
p20
S'116'
p21
sS'is_uncapped'
p22
I00
sS'tournamentStats'
p23
(dp24
S'international'
p25
(dp26
S'fieldingStats'
p27
((dp28
S'c'
F2
sS'ctw'
p29
F0
sS'i'
F9
sS'm'
F9
sS's'
F0
sS'dismissals'
p30
F2
sS'ctf'
p31
F2
s(lp32
(dp33
S'inning'
p34
I2
sS'c'
F0
sg29
F0
sS'opp'
p35
S'Sri Lanka'
p36
sS't20i_num'
p37
I400
sg31
F0
sg30
F0
sS's'
F0
sS'place'
p38
S'Dhaka'
p39
sS'date'
p40
ctime
struct_time
p41
((I2014
I4
I6
I0
I0
I0
I6
I96
I-1
t(dtRp42
sa(dp43
g34
I1
sS'c'
F0
sg29
F0
sg35
S'South Africa'
p44
sg37
I399
sg31
F0
sg30
F0
sS's'
F0
sg38
S'Dhaka'
p45
sg40
g41
((I2014
I4
I4
I0
I0
I0
I4
I94
I-1
t(dtRp46
sa(dp47
g34
I2
sS'c'
F0
sg29
F0
sg35
S'Australia'
p48
sg37
I393
sg31
F0
sg30
F0
sS's'
F0
sg38
S'Dhaka'
p49
sg40
g41
((I2014
I3
I30
I0
I0
I0
I6
I89
I-1
t(dtRp50
sa(dp51
g34
I1
sS'c'
F0
sg29
F0
sg35
S'Bangladesh'
p52
sg37
I389
sg31
F0
sg30
F0
sS's'
F0
sg38
S'Dhaka'
p53
sg40
g41
((I2014
I3
I28
I0
I0
I0
I4
I87
I-1
t(dtRp54
sa(dp55
g34
I1
sS'c'
F0
sg29
F0
sg35
S'West Indies'
p56
sg37
I382
sg31
F0
sg30
F0
sS's'
F0
sg38
S'Dhaka'
p57
sg40
g41
((I2014
I3
I23
I0
I0
I0
I6
I82
I-1
t(dtRp58
sa(dp59
g34
I1
sS'c'
F1
sg29
F0
sg35
S'Pakistan'
p60
sg37
I378
sg31
F1
sg30
F1
sS's'
F0
sg38
S'Dhaka'
p61
sg40
g41
((I2014
I3
I21
I0
I0
I0
I4
I80
I-1
t(dtRp62
sa(dp63
g34
I1
sS'c'
F0
sg29
F0
sg35
S'Australia'
p64
sg37
I331
sg31
F0
sg30
F0
sS's'
F0
sg38
S'Rajkot'
p65
sg40
g41
((I2013
I10
I10
I0
I0
I0
I3
I283
I-1
t(dtRp66
sa(dp67
g34
I2
sS'c'
F0
sg29
F0
sg35
S'Pakistan'
p68
sg37
I298
sg31
F0
sg30
F0
sS's'
F0
sg38
S'Ahmedabad'
p69
sg40
g41
((I2012
I12
I28
I0
I0
I0
I4
I363
I-1
t(dtRp70
sa(dp71
g34
I2
sS'c'
F1
sg29
F0
sg35
S'Pakistan'
p72
sg37
I296
sg31
F1
sg30
F1
sS's'
F0
sg38
S'Bangalore'
p73
sg40
g41
((I2012
I12
I25
I0
I0
I0
I1
I360
I-1
t(dtRp74
satp75
sS'bowlingStats'
p76
((dp77
S'a'
F17.545454545454547
sS'b'
F186
sS'e'
F6.225806451612903
sS'i'
F9
sS'sr'
p78
F16.90909090909091
sS'5w'
p79
F0
sS'm'
F9
sS'maid'
p80
F0
sS'r'
F193
sS'w'
F11
sS'4w'
p81
F0
sS'bbir'
p82
F9
sS'bbiw'
p83
F3
s(lp84
(dp85
g34
I2
sS'b'
F18
sS'e'
F6
sg37
I400
sS'pos'
p86
I1
sg80
F0
sS'r'
F18
sg38
S'Dhaka'
p87
sS'w'
F0
sg40
g41
((I2014
I4
I6
I0
I0
I0
I6
I96
I-1
t(dtRp88
sg35
S'Sri Lanka'
p89
sa(dp90
g34
I1
sS'b'
F24
sS'e'
F8.25
sg37
I399
sg86
I1
sg80
F0
sS'r'
F33
sg38
S'Dhaka'
p91
sS'w'
F1
sg40
g41
((I2014
I4
I4
I0
I0
I0
I4
I94
I-1
t(dtRp92
sg35
S'South Africa'
p93
sa(dp94
g34
I2
sS'b'
F18
sS'e'
F2.3333333333333335
sg37
I393
sg86
I1
sg80
F0
sS'r'
F7
sg38
S'Dhaka'
p95
sS'w'
F1
sg40
g41
((I2014
I3
I30
I0
I0
I0
I6
I89
I-1
t(dtRp96
sg35
S'Australia'
p97
sa(dp98
g34
I1
sS'b'
F18
sS'e'
F7
sg37
I389
sg86
I1
sg80
F0
sS'r'
F21
sg38
S'Dhaka'
p99
sS'w'
F1
sg40
g41
((I2014
I3
I28
I0
I0
I0
I4
I87
I-1
t(dtRp100
sg35
S'Bangladesh'
p101
sa(dp102
g34
I1
sS'b'
F18
sS'e'
F1
sg37
I382
sg86
I1
sg80
F0
sS'r'
F3
sg38
S'Dhaka'
p103
sS'w'
F0
sg40
g41
((I2014
I3
I23
I0
I0
I0
I6
I82
I-1
t(dtRp104
sg35
S'West Indies'
p105
sa(dp106
g34
I1
sS'b'
F18
sS'e'
F7
sg37
I378
sg86
I2
sg80
F0
sS'r'
F21
sg38
S'Dhaka'
p107
sS'w'
F1
sg40
g41
((I2014
I3
I21
I0
I0
I0
I4
I80
I-1
t(dtRp108
sg35
S'Pakistan'
p109
sa(dp110
g34
I1
sS'b'
F24
sS'e'
F8.75
sg37
I331
sg86
I1
sg80
F0
sS'r'
F35
sg38
S'Rajkot'
p111
sS'w'
F3
sg40
g41
((I2013
I10
I10
I0
I0
I0
I3
I283
I-1
t(dtRp112
sg35
S'Australia'
p113
sa(dp114
g34
I2
sS'b'
F24
sS'e'
F11.5
sg37
I298
sg86
I1
sg80
F0
sS'r'
F46
sg38
S'Ahmedabad'
p115
sS'w'
F1
sg40
g41
((I2012
I12
I28
I0
I0
I0
I4
I363
I-1
t(dtRp116
sg35
S'Pakistan'
p117
sa(dp118
g34
I2
sS'b'
F24
sS'e'
F2.25
sg37
I296
sg86
I1
sg80
F0
sS'r'
F9
sg38
S'Bangalore'
p119
sS'w'
F3
sg40
g41
((I2012
I12
I25
I0
I0
I0
I1
I360
I-1
t(dtRp120
sg35
S'Pakistan'
p121
satp122
sS'battingStats'
p123
((dp124
S'a'
F-1
sS'0s'
p125
F0
sS'b'
F7
sS'no'
p126
F2
sS'i'
F2
sS'hs'
p127
F6
sS'm'
F9
sS'4s'
p128
F0
sS'6s'
p129
F0
sg78
F85.714285714285708
sS'r'
F6
sS'100s'
p130
F0
sS'50s'
p131
F0
s(lp132
(dp133
g34
I1
sS'b'
F1
sg35
S'Australia'
p134
sg126
I01
sg78
F0
sg37
I393
sS'dismiss'
p135
S'not out'
p136
sg128
F0
sg86
I9
sg129
F0
sg38
S'Dhaka'
p137
sg40
g41
((I2014
I3
I30
I0
I0
I0
I6
I89
I-1
t(dtRp138
sS'r'
F0
sS'minutes'
p139
F1
sa(dp140
g34
I1
sS'b'
F6
sg35
S'Pakistan'
p141
sg126
I01
sg78
F100
sg37
I296
sg135
S'not out'
p142
sg128
F0
sg86
I9
sg129
F0
sg38
S'Bangalore'
p143
sg40
g41
((I2012
I12
I25
I0
I0
I0
I1
I360
I-1
t(dtRp144
sS'r'
F6
sg139
F13
satp145
ssS'all'
p146
(dp147
g27
(dp148
S'c'
F8
sg29
F0
sS'i'
F50
sS'm'
F50
sS's'
F0
sg30
F8
sg31
F8
ssg76
(dp149
S'a'
F28.19047619047619
sS'b'
F1048
sS'e'
F6.778625954198473
sS'i'
F50
sg78
F24.952380952380953
sg79
F0
sS'm'
F50
sg80
F0
sS'r'
F1184
sS'w'
F42
sg81
F0
sg82
F9
sg83
F3
ssg123
(dp150
S'a'
F11.23076923076923
sg125
F-1
sS'b'
F163
sg126
F13
sS'i'
F26
sg127
F24
sS'm'
F50
sg128
F11
sg129
F2
sg78
F89.570552147239269
sS'r'
F146
sg130
F0
sg131
F0
ssssb.