(iplayer
Player
p1
(dp2
S'is_batsman'
p3
I01
sS'name'
p4
S'Suresh Raina'
p5
sS'dob'
p6
S'1986/11/27'
p7
sS'price'
p8
S'1050000'
p9
sS'is_allrounder'
p10
I01
sS'espnid'
p11
S'33335'
p12
sS'is_overseas'
p13
I00
sS'team'
p14
S'CSK'
p15
sS'nationality'
p16
S'Indian'
p17
sS'is_bowler'
p18
I00
sS'is_keeper'
p19
I00
sS'id'
p20
S'14'
p21
sS'is_uncapped'
p22
I00
sS'tournamentStats'
p23
(dp24
S'international'
p25
(dp26
S'fieldingStats'
p27
((dp28
S'c'
F20
sS'ctw'
p29
F0
sS'span_s'
p30
F2006
sS'm'
F43
sS's'
F0
sS'dismissals'
p31
F20
sS'i'
F43
sS'ctf'
p32
F20
sS'span_f'
p33
F2014
s(lp34
(dp35
S'inning'
p36
I2
sS'c'
F0
sg29
F0
sS'opp'
p37
S'Sri Lanka'
p38
sS't20i_num'
p39
I400
sg32
F0
sg31
F0
sS's'
F0
sS'place'
p40
S'Dhaka'
p41
sS'date'
p42
ctime
struct_time
p43
((I2014
I4
I6
I0
I0
I0
I6
I96
I-1
t(dtRp44
sa(dp45
g36
I1
sS'c'
F0
sg29
F0
sg37
S'South Africa'
p46
sg39
I399
sg32
F0
sg31
F0
sS's'
F0
sg40
S'Dhaka'
p47
sg42
g43
((I2014
I4
I4
I0
I0
I0
I4
I94
I-1
t(dtRp48
sa(dp49
g36
I2
sS'c'
F0
sg29
F0
sg37
S'Australia'
p50
sg39
I393
sg32
F0
sg31
F0
sS's'
F0
sg40
S'Dhaka'
p51
sg42
g43
((I2014
I3
I30
I0
I0
I0
I6
I89
I-1
t(dtRp52
sa(dp53
g36
I1
sS'c'
F1
sg29
F0
sg37
S'Bangladesh'
p54
sg39
I389
sg32
F1
sg31
F1
sS's'
F0
sg40
S'Dhaka'
p55
sg42
g43
((I2014
I3
I28
I0
I0
I0
I4
I87
I-1
t(dtRp56
sa(dp57
g36
I1
sS'c'
F0
sg29
F0
sg37
S'West Indies'
p58
sg39
I382
sg32
F0
sg31
F0
sS's'
F0
sg40
S'Dhaka'
p59
sg42
g43
((I2014
I3
I23
I0
I0
I0
I6
I82
I-1
t(dtRp60
sa(dp61
g36
I1
sS'c'
F3
sg29
F0
sg37
S'Pakistan'
p62
sg39
I378
sg32
F3
sg31
F3
sS's'
F0
sg40
S'Dhaka'
p63
sg42
g43
((I2014
I3
I21
I0
I0
I0
I4
I80
I-1
t(dtRp64
sa(dp65
g36
I1
sS'c'
F0
sg29
F0
sg37
S'Australia'
p66
sg39
I331
sg32
F0
sg31
F0
sS's'
F0
sg40
S'Rajkot'
p67
sg42
g43
((I2013
I10
I10
I0
I0
I0
I3
I283
I-1
t(dtRp68
sa(dp69
g36
I2
sS'c'
F1
sg29
F0
sg37
S'Pakistan'
p70
sg39
I298
sg32
F1
sg31
F1
sS's'
F0
sg40
S'Ahmedabad'
p71
sg42
g43
((I2012
I12
I28
I0
I0
I0
I4
I363
I-1
t(dtRp72
sa(dp73
g36
I2
sS'c'
F0
sg29
F0
sg37
S'Pakistan'
p74
sg39
I296
sg32
F0
sg31
F0
sS's'
F0
sg40
S'Bangalore'
p75
sg42
g43
((I2012
I12
I25
I0
I0
I0
I1
I360
I-1
t(dtRp76
sa(dp77
g36
I2
sS'c'
F0
sg29
F0
sg37
S'England'
p78
sg39
I294
sg32
F0
sg31
F0
sS's'
F0
sg40
S'Mumbai'
p79
sg42
g43
((I2012
I12
I22
I0
I0
I0
I5
I357
I-1
t(dtRp80
sa(dp81
g36
I1
sS'c'
F0
sg29
F0
sg37
S'England'
p82
sg39
I292
sg32
F0
sg31
F0
sS's'
F0
sg40
S'Pune'
p83
sg42
g43
((I2012
I12
I20
I0
I0
I0
I3
I355
I-1
t(dtRp84
sa(dp85
g36
I2
sS'c'
F3
sg29
F0
sg37
S'South Africa'
p86
sg39
I286
sg32
F3
sg31
F3
sS's'
F0
sg40
S'Colombo (RPS)'
p87
sg42
g43
((I2012
I10
I2
I0
I0
I0
I1
I276
I-1
t(dtRp88
sa(dp89
g36
I1
sS'c'
F2
sg29
F0
sg37
S'Pakistan'
p90
sg39
I282
sg32
F2
sg31
F2
sS's'
F0
sg40
S'Colombo (RPS)'
p91
sg42
g43
((I2012
I9
I30
I0
I0
I0
I6
I274
I-1
t(dtRp92
sa(dp93
g36
I2
sS'c'
F0
sg29
F0
sg37
S'Australia'
p94
sg39
I278
sg32
F0
sg31
F0
sS's'
F0
sg40
S'Colombo (RPS)'
p95
sg42
g43
((I2012
I9
I28
I0
I0
I0
I4
I272
I-1
t(dtRp96
sa(dp97
g36
I2
sS'c'
F0
sg29
F0
sg37
S'England'
p98
sg39
I272
sg32
F0
sg31
F0
sS's'
F0
sg40
S'Colombo (RPS)'
p99
sg42
g43
((I2012
I9
I23
I0
I0
I0
I6
I267
I-1
t(dtRp100
sa(dp101
g36
I2
sS'c'
F1
sg29
F0
sg37
S'Afghanistan'
p102
sg39
I265
sg32
F1
sg31
F1
sS's'
F0
sg40
S'Colombo (RPS)'
p103
sg42
g43
((I2012
I9
I19
I0
I0
I0
I2
I263
I-1
t(dtRp104
sa(dp105
g36
I1
sS'c'
F0
sg29
F0
sg37
S'New Zealand'
p106
sg39
I261
sg32
F0
sg31
F0
sS's'
F0
sg40
S'Chennai'
p107
sg42
g43
((I2012
I9
I11
I0
I0
I0
I1
I255
I-1
t(dtRp108
sa(dp109
g36
I2
sS'c'
F1
sg29
F0
sg37
S'Sri Lanka'
p110
sg39
I255
sg32
F1
sg31
F1
sS's'
F0
sg40
S'Pallekele'
p111
sg42
g43
((I2012
I8
I7
I0
I0
I0
I1
I220
I-1
t(dtRp112
sa(dp113
g36
I1
sS'c'
F0
sg29
F0
sg37
S'South Africa'
p114
sg39
I242
sg32
F0
sg31
F0
sS's'
F0
sg40
S'Johannesburg'
p115
sg42
g43
((I2012
I3
I30
I0
I0
I0
I4
I90
I-1
t(dtRp116
sa(dp117
g36
I1
sS'c'
F0
sg29
F0
sg37
S'Australia'
p118
sg39
I218
sg32
F0
sg31
F0
sS's'
F0
sg40
S'Melbourne'
p119
sg42
g43
((I2012
I2
I3
I0
I0
I0
I4
I34
I-1
t(dtRp120
sa(dp121
g36
I1
sS'c'
F2
sg29
F0
sg37
S'Australia'
p122
sg39
I217
sg32
F2
sg31
F2
sS's'
F0
sg40
S'Sydney'
p123
sg42
g43
((I2012
I2
I1
I0
I0
I0
I2
I32
I-1
t(dtRp124
sa(dp125
g36
I2
sS'c'
F0
sg29
F0
sg37
S'England'
p126
sg39
I214
sg32
F0
sg31
F0
sS's'
F0
sg40
S'Kolkata'
p127
sg42
g43
((I2011
I10
I29
I0
I0
I0
I5
I302
I-1
t(dtRp128
sa(dp129
g36
I2
sS'c'
F1
sg29
F0
sg37
S'England'
p130
sg39
I204
sg32
F1
sg31
F1
sS's'
F0
sg40
S'Manchester'
p131
sg42
g43
((I2011
I8
I31
I0
I0
I0
I2
I243
I-1
t(dtRp132
sa(dp133
g36
I2
sS'c'
F0
sg29
F0
sg37
S'West Indies'
p134
sg39
I200
sg32
F0
sg31
F0
sS's'
F0
sg40
S'Port of Spain'
p135
sg42
g43
((I2011
I6
I4
I0
I0
I0
I5
I155
I-1
t(dtRp136
sa(dp137
g36
I2
sS'c'
F0
sg29
F0
sg37
S'South Africa'
p138
sg39
I196
sg32
F0
sg31
F0
sS's'
F0
sg40
S'Durban'
p139
sg42
g43
((I2011
I1
I9
I0
I0
I0
I6
I9
I-1
t(dtRp140
sa(dp141
g36
I1
sS'c'
F1
sg29
F0
sg37
S'Zimbabwe'
p142
sg39
I183
sg32
F1
sg31
F1
sS's'
F0
sg40
S'Harare'
p143
sg42
g43
((I2010
I6
I13
I0
I0
I0
I6
I164
I-1
t(dtRp144
sa(dp145
g36
I1
sS'c'
F1
sg29
F0
sg37
S'Zimbabwe'
p146
sg39
I182
sg32
F1
sg31
F1
sS's'
F0
sg40
S'Harare'
p147
sg42
g43
((I2010
I6
I12
I0
I0
I0
I5
I163
I-1
t(dtRp148
sa(dp149
g36
I2
sS'c'
F0
sg29
F0
sg37
S'Sri Lanka'
p150
sg39
I173
sg32
F0
sg31
F0
sS's'
F0
sg40
S'Gros Islet'
p151
sg42
g43
((I2010
I5
I11
I0
I0
I0
I1
I131
I-1
t(dtRp152
sa(dp153
g36
I1
sS'c'
F0
sg29
F0
sg37
S'West Indies'
p154
sg39
I169
sg32
F0
sg31
F0
sS's'
F0
sg40
S'Bridgetown'
p155
sg42
g43
((I2010
I5
I9
I0
I0
I0
I6
I129
I-1
t(dtRp156
sa(dp157
g36
I1
sS'c'
F0
sg29
F0
sg37
S'Australia'
p158
sg39
I165
sg32
F0
sg31
F0
sS's'
F0
sg40
S'Bridgetown'
p159
sg42
g43
((I2010
I5
I7
I0
I0
I0
I4
I127
I-1
t(dtRp160
sa(dp161
g36
I2
sS'c'
F0
sg29
F0
sg37
S'South Africa'
p162
sg39
I155
sg32
F0
sg31
F0
sS's'
F0
sg40
S'Gros Islet'
p163
sg42
g43
((I2010
I5
I2
I0
I0
I0
I6
I122
I-1
t(dtRp164
sa(dp165
g36
I1
sS'c'
F0
sg29
F0
sg37
S'Afghanistan'
p166
sg39
I153
sg32
F0
sg31
F0
sS's'
F0
sg40
S'Gros Islet'
p167
sg42
g43
((I2010
I5
I1
I0
I0
I0
I5
I121
I-1
t(dtRp168
sa(dp169
g36
I1
sS'c'
F0
sg29
F0
sg37
S'Sri Lanka'
p170
sg39
I127
sg32
F0
sg31
F0
sS's'
F0
sg40
S'Mohali'
p171
sg42
g43
((I2009
I12
I12
I0
I0
I0
I5
I346
I-1
t(dtRp172
sa(dp173
g36
I1
sS'c'
F0
sg29
F0
sg37
S'Sri Lanka'
p174
sg39
I126
sg32
F0
sg31
F0
sS's'
F0
sg40
S'Nagpur'
p175
sg42
g43
((I2009
I12
I9
I0
I0
I0
I2
I343
I-1
t(dtRp176
sa(dp177
g36
I1
sS'c'
F0
sg29
F0
sg37
S'South Africa'
p178
sg39
I113
sg32
F0
sg31
F0
sS's'
F0
sg40
S'Nottingham'
p179
sg42
g43
((I2009
I6
I16
I0
I0
I0
I1
I167
I-1
t(dtRp180
sa(dp181
g36
I1
sS'c'
F0
sg29
F0
sg37
S'England'
p182
sg39
I109
sg32
F0
sg31
F0
sS's'
F0
sg40
S"Lord's"
p183
sg42
g43
((I2009
I6
I14
I0
I0
I0
I6
I165
I-1
t(dtRp184
sa(dp185
g36
I2
sS'c'
F0
sg29
F0
sg37
S'West Indies'
p186
sg39
I105
sg32
F0
sg31
F0
sS's'
F0
sg40
S"Lord's"
p187
sg42
g43
((I2009
I6
I12
I0
I0
I0
I4
I163
I-1
t(dtRp188
sa(dp189
g36
I1
sS'c'
F0
sg29
F0
sg37
S'Ireland'
p190
sg39
I101
sg32
F0
sg31
F0
sS's'
F0
sg40
S'Nottingham'
p191
sg42
g43
((I2009
I6
I10
I0
I0
I0
I2
I161
I-1
t(dtRp192
sa(dp193
g36
I2
sS'c'
F0
sg29
F0
sg37
S'Bangladesh'
p194
sg39
I93
sg32
F0
sg31
F0
sS's'
F0
sg40
S'Nottingham'
p195
sg42
g43
((I2009
I6
I6
I0
I0
I0
I5
I157
I-1
t(dtRp196
sa(dp197
g36
I2
sS'c'
F0
sg29
F0
sg37
S'New Zealand'
p198
sg39
I85
sg32
F0
sg31
F0
sS's'
F0
sg40
S'Wellington'
p199
sg42
g43
((I2009
I2
I27
I0
I0
I0
I4
I58
I-1
t(dtRp200
sa(dp201
g36
I2
sS'c'
F0
sg29
F0
sg37
S'New Zealand'
p202
sg39
I84
sg32
F0
sg31
F0
sS's'
F0
sg40
S'Christchurch'
p203
sg42
g43
((I2009
I2
I25
I0
I0
I0
I2
I56
I-1
t(dtRp204
sa(dp205
g36
I1
sS'c'
F1
sg29
F0
sg37
S'Sri Lanka'
p206
sg39
I82
sg32
F1
sg31
F1
sS's'
F0
sg40
S'Colombo (RPS)'
p207
sg42
g43
((I2009
I2
I10
I0
I0
I0
I1
I41
I-1
t(dtRp208
sa(dp209
g36
I1
sS'c'
F2
sg29
F0
sg37
S'South Africa'
p210
sg39
I10
sg32
F2
sg31
F2
sS's'
F0
sg40
S'Johannesburg'
p211
sg42
g43
((I2006
I12
I1
I0
I0
I0
I4
I335
I-1
t(dtRp212
satp213
sS'bowlingStats'
p214
((dp215
S'a'
F39.166666666666664
sS'b'
F174
sS'e'
F8.1034482758620694
sS'i'
F13
sS'sr'
p216
F29
sS'5w'
p217
F0
sS'm'
F43
sS'maid'
p218
F0
sS'r'
F235
sS'w'
F6
sS'4w'
p219
F0
sS'bbir'
p220
F49
sS'bbiw'
p221
F2
sg33
F2014
sg30
F2006
s(lp222
(dp223
g36
I2
sS'b'
F24
sS'e'
F6
sg39
I400
sS'pos'
p224
I5
sg218
F0
sS'r'
F24
sg40
S'Dhaka'
p225
sS'w'
F1
sg42
g43
((I2014
I4
I6
I0
I0
I0
I6
I96
I-1
t(dtRp226
sg37
S'Sri Lanka'
p227
sa(dp228
g36
I1
sS'b'
F24
sS'e'
F8.75
sg39
I399
sg224
I5
sg218
F0
sS'r'
F35
sg40
S'Dhaka'
p229
sS'w'
F0
sg42
g43
((I2014
I4
I4
I0
I0
I0
I4
I94
I-1
t(dtRp230
sg37
S'South Africa'
p231
sa(dp232
g36
I2
sS'b'
F6
sS'e'
F16
sg39
I393
sg224
I4
sg218
F0
sS'r'
F16
sg40
S'Dhaka'
p233
sS'w'
F0
sg42
g43
((I2014
I3
I30
I0
I0
I0
I6
I89
I-1
t(dtRp234
sg37
S'Australia'
p235
sa(dp236
g36
I1
sS'b'
F12
sS'e'
F5.5
sg39
I389
sg224
I5
sg218
F0
sS'r'
F11
sg40
S'Dhaka'
p237
sS'w'
F0
sg42
g43
((I2014
I3
I28
I0
I0
I0
I4
I87
I-1
t(dtRp238
sg37
S'Bangladesh'
p239
sa(dp240
g36
I1
sS'b'
F12
sS'e'
F4
sg39
I382
sg224
I5
sg218
F0
sS'r'
F8
sg40
S'Dhaka'
p241
sS'w'
F0
sg42
g43
((I2014
I3
I23
I0
I0
I0
I6
I82
I-1
t(dtRp242
sg37
S'West Indies'
p243
sa(dp244
g36
I2
sS'b'
F12
sS'e'
F6
sg39
I298
sg224
I5
sg218
F0
sS'r'
F12
sg40
S'Ahmedabad'
p245
sS'w'
F0
sg42
g43
((I2012
I12
I28
I0
I0
I0
I4
I363
I-1
t(dtRp246
sg37
S'Pakistan'
p247
sa(dp248
g36
I1
sS'b'
F24
sS'e'
F12.25
sg39
I242
sg224
I6
sg218
F0
sS'r'
F49
sg40
S'Johannesburg'
p249
sS'w'
F2
sg42
g43
((I2012
I3
I30
I0
I0
I0
I4
I90
I-1
t(dtRp250
sg37
S'South Africa'
p251
sa(dp252
g36
I1
sS'b'
F6
sS'e'
F10
sg39
I218
sg224
I6
sg218
F0
sS'r'
F10
sg40
S'Melbourne'
p253
sS'w'
F0
sg42
g43
((I2012
I2
I3
I0
I0
I0
I4
I34
I-1
t(dtRp254
sg37
S'Australia'
p255
sa(dp256
g36
I1
sS'b'
F18
sS'e'
F7.333333333333333
sg39
I217
sg224
I4
sg218
F0
sS'r'
F22
sg40
S'Sydney'
p257
sS'w'
F1
sg42
g43
((I2012
I2
I1
I0
I0
I0
I2
I32
I-1
t(dtRp258
sg37
S'Australia'
p259
sa(dp260
g36
I2
sS'b'
F12
sS'e'
F4.5
sg39
I214
sg224
I7
sg218
F0
sS'r'
F9
sg40
S'Kolkata'
p261
sS'w'
F1
sg42
g43
((I2011
I10
I29
I0
I0
I0
I5
I302
I-1
t(dtRp262
sg37
S'England'
p263
sa(dp264
g36
I1
sS'b'
F12
sS'e'
F11.5
sg39
I169
sg224
I5
sg218
F0
sS'r'
F23
sg40
S'Bridgetown'
p265
sS'w'
F0
sg42
g43
((I2010
I5
I9
I0
I0
I0
I6
I129
I-1
t(dtRp266
sg37
S'West Indies'
p267
sa(dp268
g36
I1
sS'b'
F6
sS'e'
F10
sg39
I127
sg224
I5
sg218
F0
sS'r'
F10
sg40
S'Mohali'
p269
sS'w'
F0
sg42
g43
((I2009
I12
I12
I0
I0
I0
I5
I346
I-1
t(dtRp270
sg37
S'Sri Lanka'
p271
sa(dp272
g36
I1
sS'b'
F6
sS'e'
F6
sg39
I113
sg224
I8
sg218
F0
sS'r'
F6
sg40
S'Nottingham'
p273
sS'w'
F1
sg42
g43
((I2009
I6
I16
I0
I0
I0
I1
I167
I-1
t(dtRp274
sg37
S'South Africa'
p275
satp276
sS'battingStats'
p277
((dp278
S'a'
F32.928571428571431
sS'0s'
p279
F1
sS'b'
F679
sS'no'
p280
F9
sg30
F2006
sS'hs'
p281
F101
sS'm'
F43
sS'4s'
p282
F85
sg33
F2014
sS'i'
F37
sS'6s'
p283
F33
sg216
F135.7879234167894
sS'r'
F922
sS'100s'
p284
F1
sS'50s'
p285
F3
s(lp286
(dp287
g36
I2
sS'b'
F10
sg37
S'South Africa'
p288
sg216
F210
sg39
I399
sS'dismiss'
p289
S'caught'
p290
sg282
F3
sg224
I5
sg283
F1
sg40
S'Dhaka'
p291
sg42
g43
((I2014
I4
I4
I0
I0
I0
I4
I94
I-1
t(dtRp292
sS'r'
F21
sS'minutes'
p293
F15
sa(dp294
g36
I1
sS'b'
F10
sg37
S'Australia'
p295
sg216
F60
sg39
I393
sg289
S'caught'
p296
sg282
F0
sg224
I5
sg283
F0
sg40
S'Dhaka'
p297
sg42
g43
((I2014
I3
I30
I0
I0
I0
I6
I89
I-1
t(dtRp298
sS'r'
F6
sg293
F11
sa(dp299
g36
I2
sS'b'
F1
sg37
S'West Indies'
p300
sg280
I01
sg216
F100
sg39
I382
sg289
S'not out'
p301
sg282
F0
sg224
I5
sg283
F0
sg40
S'Dhaka'
p302
sg42
g43
((I2014
I3
I23
I0
I0
I0
I6
I82
I-1
t(dtRp303
sS'r'
F1
sg293
F2
sa(dp304
g36
I2
sS'b'
F28
sg37
S'Pakistan'
p305
sg280
I01
sg216
F125
sg39
I378
sg289
S'not out'
p306
sg282
F4
sg224
I5
sg283
F1
sg40
S'Dhaka'
p307
sg42
g43
((I2014
I3
I21
I0
I0
I0
I4
I80
I-1
t(dtRp308
sS'r'
F35
sg293
F34
sa(dp309
g36
I2
sS'b'
F13
sg37
S'Australia'
p310
sg216
F146.15384615384616
sg39
I331
sg289
S'caught'
p311
sg282
F2
sg224
I3
sg283
F1
sg40
S'Rajkot'
p312
sg42
g43
((I2013
I10
I10
I0
I0
I0
I3
I283
I-1
t(dtRp313
sS'r'
F19
sg293
F17
sa(dp314
g36
I1
sS'b'
F1
sg37
S'Pakistan'
p315
sg280
I01
sg216
F100
sg39
I298
sg289
S'not out'
p316
sg282
F0
sg224
I6
sg283
F0
sg40
S'Ahmedabad'
p317
sg42
g43
((I2012
I12
I28
I0
I0
I0
I4
I363
I-1
t(dtRp318
sS'r'
F1
sg293
F4
sa(dp319
g36
I1
sS'b'
F9
sg37
S'Pakistan'
p320
sg216
F111.11111111111111
sg39
I296
sg289
S'bowled'
p321
sg282
F1
sg224
I6
sg283
F0
sg40
S'Bangalore'
p322
sg42
g43
((I2012
I12
I25
I0
I0
I0
I1
I360
I-1
t(dtRp323
sS'r'
F10
sg293
F11
sa(dp324
g36
I1
sS'b'
F24
sg37
S'England'
p325
sg280
I01
sg216
F145.83333333333334
sg39
I294
sg289
S'not out'
p326
sg282
F3
sg224
I6
sg283
F1
sg40
S'Mumbai'
p327
sg42
g43
((I2012
I12
I22
I0
I0
I0
I5
I357
I-1
t(dtRp328
sS'r'
F35
sg293
F50
sa(dp329
g36
I2
sS'b'
F19
sg37
S'England'
p330
sg216
F136.84210526315789
sg39
I292
sg289
S'run out'
p331
sg282
F1
sg224
I5
sg283
F1
sg40
S'Pune'
p332
sg42
g43
((I2012
I12
I20
I0
I0
I0
I3
I355
I-1
t(dtRp333
sS'r'
F26
sg293
F36
sa(dp334
g36
I1
sS'b'
F34
sg37
S'South Africa'
p335
sg216
F132.35294117647058
sg39
I286
sg289
S'run out'
p336
sg282
F5
sg224
I6
sg283
F0
sg40
S'Colombo (RPS)'
p337
sg42
g43
((I2012
I10
I2
I0
I0
I0
I1
I276
I-1
t(dtRp338
sS'r'
F45
sg293
F45
sa(dp339
g36
I1
sS'b'
F19
sg37
S'Australia'
p340
sg216
F136.84210526315789
sg39
I278
sg289
S'caught'
p341
sg282
F4
sg224
I6
sg283
F0
sg40
S'Colombo (RPS)'
p342
sg42
g43
((I2012
I9
I28
I0
I0
I0
I4
I272
I-1
t(dtRp343
sS'r'
F26
sg293
F40
sa(dp344
g36
I1
sS'b'
F1
sg37
S'England'
p345
sg280
I01
sg216
F100
sg39
I272
sg289
S'not out'
p346
sg282
F0
sg224
I6
sg283
F0
sg40
S'Colombo (RPS)'
p347
sg42
g43
((I2012
I9
I23
I0
I0
I0
I6
I267
I-1
t(dtRp348
sS'r'
F1
sg293
F2
sa(dp349
g36
I1
sS'b'
F33
sg37
S'Afghanistan'
p350
sg216
F115.15151515151516
sg39
I265
sg289
S'bowled'
p351
sg282
F6
sg224
I5
sg283
F0
sg40
S'Colombo (RPS)'
p352
sg42
g43
((I2012
I9
I19
I0
I0
I0
I2
I263
I-1
t(dtRp353
sS'r'
F38
sg293
F42
sa(dp354
g36
I2
sS'b'
F22
sg37
S'New Zealand'
p355
sg216
F122.72727272727273
sg39
I261
sg289
S'caught'
p356
sg282
F2
sg224
I3
sg283
F1
sg40
S'Chennai'
p357
sg42
g43
((I2012
I9
I11
I0
I0
I0
I1
I255
I-1
t(dtRp358
sS'r'
F27
sg293
F31
sa(dp359
g36
I1
sS'b'
F25
sg37
S'Sri Lanka'
p360
sg280
I01
sg216
F136
sg39
I255
sg289
S'not out'
p361
sg282
F3
sg224
I4
sg283
F1
sg40
S'Pallekele'
p362
sg42
g43
((I2012
I8
I7
I0
I0
I0
I1
I220
I-1
t(dtRp363
sS'r'
F34
sg293
F43
sa(dp364
g36
I2
sS'b'
F15
sg37
S'Australia'
p365
sg216
F93.333333333333329
sg39
I217
sg289
S'bowled'
p366
sg282
F1
sg224
I4
sg283
F0
sg40
S'Sydney'
p367
sg42
g43
((I2012
I2
I1
I0
I0
I0
I2
I32
I-1
t(dtRp368
sS'r'
F14
sg293
F23
sa(dp369
g36
I1
sS'b'
F29
sg37
S'England'
p370
sg216
F134.48275862068965
sg39
I214
sg289
S'caught'
p371
sg282
F4
sg224
I4
sg283
F2
sg40
S'Kolkata'
p372
sg42
g43
((I2011
I10
I29
I0
I0
I0
I5
I302
I-1
t(dtRp373
sS'r'
F39
sg293
F47
sa(dp374
g36
I1
sS'b'
F19
sg37
S'England'
p375
sg216
F173.68421052631578
sg39
I204
sg289
S'caught'
p376
sg282
F2
sg224
I6
sg283
F3
sg40
S'Manchester'
p377
sg42
g43
((I2011
I8
I31
I0
I0
I0
I2
I243
I-1
t(dtRp378
sS'r'
F33
sg293
F26
sa(dp379
g36
I1
sS'b'
F6
sg37
S'West Indies'
p380
sg216
F33.333333333333336
sg39
I200
sg289
S'caught'
p381
sg282
F0
sg224
I5
sg283
F0
sg40
S'Port of Spain'
p382
sg42
g43
((I2011
I6
I4
I0
I0
I0
I5
I155
I-1
t(dtRp383
sS'r'
F2
sg293
F5
sa(dp384
g36
I1
sS'b'
F23
sg37
S'South Africa'
p385
sg216
F178.2608695652174
sg39
I196
sg289
S'caught'
p386
sg282
F2
sg224
I6
sg283
F3
sg40
S'Durban'
p387
sg42
g43
((I2011
I1
I9
I0
I0
I0
I6
I9
I-1
t(dtRp388
sS'r'
F41
sg293
F29
sa(dp389
g36
I2
sS'b'
F44
sg37
S'Zimbabwe'
p390
sg280
I01
sg216
F163.63636363636363
sg39
I183
sg289
S'not out'
p391
sg282
F6
sg224
I3
sg283
F2
sg40
S'Harare'
p392
sg42
g43
((I2010
I6
I13
I0
I0
I0
I6
I164
I-1
t(dtRp393
sS'r'
F72
sg293
F59
sa(dp394
g36
I2
sS'b'
F17
sg37
S'Zimbabwe'
p395
sg216
F164.70588235294119
sg39
I182
sg289
S'caught'
p396
sg282
F3
sg224
I3
sg283
F1
sg40
S'Harare'
p397
sg42
g43
((I2010
I6
I12
I0
I0
I0
I5
I163
I-1
t(dtRp398
sS'r'
F28
sg293
F28
sa(dp399
g36
I1
sS'b'
F47
sg37
S'Sri Lanka'
p400
sg216
F134.04255319148936
sg39
I173
sg289
S'caught'
p401
sg282
F7
sg224
I3
sg283
F1
sg40
S'Gros Islet'
p402
sg42
g43
((I2010
I5
I11
I0
I0
I0
I1
I131
I-1
t(dtRp403
sS'r'
F63
sg293
F61
sa(dp404
g36
I2
sS'b'
F25
sg37
S'West Indies'
p405
sg216
F128
sg39
I169
sg289
S'caught'
p406
sg282
F4
sg224
I3
sg283
F1
sg40
S'Bridgetown'
p407
sg42
g43
((I2010
I5
I9
I0
I0
I0
I6
I129
I-1
t(dtRp408
sS'r'
F32
sg293
F38
sa(dp409
g36
I2
sS'b'
F5
sg37
S'Australia'
p410
sg216
F100
sg39
I165
sg289
S'caught'
p411
sg282
F1
sg224
I3
sg283
F0
sg40
S'Bridgetown'
p412
sg42
g43
((I2010
I5
I7
I0
I0
I0
I4
I127
I-1
t(dtRp413
sS'r'
F5
sg293
F7
sa(dp414
g36
I1
sS'b'
F60
sg37
S'South Africa'
p415
sg216
F168.33333333333334
sg39
I155
sg289
S'caught'
p416
sg282
F9
sg224
I3
sg283
F5
sg40
S'Gros Islet'
p417
sg42
g43
((I2010
I5
I2
I0
I0
I0
I6
I122
I-1
t(dtRp418
sS'r'
F101
sg293
F85
sa(dp419
g36
I2
sS'b'
F13
sg37
S'Afghanistan'
p420
sg216
F138.46153846153845
sg39
I153
sg289
S'lbw'
p421
sg282
F1
sg224
I3
sg283
F1
sg40
S'Gros Islet'
p422
sg42
g43
((I2010
I5
I1
I0
I0
I0
I5
I121
I-1
t(dtRp423
sS'r'
F18
sg293
F14
sa(dp424
g36
I2
sS'b'
F7
sg37
S'Sri Lanka'
p425
sg216
F128.57142857142858
sg39
I127
sg289
S'run out'
p426
sg282
F2
sg224
I5
sg283
F0
sg40
S'Mohali'
p427
sg42
g43
((I2009
I12
I12
I0
I0
I0
I5
I346
I-1
t(dtRp428
sS'r'
F9
sg293
F9
sa(dp429
g36
I2
sS'b'
F13
sg37
S'Sri Lanka'
p430
sg216
F161.53846153846155
sg39
I126
sg289
S'caught'
p431
sg282
F1
sg224
I6
sg283
F1
sg40
S'Nagpur'
p432
sg42
g43
((I2009
I12
I9
I0
I0
I0
I2
I343
I-1
t(dtRp433
sS'r'
F21
sg293
F-1
sa(dp434
g36
I2
sS'b'
F8
sg37
S'South Africa'
p435
sg216
F37.5
sg39
I113
sg289
S'caught'
p436
sg282
F0
sg224
I3
sg283
F0
sg40
S'Nottingham'
p437
sg42
g43
((I2009
I6
I16
I0
I0
I0
I1
I167
I-1
t(dtRp438
sS'r'
F3
sg293
F7
sa(dp439
g36
I2
sS'b'
F5
sg37
S'England'
p440
sg216
F40
sg39
I109
sg289
S'caught'
p441
sg282
F0
sg224
I3
sg283
F0
sg40
S"Lord's"
p442
sg42
g43
((I2009
I6
I14
I0
I0
I0
I6
I165
I-1
t(dtRp443
sS'r'
F2
sg293
F7
sa(dp444
g36
I1
sS'b'
F8
sg37
S'West Indies'
p445
sg216
F62.5
sg39
I105
sg289
S'caught'
p446
sg282
F0
sg224
I3
sg283
F0
sg40
S"Lord's"
p447
sg42
g43
((I2009
I6
I12
I0
I0
I0
I4
I163
I-1
t(dtRp448
sS'r'
F5
sg293
F12
sa(dp449
g36
I1
sS'b'
F8
sg37
S'Bangladesh'
p450
sg216
F125
sg39
I93
sg289
S'bowled'
p451
sg282
F1
sg224
I5
sg283
F0
sg40
S'Nottingham'
p452
sg42
g43
((I2009
I6
I6
I0
I0
I0
I5
I157
I-1
t(dtRp453
sS'r'
F10
sg293
F12
sa(dp454
g36
I1
sS'b'
F4
sg37
S'New Zealand'
p455
sg216
F0
sg39
I85
sg289
S'caught'
p456
sg282
F0
sg224
I3
sg283
F0
sg40
S'Wellington'
p457
sg42
g43
((I2009
I2
I27
I0
I0
I0
I4
I58
I-1
t(dtRp458
sS'r'
F0
sg293
F4
sa(dp459
g36
I1
sS'b'
F43
sg37
S'New Zealand'
p460
sg280
I01
sg216
F141.86046511627907
sg39
I84
sg289
S'not out'
p461
sg282
F2
sg224
I3
sg283
F5
sg40
S'Christchurch'
p462
sg42
g43
((I2009
I2
I25
I0
I0
I0
I2
I56
I-1
t(dtRp463
sS'r'
F61
sg293
F74
sa(dp464
g36
I2
sS'b'
F27
sg37
S'Sri Lanka'
p465
sg216
F129.62962962962962
sg39
I82
sg289
S'caught'
p466
sg282
F5
sg224
I3
sg283
F1
sg40
S'Colombo (RPS)'
p467
sg42
g43
((I2009
I2
I10
I0
I0
I0
I1
I41
I-1
t(dtRp468
sS'r'
F35
sg293
F48
sa(dp469
g36
I2
sS'b'
F4
sg37
S'South Africa'
p470
sg280
I01
sg216
F75
sg39
I10
sg289
S'not out'
p471
sg282
F0
sg224
I6
sg283
F0
sg40
S'Johannesburg'
p472
sg42
g43
((I2006
I12
I1
I0
I0
I0
I4
I335
I-1
t(dtRp473
sS'r'
F3
sg293
F15
satp474
ssS'all'
p475
(dp476
g27
(dp477
S'c'
F83
sg29
F0
sS'i'
F164
sS'm'
F164
sS's'
F0
sg31
F83
sg32
F83
ssg214
(dp478
S'a'
F29.594594594594593
sS'b'
F920
sS'e'
F7.1413043478260869
sS'i'
F68
sg216
F24.864864864864863
sg217
F0
sS'm'
F164
sg218
F0
sS'r'
F1095
sS'w'
F37
sg219
F1
sg220
F26
sg221
F4
ssg277
(dp479
S'a'
F34.0390625
sg279
F-1
sS'b'
F3106
sg280
F26
sS'i'
F154
sg281
F101
sS'm'
F164
sg282
F382
sg283
F171
sg216
F140.27688345138441
sS'r'
F4357
sg284
F2
sg285
F25
ssssb.