(iplayer
Player
p1
(dp2
S'is_batsman'
p3
I01
sS'name'
p4
S'Michael Hussey'
p5
sS'dob'
p6
S'1975/05/27'
p7
sS'price'
p8
S'1000000'
p9
sS'is_allrounder'
p10
I00
sS'espnid'
p11
S'5939'
p12
sS'is_overseas'
p13
I01
sS'team'
p14
S'MI'
p15
sS'nationality'
p16
S'Australian'
p17
sS'is_bowler'
p18
I00
sS'is_keeper'
p19
I00
sS'id'
p20
S'20'
p21
sS'is_uncapped'
p22
I00
sS'tournamentStats'
p23
(dp24
S'international'
p25
(dp26
S'fieldingStats'
p27
((dp28
S'c'
F20
sS'ctw'
p29
F0
sS'span_s'
p30
F2005
sS'm'
F38
sS's'
F0
sS'dismissals'
p31
F20
sS'i'
F38
sS'ctf'
p32
F20
sS'span_f'
p33
F2012
s(lp34
(dp35
S'inning'
p36
I1
sS'c'
F0
sg29
F0
sS'opp'
p37
S'West Indies'
p38
sS't20i_num'
p39
I288
sg32
F0
sg31
F0
sS's'
F0
sS'place'
p40
S'Colombo (RPS)'
p41
sS'date'
p42
ctime
struct_time
p43
((I2012
I10
I5
I0
I0
I0
I4
I279
I-1
t(dtRp44
sa(dp45
g36
I1
sS'c'
F0
sg29
F0
sg37
S'Pakistan'
p46
sg39
I285
sg32
F0
sg31
F0
sS's'
F0
sg40
S'Colombo (RPS)'
p47
sg42
g43
((I2012
I10
I2
I0
I0
I0
I1
I276
I-1
t(dtRp48
sa(dp49
g36
I1
sS'c'
F0
sg29
F0
sg37
S'South Africa'
p50
sg39
I281
sg32
F0
sg31
F0
sS's'
F0
sg40
S'Colombo (RPS)'
p51
sg42
g43
((I2012
I9
I30
I0
I0
I0
I6
I274
I-1
t(dtRp52
sa(dp53
g36
I1
sS'c'
F0
sg29
F0
sg37
S'India'
p54
sg39
I278
sg32
F0
sg31
F0
sS's'
F0
sg40
S'Colombo (RPS)'
p55
sg42
g43
((I2012
I9
I28
I0
I0
I0
I4
I272
I-1
t(dtRp56
sa(dp57
g36
I1
sS'c'
F1
sg29
F0
sg37
S'West Indies'
p58
sg39
I270
sg32
F1
sg31
F1
sS's'
F0
sg40
S'Colombo (RPS)'
p59
sg42
g43
((I2012
I9
I22
I0
I0
I0
I5
I266
I-1
t(dtRp60
sa(dp61
g36
I1
sS'c'
F0
sg29
F0
sg37
S'Ireland'
p62
sg39
I264
sg32
F0
sg31
F0
sS's'
F0
sg40
S'Colombo (RPS)'
p63
sg42
g43
((I2012
I9
I19
I0
I0
I0
I2
I263
I-1
t(dtRp64
sa(dp65
g36
I2
sS'c'
F1
sg29
F0
sg37
S'Pakistan'
p66
sg39
I259
sg32
F1
sg31
F1
sS's'
F0
sg40
S'Dubai (DSC)'
p67
sg42
g43
((I2012
I9
I10
I0
I0
I0
I0
I254
I-1
t(dtRp68
sa(dp69
g36
I1
sS'c'
F0
sg29
F0
sg37
S'Pakistan'
p70
sg39
I257
sg32
F0
sg31
F0
sS's'
F0
sg40
S'Dubai (DSC)'
p71
sg42
g43
((I2012
I9
I7
I0
I0
I0
I4
I251
I-1
t(dtRp72
sa(dp73
g36
I2
sS'c'
F0
sg29
F0
sg37
S'Pakistan'
p74
sg39
I256
sg32
F0
sg31
F0
sS's'
F0
sg40
S'Dubai (DSC)'
p75
sg42
g43
((I2012
I9
I5
I0
I0
I0
I2
I249
I-1
t(dtRp76
sa(dp77
g36
I1
sS'c'
F0
sg29
F0
sg37
S'West Indies'
p78
sg39
I243
sg32
F0
sg31
F0
sS's'
F0
sg40
S'Bridgetown'
p79
sg42
g43
((I2012
I3
I30
I0
I0
I0
I4
I90
I-1
t(dtRp80
sa(dp81
g36
I1
sS'c'
F0
sg29
F0
sg37
S'West Indies'
p82
sg39
I241
sg32
F0
sg31
F0
sS's'
F0
sg40
S'Gros Islet'
p83
sg42
g43
((I2012
I3
I27
I0
I0
I0
I1
I87
I-1
t(dtRp84
sa(dp85
g36
I1
sS'c'
F0
sg29
F0
sg37
S'Pakistan'
p86
sg39
I185
sg32
F0
sg31
F0
sS's'
F0
sg40
S'Birmingham'
p87
sg42
g43
((I2010
I7
I6
I0
I0
I0
I1
I187
I-1
t(dtRp88
sa(dp89
g36
I1
sS'c'
F0
sg29
F0
sg37
S'Pakistan'
p90
sg39
I184
sg32
F0
sg31
F0
sS's'
F0
sg40
S'Birmingham'
p91
sg42
g43
((I2010
I7
I5
I0
I0
I0
I0
I186
I-1
t(dtRp92
sa(dp93
g36
I2
sS'c'
F0
sg29
F0
sg37
S'England'
p94
sg39
I177
sg32
F0
sg31
F0
sS's'
F0
sg40
S'Bridgetown'
p95
sg42
g43
((I2010
I5
I16
I0
I0
I0
I6
I136
I-1
t(dtRp96
sa(dp97
g36
I1
sS'c'
F0
sg29
F0
sg37
S'Pakistan'
p98
sg39
I176
sg32
F0
sg31
F0
sS's'
F0
sg40
S'Gros Islet'
p99
sg42
g43
((I2010
I5
I14
I0
I0
I0
I4
I134
I-1
t(dtRp100
sa(dp101
g36
I1
sS'c'
F1
sg29
F0
sg37
S'West Indies'
p102
sg39
I174
sg32
F1
sg31
F1
sS's'
F0
sg40
S'Gros Islet'
p103
sg42
g43
((I2010
I5
I11
I0
I0
I0
I1
I131
I-1
t(dtRp104
sa(dp105
g36
I2
sS'c'
F1
sg29
F0
sg37
S'Sri Lanka'
p106
sg39
I170
sg32
F1
sg31
F1
sS's'
F0
sg40
S'Bridgetown'
p107
sg42
g43
((I2010
I5
I9
I0
I0
I0
I6
I129
I-1
t(dtRp108
sa(dp109
g36
I2
sS'c'
F1
sg29
F0
sg37
S'India'
p110
sg39
I165
sg32
F1
sg31
F1
sS's'
F0
sg40
S'Bridgetown'
p111
sg42
g43
((I2010
I5
I7
I0
I0
I0
I4
I127
I-1
t(dtRp112
sa(dp113
g36
I2
sS'c'
F3
sg29
F0
sg37
S'Bangladesh'
p114
sg39
I161
sg32
F3
sg31
F3
sS's'
F0
sg40
S'Bridgetown'
p115
sg42
g43
((I2010
I5
I5
I0
I0
I0
I2
I125
I-1
t(dtRp116
sa(dp117
g36
I2
sS'c'
F2
sg29
F0
sg37
S'Pakistan'
p118
sg39
I156
sg32
F2
sg31
F2
sS's'
F0
sg40
S'Gros Islet'
p119
sg42
g43
((I2010
I5
I2
I0
I0
I0
I6
I122
I-1
t(dtRp120
sa(dp121
g36
I2
sS'c'
F0
sg29
F0
sg37
S'Sri Lanka'
p122
sg39
I97
sg32
F0
sg31
F0
sS's'
F0
sg40
S'Nottingham'
p123
sg42
g43
((I2009
I6
I8
I0
I0
I0
I0
I159
I-1
t(dtRp124
sa(dp125
g36
I2
sS'c'
F0
sg29
F0
sg37
S'West Indies'
p126
sg39
I92
sg32
F0
sg31
F0
sS's'
F0
sg40
S'The Oval'
p127
sg42
g43
((I2009
I6
I6
I0
I0
I0
I5
I157
I-1
t(dtRp128
sa(dp129
g36
I2
sS'c'
F0
sg29
F0
sg37
S'South Africa'
p130
sg39
I87
sg32
F0
sg31
F0
sS's'
F0
sg40
S'Johannesburg'
p131
sg42
g43
((I2009
I3
I27
I0
I0
I0
I4
I86
I-1
t(dtRp132
sa(dp133
g36
I1
sS'c'
F1
sg29
F0
sg37
S'South Africa'
p134
sg39
I81
sg32
F1
sg31
F1
sS's'
F0
sg40
S'Brisbane'
p135
sg42
g43
((I2009
I1
I13
I0
I0
I0
I1
I13
I-1
t(dtRp136
sa(dp137
g36
I2
sS'c'
F1
sg29
F0
sg37
S'South Africa'
p138
sg39
I80
sg32
F1
sg31
F1
sS's'
F0
sg40
S'Melbourne'
p139
sg42
g43
((I2009
I1
I11
I0
I0
I0
I6
I11
I-1
t(dtRp140
sa(dp141
g36
I2
sS'c'
F0
sg29
F0
sg37
S'West Indies'
p142
sg39
I57
sg32
F0
sg31
F0
sS's'
F0
sg40
S'Bridgetown'
p143
sg42
g43
((I2008
I6
I20
I0
I0
I0
I4
I172
I-1
t(dtRp144
sa(dp145
g36
I1
sS'c'
F0
sg29
F0
sg37
S'India'
p146
sg39
I52
sg32
F0
sg31
F0
sS's'
F0
sg40
S'Melbourne'
p147
sg42
g43
((I2008
I2
I1
I0
I0
I0
I4
I32
I-1
t(dtRp148
sa(dp149
g36
I2
sS'c'
F0
sg29
F0
sg37
S'New Zealand'
p150
sg39
I49
sg32
F0
sg31
F0
sS's'
F0
sg40
S'Perth'
p151
sg42
g43
((I2007
I12
I11
I0
I0
I0
I1
I345
I-1
t(dtRp152
sa(dp153
g36
I1
sS'c'
F1
sg29
F0
sg37
S'India'
p154
sg39
I45
sg32
F1
sg31
F1
sS's'
F0
sg40
S'Durban'
p155
sg42
g43
((I2007
I9
I22
I0
I0
I0
I5
I265
I-1
t(dtRp156
sa(dp157
g36
I1
sS'c'
F0
sg29
F0
sg37
S'Sri Lanka'
p158
sg39
I41
sg32
F0
sg31
F0
sS's'
F0
sg40
S'Cape Town'
p159
sg42
g43
((I2007
I9
I20
I0
I0
I0
I3
I263
I-1
t(dtRp160
sa(dp161
g36
I2
sS'c'
F0
sg29
F0
sg37
S'Pakistan'
p162
sg39
I37
sg32
F0
sg31
F0
sS's'
F0
sg40
S'Johannesburg'
p163
sg42
g43
((I2007
I9
I18
I0
I0
I0
I1
I261
I-1
t(dtRp164
sa(dp165
g36
I1
sS'c'
F1
sg29
F0
sg37
S'Bangladesh'
p166
sg39
I33
sg32
F1
sg31
F1
sS's'
F0
sg40
S'Cape Town'
p167
sg42
g43
((I2007
I9
I16
I0
I0
I0
I6
I259
I-1
t(dtRp168
sa(dp169
g36
I1
sS'c'
F1
sg29
F0
sg37
S'England'
p170
sg39
I28
sg32
F1
sg31
F1
sS's'
F0
sg40
S'Cape Town'
p171
sg42
g43
((I2007
I9
I14
I0
I0
I0
I4
I257
I-1
t(dtRp172
sa(dp173
g36
I2
sS'c'
F0
sg29
F0
sg37
S'Zimbabwe'
p174
sg39
I23
sg32
F0
sg31
F0
sS's'
F0
sg40
S'Cape Town'
p175
sg42
g43
((I2007
I9
I12
I0
I0
I0
I2
I255
I-1
t(dtRp176
sa(dp177
g36
I2
sS'c'
F1
sg29
F0
sg37
S'England'
p178
sg39
I13
sg32
F1
sg31
F1
sS's'
F0
sg40
S'Sydney'
p179
sg42
g43
((I2007
I1
I9
I0
I0
I0
I1
I9
I-1
t(dtRp180
sa(dp181
g36
I2
sS'c'
F1
sg29
F0
sg37
S'South Africa'
p182
sg39
I4
sg32
F1
sg31
F1
sS's'
F0
sg40
S'Brisbane'
p183
sg42
g43
((I2006
I1
I9
I0
I0
I0
I0
I9
I-1
t(dtRp184
sa(dp185
g36
I1
sS'c'
F2
sg29
F0
sg37
S'England'
p186
sg39
I2
sg32
F2
sg31
F2
sS's'
F0
sg40
S'Southampton'
p187
sg42
g43
((I2005
I6
I13
I0
I0
I0
I0
I164
I-1
t(dtRp188
sa(dp189
g36
I2
sS'c'
F1
sg29
F0
sg37
S'New Zealand'
p190
sg39
I1
sg32
F1
sg31
F1
sS's'
F0
sg40
S'Auckland'
p191
sg42
g43
((I2005
I2
I17
I0
I0
I0
I3
I48
I-1
t(dtRp192
satp193
sS'bowlingStats'
p194
((dp195
S'a'
F-1
sS'b'
F6
sS'e'
F5
sS'i'
F1
sS'sr'
p196
F-1
sS'5w'
p197
F0
sS'm'
F38
sS'maid'
p198
F0
sS'r'
F5
sS'w'
F0
sS'4w'
p199
F0
sS'bbir'
p200
F-1
sS'bbiw'
p201
F-1
sg33
F2012
sg30
F2005
s(lp202
(dp203
g36
I1
sS'b'
F6
sS'e'
F5
sg39
I81
sS'pos'
p204
I6
sg198
F0
sS'r'
F5
sg40
S'Brisbane'
p205
sS'w'
F0
sg42
g43
((I2009
I1
I13
I0
I0
I0
I1
I13
I-1
t(dtRp206
sg37
S'South Africa'
p207
satp208
sS'battingStats'
p209
((dp210
S'a'
F37.94736842105263
sS'0s'
p211
F1
sS'b'
F529
sS'no'
p212
F11
sg30
F2005
sS'hs'
p213
F60
sS'm'
F38
sS'4s'
p214
F58
sg33
F2012
sS'i'
F30
sS'6s'
p215
F25
sg196
F136.29489603024575
sS'r'
F721
sS'100s'
p216
F0
sS'50s'
p217
F4
s(lp218
(dp219
g36
I2
sS'b'
F12
sg37
S'West Indies'
p220
sg196
F150
sg39
I288
sS'dismiss'
p221
S'caught'
p222
sg214
F3
sg204
I3
sg215
F0
sg40
S'Colombo (RPS)'
p223
sg42
g43
((I2012
I10
I5
I0
I0
I0
I4
I279
I-1
t(dtRp224
sS'r'
F18
sS'minutes'
p225
F8
sa(dp226
g36
I2
sS'b'
F47
sg37
S'Pakistan'
p227
sg212
I01
sg196
F114.8936170212766
sg39
I285
sg221
S'not out'
p228
sg214
F4
sg204
I3
sg215
F1
sg40
S'Colombo (RPS)'
p229
sg42
g43
((I2012
I10
I2
I0
I0
I0
I1
I276
I-1
t(dtRp230
sS'r'
F54
sg225
F74
sa(dp231
g36
I2
sS'b'
F37
sg37
S'South Africa'
p232
sg212
I01
sg196
F121.62162162162163
sg39
I281
sg221
S'not out'
p233
sg214
F2
sg204
I3
sg215
F2
sg40
S'Colombo (RPS)'
p234
sg42
g43
((I2012
I9
I30
I0
I0
I0
I6
I274
I-1
t(dtRp235
sS'r'
F45
sg225
F65
sa(dp236
g36
I2
sS'b'
F19
sg37
S'West Indies'
p237
sg212
I01
sg196
F147.36842105263159
sg39
I270
sg221
S'not out'
p238
sg214
F3
sg204
I3
sg215
F1
sg40
S'Colombo (RPS)'
p239
sg42
g43
((I2012
I9
I22
I0
I0
I0
I5
I266
I-1
t(dtRp240
sS'r'
F28
sg225
F32
sa(dp241
g36
I2
sS'b'
F11
sg37
S'Ireland'
p242
sg196
F90.909090909090907
sg39
I264
sg221
S'lbw'
p243
sg214
F0
sg204
I3
sg215
F0
sg40
S'Colombo (RPS)'
p244
sg42
g43
((I2012
I9
I19
I0
I0
I0
I2
I263
I-1
t(dtRp245
sS'r'
F10
sg225
F16
sa(dp246
g36
I1
sS'b'
F14
sg37
S'Pakistan'
p247
sg196
F85.714285714285708
sg39
I259
sg221
S'bowled'
p248
sg214
F1
sg204
I4
sg215
F0
sg40
S'Dubai (DSC)'
p249
sg42
g43
((I2012
I9
I10
I0
I0
I0
I0
I254
I-1
t(dtRp250
sS'r'
F12
sg225
F28
sa(dp251
g36
I2
sS'b'
F27
sg37
S'Pakistan'
p252
sg196
F85.18518518518519
sg39
I257
sg221
S'caught'
p253
sg214
F1
sg204
I3
sg215
F1
sg40
S'Dubai (DSC)'
p254
sg42
g43
((I2012
I9
I7
I0
I0
I0
I4
I251
I-1
t(dtRp255
sS'r'
F23
sg225
F50
sa(dp256
g36
I1
sS'b'
F3
sg37
S'Pakistan'
p257
sg196
F33.333333333333336
sg39
I256
sg221
S'caught'
p258
sg214
F0
sg204
I3
sg215
F0
sg40
S'Dubai (DSC)'
p259
sg42
g43
((I2012
I9
I5
I0
I0
I0
I2
I249
I-1
t(dtRp260
sS'r'
F1
sg225
F3
sa(dp261
g36
I2
sS'b'
F10
sg37
S'West Indies'
p262
sg196
F140
sg39
I243
sg221
S'caught'
p263
sg214
F0
sg204
I4
sg215
F1
sg40
S'Bridgetown'
p264
sg42
g43
((I2012
I3
I30
I0
I0
I0
I4
I90
I-1
t(dtRp265
sS'r'
F14
sg225
F18
sa(dp266
g36
I2
sS'b'
F45
sg37
S'West Indies'
p267
sg212
I01
sg196
F131.11111111111111
sg39
I241
sg221
S'not out'
p268
sg214
F4
sg204
I3
sg215
F2
sg40
S'Gros Islet'
p269
sg42
g43
((I2012
I3
I27
I0
I0
I0
I1
I87
I-1
t(dtRp270
sS'r'
F59
sg225
F-1
sa(dp271
g36
I2
sS'b'
F14
sg37
S'Pakistan'
p272
sg196
F178.57142857142858
sg39
I185
sg221
S'lbw'
p273
sg214
F4
sg204
I7
sg215
F0
sg40
S'Birmingham'
p274
sg42
g43
((I2010
I7
I6
I0
I0
I0
I1
I187
I-1
t(dtRp275
sS'r'
F25
sg225
F21
sa(dp276
g36
I2
sS'b'
F15
sg37
S'Pakistan'
p277
sg196
F120
sg39
I184
sg221
S'bowled'
p278
sg214
F3
sg204
I6
sg215
F0
sg40
S'Birmingham'
p279
sg42
g43
((I2010
I7
I5
I0
I0
I0
I0
I186
I-1
t(dtRp280
sS'r'
F18
sg225
F21
sa(dp281
g36
I1
sS'b'
F10
sg37
S'England'
p282
sg212
I01
sg196
F170
sg39
I177
sg221
S'not out'
p283
sg214
F2
sg204
I7
sg215
F0
sg40
S'Bridgetown'
p284
sg42
g43
((I2010
I5
I16
I0
I0
I0
I6
I136
I-1
t(dtRp285
sS'r'
F17
sg225
F26
sa(dp286
g36
I2
sS'b'
F24
sg37
S'Pakistan'
p287
sg212
I01
sg196
F250
sg39
I176
sg221
S'not out'
p288
sg214
F3
sg204
I7
sg215
F6
sg40
S'Gros Islet'
p289
sg42
g43
((I2010
I5
I14
I0
I0
I0
I4
I134
I-1
t(dtRp290
sS'r'
F60
sg225
F38
sa(dp291
g36
I1
sS'b'
F26
sg37
S'Sri Lanka'
p292
sg212
I01
sg196
F150
sg39
I170
sg221
S'not out'
p293
sg214
F4
sg204
I7
sg215
F1
sg40
S'Bridgetown'
p294
sg42
g43
((I2010
I5
I9
I0
I0
I0
I6
I129
I-1
t(dtRp295
sS'r'
F39
sg225
F41
sa(dp296
g36
I1
sS'b'
F10
sg37
S'India'
p297
sg196
F80
sg39
I165
sg221
S'bowled'
p298
sg214
F0
sg204
I6
sg215
F0
sg40
S'Bridgetown'
p299
sg42
g43
((I2010
I5
I7
I0
I0
I0
I4
I127
I-1
t(dtRp300
sS'r'
F8
sg225
F9
sa(dp301
g36
I1
sS'b'
F29
sg37
S'Bangladesh'
p302
sg212
I01
sg196
F162.06896551724137
sg39
I161
sg221
S'not out'
p303
sg214
F4
sg204
I7
sg215
F1
sg40
S'Bridgetown'
p304
sg42
g43
((I2010
I5
I5
I0
I0
I0
I2
I125
I-1
t(dtRp305
sS'r'
F47
sg225
F37
sa(dp306
g36
I1
sS'b'
F8
sg37
S'Pakistan'
p307
sg196
F212.5
sg39
I156
sg221
S'run out'
p308
sg214
F1
sg204
I5
sg215
F1
sg40
S'Gros Islet'
p309
sg42
g43
((I2010
I5
I2
I0
I0
I0
I6
I122
I-1
t(dtRp310
sS'r'
F17
sg225
F19
sa(dp311
g36
I1
sS'b'
F5
sg37
S'Sri Lanka'
p312
sg196
F20
sg39
I97
sg221
S'lbw'
p313
sg214
F0
sg204
I7
sg215
F0
sg40
S'Nottingham'
p314
sg42
g43
((I2009
I6
I8
I0
I0
I0
I0
I159
I-1
t(dtRp315
sS'r'
F1
sg225
F7
sa(dp316
g36
I1
sS'b'
F15
sg37
S'West Indies'
p317
sg212
I01
sg196
F186.66666666666666
sg39
I92
sg221
S'not out'
p318
sg214
F3
sg204
I7
sg215
F1
sg40
S'The Oval'
p319
sg42
g43
((I2009
I6
I6
I0
I0
I0
I5
I157
I-1
t(dtRp320
sS'r'
F28
sg225
F24
sa(dp321
g36
I1
sS'b'
F1
sg37
S'South Africa'
p322
sg196
F0
sg39
I87
sg221
S'run out'
p323
sg214
F0
sg204
I5
sg215
F0
sg40
S'Johannesburg'
p324
sg42
g43
((I2009
I3
I27
I0
I0
I0
I4
I86
I-1
t(dtRp325
sS'r'
F0
sg225
F2
sa(dp326
g36
I2
sS'b'
F33
sg37
S'South Africa'
p327
sg212
I01
sg196
F160.60606060606059
sg39
I81
sg221
S'not out'
p328
sg214
F5
sg204
I4
sg215
F1
sg40
S'Brisbane'
p329
sg42
g43
((I2009
I1
I13
I0
I0
I0
I1
I13
I-1
t(dtRp330
sS'r'
F53
sg225
F62
sa(dp331
g36
I1
sS'b'
F8
sg37
S'South Africa'
p332
sg196
F87.5
sg39
I80
sg221
S'run out'
p333
sg214
F0
sg204
I6
sg215
F0
sg40
S'Melbourne'
p334
sg42
g43
((I2009
I1
I11
I0
I0
I0
I6
I11
I-1
t(dtRp335
sS'r'
F7
sg225
F8
sa(dp336
g36
I1
sS'b'
F16
sg37
S'New Zealand'
p337
sg196
F137.5
sg39
I49
sg221
S'stumped'
p338
sg214
F4
sg204
I3
sg215
F0
sg40
S'Perth'
p339
sg42
g43
((I2007
I12
I11
I0
I0
I0
I1
I345
I-1
t(dtRp340
sS'r'
F22
sg225
F22
sa(dp341
g36
I2
sS'b'
F12
sg37
S'India'
p342
sg196
F108.33333333333333
sg39
I45
sg221
S'caught'
p343
sg214
F0
sg204
I5
sg215
F1
sg40
S'Durban'
p344
sg42
g43
((I2007
I9
I22
I0
I0
I0
I5
I265
I-1
t(dtRp345
sS'r'
F13
sg225
F28
sa(dp346
g36
I1
sS'b'
F25
sg37
S'Pakistan'
p347
sg196
F148
sg39
I37
sg221
S'caught'
p348
sg214
F3
sg204
I5
sg215
F1
sg40
S'Johannesburg'
p349
sg42
g43
((I2007
I9
I18
I0
I0
I0
I1
I261
I-1
t(dtRp350
sS'r'
F37
sg225
F37
sa(dp351
g36
I1
sS'b'
F23
sg37
S'Zimbabwe'
p352
sg196
F65.217391304347828
sg39
I23
sg221
S'run out'
p353
sg214
F1
sg204
I5
sg215
F0
sg40
S'Cape Town'
p354
sg42
g43
((I2007
I9
I12
I0
I0
I0
I2
I255
I-1
t(dtRp355
sS'r'
F15
sg225
F20
sa(dp356
g36
I1
sS'b'
F9
sg37
S'England'
p357
sg196
F200
sg39
I13
sg221
S'stumped'
p358
sg214
F2
sg204
I4
sg215
F1
sg40
S'Sydney'
p359
sg42
g43
((I2007
I1
I9
I0
I0
I0
I1
I9
I-1
t(dtRp360
sS'r'
F18
sg225
F7
sa(dp361
g36
I2
sS'b'
F6
sg37
S'England'
p362
sg196
F16.666666666666668
sg39
I2
sg221
S'caught'
p363
sg214
F0
sg204
I5
sg215
F0
sg40
S'Southampton'
p364
sg42
g43
((I2005
I6
I13
I0
I0
I0
I0
I164
I-1
t(dtRp365
sS'r'
F1
sg225
F6
sa(dp366
g36
I1
sS'b'
F15
sg37
S'New Zealand'
p367
sg212
I01
sg196
F206.66666666666666
sg39
I1
sg221
S'not out'
p368
sg214
F1
sg204
I7
sg215
F3
sg40
S'Auckland'
p369
sg42
g43
((I2005
I2
I17
I0
I0
I0
I3
I48
I-1
t(dtRp370
sS'r'
F31
sg225
F18
satp371
ssS'all'
p372
(dp373
g27
(dp374
S'c'
F58
sg29
F0
sS'i'
F118
sS'm'
F118
sS's'
F0
sg31
F58
sg32
F58
ssg194
(dp375
S'a'
F-1
sS'b'
F6
sS'e'
F5
sS'i'
F1
sg196
F-1
sg197
F0
sS'm'
F118
sg198
F0
sS'r'
F5
sS'w'
F0
sg199
F0
sg200
F-1
sg201
F-1
ssg209
(dp376
S'a'
F40.662790697674417
sg211
F-1
sS'b'
F2779
sg212
F23
sS'i'
F109
sg213
F116
sS'm'
F118
sg214
F338
sg215
F88
sg196
F125.83663188197193
sS'r'
F3497
sg216
F1
sg217
F26
ssssb.