(iplayer
Player
p1
(dp2
S'is_batsman'
p3
I00
sS'name'
p4
S'Lasith Malinga'
p5
sS'dob'
p6
S'1983/08/28'
p7
sS'price'
p8
S'950000'
p9
sS'is_allrounder'
p10
I00
sS'espnid'
p11
S'49758'
p12
sS'is_overseas'
p13
I01
sS'team'
p14
S'MI'
p15
sS'nationality'
p16
S'Sri Lankan'
p17
sS'is_bowler'
p18
I01
sS'is_keeper'
p19
I00
sS'id'
p20
S'211'
p21
sS'is_uncapped'
p22
I00
sS'tournamentStats'
p23
(dp24
S'international'
p25
(dp26
S'fieldingStats'
p27
((dp28
S'c'
F14
sS'ctw'
p29
F0
sS'span_s'
p30
F2006
sS'm'
F56
sS's'
F0
sS'dismissals'
p31
F14
sS'i'
F56
sS'ctf'
p32
F14
sS'span_f'
p33
F2014
s(lp34
(dp35
S'inning'
p36
I1
sS'c'
F0
sg29
F0
sS'opp'
p37
S'India'
p38
sS't20i_num'
p39
I400
sg32
F0
sg31
F0
sS's'
F0
sS'place'
p40
S'Dhaka'
p41
sS'date'
p42
ctime
struct_time
p43
((I2014
I4
I6
I0
I0
I0
I6
I96
I-1
t(dtRp44
sa(dp45
g36
I2
sS'c'
F0
sg29
F0
sg37
S'West Indies'
p46
sg39
I398
sg32
F0
sg31
F0
sS's'
F0
sg40
S'Dhaka'
p47
sg42
g43
((I2014
I4
I3
I0
I0
I0
I3
I93
I-1
t(dtRp48
sa(dp49
g36
I2
sS'c'
F0
sg29
F0
sg37
S'New Zealand'
p50
sg39
I395
sg32
F0
sg31
F0
sS's'
F0
sg40
S'Chittagong'
p51
sg42
g43
((I2014
I3
I31
I0
I0
I0
I0
I90
I-1
t(dtRp52
sa(dp53
g36
I2
sS'c'
F0
sg29
F0
sg37
S'England'
p54
sg39
I387
sg32
F0
sg31
F0
sS's'
F0
sg40
S'Chittagong'
p55
sg42
g43
((I2014
I3
I27
I0
I0
I0
I3
I86
I-1
t(dtRp56
sa(dp57
g36
I1
sS'c'
F1
sg29
F0
sg37
S'Netherlands'
p58
sg39
I384
sg32
F1
sg31
F1
sS's'
F0
sg40
S'Chittagong'
p59
sg42
g43
((I2014
I3
I24
I0
I0
I0
I0
I83
I-1
t(dtRp60
sa(dp61
g36
I2
sS'c'
F0
sg29
F0
sg37
S'South Africa'
p62
sg39
I379
sg32
F0
sg31
F0
sS's'
F0
sg40
S'Chittagong'
p63
sg42
g43
((I2014
I3
I22
I0
I0
I0
I5
I81
I-1
t(dtRp64
sa(dp65
g36
I1
sS'c'
F0
sg29
F0
sg37
S'Bangladesh'
p66
sg39
I358
sg32
F0
sg31
F0
sS's'
F0
sg40
S'Chittagong'
p67
sg42
g43
((I2014
I2
I14
I0
I0
I0
I4
I45
I-1
t(dtRp68
sa(dp69
g36
I2
sS'c'
F0
sg29
F0
sg37
S'Bangladesh'
p70
sg39
I357
sg32
F0
sg31
F0
sS's'
F0
sg40
S'Chittagong'
p71
sg42
g43
((I2014
I2
I12
I0
I0
I0
I2
I43
I-1
t(dtRp72
sa(dp73
g36
I2
sS'c'
F0
sg29
F0
sg37
S'Pakistan'
p74
sg39
I351
sg32
F0
sg31
F0
sS's'
F0
sg40
S'Dubai (DSC)'
p75
sg42
g43
((I2013
I12
I13
I0
I0
I0
I4
I347
I-1
t(dtRp76
sa(dp77
g36
I2
sS'c'
F0
sg29
F0
sg37
S'Pakistan'
p78
sg39
I350
sg32
F0
sg31
F0
sS's'
F0
sg40
S'Dubai (DSC)'
p79
sg42
g43
((I2013
I12
I11
I0
I0
I0
I2
I345
I-1
t(dtRp80
sa(dp81
g36
I1
sS'c'
F0
sg29
F0
sg37
S'New Zealand'
p82
sg39
I341
sg32
F0
sg31
F0
sS's'
F0
sg40
S'Pallekele'
p83
sg42
g43
((I2013
I11
I21
I0
I0
I0
I3
I325
I-1
t(dtRp84
sa(dp85
g36
I1
sS'c'
F0
sg29
F0
sg37
S'South Africa'
p86
sg39
I324
sg32
F0
sg31
F0
sS's'
F0
sg40
S'Hambantota'
p87
sg42
g43
((I2013
I8
I4
I0
I0
I0
I6
I216
I-1
t(dtRp88
sa(dp89
g36
I1
sS'c'
F0
sg29
F0
sg37
S'South Africa'
p90
sg39
I323
sg32
F0
sg31
F0
sS's'
F0
sg40
S'Colombo (RPS)'
p91
sg42
g43
((I2013
I8
I2
I0
I0
I0
I4
I214
I-1
t(dtRp92
sa(dp93
g36
I2
sS'c'
F0
sg29
F0
sg37
S'Bangladesh'
p94
sg39
I312
sg32
F0
sg31
F0
sS's'
F0
sg40
S'Pallekele'
p95
sg42
g43
((I2013
I3
I31
I0
I0
I0
I6
I90
I-1
t(dtRp96
sa(dp97
g36
I2
sS'c'
F0
sg29
F0
sg37
S'Australia'
p98
sg39
I300
sg32
F0
sg31
F0
sS's'
F0
sg40
S'Melbourne'
p99
sg42
g43
((I2013
I1
I28
I0
I0
I0
I0
I28
I-1
t(dtRp100
sa(dp101
g36
I1
sS'c'
F0
sg29
F0
sg37
S'Australia'
p102
sg39
I299
sg32
F0
sg31
F0
sS's'
F0
sg40
S'Sydney'
p103
sg42
g43
((I2013
I1
I26
I0
I0
I0
I5
I26
I-1
t(dtRp104
sa(dp105
g36
I1
sS'c'
F0
sg29
F0
sg37
S'West Indies'
p106
sg39
I289
sg32
F0
sg31
F0
sS's'
F0
sg40
S'Colombo (RPS)'
p107
sg42
g43
((I2012
I10
I7
I0
I0
I0
I6
I281
I-1
t(dtRp108
sa(dp109
g36
I2
sS'c'
F0
sg29
F0
sg37
S'Pakistan'
p110
sg39
I287
sg32
F0
sg31
F0
sS's'
F0
sg40
S'Colombo (RPS)'
p111
sg42
g43
((I2012
I10
I4
I0
I0
I0
I3
I278
I-1
t(dtRp112
sa(dp113
g36
I2
sS'c'
F0
sg29
F0
sg37
S'England'
p114
sg39
I284
sg32
F0
sg31
F0
sS's'
F0
sg40
S'Pallekele'
p115
sg42
g43
((I2012
I10
I1
I0
I0
I0
I0
I275
I-1
t(dtRp116
sa(dp117
g36
I1
sS'c'
F0
sg29
F0
sg37
S'West Indies'
p118
sg39
I280
sg32
F0
sg31
F0
sS's'
F0
sg40
S'Pallekele'
p119
sg42
g43
((I2012
I9
I29
I0
I0
I0
I5
I273
I-1
t(dtRp120
sa(dp121
g36
I1
sS'c'
F0
sg29
F0
sg37
S'New Zealand'
p122
sg39
I275
sg32
F0
sg31
F0
sS's'
F0
sg40
S'Pallekele'
p123
sg42
g43
((I2012
I9
I27
I0
I0
I0
I3
I271
I-1
t(dtRp124
sa(dp125
g36
I1
sS'c'
F0
sg29
F0
sg37
S'South Africa'
p126
sg39
I269
sg32
F0
sg31
F0
sS's'
F0
sg40
S'Hambantota'
p127
sg42
g43
((I2012
I9
I22
I0
I0
I0
I5
I266
I-1
t(dtRp128
sa(dp129
g36
I2
sS'c'
F0
sg29
F0
sg37
S'Zimbabwe'
p130
sg39
I263
sg32
F0
sg31
F0
sS's'
F0
sg40
S'Hambantota'
p131
sg42
g43
((I2012
I9
I18
I0
I0
I0
I1
I262
I-1
t(dtRp132
sa(dp133
g36
I1
sS'c'
F0
sg29
F0
sg37
S'India'
p134
sg39
I255
sg32
F0
sg31
F0
sS's'
F0
sg40
S'Pallekele'
p135
sg42
g43
((I2012
I8
I7
I0
I0
I0
I1
I220
I-1
t(dtRp136
sa(dp137
g36
I2
sS'c'
F0
sg29
F0
sg37
S'Pakistan'
p138
sg39
I244
sg32
F0
sg31
F0
sS's'
F0
sg40
S'Hambantota'
p139
sg42
g43
((I2012
I6
I1
I0
I0
I0
I4
I153
I-1
t(dtRp140
sa(dp141
g36
I2
sS'c'
F0
sg29
F0
sg37
S'Pakistan'
p142
sg39
I215
sg32
F0
sg31
F0
sS's'
F0
sg40
S'Abu Dhabi'
p143
sg42
g43
((I2011
I11
I25
I0
I0
I0
I4
I329
I-1
t(dtRp144
sa(dp145
g36
I1
sS'c'
F1
sg29
F0
sg37
S'England'
p146
sg39
I201
sg32
F1
sg31
F1
sS's'
F0
sg40
S'Bristol'
p147
sg42
g43
((I2011
I6
I25
I0
I0
I0
I5
I176
I-1
t(dtRp148
sa(dp149
g36
I1
sS'c'
F0
sg29
F0
sg37
S'Australia'
p150
sg39
I192
sg32
F0
sg31
F0
sS's'
F0
sg40
S'Perth'
p151
sg42
g43
((I2010
I10
I31
I0
I0
I0
I6
I304
I-1
t(dtRp152
sa(dp153
g36
I1
sS'c'
F0
sg29
F0
sg37
S'New Zealand'
p154
sg39
I181
sg32
F0
sg31
F0
sS's'
F0
sg40
S'Lauderhill'
p155
sg42
g43
((I2010
I5
I23
I0
I0
I0
I6
I143
I-1
t(dtRp156
sa(dp157
g36
I1
sS'c'
F1
sg29
F0
sg37
S'New Zealand'
p158
sg39
I180
sg32
F1
sg31
F1
sS's'
F0
sg40
S'Lauderhill'
p159
sg42
g43
((I2010
I5
I22
I0
I0
I0
I5
I142
I-1
t(dtRp160
sa(dp161
g36
I2
sS'c'
F0
sg29
F0
sg37
S'England'
p162
sg39
I175
sg32
F0
sg31
F0
sS's'
F0
sg40
S'Gros Islet'
p163
sg42
g43
((I2010
I5
I13
I0
I0
I0
I3
I133
I-1
t(dtRp164
sa(dp165
g36
I1
sS'c'
F1
sg29
F0
sg37
S'India'
p166
sg39
I173
sg32
F1
sg31
F1
sS's'
F0
sg40
S'Gros Islet'
p167
sg42
g43
((I2010
I5
I11
I0
I0
I0
I1
I131
I-1
t(dtRp168
sa(dp169
g36
I1
sS'c'
F0
sg29
F0
sg37
S'Australia'
p170
sg39
I170
sg32
F0
sg31
F0
sS's'
F0
sg40
S'Bridgetown'
p171
sg42
g43
((I2010
I5
I9
I0
I0
I0
I6
I129
I-1
t(dtRp172
sa(dp173
g36
I2
sS'c'
F0
sg29
F0
sg37
S'West Indies'
p174
sg39
I166
sg32
F0
sg31
F0
sS's'
F0
sg40
S'Bridgetown'
p175
sg42
g43
((I2010
I5
I7
I0
I0
I0
I4
I127
I-1
t(dtRp176
sa(dp177
g36
I2
sS'c'
F0
sg29
F0
sg37
S'Zimbabwe'
p178
sg39
I157
sg32
F0
sg31
F0
sS's'
F0
sg40
S'Providence'
p179
sg42
g43
((I2010
I5
I3
I0
I0
I0
I0
I123
I-1
t(dtRp180
sa(dp181
g36
I2
sS'c'
F1
sg29
F0
sg37
S'New Zealand'
p182
sg39
I151
sg32
F1
sg31
F1
sS's'
F0
sg40
S'Providence'
p183
sg42
g43
((I2010
I4
I30
I0
I0
I0
I4
I120
I-1
t(dtRp184
sa(dp185
g36
I2
sS'c'
F0
sg29
F0
sg37
S'India'
p186
sg39
I127
sg32
F0
sg31
F0
sS's'
F0
sg40
S'Mohali'
p187
sg42
g43
((I2009
I12
I12
I0
I0
I0
I5
I346
I-1
t(dtRp188
sa(dp189
g36
I2
sS'c'
F1
sg29
F0
sg37
S'India'
p190
sg39
I126
sg32
F1
sg31
F1
sS's'
F0
sg40
S'Nagpur'
p191
sg42
g43
((I2009
I12
I9
I0
I0
I0
I2
I343
I-1
t(dtRp192
sa(dp193
g36
I1
sS'c'
F0
sg29
F0
sg37
S'New Zealand'
p194
sg39
I121
sg32
F0
sg31
F0
sS's'
F0
sg40
S'Colombo (RPS)'
p195
sg42
g43
((I2009
I9
I4
I0
I0
I0
I4
I247
I-1
t(dtRp196
sa(dp197
g36
I1
sS'c'
F0
sg29
F0
sg37
S'New Zealand'
p198
sg39
I120
sg32
F0
sg31
F0
sS's'
F0
sg40
S'Colombo (RPS)'
p199
sg42
g43
((I2009
I9
I2
I0
I0
I0
I2
I245
I-1
t(dtRp200
sa(dp201
g36
I1
sS'c'
F1
sg29
F0
sg37
S'Pakistan'
p202
sg39
I118
sg32
F1
sg31
F1
sS's'
F0
sg40
S'Colombo (RPS)'
p203
sg42
g43
((I2009
I8
I12
I0
I0
I0
I2
I224
I-1
t(dtRp204
sa(dp205
g36
I2
sS'c'
F0
sg29
F0
sg37
S'Pakistan'
p206
sg39
I116
sg32
F0
sg31
F0
sS's'
F0
sg40
S"Lord's"
p207
sg42
g43
((I2009
I6
I21
I0
I0
I0
I6
I172
I-1
t(dtRp208
sa(dp209
g36
I2
sS'c'
F0
sg29
F0
sg37
S'West Indies'
p210
sg39
I115
sg32
F0
sg31
F0
sS's'
F0
sg40
S'The Oval'
p211
sg42
g43
((I2009
I6
I19
I0
I0
I0
I4
I170
I-1
t(dtRp212
sa(dp213
g36
I2
sS'c'
F1
sg29
F0
sg37
S'New Zealand'
p214
sg39
I112
sg32
F1
sg31
F1
sS's'
F0
sg40
S'Nottingham'
p215
sg42
g43
((I2009
I6
I16
I0
I0
I0
I1
I167
I-1
t(dtRp216
sa(dp217
g36
I2
sS'c'
F0
sg29
F0
sg37
S'Ireland'
p218
sg39
I108
sg32
F0
sg31
F0
sS's'
F0
sg40
S"Lord's"
p219
sg42
g43
((I2009
I6
I14
I0
I0
I0
I6
I165
I-1
t(dtRp220
sa(dp221
g36
I2
sS'c'
F1
sg29
F0
sg37
S'Pakistan'
p222
sg39
I104
sg32
F1
sg31
F1
sS's'
F0
sg40
S"Lord's"
p223
sg42
g43
((I2009
I6
I12
I0
I0
I0
I4
I163
I-1
t(dtRp224
sa(dp225
g36
I2
sS'c'
F0
sg29
F0
sg37
S'West Indies'
p226
sg39
I100
sg32
F0
sg31
F0
sS's'
F0
sg40
S'Nottingham'
p227
sg42
g43
((I2009
I6
I10
I0
I0
I0
I2
I161
I-1
t(dtRp228
sa(dp229
g36
I1
sS'c'
F0
sg29
F0
sg37
S'Australia'
p230
sg39
I97
sg32
F0
sg31
F0
sS's'
F0
sg40
S'Nottingham'
p231
sg42
g43
((I2009
I6
I8
I0
I0
I0
I0
I159
I-1
t(dtRp232
sa(dp233
g36
I2
sS'c'
F0
sg29
F0
sg37
S'India'
p234
sg39
I82
sg32
F0
sg31
F0
sS's'
F0
sg40
S'Colombo (RPS)'
p235
sg42
g43
((I2009
I2
I10
I0
I0
I0
I1
I41
I-1
t(dtRp236
sa(dp237
g36
I2
sS'c'
F0
sg29
F0
sg37
S'Australia'
p238
sg39
I41
sg32
F0
sg31
F0
sS's'
F0
sg40
S'Cape Town'
p239
sg42
g43
((I2007
I9
I20
I0
I0
I0
I3
I263
I-1
t(dtRp240
sa(dp241
g36
I2
sS'c'
F1
sg29
F0
sg37
S'Bangladesh'
p242
sg39
I38
sg32
F1
sg31
F1
sS's'
F0
sg40
S'Johannesburg'
p243
sg42
g43
((I2007
I9
I18
I0
I0
I0
I1
I261
I-1
t(dtRp244
sa(dp245
g36
I1
sS'c'
F0
sg29
F0
sg37
S'Pakistan'
p246
sg39
I35
sg32
F0
sg31
F0
sS's'
F0
sg40
S'Johannesburg'
p247
sg42
g43
((I2007
I9
I17
I0
I0
I0
I0
I260
I-1
t(dtRp248
sa(dp249
g36
I1
sS'c'
F2
sg29
F0
sg37
S'New Zealand'
p250
sg39
I30
sg32
F2
sg31
F2
sS's'
F0
sg40
S'Johannesburg'
p251
sg42
g43
((I2007
I9
I15
I0
I0
I0
I5
I258
I-1
t(dtRp252
sa(dp253
g36
I2
sS'c'
F1
sg29
F0
sg37
S'Kenya'
p254
sg39
I27
sg32
F1
sg31
F1
sS's'
F0
sg40
S'Johannesburg'
p255
sg42
g43
((I2007
I9
I14
I0
I0
I0
I4
I257
I-1
t(dtRp256
sa(dp257
g36
I2
sS'c'
F0
sg29
F0
sg37
S'New Zealand'
p258
sg39
I12
sg32
F0
sg31
F0
sS's'
F0
sg40
S'Auckland'
p259
sg42
g43
((I2006
I12
I26
I0
I0
I0
I1
I360
I-1
t(dtRp260
sa(dp261
g36
I2
sS'c'
F1
sg29
F0
sg37
S'England'
p262
sg39
I7
sg32
F1
sg31
F1
sS's'
F0
sg40
S'Southampton'
p263
sg42
g43
((I2006
I6
I15
I0
I0
I0
I3
I166
I-1
t(dtRp264
satp265
sS'bowlingStats'
p266
((dp267
S'a'
F21.646153846153847
sS'b'
F1163
sS'e'
F7.2588134135855542
sS'i'
F56
sS'sr'
p268
F17.892307692307693
sS'5w'
p269
F1
sS'm'
F56
sS'maid'
p270
F0
sS'r'
F1407
sS'w'
F65
sS'4w'
p271
F0
sS'bbir'
p272
F31
sS'bbiw'
p273
F5
sg33
F2014
sg30
F2006
s(lp274
(dp275
g36
I1
sS'b'
F24
sS'e'
F6.75
sg39
I400
sS'pos'
p276
I4
sg270
F0
sS'r'
F27
sg40
S'Dhaka'
p277
sS'w'
F0
sg42
g43
((I2014
I4
I6
I0
I0
I0
I6
I96
I-1
t(dtRp278
sg37
S'India'
p279
sa(dp280
g36
I2
sS'b'
F12
sS'e'
F2.5
sg39
I398
sg276
I3
sg270
F0
sS'r'
F5
sg40
S'Dhaka'
p281
sS'w'
F2
sg42
g43
((I2014
I4
I3
I0
I0
I0
I3
I93
I-1
t(dtRp282
sg37
S'West Indies'
p283
sa(dp284
g36
I2
sS'b'
F12
sS'e'
F6.5
sg39
I395
sg276
I4
sg270
F0
sS'r'
F13
sg40
S'Chittagong'
p285
sS'w'
F0
sg42
g43
((I2014
I3
I31
I0
I0
I0
I0
I90
I-1
t(dtRp286
sg37
S'New Zealand'
p287
sa(dp288
g36
I2
sS'b'
F24
sS'e'
F7.75
sg39
I387
sg276
I3
sg270
F0
sS'r'
F31
sg40
S'Chittagong'
p289
sS'w'
F0
sg42
g43
((I2014
I3
I27
I0
I0
I0
I3
I86
I-1
t(dtRp290
sg37
S'England'
p291
sa(dp292
g36
I1
sS'b'
F12
sS'e'
F2.5
sg39
I384
sg276
I3
sg270
F0
sS'r'
F5
sg40
S'Chittagong'
p293
sS'w'
F2
sg42
g43
((I2014
I3
I24
I0
I0
I0
I0
I83
I-1
t(dtRp294
sg37
S'Netherlands'
p295
sa(dp296
g36
I2
sS'b'
F24
sS'e'
F7.25
sg39
I379
sg276
I4
sg270
F0
sS'r'
F29
sg40
S'Chittagong'
p297
sS'w'
F1
sg42
g43
((I2014
I3
I22
I0
I0
I0
I5
I81
I-1
t(dtRp298
sg37
S'South Africa'
p299
sa(dp300
g36
I1
sS'b'
F23
sS'e'
F5.2173913043478262
sg39
I358
sg276
I4
sg270
F0
sS'r'
F20
sg40
S'Chittagong'
p301
sS'w'
F3
sg42
g43
((I2014
I2
I14
I0
I0
I0
I4
I45
I-1
t(dtRp302
sg37
S'Bangladesh'
p303
sa(dp304
g36
I2
sS'b'
F24
sS'e'
F8.5
sg39
I357
sg276
I1
sg270
F0
sS'r'
F34
sg40
S'Chittagong'
p305
sS'w'
F1
sg42
g43
((I2014
I2
I12
I0
I0
I0
I2
I43
I-1
t(dtRp306
sg37
S'Bangladesh'
p307
sa(dp308
g36
I2
sS'b'
F24
sS'e'
F7.5
sg39
I351
sg276
I1
sg270
F0
sS'r'
F30
sg40
S'Dubai (DSC)'
p309
sS'w'
F1
sg42
g43
((I2013
I12
I13
I0
I0
I0
I4
I347
I-1
t(dtRp310
sg37
S'Pakistan'
p311
sa(dp312
g36
I2
sS'b'
F24
sS'e'
F6.5
sg39
I350
sg276
I1
sg270
F0
sS'r'
F26
sg40
S'Dubai (DSC)'
p313
sS'w'
F3
sg42
g43
((I2013
I12
I11
I0
I0
I0
I2
I345
I-1
t(dtRp314
sg37
S'Pakistan'
p315
sa(dp316
g36
I1
sS'b'
F24
sS'e'
F8.25
sg39
I341
sg276
I1
sg270
F0
sS'r'
F33
sg40
S'Pallekele'
p317
sS'w'
F1
sg42
g43
((I2013
I11
I21
I0
I0
I0
I3
I325
I-1
t(dtRp318
sg37
S'New Zealand'
p319
sa(dp320
g36
I1
sS'b'
F24
sS'e'
F8
sg39
I324
sg276
I2
sg270
F0
sS'r'
F32
sg40
S'Hambantota'
p321
sS'w'
F1
sg42
g43
((I2013
I8
I4
I0
I0
I0
I6
I216
I-1
t(dtRp322
sg37
S'South Africa'
p323
sa(dp324
g36
I1
sS'b'
F24
sS'e'
F6.25
sg39
I323
sg276
I1
sg270
F0
sS'r'
F25
sg40
S'Colombo (RPS)'
p325
sS'w'
F1
sg42
g43
((I2013
I8
I2
I0
I0
I0
I4
I214
I-1
t(dtRp326
sg37
S'South Africa'
p327
sa(dp328
g36
I2
sS'b'
F24
sS'e'
F6.75
sg39
I312
sg276
I3
sg270
F0
sS'r'
F27
sg40
S'Pallekele'
p329
sS'w'
F1
sg42
g43
((I2013
I3
I31
I0
I0
I0
I6
I90
I-1
t(dtRp330
sg37
S'Bangladesh'
p331
sa(dp332
g36
I2
sS'b'
F18
sS'e'
F8.6666666666666661
sg39
I300
sg276
I4
sg270
F0
sS'r'
F26
sg40
S'Melbourne'
p333
sS'w'
F0
sg42
g43
((I2013
I1
I28
I0
I0
I0
I0
I28
I-1
t(dtRp334
sg37
S'Australia'
p335
sa(dp336
g36
I1
sS'b'
F24
sS'e'
F4.75
sg39
I299
sg276
I3
sg270
F0
sS'r'
F19
sg40
S'Sydney'
p337
sS'w'
F0
sg42
g43
((I2013
I1
I26
I0
I0
I0
I5
I26
I-1
t(dtRp338
sg37
S'Australia'
p339
sa(dp340
g36
I1
sS'b'
F24
sS'e'
F13.5
sg39
I289
sg276
I3
sg270
F0
sS'r'
F54
sg40
S'Colombo (RPS)'
p341
sS'w'
F0
sg42
g43
((I2012
I10
I7
I0
I0
I0
I6
I281
I-1
t(dtRp342
sg37
S'West Indies'
p343
sa(dp344
g36
I2
sS'b'
F24
sS'e'
F4.75
sg39
I287
sg276
I3
sg270
F0
sS'r'
F19
sg40
S'Colombo (RPS)'
p345
sS'w'
F0
sg42
g43
((I2012
I10
I4
I0
I0
I0
I3
I278
I-1
t(dtRp346
sg37
S'Pakistan'
p347
sa(dp348
g36
I2
sS'b'
F24
sS'e'
F7.75
sg39
I284
sg276
I3
sg270
F0
sS'r'
F31
sg40
S'Pallekele'
p349
sS'w'
F5
sg42
g43
((I2012
I10
I1
I0
I0
I0
I0
I275
I-1
t(dtRp350
sg37
S'England'
p351
sa(dp352
g36
I1
sS'b'
F24
sS'e'
F6.5
sg39
I280
sg276
I3
sg270
F0
sS'r'
F26
sg40
S'Pallekele'
p353
sS'w'
F0
sg42
g43
((I2012
I9
I29
I0
I0
I0
I5
I273
I-1
t(dtRp354
sg37
S'West Indies'
p355
sa(dp356
g36
I1
sS'b'
F24
sS'e'
F7.5
sg39
I275
sg276
I3
sg270
F0
sS'r'
F30
sg40
S'Pallekele'
p357
sS'w'
F1
sg42
g43
((I2012
I9
I27
I0
I0
I0
I3
I271
I-1
t(dtRp358
sg37
S'New Zealand'
p359
sa(dp360
g36
I1
sS'b'
F12
sS'e'
F13.5
sg39
I269
sg276
I2
sg270
F0
sS'r'
F27
sg40
S'Hambantota'
p361
sS'w'
F1
sg42
g43
((I2012
I9
I22
I0
I0
I0
I5
I266
I-1
t(dtRp362
sg37
S'South Africa'
p363
sa(dp364
g36
I2
sS'b'
F15
sS'e'
F8
sg39
I263
sg276
I2
sg270
F0
sS'r'
F20
sg40
S'Hambantota'
p365
sS'w'
F1
sg42
g43
((I2012
I9
I18
I0
I0
I0
I1
I262
I-1
t(dtRp366
sg37
S'Zimbabwe'
p367
sa(dp368
g36
I1
sS'b'
F24
sS'e'
F7.75
sg39
I255
sg276
I3
sg270
F0
sS'r'
F31
sg40
S'Pallekele'
p369
sS'w'
F0
sg42
g43
((I2012
I8
I7
I0
I0
I0
I1
I220
I-1
t(dtRp370
sg37
S'India'
p371
sa(dp372
g36
I2
sS'b'
F18
sS'e'
F4
sg39
I244
sg276
I2
sg270
F0
sS'r'
F12
sg40
S'Hambantota'
p373
sS'w'
F2
sg42
g43
((I2012
I6
I1
I0
I0
I0
I4
I153
I-1
t(dtRp374
sg37
S'Pakistan'
p375
sa(dp376
g36
I2
sS'b'
F21
sS'e'
F9.1428571428571423
sg39
I215
sg276
I1
sg270
F0
sS'r'
F32
sg40
S'Abu Dhabi'
p377
sS'w'
F1
sg42
g43
((I2011
I11
I25
I0
I0
I0
I4
I329
I-1
t(dtRp378
sg37
S'Pakistan'
p379
sa(dp380
g36
I1
sS'b'
F24
sS'e'
F3.75
sg39
I201
sg276
I3
sg270
F0
sS'r'
F15
sg40
S'Bristol'
p381
sS'w'
F2
sg42
g43
((I2011
I6
I25
I0
I0
I0
I5
I176
I-1
t(dtRp382
sg37
S'England'
p383
sa(dp384
g36
I1
sS'b'
F24
sS'e'
F6.5
sg39
I192
sg276
I2
sg270
F0
sS'r'
F26
sg40
S'Perth'
p385
sS'w'
F1
sg42
g43
((I2010
I10
I31
I0
I0
I0
I6
I304
I-1
t(dtRp386
sg37
S'Australia'
p387
sa(dp388
g36
I1
sS'b'
F15
sS'e'
F4.7999999999999998
sg39
I181
sg276
I3
sg270
F0
sS'r'
F12
sg40
S'Lauderhill'
p389
sS'w'
F3
sg42
g43
((I2010
I5
I23
I0
I0
I0
I6
I143
I-1
t(dtRp390
sg37
S'New Zealand'
p391
sa(dp392
g36
I1
sS'b'
F24
sS'e'
F6.25
sg39
I180
sg276
I3
sg270
F0
sS'r'
F25
sg40
S'Lauderhill'
p393
sS'w'
F1
sg42
g43
((I2010
I5
I22
I0
I0
I0
I5
I142
I-1
t(dtRp394
sg37
S'New Zealand'
p395
sa(dp396
g36
I2
sS'b'
F24
sS'e'
F8.25
sg39
I175
sg276
I5
sg270
F0
sS'r'
F33
sg40
S'Gros Islet'
p397
sS'w'
F1
sg42
g43
((I2010
I5
I13
I0
I0
I0
I3
I133
I-1
t(dtRp398
sg37
S'England'
p399
sa(dp400
g36
I1
sS'b'
F24
sS'e'
F6.25
sg39
I173
sg276
I4
sg270
F0
sS'r'
F25
sg40
S'Gros Islet'
p401
sS'w'
F2
sg42
g43
((I2010
I5
I11
I0
I0
I0
I1
I131
I-1
t(dtRp402
sg37
S'India'
p403
sa(dp404
g36
I1
sS'b'
F24
sS'e'
F10
sg39
I170
sg276
I4
sg270
F0
sS'r'
F40
sg40
S'Bridgetown'
p405
sS'w'
F0
sg42
g43
((I2010
I5
I9
I0
I0
I0
I6
I129
I-1
t(dtRp406
sg37
S'Australia'
p407
sa(dp408
g36
I2
sS'b'
F24
sS'e'
F7
sg39
I166
sg276
I6
sg270
F0
sS'r'
F28
sg40
S'Bridgetown'
p409
sS'w'
F3
sg42
g43
((I2010
I5
I7
I0
I0
I0
I4
I127
I-1
t(dtRp410
sg37
S'West Indies'
p411
sa(dp412
g36
I2
sS'b'
F6
sS'e'
F6
sg39
I157
sg276
I2
sg270
F0
sS'r'
F6
sg40
S'Providence'
p413
sS'w'
F0
sg42
g43
((I2010
I5
I3
I0
I0
I0
I0
I123
I-1
t(dtRp414
sg37
S'Zimbabwe'
p415
sa(dp416
g36
I2
sS'b'
F23
sS'e'
F8.6086956521739122
sg39
I151
sg276
I4
sg270
F0
sS'r'
F33
sg40
S'Providence'
p417
sS'w'
F0
sg42
g43
((I2010
I4
I30
I0
I0
I0
I4
I120
I-1
t(dtRp418
sg37
S'New Zealand'
p419
sa(dp420
g36
I2
sS'b'
F24
sS'e'
F7
sg39
I127
sg276
I3
sg270
F0
sS'r'
F28
sg40
S'Mohali'
p421
sS'w'
F1
sg42
g43
((I2009
I12
I12
I0
I0
I0
I5
I346
I-1
t(dtRp422
sg37
S'India'
p423
sa(dp424
g36
I2
sS'b'
F12
sS'e'
F14.5
sg39
I126
sg276
I3
sg270
F0
sS'r'
F29
sg40
S'Nagpur'
p425
sS'w'
F0
sg42
g43
((I2009
I12
I9
I0
I0
I0
I2
I343
I-1
t(dtRp426
sg37
S'India'
p427
sa(dp428
g36
I1
sS'b'
F24
sS'e'
F8.75
sg39
I121
sg276
I2
sg270
F0
sS'r'
F35
sg40
S'Colombo (RPS)'
p429
sS'w'
F1
sg42
g43
((I2009
I9
I4
I0
I0
I0
I4
I247
I-1
t(dtRp430
sg37
S'New Zealand'
p431
sa(dp432
g36
I1
sS'b'
F24
sS'e'
F5.25
sg39
I120
sg276
I2
sg270
F0
sS'r'
F21
sg40
S'Colombo (RPS)'
p433
sS'w'
F2
sg42
g43
((I2009
I9
I2
I0
I0
I0
I2
I245
I-1
t(dtRp434
sg37
S'New Zealand'
p435
sa(dp436
g36
I1
sS'b'
F24
sS'e'
F7
sg39
I118
sg276
I3
sg270
F0
sS'r'
F28
sg40
S'Colombo (RPS)'
p437
sS'w'
F1
sg42
g43
((I2009
I8
I12
I0
I0
I0
I2
I224
I-1
t(dtRp438
sg37
S'Pakistan'
p439
sa(dp440
g36
I2
sS'b'
F22
sS'e'
F3.8181818181818183
sg39
I116
sg276
I3
sg270
F0
sS'r'
F14
sg40
S"Lord's"
p441
sS'w'
F0
sg42
g43
((I2009
I6
I21
I0
I0
I0
I6
I172
I-1
t(dtRp442
sg37
S'Pakistan'
p443
sa(dp444
g36
I2
sS'b'
F16
sS'e'
F9
sg39
I115
sg276
I3
sg270
F0
sS'r'
F24
sg40
S'The Oval'
p445
sS'w'
F1
sg42
g43
((I2009
I6
I19
I0
I0
I0
I4
I170
I-1
t(dtRp446
sg37
S'West Indies'
p447
sa(dp448
g36
I2
sS'b'
F18
sS'e'
F8.6666666666666661
sg39
I112
sg276
I4
sg270
F0
sS'r'
F26
sg40
S'Nottingham'
p449
sS'w'
F1
sg42
g43
((I2009
I6
I16
I0
I0
I0
I1
I167
I-1
t(dtRp450
sg37
S'New Zealand'
p451
sa(dp452
g36
I2
sS'b'
F24
sS'e'
F4.75
sg39
I108
sg276
I4
sg270
F0
sS'r'
F19
sg40
S"Lord's"
p453
sS'w'
F2
sg42
g43
((I2009
I6
I14
I0
I0
I0
I6
I165
I-1
t(dtRp454
sg37
S'Ireland'
p455
sa(dp456
g36
I2
sS'b'
F24
sS'e'
F4.25
sg39
I104
sg276
I3
sg270
F0
sS'r'
F17
sg40
S"Lord's"
p457
sS'w'
F3
sg42
g43
((I2009
I6
I12
I0
I0
I0
I4
I163
I-1
t(dtRp458
sg37
S'Pakistan'
p459
sa(dp460
g36
I2
sS'b'
F24
sS'e'
F11.25
sg39
I100
sg276
I2
sg270
F0
sS'r'
F45
sg40
S'Nottingham'
p461
sS'w'
F2
sg42
g43
((I2009
I6
I10
I0
I0
I0
I2
I161
I-1
t(dtRp462
sg37
S'West Indies'
p463
sa(dp464
g36
I1
sS'b'
F24
sS'e'
F9
sg39
I97
sg276
I4
sg270
F0
sS'r'
F36
sg40
S'Nottingham'
p465
sS'w'
F3
sg42
g43
((I2009
I6
I8
I0
I0
I0
I0
I159
I-1
t(dtRp466
sg37
S'Australia'
p467
sa(dp468
g36
I2
sS'b'
F20
sS'e'
F11.4
sg39
I82
sg276
I1
sg270
F0
sS'r'
F38
sg40
S'Colombo (RPS)'
p469
sS'w'
F0
sg42
g43
((I2009
I2
I10
I0
I0
I0
I1
I41
I-1
t(dtRp470
sg37
S'India'
p471
sa(dp472
g36
I2
sS'b'
F6
sS'e'
F8
sg39
I41
sg276
I5
sg270
F0
sS'r'
F8
sg40
S'Cape Town'
p473
sS'w'
F0
sg42
g43
((I2007
I9
I20
I0
I0
I0
I3
I263
I-1
t(dtRp474
sg37
S'Australia'
p475
sa(dp476
g36
I2
sS'b'
F12
sS'e'
F4
sg39
I38
sg276
I5
sg270
F0
sS'r'
F8
sg40
S'Johannesburg'
p477
sS'w'
F1
sg42
g43
((I2007
I9
I18
I0
I0
I0
I1
I261
I-1
t(dtRp478
sg37
S'Bangladesh'
p479
sa(dp480
g36
I1
sS'b'
F24
sS'e'
F10.75
sg39
I35
sg276
I3
sg270
F0
sS'r'
F43
sg40
S'Johannesburg'
p481
sS'w'
F3
sg42
g43
((I2007
I9
I17
I0
I0
I0
I0
I260
I-1
t(dtRp482
sg37
S'Pakistan'
p483
sa(dp484
g36
I1
sS'b'
F24
sS'e'
F7
sg39
I30
sg276
I5
sg270
F0
sS'r'
F28
sg40
S'Johannesburg'
p485
sS'w'
F1
sg42
g43
((I2007
I9
I15
I0
I0
I0
I5
I258
I-1
t(dtRp486
sg37
S'New Zealand'
p487
sa(dp488
g36
I2
sS'b'
F18
sS'e'
F4.333333333333333
sg39
I27
sg276
I4
sg270
F0
sS'r'
F13
sg40
S'Johannesburg'
p489
sS'w'
F2
sg42
g43
((I2007
I9
I14
I0
I0
I0
I4
I257
I-1
t(dtRp490
sg37
S'Kenya'
p491
sa(dp492
g36
I2
sS'b'
F18
sS'e'
F5
sg39
I12
sg276
I1
sg270
F0
sS'r'
F15
sg40
S'Auckland'
p493
sS'w'
F0
sg42
g43
((I2006
I12
I26
I0
I0
I0
I1
I360
I-1
t(dtRp494
sg37
S'New Zealand'
p495
sa(dp496
g36
I2
sS'b'
F18
sS'e'
F8.3333333333333339
sg39
I7
sg276
I2
sg270
F0
sS'r'
F25
sg40
S'Southampton'
p497
sS'w'
F0
sg42
g43
((I2006
I6
I15
I0
I0
I0
I3
I166
I-1
t(dtRp498
sg37
S'England'
p499
satp500
sS'battingStats'
p501
((dp502
S'a'
F6.9000000000000004
sS'0s'
p503
F4
sS'b'
F83
sS'no'
p504
F7
sg30
F2006
sS'hs'
p505
F27
sS'm'
F56
sS'4s'
p506
F3
sg33
F2014
sS'i'
F17
sS'6s'
p507
F3
sg268
F83.132530120481931
sS'r'
F69
sS'100s'
p508
F0
sS'50s'
p509
F0
s(lp510
(dp511
g36
I1
sS'b'
F1
sg37
S'New Zealand'
p512
sg268
F0
sg39
I395
sS'dismiss'
p513
S'bowled'
p514
sg506
F0
sg276
I11
sg507
F0
sg40
S'Chittagong'
p515
sg42
g43
((I2014
I3
I31
I0
I0
I0
I0
I90
I-1
t(dtRp516
sS'r'
F0
sS'minutes'
p517
F1
sa(dp518
g36
I2
sS'b'
F2
sg37
S'South Africa'
p519
sg268
F0
sg39
I323
sg513
S'caught'
p520
sg506
F0
sg276
I10
sg507
F0
sg40
S'Colombo (RPS)'
p521
sg42
g43
((I2013
I8
I2
I0
I0
I0
I4
I214
I-1
t(dtRp522
sS'r'
F0
sg517
F2
sa(dp523
g36
I2
sS'b'
F13
sg37
S'West Indies'
p524
sg268
F38.46153846153846
sg39
I289
sg513
S'caught'
p525
sg506
F0
sg276
I9
sg507
F0
sg40
S'Colombo (RPS)'
p526
sg42
g43
((I2012
I10
I7
I0
I0
I0
I6
I281
I-1
t(dtRp527
sS'r'
F5
sg517
F22
sa(dp528
g36
I2
sS'b'
F2
sg37
S'India'
p529
sg268
F0
sg39
I255
sg513
S'caught'
p530
sg506
F0
sg276
I10
sg507
F0
sg40
S'Pallekele'
p531
sg42
g43
((I2012
I8
I7
I0
I0
I0
I1
I220
I-1
t(dtRp532
sS'r'
F0
sg517
F3
sa(dp533
g36
I1
sS'b'
F2
sg37
S'Pakistan'
p534
sg268
F50
sg39
I215
sg513
S'bowled'
p535
sg506
F0
sg276
I8
sg507
F0
sg40
S'Abu Dhabi'
p536
sg42
g43
((I2011
I11
I25
I0
I0
I0
I4
I329
I-1
t(dtRp537
sS'r'
F1
sg517
F-1
sa(dp538
g36
I2
sS'b'
F2
sg37
S'New Zealand'
p539
sg268
F0
sg39
I180
sg513
S'run out'
p540
sg506
F0
sg276
I10
sg507
F0
sg40
S'Lauderhill'
p541
sg42
g43
((I2010
I5
I22
I0
I0
I0
I5
I142
I-1
t(dtRp542
sS'r'
F0
sg517
F1
sa(dp543
g36
I2
sS'b'
F8
sg37
S'Australia'
p544
sg268
F12.5
sg39
I170
sg513
S'caught'
p545
sg506
F0
sg276
I9
sg507
F0
sg40
S'Bridgetown'
p546
sg42
g43
((I2010
I5
I9
I0
I0
I0
I6
I129
I-1
t(dtRp547
sS'r'
F1
sg517
F5
sa(dp548
g36
I1
sS'b'
F3
sg37
S'Zimbabwe'
p549
sg504
I01
sg268
F66.666666666666671
sg39
I157
sg513
S'not out'
p550
sg506
F0
sg276
I9
sg507
F0
sg40
S'Providence'
p551
sg42
g43
((I2010
I5
I3
I0
I0
I0
I0
I123
I-1
t(dtRp552
sS'r'
F2
sg517
F4
sa(dp553
g36
I2
sS'b'
F0
sg37
S'New Zealand'
p554
sg504
I01
sg268
F0
sg39
I121
sg513
S'not out'
p555
sg506
F0
sg276
I10
sg507
F0
sg40
S'Colombo (RPS)'
p556
sg42
g43
((I2009
I9
I4
I0
I0
I0
I4
I247
I-1
t(dtRp557
sS'r'
F0
sg517
F1
sa(dp558
g36
I2
sS'b'
F3
sg37
S'New Zealand'
p559
sg504
I01
sg268
F133.33333333333334
sg39
I120
sg513
S'not out'
p560
sg506
F0
sg276
I10
sg507
F0
sg40
S'Colombo (RPS)'
p561
sg42
g43
((I2009
I9
I2
I0
I0
I0
I2
I245
I-1
t(dtRp562
sS'r'
F4
sg517
F5
sa(dp563
g36
I2
sS'b'
F1
sg37
S'Pakistan'
p564
sg504
I01
sg268
F0
sg39
I118
sg513
S'not out'
p565
sg506
F0
sg276
I11
sg507
F0
sg40
S'Colombo (RPS)'
p566
sg42
g43
((I2009
I8
I12
I0
I0
I0
I2
I224
I-1
t(dtRp567
sS'r'
F0
sg517
F3
sa(dp568
g36
I1
sS'b'
F2
sg37
S'Ireland'
p569
sg504
I01
sg268
F50
sg39
I108
sg513
S'not out'
p570
sg506
F0
sg276
I10
sg507
F0
sg40
S"Lord's"
p571
sg42
g43
((I2009
I6
I14
I0
I0
I0
I6
I165
I-1
t(dtRp572
sS'r'
F1
sg517
F2
sa(dp573
g36
I1
sS'b'
F1
sg37
S'Pakistan'
p574
sg504
I01
sg268
F200
sg39
I104
sg513
S'not out'
p575
sg506
F0
sg276
I9
sg507
F0
sg40
S"Lord's"
p576
sg42
g43
((I2009
I6
I12
I0
I0
I0
I4
I163
I-1
t(dtRp577
sS'r'
F2
sg517
F1
sa(dp578
g36
I1
sS'b'
F10
sg37
S'Australia'
p579
sg504
I01
sg268
F120
sg39
I41
sg513
S'not out'
p580
sg506
F0
sg276
I10
sg507
F1
sg40
S'Cape Town'
p581
sg42
g43
((I2007
I9
I20
I0
I0
I0
I3
I263
I-1
t(dtRp582
sS'r'
F12
sg517
F13
sa(dp583
g36
I2
sS'b'
F2
sg37
S'Pakistan'
p584
sg268
F50
sg39
I35
sg513
S'caught'
p585
sg506
F0
sg276
I10
sg507
F0
sg40
S'Johannesburg'
p586
sg42
g43
((I2007
I9
I17
I0
I0
I0
I0
I260
I-1
t(dtRp587
sS'r'
F1
sg517
F3
sa(dp588
g36
I1
sS'b'
F19
sg37
S'New Zealand'
p589
sg268
F142.10526315789474
sg39
I12
sg513
S'bowled'
p590
sg506
F2
sg276
I9
sg507
F2
sg40
S'Auckland'
p591
sg42
g43
((I2006
I12
I26
I0
I0
I0
I1
I360
I-1
t(dtRp592
sS'r'
F27
sg517
F25
sa(dp593
g36
I1
sS'b'
F12
sg37
S'England'
p594
sg268
F108.33333333333333
sg39
I7
sg513
S'caught'
p595
sg506
F1
sg276
I9
sg507
F0
sg40
S'Southampton'
p596
sg42
g43
((I2006
I6
I15
I0
I0
I0
I3
I166
I-1
t(dtRp597
sS'r'
F13
sg517
F15
satp598
ssS'all'
p599
(dp600
g27
(dp601
S'c'
F37
sg29
F0
sS'i'
F181
sS'm'
F181
sS's'
F0
sg31
F37
sg32
F37
ssg266
(dp602
S'a'
F18.004149377593361
sS'b'
F3934
sS'e'
F6.6176919166243007
sS'i'
F177
sg268
F16.323651452282157
sg269
F4
sS'm'
F181
sg270
F0
sS'r'
F4339
sS'w'
F241
sg271
F5
sg272
F7
sg273
F6
ssg501
(dp603
S'a'
F7.0555555555555554
sg503
F-1
sS'b'
F260
sg504
F22
sS'i'
F58
sg505
F37
sS'm'
F181
sg506
F14
sg507
F15
sg268
F97.692307692307693
sS'r'
F254
sg508
F0
sg509
F0
ssssb.