(iplayer
Player
p1
(dp2
S'is_batsman'
p3
I00
sS'name'
p4
S'Krishmar Santokie'
p5
sS'dob'
p6
S'1984/12/20'
p7
sS'price'
p8
S'750000'
p9
sS'is_allrounder'
p10
I00
sS'espnid'
p11
S'314622'
p12
sS'is_overseas'
p13
I01
sS'team'
p14
S'MI'
p15
sS'nationality'
p16
S'West Indian'
p17
sS'is_bowler'
p18
I01
sS'is_keeper'
p19
I00
sS'id'
p20
S'1747'
p21
sS'is_uncapped'
p22
I00
sS'tournamentStats'
p23
(dp24
S'international'
p25
(dp26
S'fieldingStats'
p27
((dp28
S'c'
F1
sS'ctw'
p29
F0
sS'span_s'
p30
F2011
sS'm'
F10
sS's'
F0
sS'dismissals'
p31
F1
sS'i'
F10
sS'ctf'
p32
F1
sS'span_f'
p33
F2014
s(lp34
(dp35
S'inning'
p36
I1
sS'c'
F0
sg29
F0
sS'opp'
p37
S'Sri Lanka'
p38
sS't20i_num'
p39
I398
sg32
F0
sg31
F0
sS's'
F0
sS'place'
p40
S'Dhaka'
p41
sS'date'
p42
ctime
struct_time
p43
((I2014
I4
I3
I0
I0
I0
I3
I93
I-1
t(dtRp44
sa(dp45
g36
I2
sS'c'
F0
sg29
F0
sg37
S'Pakistan'
p46
sg39
I397
sg32
F0
sg31
F0
sS's'
F0
sg40
S'Dhaka'
p47
sg42
g43
((I2014
I4
I1
I0
I0
I0
I1
I91
I-1
t(dtRp48
sa(dp49
g36
I1
sS'c'
F0
sg29
F0
sg37
S'Australia'
p50
sg39
I388
sg32
F0
sg31
F0
sS's'
F0
sg40
S'Dhaka'
p51
sg42
g43
((I2014
I3
I28
I0
I0
I0
I4
I87
I-1
t(dtRp52
sa(dp53
g36
I2
sS'c'
F1
sg29
F0
sg37
S'Bangladesh'
p54
sg39
I385
sg32
F1
sg31
F1
sS's'
F0
sg40
S'Dhaka'
p55
sg42
g43
((I2014
I3
I25
I0
I0
I0
I1
I84
I-1
t(dtRp56
sa(dp57
g36
I2
sS'c'
F0
sg29
F0
sg37
S'India'
p58
sg39
I382
sg32
F0
sg31
F0
sS's'
F0
sg40
S'Dhaka'
p59
sg42
g43
((I2014
I3
I23
I0
I0
I0
I6
I82
I-1
t(dtRp60
sa(dp61
g36
I1
sS'c'
F0
sg29
F0
sg37
S'England'
p62
sg39
I364
sg32
F0
sg31
F0
sS's'
F0
sg40
S'Bridgetown'
p63
sg42
g43
((I2014
I3
I13
I0
I0
I0
I3
I72
I-1
t(dtRp64
sa(dp65
g36
I1
sS'c'
F0
sg29
F0
sg37
S'England'
p66
sg39
I362
sg32
F0
sg31
F0
sS's'
F0
sg40
S'Bridgetown'
p67
sg42
g43
((I2014
I3
I11
I0
I0
I0
I1
I70
I-1
t(dtRp68
sa(dp69
g36
I2
sS'c'
F0
sg29
F0
sg37
S'Ireland'
p70
sg39
I360
sg32
F0
sg31
F0
sS's'
F0
sg40
S'Kingston'
p71
sg42
g43
((I2014
I2
I21
I0
I0
I0
I4
I52
I-1
t(dtRp72
sa(dp73
g36
I2
sS'c'
F0
sg29
F0
sg37
S'Australia'
p74
sg39
I241
sg32
F0
sg31
F0
sS's'
F0
sg40
S'Gros Islet'
p75
sg42
g43
((I2012
I3
I27
I0
I0
I0
I1
I87
I-1
t(dtRp76
sa(dp77
g36
I2
sS'c'
F0
sg29
F0
sg37
S'England'
p78
sg39
I208
sg32
F0
sg31
F0
sS's'
F0
sg40
S'The Oval'
p79
sg42
g43
((I2011
I9
I25
I0
I0
I0
I6
I268
I-1
t(dtRp80
satp81
sS'bowlingStats'
p82
((dp83
S'a'
F13.705882352941176
sS'b'
F221
sS'e'
F6.3257918552036196
sS'i'
F10
sS'sr'
p84
F13
sS'5w'
p85
F0
sS'm'
F10
sS'maid'
p86
F0
sS'r'
F233
sS'w'
F17
sS'4w'
p87
F1
sS'bbir'
p88
F21
sS'bbiw'
p89
F4
sg33
F2014
sg30
F2011
s(lp90
(dp91
g36
I1
sS'b'
F24
sS'e'
F11.5
sg39
I398
sS'pos'
p92
I2
sg86
F0
sS'r'
F46
sg40
S'Dhaka'
p93
sS'w'
F2
sg42
g43
((I2014
I4
I3
I0
I0
I0
I3
I93
I-1
t(dtRp94
sg37
S'Sri Lanka'
p95
sa(dp96
g36
I2
sS'b'
F17
sS'e'
F3.1764705882352939
sg39
I397
sg92
I1
sg86
F0
sS'r'
F9
sg40
S'Dhaka'
p97
sS'w'
F2
sg42
g43
((I2014
I4
I1
I0
I0
I0
I1
I91
I-1
t(dtRp98
sg37
S'Pakistan'
p99
sa(dp100
g36
I1
sS'b'
F24
sS'e'
F7.5
sg39
I388
sg92
I1
sg86
F0
sS'r'
F30
sg40
S'Dhaka'
p101
sS'w'
F1
sg42
g43
((I2014
I3
I28
I0
I0
I0
I4
I87
I-1
t(dtRp102
sg37
S'Australia'
p103
sa(dp104
g36
I2
sS'b'
F24
sS'e'
F4.25
sg39
I385
sg92
I2
sg86
F0
sS'r'
F17
sg40
S'Dhaka'
p105
sS'w'
F3
sg42
g43
((I2014
I3
I25
I0
I0
I0
I1
I84
I-1
t(dtRp106
sg37
S'Bangladesh'
p107
sa(dp108
g36
I2
sS'b'
F24
sS'e'
F6.75
sg39
I382
sg92
I2
sg86
F0
sS'r'
F27
sg40
S'Dhaka'
p109
sS'w'
F0
sg42
g43
((I2014
I3
I23
I0
I0
I0
I6
I82
I-1
t(dtRp110
sg37
S'India'
p111
sa(dp112
g36
I1
sS'b'
F24
sS'e'
F6.75
sg39
I364
sg92
I1
sg86
F0
sS'r'
F27
sg40
S'Bridgetown'
p113
sS'w'
F2
sg42
g43
((I2014
I3
I13
I0
I0
I0
I3
I72
I-1
t(dtRp114
sg37
S'England'
p115
sa(dp116
g36
I1
sS'b'
F24
sS'e'
F5.25
sg39
I362
sg92
I2
sg86
F0
sS'r'
F21
sg40
S'Bridgetown'
p117
sS'w'
F4
sg42
g43
((I2014
I3
I11
I0
I0
I0
I1
I70
I-1
t(dtRp118
sg37
S'England'
p119
sa(dp120
g36
I2
sS'b'
F24
sS'e'
F3
sg39
I360
sg92
I1
sg86
F0
sS'r'
F12
sg40
S'Kingston'
p121
sS'w'
F1
sg42
g43
((I2014
I2
I21
I0
I0
I0
I4
I52
I-1
t(dtRp122
sg37
S'Ireland'
p123
sa(dp124
g36
I2
sS'b'
F18
sS'e'
F9
sg39
I241
sg92
I1
sg86
F0
sS'r'
F27
sg40
S'Gros Islet'
p125
sS'w'
F1
sg42
g43
((I2012
I3
I27
I0
I0
I0
I1
I87
I-1
t(dtRp126
sg37
S'Australia'
p127
sa(dp128
g36
I2
sS'b'
F18
sS'e'
F5.666666666666667
sg39
I208
sg92
I1
sg86
F0
sS'r'
F17
sg40
S'The Oval'
p129
sS'w'
F1
sg42
g43
((I2011
I9
I25
I0
I0
I0
I6
I268
I-1
t(dtRp130
sg37
S'England'
p131
satp132
sS'battingStats'
p133
((dp134
S'a'
F-1
sS'0s'
p135
F0
sS'b'
F0
sS'no'
p136
F1
sg30
F2011
sS'hs'
p137
F0
sS'm'
F10
sS'4s'
p138
F0
sg33
F2014
sS'i'
F1
sS'6s'
p139
F0
sg84
F0
sS'r'
F0
sS'100s'
p140
F0
sS'50s'
p141
F0
s(lp142
(dp143
g36
I1
sS'b'
F0
sg37
S'Ireland'
p144
sg136
I01
sg84
F0
sg39
I360
sS'dismiss'
p145
S'not out'
p146
sg138
F0
sg92
I11
sg139
F0
sg40
S'Kingston'
p147
sg42
g43
((I2014
I2
I21
I0
I0
I0
I4
I52
I-1
t(dtRp148
sS'r'
F0
sS'minutes'
p149
F-1
satp150
ssS'all'
p151
(dp152
g27
(dp153
S'c'
F10
sg29
F0
sS'i'
F52
sS'm'
F52
sS's'
F0
sg31
F10
sg32
F10
ssg82
(dp154
S'a'
F12.030927835051546
sS'b'
F1155
sS'e'
F6.0623376623376624
sS'i'
F52
sg84
F11.907216494845361
sg85
F1
sS'm'
F52
sg86
F0
sS'r'
F1167
sS'w'
F97
sg87
F4
sg88
F24
sg89
F5
ssg133
(dp155
S'a'
F7.4444444444444446
sg135
F-1
sS'b'
F66
sg136
F4
sS'i'
F13
sg137
F22
sS'm'
F52
sg138
F4
sg139
F5
sg84
F101.51515151515152
sS'r'
F67
sg140
F0
sg141
F0
ssssb.