(iplayer
Player
p1
(dp2
S'is_batsman'
p3
I01
sS'name'
p4
S'Shaun Marsh'
p5
sS'dob'
p6
S'1983/07/09'
p7
sS'price'
p8
S'1000000'
p9
sS'is_allrounder'
p10
I00
sS'espnid'
p11
S'6683'
p12
sS'is_overseas'
p13
I01
sS'team'
p14
S'KXIP'
p15
sS'nationality'
p16
S'Australian'
p17
sS'is_bowler'
p18
I00
sS'is_keeper'
p19
I00
sS'id'
p20
S'191'
p21
sS'is_uncapped'
p22
I00
sS'tournamentStats'
p23
(dp24
S'international'
p25
(dp26
S'fieldingStats'
p27
((dp28
S'c'
F3
sS'ctw'
p29
F0
sS'span_s'
p30
F2008
sS'm'
F13
sS's'
F0
sS'dismissals'
p31
F3
sS'i'
F13
sS'ctf'
p32
F3
sS'span_f'
p33
F2013
s(lp34
(dp35
S'inning'
p36
I1
sS'c'
F0
sg29
F0
sS'opp'
p37
S'England'
p38
sS't20i_num'
p39
I329
sg32
F0
sg31
F0
sS's'
F0
sS'place'
p40
S'Chester-le-Street'
p41
sS'date'
p42
ctime
struct_time
p43
((I2013
I8
I31
I0
I0
I0
I5
I243
I-1
t(dtRp44
sa(dp45
g36
I2
sS'c'
F0
sg29
F0
sg37
S'England'
p46
sg39
I328
sg32
F0
sg31
F0
sS's'
F0
sg40
S'Southampton'
p47
sg42
g43
((I2013
I8
I29
I0
I0
I0
I3
I241
I-1
t(dtRp48
sa(dp49
g36
I1
sS'c'
F2
sg29
F0
sg37
S'West Indies'
p50
sg39
I303
sg32
F2
sg31
F2
sS's'
F0
sg40
S'Brisbane'
p51
sg42
g43
((I2013
I2
I13
I0
I0
I0
I2
I44
I-1
t(dtRp52
sa(dp53
g36
I1
sS'c'
F0
sg29
F0
sg37
S'Sri Lanka'
p54
sg39
I300
sg32
F0
sg31
F0
sS's'
F0
sg40
S'Melbourne'
p55
sg42
g43
((I2013
I1
I28
I0
I0
I0
I0
I28
I-1
t(dtRp56
sa(dp57
g36
I2
sS'c'
F0
sg29
F0
sg37
S'Sri Lanka'
p58
sg39
I299
sg32
F0
sg31
F0
sS's'
F0
sg40
S'Sydney'
p59
sg42
g43
((I2013
I1
I26
I0
I0
I0
I5
I26
I-1
t(dtRp60
sa(dp61
g36
I2
sS'c'
F1
sg29
F0
sg37
S'India'
p62
sg39
I218
sg32
F1
sg31
F1
sS's'
F0
sg40
S'Melbourne'
p63
sg42
g43
((I2012
I2
I3
I0
I0
I0
I4
I34
I-1
t(dtRp64
sa(dp65
g36
I2
sS'c'
F0
sg29
F0
sg37
S'South Africa'
p66
sg39
I212
sg32
F0
sg31
F0
sS's'
F0
sg40
S'Johannesburg'
p67
sg42
g43
((I2011
I10
I16
I0
I0
I0
I6
I289
I-1
t(dtRp68
sa(dp69
g36
I1
sS'c'
F0
sg29
F0
sg37
S'South Africa'
p70
sg39
I210
sg32
F0
sg31
F0
sS's'
F0
sg40
S'Cape Town'
p71
sg42
g43
((I2011
I10
I13
I0
I0
I0
I3
I286
I-1
t(dtRp72
sa(dp73
g36
I1
sS'c'
F0
sg29
F0
sg37
S'Sri Lanka'
p74
sg39
I203
sg32
F0
sg31
F0
sS's'
F0
sg40
S'Pallekele'
p75
sg42
g43
((I2011
I8
I8
I0
I0
I0
I0
I220
I-1
t(dtRp76
sa(dp77
g36
I1
sS'c'
F0
sg29
F0
sg37
S'Sri Lanka'
p78
sg39
I202
sg32
F0
sg31
F0
sS's'
F0
sg40
S'Pallekele'
p79
sg42
g43
((I2011
I8
I6
I0
I0
I0
I5
I218
I-1
t(dtRp80
sa(dp81
g36
I1
sS'c'
F0
sg29
F0
sg37
S'South Africa'
p82
sg39
I81
sg32
F0
sg31
F0
sS's'
F0
sg40
S'Brisbane'
p83
sg42
g43
((I2009
I1
I13
I0
I0
I0
I1
I13
I-1
t(dtRp84
sa(dp85
g36
I2
sS'c'
F0
sg29
F0
sg37
S'South Africa'
p86
sg39
I80
sg32
F0
sg31
F0
sS's'
F0
sg40
S'Melbourne'
p87
sg42
g43
((I2009
I1
I11
I0
I0
I0
I6
I11
I-1
t(dtRp88
sa(dp89
g36
I2
sS'c'
F0
sg29
F0
sg37
S'West Indies'
p90
sg39
I57
sg32
F0
sg31
F0
sS's'
F0
sg40
S'Bridgetown'
p91
sg42
g43
((I2008
I6
I20
I0
I0
I0
I4
I172
I-1
t(dtRp92
satp93
sS'bowlingStats'
p94
((dp95
S'a'
F-1
sS'b'
F0
sS'e'
F-1
sS'i'
F0
sS'sr'
p96
F-1
sS'5w'
p97
F0
sS'm'
F13
sS'maid'
p98
F0
sS'r'
F0
sS'w'
F0
sS'4w'
p99
F0
sS'bbir'
p100
F-1
sS'bbiw'
p101
F-1
sg33
F2013
sg30
F2008
s(ltp102
sS'battingStats'
p103
((dp104
S'a'
F18.583333333333332
sS'0s'
p105
F2
sS'b'
F213
sS'no'
p106
F1
sg30
F2008
sS'hs'
p107
F47
sS'm'
F13
sS'4s'
p108
F12
sg33
F2013
sS'i'
F13
sS'6s'
p109
F10
sg96
F104.69483568075117
sS'r'
F223
sS'100s'
p110
F0
sS'50s'
p111
F0
s(lp112
(dp113
g36
I2
sS'b'
F14
sg37
S'England'
p114
sg96
F92.857142857142861
sg39
I329
sS'dismiss'
p115
S'bowled'
p116
sg108
F0
sS'pos'
p117
I4
sg109
F1
sg40
S'Chester-le-Street'
p118
sg42
g43
((I2013
I8
I31
I0
I0
I0
I5
I243
I-1
t(dtRp119
sS'r'
F13
sS'minutes'
p120
F30
sa(dp121
g36
I1
sS'b'
F21
sg37
S'England'
p122
sg96
F133.33333333333334
sg39
I328
sg115
S'caught'
p123
sg108
F2
sg117
I3
sg109
F1
sg40
S'Southampton'
p124
sg42
g43
((I2013
I8
I29
I0
I0
I0
I3
I241
I-1
t(dtRp125
sS'r'
F28
sg120
F34
sa(dp126
g36
I2
sS'b'
F19
sg37
S'West Indies'
p127
sg96
F110.52631578947368
sg39
I303
sg115
S'run out'
p128
sg108
F0
sg117
I2
sg109
F1
sg40
S'Brisbane'
p129
sg42
g43
((I2013
I2
I13
I0
I0
I0
I2
I44
I-1
t(dtRp130
sS'r'
F21
sg120
F43
sa(dp131
g36
I2
sS'b'
F40
sg37
S'Sri Lanka'
p132
sg106
I01
sg96
F117.5
sg39
I300
sg115
S'not out'
p133
sg108
F2
sg117
I3
sg109
F2
sg40
S'Melbourne'
p134
sg42
g43
((I2013
I1
I28
I0
I0
I0
I0
I28
I-1
t(dtRp135
sS'r'
F47
sg120
F68
sa(dp136
g36
I1
sS'b'
F17
sg37
S'Sri Lanka'
p137
sg96
F35.294117647058826
sg39
I299
sg115
S'run out'
p138
sg108
F0
sg117
I3
sg109
F0
sg40
S'Sydney'
p139
sg42
g43
((I2013
I1
I26
I0
I0
I0
I5
I26
I-1
t(dtRp140
sS'r'
F6
sg120
F22
sa(dp141
g36
I1
sS'b'
F2
sg37
S'India'
p142
sg96
F0
sg39
I218
sg115
S'caught'
p143
sg108
F0
sg117
I3
sg109
F0
sg40
S'Melbourne'
p144
sg42
g43
((I2012
I2
I3
I0
I0
I0
I4
I34
I-1
t(dtRp145
sS'r'
F0
sg120
F1
sa(dp146
g36
I1
sS'b'
F23
sg37
S'South Africa'
p147
sg96
F113.04347826086956
sg39
I212
sg115
S'caught'
p148
sg108
F2
sg117
I3
sg109
F2
sg40
S'Johannesburg'
p149
sg42
g43
((I2011
I10
I16
I0
I0
I0
I6
I289
I-1
t(dtRp150
sS'r'
F26
sg120
F34
sa(dp151
g36
I2
sS'b'
F19
sg37
S'South Africa'
p152
sg96
F131.57894736842104
sg39
I210
sg115
S'bowled'
p153
sg108
F3
sg117
I3
sg109
F0
sg40
S'Cape Town'
p154
sg42
g43
((I2011
I10
I13
I0
I0
I0
I3
I286
I-1
t(dtRp155
sS'r'
F25
sg120
F47
sa(dp156
g36
I2
sS'b'
F3
sg37
S'Sri Lanka'
p157
sg96
F0
sg39
I203
sg115
S'stumped'
p158
sg108
F0
sg117
I4
sg109
F0
sg40
S'Pallekele'
p159
sg42
g43
((I2011
I8
I8
I0
I0
I0
I0
I220
I-1
t(dtRp160
sS'r'
F0
sg120
F3
sa(dp161
g36
I2
sS'b'
F7
sg37
S'Sri Lanka'
p162
sg96
F57.142857142857146
sg39
I202
sg115
S'lbw'
p163
sg108
F0
sg117
I3
sg109
F0
sg40
S'Pallekele'
p164
sg42
g43
((I2011
I8
I6
I0
I0
I0
I5
I218
I-1
t(dtRp165
sS'r'
F4
sg120
F9
sa(dp166
g36
I2
sS'b'
F17
sg37
S'South Africa'
p167
sg96
F88.235294117647058
sg39
I81
sg115
S'caught'
p168
sg108
F1
sg117
I1
sg109
F1
sg40
S'Brisbane'
p169
sg42
g43
((I2009
I1
I13
I0
I0
I0
I1
I13
I-1
t(dtRp170
sS'r'
F15
sg120
F27
sa(dp171
g36
I1
sS'b'
F9
sg37
S'South Africa'
p172
sg96
F100
sg39
I80
sg115
S'caught'
p173
sg108
F1
sg117
I1
sg109
F0
sg40
S'Melbourne'
p174
sg42
g43
((I2009
I1
I11
I0
I0
I0
I6
I11
I-1
t(dtRp175
sS'r'
F9
sg120
F14
sa(dp176
g36
I1
sS'b'
F22
sg37
S'West Indies'
p177
sg96
F131.81818181818181
sg39
I57
sg115
S'caught'
p178
sg108
F1
sg117
I1
sg109
F2
sg40
S'Bridgetown'
p179
sg42
g43
((I2008
I6
I20
I0
I0
I0
I4
I172
I-1
t(dtRp180
sS'r'
F29
sg120
F44
satp181
ssS'all'
p182
(dp183
g27
(dp184
S'c'
F46
sg29
F0
sS'i'
F113
sS'm'
F113
sS's'
F0
sg31
F46
sg32
F46
ssg94
(dp185
S'a'
F-1
sS'b'
F12
sS'e'
F6.5
sS'i'
F2
sg96
F-1
sg97
F0
sS'm'
F113
sg98
F0
sS'r'
F13
sS'w'
F0
sg99
F0
sg100
F-1
sg101
F-1
ssg103
(dp186
S'a'
F41.208333333333336
sg105
F-1
sS'b'
F3047
sg106
F15
sS'i'
F111
sg107
F115
sS'm'
F113
sg108
F379
sg109
F137
sg96
F129.83262225139481
sS'r'
F3956
sg110
F2
sg111
F30
ssssb.