(iplayer
Player
p1
(dp2
S'is_batsman'
p3
I00
sS'name'
p4
S'Sunil Narine'
p5
sS'dob'
p6
S'1988/05/26'
p7
sS'price'
p8
S'1050000'
p9
sS'is_allrounder'
p10
I00
sS'espnid'
p11
S'230558'
p12
sS'is_overseas'
p13
I01
sS'team'
p14
S'KKR'
p15
sS'nationality'
p16
S'West Indian'
p17
sS'is_bowler'
p18
I01
sS'is_keeper'
p19
I00
sS'id'
p20
S'203'
p21
sS'is_uncapped'
p22
I00
sS'tournamentStats'
p23
(dp24
S'international'
p25
(dp26
S'fieldingStats'
p27
((dp28
S'c'
F0
sS'ctw'
p29
F0
sS'span_s'
p30
F2012
sS'm'
F29
sS's'
F0
sS'dismissals'
p31
F0
sS'i'
F29
sS'ctf'
p32
F0
sS'span_f'
p33
F2014
s(lp34
(dp35
S'inning'
p36
I1
sS'c'
F0
sg29
F0
sS'opp'
p37
S'Sri Lanka'
p38
sS't20i_num'
p39
I398
sg32
F0
sg31
F0
sS's'
F0
sS'place'
p40
S'Dhaka'
p41
sS'date'
p42
ctime
struct_time
p43
((I2014
I4
I3
I0
I0
I0
I3
I93
I-1
t(dtRp44
sa(dp45
g36
I2
sS'c'
F0
sg29
F0
sg37
S'Pakistan'
p46
sg39
I397
sg32
F0
sg31
F0
sS's'
F0
sg40
S'Dhaka'
p47
sg42
g43
((I2014
I4
I1
I0
I0
I0
I1
I91
I-1
t(dtRp48
sa(dp49
g36
I1
sS'c'
F0
sg29
F0
sg37
S'Australia'
p50
sg39
I388
sg32
F0
sg31
F0
sS's'
F0
sg40
S'Dhaka'
p51
sg42
g43
((I2014
I3
I28
I0
I0
I0
I4
I87
I-1
t(dtRp52
sa(dp53
g36
I2
sS'c'
F0
sg29
F0
sg37
S'Bangladesh'
p54
sg39
I385
sg32
F0
sg31
F0
sS's'
F0
sg40
S'Dhaka'
p55
sg42
g43
((I2014
I3
I25
I0
I0
I0
I1
I84
I-1
t(dtRp56
sa(dp57
g36
I2
sS'c'
F0
sg29
F0
sg37
S'India'
p58
sg39
I382
sg32
F0
sg31
F0
sS's'
F0
sg40
S'Dhaka'
p59
sg42
g43
((I2014
I3
I23
I0
I0
I0
I6
I82
I-1
t(dtRp60
sa(dp61
g36
I1
sS'c'
F0
sg29
F0
sg37
S'England'
p62
sg39
I364
sg32
F0
sg31
F0
sS's'
F0
sg40
S'Bridgetown'
p63
sg42
g43
((I2014
I3
I13
I0
I0
I0
I3
I72
I-1
t(dtRp64
sa(dp65
g36
I2
sS'c'
F0
sg29
F0
sg37
S'England'
p66
sg39
I361
sg32
F0
sg31
F0
sS's'
F0
sg40
S'Bridgetown'
p67
sg42
g43
((I2014
I3
I9
I0
I0
I0
I6
I68
I-1
t(dtRp68
sa(dp69
g36
I2
sS'c'
F0
sg29
F0
sg37
S'Ireland'
p70
sg39
I360
sg32
F0
sg31
F0
sS's'
F0
sg40
S'Kingston'
p71
sg42
g43
((I2014
I2
I21
I0
I0
I0
I4
I52
I-1
t(dtRp72
sa(dp73
g36
I2
sS'c'
F0
sg29
F0
sg37
S'Ireland'
p74
sg39
I359
sg32
F0
sg31
F0
sS's'
F0
sg40
S'Kingston'
p75
sg42
g43
((I2014
I2
I19
I0
I0
I0
I2
I50
I-1
t(dtRp76
sa(dp77
g36
I2
sS'c'
F0
sg29
F0
sg37
S'New Zealand'
p78
sg39
I353
sg32
F0
sg31
F0
sS's'
F0
sg40
S'Wellington'
p79
sg42
g43
((I2014
I1
I15
I0
I0
I0
I2
I15
I-1
t(dtRp80
sa(dp81
g36
I1
sS'c'
F0
sg29
F0
sg37
S'New Zealand'
p82
sg39
I352
sg32
F0
sg31
F0
sS's'
F0
sg40
S'Auckland'
p83
sg42
g43
((I2014
I1
I11
I0
I0
I0
I5
I11
I-1
t(dtRp84
sa(dp85
g36
I1
sS'c'
F0
sg29
F0
sg37
S'Pakistan'
p86
sg39
I322
sg32
F0
sg31
F0
sS's'
F0
sg40
S'Kingstown'
p87
sg42
g43
((I2013
I7
I28
I0
I0
I0
I6
I209
I-1
t(dtRp88
sa(dp89
g36
I2
sS'c'
F0
sg29
F0
sg37
S'Pakistan'
p90
sg39
I321
sg32
F0
sg31
F0
sS's'
F0
sg40
S'Kingstown'
p91
sg42
g43
((I2013
I7
I27
I0
I0
I0
I5
I208
I-1
t(dtRp92
sa(dp93
g36
I2
sS'c'
F0
sg29
F0
sg37
S'Zimbabwe'
p94
sg39
I308
sg32
F0
sg31
F0
sS's'
F0
sg40
S'North Sound'
p95
sg42
g43
((I2013
I3
I3
I0
I0
I0
I6
I62
I-1
t(dtRp96
sa(dp97
g36
I1
sS'c'
F0
sg29
F0
sg37
S'Zimbabwe'
p98
sg39
I305
sg32
F0
sg31
F0
sS's'
F0
sg40
S'North Sound'
p99
sg42
g43
((I2013
I3
I2
I0
I0
I0
I5
I61
I-1
t(dtRp100
sa(dp101
g36
I2
sS'c'
F0
sg29
F0
sg37
S'Australia'
p102
sg39
I303
sg32
F0
sg31
F0
sS's'
F0
sg40
S'Brisbane'
p103
sg42
g43
((I2013
I2
I13
I0
I0
I0
I2
I44
I-1
t(dtRp104
sa(dp105
g36
I2
sS'c'
F0
sg29
F0
sg37
S'Bangladesh'
p106
sg39
I291
sg32
F0
sg31
F0
sS's'
F0
sg40
S'Dhaka'
p107
sg42
g43
((I2012
I12
I10
I0
I0
I0
I0
I345
I-1
t(dtRp108
sa(dp109
g36
I2
sS'c'
F0
sg29
F0
sg37
S'Sri Lanka'
p110
sg39
I289
sg32
F0
sg31
F0
sS's'
F0
sg40
S'Colombo (RPS)'
p111
sg42
g43
((I2012
I10
I7
I0
I0
I0
I6
I281
I-1
t(dtRp112
sa(dp113
g36
I2
sS'c'
F0
sg29
F0
sg37
S'Australia'
p114
sg39
I288
sg32
F0
sg31
F0
sS's'
F0
sg40
S'Colombo (RPS)'
p115
sg42
g43
((I2012
I10
I5
I0
I0
I0
I4
I279
I-1
t(dtRp116
sa(dp117
g36
I2
sS'c'
F0
sg29
F0
sg37
S'New Zealand'
p118
sg39
I283
sg32
F0
sg31
F0
sS's'
F0
sg40
S'Pallekele'
p119
sg42
g43
((I2012
I10
I1
I0
I0
I0
I0
I275
I-1
t(dtRp120
sa(dp121
g36
I2
sS'c'
F0
sg29
F0
sg37
S'Sri Lanka'
p122
sg39
I280
sg32
F0
sg31
F0
sS's'
F0
sg40
S'Pallekele'
p123
sg42
g43
((I2012
I9
I29
I0
I0
I0
I5
I273
I-1
t(dtRp124
sa(dp125
g36
I2
sS'c'
F0
sg29
F0
sg37
S'England'
p126
sg39
I276
sg32
F0
sg31
F0
sS's'
F0
sg40
S'Pallekele'
p127
sg42
g43
((I2012
I9
I27
I0
I0
I0
I3
I271
I-1
t(dtRp128
sa(dp129
g36
I1
sS'c'
F0
sg29
F0
sg37
S'Ireland'
p130
sg39
I273
sg32
F0
sg31
F0
sS's'
F0
sg40
S'Colombo (RPS)'
p131
sg42
g43
((I2012
I9
I24
I0
I0
I0
I0
I268
I-1
t(dtRp132
sa(dp133
g36
I2
sS'c'
F0
sg29
F0
sg37
S'Australia'
p134
sg39
I270
sg32
F0
sg31
F0
sS's'
F0
sg40
S'Colombo (RPS)'
p135
sg42
g43
((I2012
I9
I22
I0
I0
I0
I5
I266
I-1
t(dtRp136
sa(dp137
g36
I2
sS'c'
F0
sg29
F0
sg37
S'New Zealand'
p138
sg39
I248
sg32
F0
sg31
F0
sS's'
F0
sg40
S'Lauderhill'
p139
sg42
g43
((I2012
I7
I1
I0
I0
I0
I6
I183
I-1
t(dtRp140
sa(dp141
g36
I2
sS'c'
F0
sg29
F0
sg37
S'New Zealand'
p142
sg39
I247
sg32
F0
sg31
F0
sS's'
F0
sg40
S'Lauderhill'
p143
sg42
g43
((I2012
I6
I30
I0
I0
I0
I5
I182
I-1
t(dtRp144
sa(dp145
g36
I2
sS'c'
F0
sg29
F0
sg37
S'England'
p146
sg39
I246
sg32
F0
sg31
F0
sS's'
F0
sg40
S'Nottingham'
p147
sg42
g43
((I2012
I6
I24
I0
I0
I0
I6
I176
I-1
t(dtRp148
sa(dp149
g36
I2
sS'c'
F0
sg29
F0
sg37
S'Australia'
p150
sg39
I243
sg32
F0
sg31
F0
sS's'
F0
sg40
S'Bridgetown'
p151
sg42
g43
((I2012
I3
I30
I0
I0
I0
I4
I90
I-1
t(dtRp152
sa(dp153
g36
I2
sS'c'
F0
sg29
F0
sg37
S'Australia'
p154
sg39
I241
sg32
F0
sg31
F0
sS's'
F0
sg40
S'Gros Islet'
p155
sg42
g43
((I2012
I3
I27
I0
I0
I0
I1
I87
I-1
t(dtRp156
satp157
sS'bowlingStats'
p158
((dp159
S'a'
F17.444444444444443
sS'b'
F658
sS'e'
F5.7264437689969601
sS'i'
F29
sS'sr'
p160
F18.277777777777779
sS'5w'
p161
F0
sS'm'
F29
sS'maid'
p162
F1
sS'r'
F628
sS'w'
F36
sS'4w'
p163
F1
sS'bbir'
p164
F12
sS'bbiw'
p165
F4
sg33
F2014
sg30
F2012
s(lp166
(dp167
g36
I1
sS'b'
F24
sS'e'
F5
sg39
I398
sS'pos'
p168
I3
sg162
F0
sS'r'
F20
sg40
S'Dhaka'
p169
sS'w'
F0
sg42
g43
((I2014
I4
I3
I0
I0
I0
I3
I93
I-1
t(dtRp170
sg37
S'Sri Lanka'
p171
sa(dp172
g36
I2
sS'b'
F24
sS'e'
F4
sg39
I397
sg168
I5
sg162
F0
sS'r'
F16
sg40
S'Dhaka'
p173
sS'w'
F3
sg42
g43
((I2014
I4
I1
I0
I0
I0
I1
I91
I-1
t(dtRp174
sg37
S'Pakistan'
p175
sa(dp176
g36
I1
sS'b'
F24
sS'e'
F4.75
sg39
I388
sg168
I4
sg162
F1
sS'r'
F19
sg40
S'Dhaka'
p177
sS'w'
F2
sg42
g43
((I2014
I3
I28
I0
I0
I0
I4
I87
I-1
t(dtRp178
sg37
S'Australia'
p179
sa(dp180
g36
I2
sS'b'
F24
sS'e'
F4.25
sg39
I385
sg168
I5
sg162
F0
sS'r'
F17
sg40
S'Dhaka'
p181
sS'w'
F1
sg42
g43
((I2014
I3
I25
I0
I0
I0
I1
I84
I-1
t(dtRp182
sg37
S'Bangladesh'
p183
sa(dp184
g36
I2
sS'b'
F24
sS'e'
F5
sg39
I382
sg168
I3
sg162
F0
sS'r'
F20
sg40
S'Dhaka'
p185
sS'w'
F0
sg42
g43
((I2014
I3
I23
I0
I0
I0
I6
I82
I-1
t(dtRp186
sg37
S'India'
p187
sa(dp188
g36
I1
sS'b'
F24
sS'e'
F8.5
sg39
I364
sg168
I3
sg162
F0
sS'r'
F34
sg40
S'Bridgetown'
p189
sS'w'
F1
sg42
g43
((I2014
I3
I13
I0
I0
I0
I3
I72
I-1
t(dtRp190
sg37
S'England'
p191
sa(dp192
g36
I2
sS'b'
F12
sS'e'
F4
sg39
I361
sg168
I3
sg162
F0
sS'r'
F8
sg40
S'Bridgetown'
p193
sS'w'
F1
sg42
g43
((I2014
I3
I9
I0
I0
I0
I6
I68
I-1
t(dtRp194
sg37
S'England'
p195
sa(dp196
g36
I2
sS'b'
F24
sS'e'
F3
sg39
I360
sg168
I3
sg162
F0
sS'r'
F12
sg40
S'Kingston'
p197
sS'w'
F1
sg42
g43
((I2014
I2
I21
I0
I0
I0
I4
I52
I-1
t(dtRp198
sg37
S'Ireland'
p199
sa(dp200
g36
I2
sS'b'
F24
sS'e'
F4
sg39
I359
sg168
I3
sg162
F0
sS'r'
F16
sg40
S'Kingston'
p201
sS'w'
F1
sg42
g43
((I2014
I2
I19
I0
I0
I0
I2
I50
I-1
t(dtRp202
sg37
S'Ireland'
p203
sa(dp204
g36
I2
sS'b'
F24
sS'e'
F4.5
sg39
I353
sg168
I4
sg162
F0
sS'r'
F18
sg40
S'Wellington'
p205
sS'w'
F2
sg42
g43
((I2014
I1
I15
I0
I0
I0
I2
I15
I-1
t(dtRp206
sg37
S'New Zealand'
p207
sa(dp208
g36
I1
sS'b'
F24
sS'e'
F11.5
sg39
I352
sg168
I3
sg162
F0
sS'r'
F46
sg40
S'Auckland'
p209
sS'w'
F0
sg42
g43
((I2014
I1
I11
I0
I0
I0
I5
I11
I-1
t(dtRp210
sg37
S'New Zealand'
p211
sa(dp212
g36
I1
sS'b'
F24
sS'e'
F6.5
sg39
I322
sg168
I3
sg162
F0
sS'r'
F26
sg40
S'Kingstown'
p213
sS'w'
F3
sg42
g43
((I2013
I7
I28
I0
I0
I0
I6
I209
I-1
t(dtRp214
sg37
S'Pakistan'
p215
sa(dp216
g36
I2
sS'b'
F24
sS'e'
F6
sg39
I321
sg168
I3
sg162
F0
sS'r'
F24
sg40
S'Kingstown'
p217
sS'w'
F1
sg42
g43
((I2013
I7
I27
I0
I0
I0
I5
I208
I-1
t(dtRp218
sg37
S'Pakistan'
p219
sa(dp220
g36
I2
sS'b'
F24
sS'e'
F5.5
sg39
I308
sg168
I4
sg162
F0
sS'r'
F22
sg40
S'North Sound'
p221
sS'w'
F0
sg42
g43
((I2013
I3
I3
I0
I0
I0
I6
I62
I-1
t(dtRp222
sg37
S'Zimbabwe'
p223
sa(dp224
g36
I1
sS'b'
F24
sS'e'
F4.25
sg39
I305
sg168
I4
sg162
F0
sS'r'
F17
sg40
S'North Sound'
p225
sS'w'
F2
sg42
g43
((I2013
I3
I2
I0
I0
I0
I5
I61
I-1
t(dtRp226
sg37
S'Zimbabwe'
p227
sa(dp228
g36
I2
sS'b'
F24
sS'e'
F4.75
sg39
I303
sg168
I3
sg162
F0
sS'r'
F19
sg40
S'Brisbane'
p229
sS'w'
F2
sg42
g43
((I2013
I2
I13
I0
I0
I0
I2
I44
I-1
t(dtRp230
sg37
S'Australia'
p231
sa(dp232
g36
I2
sS'b'
F18
sS'e'
F9
sg39
I291
sg168
I5
sg162
F0
sS'r'
F27
sg40
S'Dhaka'
p233
sS'w'
F0
sg42
g43
((I2012
I12
I10
I0
I0
I0
I0
I345
I-1
t(dtRp234
sg37
S'Bangladesh'
p235
sa(dp236
g36
I2
sS'b'
F22
sS'e'
F2.4545454545454546
sg39
I289
sg168
I5
sg162
F0
sS'r'
F9
sg40
S'Colombo (RPS)'
p237
sS'w'
F3
sg42
g43
((I2012
I10
I7
I0
I0
I0
I6
I281
I-1
t(dtRp238
sg37
S'Sri Lanka'
p239
sa(dp240
g36
I2
sS'b'
F18
sS'e'
F5.666666666666667
sg39
I288
sg168
I4
sg162
F0
sS'r'
F17
sg40
S'Colombo (RPS)'
p241
sS'w'
F2
sg42
g43
((I2012
I10
I5
I0
I0
I0
I4
I279
I-1
t(dtRp242
sg37
S'Australia'
p243
sa(dp244
g36
I2
sS'b'
F24
sS'e'
F5
sg39
I283
sg168
I3
sg162
F0
sS'r'
F20
sg40
S'Pallekele'
p245
sS'w'
F3
sg42
g43
((I2012
I10
I1
I0
I0
I0
I0
I275
I-1
t(dtRp246
sg37
S'New Zealand'
p247
sa(dp248
g36
I2
sS'b'
F24
sS'e'
F5.75
sg39
I280
sg168
I3
sg162
F0
sS'r'
F23
sg40
S'Pallekele'
p249
sS'w'
F0
sg42
g43
((I2012
I9
I29
I0
I0
I0
I5
I273
I-1
t(dtRp250
sg37
S'Sri Lanka'
p251
sa(dp252
g36
I2
sS'b'
F24
sS'e'
F8.25
sg39
I276
sg168
I3
sg162
F0
sS'r'
F33
sg40
S'Pallekele'
p253
sS'w'
F0
sg42
g43
((I2012
I9
I27
I0
I0
I0
I3
I271
I-1
t(dtRp254
sg37
S'England'
p255
sa(dp256
g36
I1
sS'b'
F24
sS'e'
F5.25
sg39
I273
sg168
I4
sg162
F0
sS'r'
F21
sg40
S'Colombo (RPS)'
p257
sS'w'
F1
sg42
g43
((I2012
I9
I24
I0
I0
I0
I0
I268
I-1
t(dtRp258
sg37
S'Ireland'
p259
sa(dp260
g36
I2
sS'b'
F12
sS'e'
F8
sg39
I270
sg168
I3
sg162
F0
sS'r'
F16
sg40
S'Colombo (RPS)'
p261
sS'w'
F0
sg42
g43
((I2012
I9
I22
I0
I0
I0
I5
I266
I-1
t(dtRp262
sg37
S'Australia'
p263
sa(dp264
g36
I2
sS'b'
F24
sS'e'
F3
sg39
I248
sg168
I3
sg162
F0
sS'r'
F12
sg40
S'Lauderhill'
p265
sS'w'
F4
sg42
g43
((I2012
I7
I1
I0
I0
I0
I6
I183
I-1
t(dtRp266
sg37
S'New Zealand'
p267
sa(dp268
g36
I2
sS'b'
F24
sS'e'
F8.5
sg39
I247
sg168
I3
sg162
F0
sS'r'
F34
sg40
S'Lauderhill'
p269
sS'w'
F3
sg42
g43
((I2012
I6
I30
I0
I0
I0
I5
I182
I-1
t(dtRp270
sg37
S'New Zealand'
p271
sa(dp272
g36
I2
sS'b'
F24
sS'e'
F7
sg39
I246
sg168
I3
sg162
F0
sS'r'
F28
sg40
S'Nottingham'
p273
sS'w'
F0
sg42
g43
((I2012
I6
I24
I0
I0
I0
I6
I176
I-1
t(dtRp274
sg37
S'England'
p275
sa(dp276
g36
I2
sS'b'
F24
sS'e'
F8.25
sg39
I243
sg168
I2
sg162
F0
sS'r'
F33
sg40
S'Bridgetown'
p277
sS'w'
F0
sg42
g43
((I2012
I3
I30
I0
I0
I0
I4
I90
I-1
t(dtRp278
sg37
S'Australia'
p279
sa(dp280
g36
I2
sS'b'
F24
sS'e'
F5.25
sg39
I241
sg168
I3
sg162
F0
sS'r'
F21
sg40
S'Gros Islet'
p281
sS'w'
F0
sg42
g43
((I2012
I3
I27
I0
I0
I0
I1
I87
I-1
t(dtRp282
sg37
S'Australia'
p283
satp284
sS'battingStats'
p285
((dp286
S'a'
F12.6
sS'0s'
p287
F2
sS'b'
F49
sS'no'
p288
F6
sg30
F2012
sS'hs'
p289
F28
sS'm'
F29
sS'4s'
p290
F5
sg33
F2014
sS'i'
F11
sS'6s'
p291
F2
sg160
F128.57142857142858
sS'r'
F63
sS'100s'
p292
F0
sS'50s'
p293
F0
s(lp294
(dp295
g36
I1
sS'b'
F2
sg37
S'India'
p296
sg288
I01
sg160
F350
sg39
I382
sS'dismiss'
p297
S'not out'
p298
sg290
F0
sg168
I8
sg291
F1
sg40
S'Dhaka'
p299
sg42
g43
((I2014
I3
I23
I0
I0
I0
I6
I82
I-1
t(dtRp300
sS'r'
F7
sS'minutes'
p301
F3
sa(dp302
g36
I2
sS'b'
F0
sg37
S'England'
p303
sg288
I01
sg160
F0
sg39
I364
sg297
S'not out'
p304
sg290
F0
sg168
I9
sg291
F0
sg40
S'Bridgetown'
p305
sg42
g43
((I2014
I3
I13
I0
I0
I0
I3
I72
I-1
t(dtRp306
sS'r'
F0
sg301
F3
sa(dp307
g36
I1
sS'b'
F13
sg37
S'Ireland'
p308
sg288
I01
sg160
F92.307692307692307
sg39
I360
sg297
S'not out'
p309
sg290
F1
sg168
I9
sg291
F0
sg40
S'Kingston'
p310
sg42
g43
((I2014
I2
I21
I0
I0
I0
I4
I52
I-1
t(dtRp311
sS'r'
F12
sg301
F-1
sa(dp312
g36
I1
sS'b'
F6
sg37
S'Ireland'
p313
sg288
I01
sg160
F100
sg39
I359
sg297
S'not out'
p314
sg290
F0
sg168
I9
sg291
F0
sg40
S'Kingston'
p315
sg42
g43
((I2014
I2
I19
I0
I0
I0
I2
I50
I-1
t(dtRp316
sS'r'
F6
sg301
F-1
sa(dp317
g36
I2
sS'b'
F2
sg37
S'New Zealand'
p318
sg160
F0
sg39
I352
sg297
S'caught'
p319
sg290
F0
sg168
I9
sg291
F0
sg40
S'Auckland'
p320
sg42
g43
((I2014
I1
I11
I0
I0
I0
I5
I11
I-1
t(dtRp321
sS'r'
F0
sg301
F1
sa(dp322
g36
I2
sS'b'
F16
sg37
S'Pakistan'
p323
sg160
F175
sg39
I322
sg297
S'caught'
p324
sg290
F3
sg168
I6
sg291
F1
sg40
S'Kingstown'
p325
sg42
g43
((I2013
I7
I28
I0
I0
I0
I6
I209
I-1
t(dtRp326
sS'r'
F28
sg301
F23
sa(dp327
g36
I1
sS'b'
F0
sg37
S'Pakistan'
p328
sg160
F0
sg39
I321
sg297
S'run out'
p329
sg290
F0
sg168
I8
sg291
F0
sg40
S'Kingstown'
p330
sg42
g43
((I2013
I7
I27
I0
I0
I0
I5
I208
I-1
t(dtRp331
sS'r'
F0
sg301
F2
sa(dp332
g36
I1
sS'b'
F1
sg37
S'Zimbabwe'
p333
sg288
I01
sg160
F100
sg39
I308
sg297
S'not out'
p334
sg290
F0
sg168
I9
sg291
F0
sg40
S'North Sound'
p335
sg42
g43
((I2013
I3
I3
I0
I0
I0
I6
I62
I-1
t(dtRp336
sS'r'
F1
sg301
F4
sa(dp337
g36
I1
sS'b'
F4
sg37
S'New Zealand'
p338
sg160
F75
sg39
I283
sg297
S'bowled'
p339
sg290
F0
sg168
I9
sg291
F0
sg40
S'Pallekele'
p340
sg42
g43
((I2012
I10
I1
I0
I0
I0
I0
I275
I-1
t(dtRp341
sS'r'
F3
sg301
F9
sa(dp342
g36
I1
sS'b'
F1
sg37
S'Australia'
p343
sg288
I01
sg160
F400
sg39
I270
sg297
S'not out'
p344
sg290
F1
sg168
I10
sg291
F0
sg40
S'Colombo (RPS)'
p345
sg42
g43
((I2012
I9
I22
I0
I0
I0
I5
I266
I-1
t(dtRp346
sS'r'
F4
sg301
F1
sa(dp347
g36
I1
sS'b'
F4
sg37
S'Australia'
p348
sg160
F50
sg39
I243
sg297
S'run out'
p349
sg290
F0
sg168
I9
sg291
F0
sg40
S'Bridgetown'
p350
sg42
g43
((I2012
I3
I30
I0
I0
I0
I4
I90
I-1
t(dtRp351
sS'r'
F2
sg301
F7
satp352
ssS'all'
p353
(dp354
g27
(dp355
S'c'
F23
sg29
F0
sS'i'
F112
sS'm'
F112
sS's'
F0
sg31
F23
sg32
F23
ssg158
(dp356
S'a'
F15.834482758620689
sS'b'
F2551
sS'e'
F5.4002352018816149
sS'i'
F110
sg160
F17.593103448275862
sg161
F1
sS'm'
F112
sg162
F0
sS'r'
F2296
sS'w'
F145
sg163
F6
sg164
F19
sg165
F5
ssg285
(dp357
S'a'
F9.7619047619047628
sg287
F-1
sS'b'
F160
sg288
F16
sS'i'
F37
sg289
F28
sS'm'
F112
sg290
F13
sg291
F11
sg160
F128.125
sS'r'
F205
sg292
F0
sg293
F0
ssssb.