(iplayer
Player
p1
(dp2
S'is_batsman'
p3
I00
sS'name'
p4
S'Ashish Nehra'
p5
sS'dob'
p6
S'1979/04/29'
p7
sS'price'
p8
S'850000'
p9
sS'is_allrounder'
p10
I00
sS'espnid'
p11
S'31820'
p12
sS'is_overseas'
p13
I00
sS'team'
p14
S'CSK'
p15
sS'nationality'
p16
S'Indian'
p17
sS'is_bowler'
p18
I01
sS'is_keeper'
p19
I00
sS'id'
p20
S'115'
p21
sS'is_uncapped'
p22
I00
sS'tournamentStats'
p23
(dp24
S'international'
p25
(dp26
S'fieldingStats'
p27
((dp28
S'c'
F3
sS'ctw'
p29
F0
sS'i'
F8
sS'm'
F8
sS's'
F0
sS'dismissals'
p30
F3
sS'ctf'
p31
F3
s(lp32
(dp33
S'inning'
p34
I2
sS'c'
F1
sg29
F0
sS'opp'
p35
S'South Africa'
p36
sS't20i_num'
p37
I196
sg31
F1
sg30
F1
sS's'
F0
sS'place'
p38
S'Durban'
p39
sS'date'
p40
ctime
struct_time
p41
((I2011
I1
I9
I0
I0
I0
I6
I9
I-1
t(dtRp42
sa(dp43
g34
I2
sS'c'
F0
sg29
F0
sg35
S'Sri Lanka'
p44
sg37
I173
sg31
F0
sg30
F0
sS's'
F0
sg38
S'Gros Islet'
p45
sg40
g41
((I2010
I5
I11
I0
I0
I0
I1
I131
I-1
t(dtRp46
sa(dp47
g34
I1
sS'c'
F0
sg29
F0
sg35
S'West Indies'
p48
sg37
I169
sg31
F0
sg30
F0
sS's'
F0
sg38
S'Bridgetown'
p49
sg40
g41
((I2010
I5
I9
I0
I0
I0
I6
I129
I-1
t(dtRp50
sa(dp51
g34
I1
sS'c'
F0
sg29
F0
sg35
S'Australia'
p52
sg37
I165
sg31
F0
sg30
F0
sS's'
F0
sg38
S'Bridgetown'
p53
sg40
g41
((I2010
I5
I7
I0
I0
I0
I4
I127
I-1
t(dtRp54
sa(dp55
g34
I2
sS'c'
F0
sg29
F0
sg35
S'South Africa'
p56
sg37
I155
sg31
F0
sg30
F0
sS's'
F0
sg38
S'Gros Islet'
p57
sg40
g41
((I2010
I5
I2
I0
I0
I0
I6
I122
I-1
t(dtRp58
sa(dp59
g34
I1
sS'c'
F1
sg29
F0
sg35
S'Afghanistan'
p60
sg37
I153
sg31
F1
sg30
F1
sS's'
F0
sg38
S'Gros Islet'
p61
sg40
g41
((I2010
I5
I1
I0
I0
I0
I5
I121
I-1
t(dtRp62
sa(dp63
g34
I1
sS'c'
F1
sg29
F0
sg35
S'Sri Lanka'
p64
sg37
I127
sg31
F1
sg30
F1
sS's'
F0
sg38
S'Mohali'
p65
sg40
g41
((I2009
I12
I12
I0
I0
I0
I5
I346
I-1
t(dtRp66
sa(dp67
g34
I1
sS'c'
F0
sg29
F0
sg35
S'Sri Lanka'
p68
sg37
I126
sg31
F0
sg30
F0
sS's'
F0
sg38
S'Nagpur'
p69
sg40
g41
((I2009
I12
I9
I0
I0
I0
I2
I343
I-1
t(dtRp70
satp71
sS'bowlingStats'
p72
((dp73
S'a'
F21.076923076923077
sS'b'
F186
sS'e'
F8.8387096774193541
sS'i'
F8
sS'sr'
p74
F14.307692307692308
sS'5w'
p75
F0
sS'm'
F8
sS'maid'
p76
F0
sS'r'
F274
sS'w'
F13
sS'4w'
p77
F0
sS'bbir'
p78
F19
sS'bbiw'
p79
F3
s(lp80
(dp81
g34
I2
sS'b'
F24
sS'e'
F5.5
sg37
I196
sS'pos'
p82
I2
sg76
F0
sS'r'
F22
sg38
S'Durban'
p83
sS'w'
F2
sg40
g41
((I2011
I1
I9
I0
I0
I0
I6
I9
I-1
t(dtRp84
sg35
S'South Africa'
p85
sa(dp86
g34
I2
sS'b'
F24
sS'e'
F11
sg37
I173
sg82
I1
sg76
F0
sS'r'
F44
sg38
S'Gros Islet'
p87
sS'w'
F1
sg40
g41
((I2010
I5
I11
I0
I0
I0
I1
I131
I-1
t(dtRp88
sg35
S'Sri Lanka'
p89
sa(dp90
g34
I1
sS'b'
F24
sS'e'
F8.75
sg37
I169
sg82
I3
sg76
F0
sS'r'
F35
sg38
S'Bridgetown'
p91
sS'w'
F3
sg40
g41
((I2010
I5
I9
I0
I0
I0
I6
I129
I-1
t(dtRp92
sg35
S'West Indies'
p93
sa(dp94
g34
I1
sS'b'
F24
sS'e'
F7.75
sg37
I165
sg82
I2
sg76
F0
sS'r'
F31
sg38
S'Bridgetown'
p95
sS'w'
F2
sg40
g41
((I2010
I5
I7
I0
I0
I0
I4
I127
I-1
t(dtRp96
sg35
S'Australia'
p97
sa(dp98
g34
I2
sS'b'
F24
sS'e'
F6.75
sg37
I155
sg82
I3
sg76
F0
sS'r'
F27
sg38
S'Gros Islet'
p99
sS'w'
F1
sg40
g41
((I2010
I5
I2
I0
I0
I0
I6
I122
I-1
t(dtRp100
sg35
S'South Africa'
p101
sa(dp102
g34
I1
sS'b'
F24
sS'e'
F4.75
sg37
I153
sg82
I2
sg76
F0
sS'r'
F19
sg38
S'Gros Islet'
p103
sS'w'
F3
sg40
g41
((I2010
I5
I1
I0
I0
I0
I5
I121
I-1
t(dtRp104
sg35
S'Afghanistan'
p105
sa(dp106
g34
I1
sS'b'
F18
sS'e'
F14.666666666666666
sg37
I127
sg82
I1
sg76
F0
sS'r'
F44
sg38
S'Mohali'
p107
sS'w'
F0
sg40
g41
((I2009
I12
I12
I0
I0
I0
I5
I346
I-1
t(dtRp108
sg35
S'Sri Lanka'
p109
sa(dp110
g34
I1
sS'b'
F24
sS'e'
F13
sg37
I126
sg82
I1
sg76
F0
sS'r'
F52
sg38
S'Nagpur'
p111
sS'w'
F1
sg40
g41
((I2009
I12
I9
I0
I0
I0
I2
I343
I-1
t(dtRp112
sg35
S'Sri Lanka'
p113
satp114
sS'battingStats'
p115
((dp116
S'a'
F7.333333333333333
sS'0s'
p117
F2
sS'b'
F16
sS'no'
p118
F0
sS'i'
F3
sS'hs'
p119
F22
sS'm'
F8
sS'4s'
p120
F1
sS'6s'
p121
F2
sg74
F137.5
sS'r'
F22
sS'100s'
p122
F0
sS'50s'
p123
F0
s(lp124
(dp125
g34
I2
sS'b'
F2
sg35
S'West Indies'
p126
sg74
F0
sg37
I169
sS'dismiss'
p127
S'caught'
p128
sg120
F0
sg82
I10
sg121
F0
sg38
S'Bridgetown'
p129
sg40
g41
((I2010
I5
I9
I0
I0
I0
I6
I129
I-1
t(dtRp130
sS'r'
F0
sS'minutes'
p131
F1
sa(dp132
g34
I2
sS'b'
F1
sg35
S'Australia'
p133
sg74
F0
sg37
I165
sg127
S'bowled'
p134
sg120
F0
sg82
I11
sg121
F0
sg38
S'Bridgetown'
p135
sg40
g41
((I2010
I5
I7
I0
I0
I0
I4
I127
I-1
t(dtRp136
sS'r'
F0
sg131
F1
sa(dp137
g34
I2
sS'b'
F13
sg35
S'Sri Lanka'
p138
sg74
F169.23076923076923
sg37
I126
sg127
S'run out'
p139
sg120
F1
sg82
I9
sg121
F2
sg38
S'Nagpur'
p140
sg40
g41
((I2009
I12
I9
I0
I0
I0
I2
I343
I-1
t(dtRp141
sS'r'
F22
sg131
F-1
satp142
ssS'all'
p143
(dp144
g27
(dp145
S'c'
F18
sg29
F0
sS'i'
F70
sS'm'
F70
sS's'
F0
sg30
F18
sg31
F18
ssg72
(dp146
S'a'
F24.653846153846153
sS'b'
F1500
sS'e'
F7.6920000000000002
sS'i'
F70
sg74
F19.23076923076923
sg75
F0
sS'm'
F70
sg76
F0
sS'r'
F1923
sS'w'
F78
sg77
F0
sg78
F13
sg79
F3
ssg115
(dp147
S'a'
F6.0999999999999996
sg117
F-1
sS'b'
F71
sg118
F8
sS'i'
F18
sg119
F22
sS'm'
F70
sg120
F4
sg121
F3
sg74
F85.91549295774648
sS'r'
F61
sg122
F0
sg123
F0
ssssb.