(iplayer
Player
p1
(dp2
S'is_batsman'
p3
I00
sS'name'
p4
S'Shakib Al Hasan'
p5
sS'dob'
p6
S'1987/03/24'
p7
sS'price'
p8
S'950000'
p9
sS'is_allrounder'
p10
I01
sS'espnid'
p11
S'56143'
p12
sS'is_overseas'
p13
I01
sS'team'
p14
S'KKR'
p15
sS'nationality'
p16
S'Bangladeshi'
p17
sS'is_bowler'
p18
I00
sS'is_keeper'
p19
I00
sS'id'
p20
S'201'
p21
sS'is_uncapped'
p22
I00
sS'tournamentStats'
p23
(dp24
S'international'
p25
(dp26
S'fieldingStats'
p27
((dp28
S'c'
F9
sS'ctw'
p29
F0
sS'span_s'
p30
F2006
sS'm'
F35
sS's'
F0
sS'dismissals'
p31
F9
sS'i'
F35
sS'ctf'
p32
F9
sS'span_f'
p33
F2014
s(lp34
(dp35
S'inning'
p36
I2
sS'c'
F0
sg29
F0
sS'opp'
p37
S'Australia'
p38
sS't20i_num'
p39
I396
sg32
F0
sg31
F0
sS's'
F0
sS'place'
p40
S'Dhaka'
p41
sS'date'
p42
ctime
struct_time
p43
((I2014
I4
I1
I0
I0
I0
I1
I91
I-1
t(dtRp44
sa(dp45
g36
I1
sS'c'
F0
sg29
F0
sg37
S'Pakistan'
p46
sg39
I392
sg32
F0
sg31
F0
sS's'
F0
sg40
S'Dhaka'
p47
sg42
g43
((I2014
I3
I30
I0
I0
I0
I6
I89
I-1
t(dtRp48
sa(dp49
g36
I2
sS'c'
F0
sg29
F0
sg37
S'India'
p50
sg39
I389
sg32
F0
sg31
F0
sS's'
F0
sg40
S'Dhaka'
p51
sg42
g43
((I2014
I3
I28
I0
I0
I0
I4
I87
I-1
t(dtRp52
sa(dp53
g36
I1
sS'c'
F1
sg29
F0
sg37
S'West Indies'
p54
sg39
I385
sg32
F1
sg31
F1
sS's'
F0
sg40
S'Dhaka'
p55
sg42
g43
((I2014
I3
I25
I0
I0
I0
I1
I84
I-1
t(dtRp56
sa(dp57
g36
I2
sS'c'
F0
sg29
F0
sg37
S'Hong Kong'
p58
sg39
I375
sg32
F0
sg31
F0
sS's'
F0
sg40
S'Chittagong'
p59
sg42
g43
((I2014
I3
I20
I0
I0
I0
I3
I79
I-1
t(dtRp60
sa(dp61
g36
I1
sS'c'
F1
sg29
F0
sg37
S'Nepal'
p62
sg39
I371
sg32
F1
sg31
F1
sS's'
F0
sg40
S'Chittagong'
p63
sg42
g43
((I2014
I3
I18
I0
I0
I0
I1
I77
I-1
t(dtRp64
sa(dp65
g36
I1
sS'c'
F0
sg29
F0
sg37
S'Afghanistan'
p66
sg39
I366
sg32
F0
sg31
F0
sS's'
F0
sg40
S'Dhaka'
p67
sg42
g43
((I2014
I3
I16
I0
I0
I0
I6
I75
I-1
t(dtRp68
sa(dp69
g36
I2
sS'c'
F0
sg29
F0
sg37
S'Sri Lanka'
p70
sg39
I358
sg32
F0
sg31
F0
sS's'
F0
sg40
S'Chittagong'
p71
sg42
g43
((I2014
I2
I14
I0
I0
I0
I4
I45
I-1
t(dtRp72
sa(dp73
g36
I1
sS'c'
F0
sg29
F0
sg37
S'Sri Lanka'
p74
sg39
I357
sg32
F0
sg31
F0
sS's'
F0
sg40
S'Chittagong'
p75
sg42
g43
((I2014
I2
I12
I0
I0
I0
I2
I43
I-1
t(dtRp76
sa(dp77
g36
I2
sS'c'
F0
sg29
F0
sg37
S'Zimbabwe'
p78
sg39
I316
sg32
F0
sg31
F0
sS's'
F0
sg40
S'Bulawayo'
p79
sg42
g43
((I2013
I5
I12
I0
I0
I0
I6
I132
I-1
t(dtRp80
sa(dp81
g36
I1
sS'c'
F1
sg29
F0
sg37
S'Zimbabwe'
p82
sg39
I315
sg32
F1
sg31
F1
sS's'
F0
sg40
S'Bulawayo'
p83
sg42
g43
((I2013
I5
I11
I0
I0
I0
I5
I131
I-1
t(dtRp84
sa(dp85
g36
I2
sS'c'
F0
sg29
F0
sg37
S'Pakistan'
p86
sg39
I274
sg32
F0
sg31
F0
sS's'
F0
sg40
S'Pallekele'
p87
sg42
g43
((I2012
I9
I25
I0
I0
I0
I1
I269
I-1
t(dtRp88
sa(dp89
g36
I1
sS'c'
F0
sg29
F0
sg37
S'New Zealand'
p90
sg39
I267
sg32
F0
sg31
F0
sS's'
F0
sg40
S'Pallekele'
p91
sg42
g43
((I2012
I9
I21
I0
I0
I0
I4
I265
I-1
t(dtRp92
sa(dp93
g36
I2
sS'c'
F0
sg29
F0
sg37
S'Netherlands'
p94
sg39
I254
sg32
F0
sg31
F0
sS's'
F0
sg40
S'The Hague'
p95
sg42
g43
((I2012
I7
I26
I0
I0
I0
I3
I208
I-1
t(dtRp96
sa(dp97
g36
I1
sS'c'
F1
sg29
F0
sg37
S'Netherlands'
p98
sg39
I253
sg32
F1
sg31
F1
sS's'
F0
sg40
S'The Hague'
p99
sg42
g43
((I2012
I7
I25
I0
I0
I0
I2
I207
I-1
t(dtRp100
sa(dp101
g36
I1
sS'c'
F0
sg29
F0
sg37
S'Scotland'
p102
sg39
I252
sg32
F0
sg31
F0
sS's'
F0
sg40
S'The Hague'
p103
sg42
g43
((I2012
I7
I24
I0
I0
I0
I1
I206
I-1
t(dtRp104
sa(dp105
g36
I1
sS'c'
F0
sg29
F0
sg37
S'Ireland'
p106
sg39
I251
sg32
F0
sg31
F0
sS's'
F0
sg40
S'Belfast'
p107
sg42
g43
((I2012
I7
I21
I0
I0
I0
I5
I203
I-1
t(dtRp108
sa(dp109
g36
I2
sS'c'
F1
sg29
F0
sg37
S'Ireland'
p110
sg39
I250
sg32
F1
sg31
F1
sS's'
F0
sg40
S'Belfast'
p111
sg42
g43
((I2012
I7
I20
I0
I0
I0
I4
I202
I-1
t(dtRp112
sa(dp113
g36
I2
sS'c'
F0
sg29
F0
sg37
S'Ireland'
p114
sg39
I249
sg32
F0
sg31
F0
sS's'
F0
sg40
S'Belfast'
p115
sg42
g43
((I2012
I7
I18
I0
I0
I0
I2
I200
I-1
t(dtRp116
sa(dp117
g36
I1
sS'c'
F0
sg29
F0
sg37
S'Pakistan'
p118
sg39
I216
sg32
F0
sg31
F0
sS's'
F0
sg40
S'Dhaka'
p119
sg42
g43
((I2011
I11
I29
I0
I0
I0
I1
I333
I-1
t(dtRp120
sa(dp121
g36
I1
sS'c'
F0
sg29
F0
sg37
S'West Indies'
p122
sg39
I209
sg32
F0
sg31
F0
sS's'
F0
sg40
S'Dhaka'
p123
sg42
g43
((I2011
I10
I11
I0
I0
I0
I1
I284
I-1
t(dtRp124
sa(dp125
g36
I1
sS'c'
F0
sg29
F0
sg37
S'Australia'
p126
sg39
I161
sg32
F0
sg31
F0
sS's'
F0
sg40
S'Bridgetown'
p127
sg42
g43
((I2010
I5
I5
I0
I0
I0
I2
I125
I-1
t(dtRp128
sa(dp129
g36
I1
sS'c'
F0
sg29
F0
sg37
S'Pakistan'
p130
sg39
I154
sg32
F0
sg31
F0
sS's'
F0
sg40
S'Gros Islet'
p131
sg42
g43
((I2010
I5
I1
I0
I0
I0
I5
I121
I-1
t(dtRp132
sa(dp133
g36
I2
sS'c'
F0
sg29
F0
sg37
S'New Zealand'
p134
sg39
I131
sg32
F0
sg31
F0
sS's'
F0
sg40
S'Hamilton'
p135
sg42
g43
((I2010
I2
I3
I0
I0
I0
I2
I34
I-1
t(dtRp136
sa(dp137
g36
I2
sS'c'
F0
sg29
F0
sg37
S'West Indies'
p138
sg39
I117
sg32
F0
sg31
F0
sS's'
F0
sg40
S'Basseterre'
p139
sg42
g43
((I2009
I8
I2
I0
I0
I0
I6
I214
I-1
t(dtRp140
sa(dp141
g36
I2
sS'c'
F0
sg29
F0
sg37
S'Ireland'
p142
sg39
I96
sg32
F0
sg31
F0
sS's'
F0
sg40
S'Nottingham'
p143
sg42
g43
((I2009
I6
I8
I0
I0
I0
I0
I159
I-1
t(dtRp144
sa(dp145
g36
I1
sS'c'
F1
sg29
F0
sg37
S'India'
p146
sg39
I93
sg32
F1
sg31
F1
sS's'
F0
sg40
S'Nottingham'
p147
sg42
g43
((I2009
I6
I6
I0
I0
I0
I5
I157
I-1
t(dtRp148
sa(dp149
g36
I1
sS'c'
F1
sg29
F0
sg37
S'South Africa'
p150
sg39
I77
sg32
F1
sg31
F1
sS's'
F0
sg40
S'Johannesburg'
p151
sg42
g43
((I2008
I11
I5
I0
I0
I0
I2
I310
I-1
t(dtRp152
sa(dp153
g36
I1
sS'c'
F1
sg29
F0
sg37
S'Pakistan'
p154
sg39
I55
sg32
F1
sg31
F1
sS's'
F0
sg40
S'Karachi'
p155
sg42
g43
((I2008
I4
I20
I0
I0
I0
I6
I111
I-1
t(dtRp156
sa(dp157
g36
I2
sS'c'
F0
sg29
F0
sg37
S'Pakistan'
p158
sg39
I42
sg32
F0
sg31
F0
sS's'
F0
sg40
S'Cape Town'
p159
sg42
g43
((I2007
I9
I20
I0
I0
I0
I3
I263
I-1
t(dtRp160
sa(dp161
g36
I1
sS'c'
F0
sg29
F0
sg37
S'Sri Lanka'
p162
sg39
I38
sg32
F0
sg31
F0
sS's'
F0
sg40
S'Johannesburg'
p163
sg42
g43
((I2007
I9
I18
I0
I0
I0
I1
I261
I-1
t(dtRp164
sa(dp165
g36
I2
sS'c'
F0
sg29
F0
sg37
S'Australia'
p166
sg39
I33
sg32
F0
sg31
F0
sS's'
F0
sg40
S'Cape Town'
p167
sg42
g43
((I2007
I9
I16
I0
I0
I0
I6
I259
I-1
t(dtRp168
sa(dp169
g36
I2
sS'c'
F0
sg29
F0
sg37
S'South Africa'
p170
sg39
I31
sg32
F0
sg31
F0
sS's'
F0
sg40
S'Cape Town'
p171
sg42
g43
((I2007
I9
I15
I0
I0
I0
I5
I258
I-1
t(dtRp172
sa(dp173
g36
I1
sS'c'
F1
sg29
F0
sg37
S'West Indies'
p174
sg39
I24
sg32
F1
sg31
F1
sS's'
F0
sg40
S'Johannesburg'
p175
sg42
g43
((I2007
I9
I13
I0
I0
I0
I3
I256
I-1
t(dtRp176
sa(dp177
g36
I2
sS'c'
F0
sg29
F0
sg37
S'Zimbabwe'
p178
sg39
I9
sg32
F0
sg31
F0
sS's'
F0
sg40
S'Khulna'
p179
sg42
g43
((I2006
I11
I28
I0
I0
I0
I1
I332
I-1
t(dtRp180
satp181
sS'bowlingStats'
p182
((dp183
S'a'
F18.90909090909091
sS'b'
F769
sS'e'
F6.4915474642392716
sS'i'
F35
sS'sr'
p184
F17.477272727272727
sS'5w'
p185
F0
sS'm'
F35
sS'maid'
p186
F1
sS'r'
F832
sS'w'
F44
sS'4w'
p187
F2
sS'bbir'
p188
F21
sS'bbiw'
p189
F4
sg33
F2014
sg30
F2006
s(lp190
(dp191
g36
I2
sS'b'
F18
sS'e'
F12
sg39
I396
sS'pos'
p192
I3
sg186
F0
sS'r'
F36
sg40
S'Dhaka'
p193
sS'w'
F0
sg42
g43
((I2014
I4
I1
I0
I0
I0
I1
I91
I-1
t(dtRp194
sg37
S'Australia'
p195
sa(dp196
g36
I1
sS'b'
F24
sS'e'
F5.25
sg39
I392
sg192
I3
sg186
F0
sS'r'
F21
sg40
S'Dhaka'
p197
sS'w'
F1
sg42
g43
((I2014
I3
I30
I0
I0
I0
I6
I89
I-1
t(dtRp198
sg37
S'Pakistan'
p199
sa(dp200
g36
I2
sS'b'
F24
sS'e'
F6.5
sg39
I389
sg192
I4
sg186
F0
sS'r'
F26
sg40
S'Dhaka'
p201
sS'w'
F0
sg42
g43
((I2014
I3
I28
I0
I0
I0
I4
I87
I-1
t(dtRp202
sg37
S'India'
p203
sa(dp204
g36
I1
sS'b'
F18
sS'e'
F7
sg39
I385
sg192
I6
sg186
F0
sS'r'
F21
sg40
S'Dhaka'
p205
sS'w'
F1
sg42
g43
((I2014
I3
I25
I0
I0
I0
I1
I84
I-1
t(dtRp206
sg37
S'West Indies'
p207
sa(dp208
g36
I2
sS'b'
F24
sS'e'
F2.25
sg39
I375
sg192
I2
sg186
F0
sS'r'
F9
sg40
S'Chittagong'
p209
sS'w'
F3
sg42
g43
((I2014
I3
I20
I0
I0
I0
I3
I79
I-1
t(dtRp210
sg37
S'Hong Kong'
p211
sa(dp212
g36
I1
sS'b'
F24
sS'e'
F5.5
sg39
I371
sg192
I4
sg186
F0
sS'r'
F22
sg40
S'Chittagong'
p213
sS'w'
F0
sg42
g43
((I2014
I3
I18
I0
I0
I0
I1
I77
I-1
t(dtRp214
sg37
S'Nepal'
p215
sa(dp216
g36
I1
sS'b'
F19
sS'e'
F2.5263157894736841
sg39
I366
sg192
I3
sg186
F0
sS'r'
F8
sg40
S'Dhaka'
p217
sS'w'
F3
sg42
g43
((I2014
I3
I16
I0
I0
I0
I6
I75
I-1
t(dtRp218
sg37
S'Afghanistan'
p219
sa(dp220
g36
I2
sS'b'
F12
sS'e'
F4
sg39
I358
sg192
I4
sg186
F0
sS'r'
F8
sg40
S'Chittagong'
p221
sS'w'
F1
sg42
g43
((I2014
I2
I14
I0
I0
I0
I4
I45
I-1
t(dtRp222
sg37
S'Sri Lanka'
p223
sa(dp224
g36
I1
sS'b'
F24
sS'e'
F6.75
sg39
I357
sg192
I4
sg186
F0
sS'r'
F27
sg40
S'Chittagong'
p225
sS'w'
F2
sg42
g43
((I2014
I2
I12
I0
I0
I0
I2
I43
I-1
t(dtRp226
sg37
S'Sri Lanka'
p227
sa(dp228
g36
I2
sS'b'
F24
sS'e'
F5.25
sg39
I316
sg192
I3
sg186
F0
sS'r'
F21
sg40
S'Bulawayo'
p229
sS'w'
F4
sg42
g43
((I2013
I5
I12
I0
I0
I0
I6
I132
I-1
t(dtRp230
sg37
S'Zimbabwe'
p231
sa(dp232
g36
I1
sS'b'
F24
sS'e'
F5
sg39
I315
sg192
I4
sg186
F0
sS'r'
F20
sg40
S'Bulawayo'
p233
sS'w'
F2
sg42
g43
((I2013
I5
I11
I0
I0
I0
I5
I131
I-1
t(dtRp234
sg37
S'Zimbabwe'
p235
sa(dp236
g36
I2
sS'b'
F24
sS'e'
F5.75
sg39
I274
sg192
I4
sg186
F0
sS'r'
F23
sg40
S'Pallekele'
p237
sS'w'
F0
sg42
g43
((I2012
I9
I25
I0
I0
I0
I1
I269
I-1
t(dtRp238
sg37
S'Pakistan'
p239
sa(dp240
g36
I1
sS'b'
F24
sS'e'
F10
sg39
I267
sg192
I4
sg186
F0
sS'r'
F40
sg40
S'Pallekele'
p241
sS'w'
F0
sg42
g43
((I2012
I9
I21
I0
I0
I0
I4
I265
I-1
t(dtRp242
sg37
S'New Zealand'
p243
sa(dp244
g36
I2
sS'b'
F24
sS'e'
F7
sg39
I254
sg192
I3
sg186
F0
sS'r'
F28
sg40
S'The Hague'
p245
sS'w'
F2
sg42
g43
((I2012
I7
I26
I0
I0
I0
I3
I208
I-1
t(dtRp246
sg37
S'Netherlands'
p247
sa(dp248
g36
I1
sS'b'
F24
sS'e'
F5.75
sg39
I253
sg192
I3
sg186
F0
sS'r'
F23
sg40
S'The Hague'
p249
sS'w'
F2
sg42
g43
((I2012
I7
I25
I0
I0
I0
I2
I207
I-1
t(dtRp250
sg37
S'Netherlands'
p251
sa(dp252
g36
I1
sS'b'
F24
sS'e'
F9.25
sg39
I252
sg192
I4
sg186
F0
sS'r'
F37
sg40
S'The Hague'
p253
sS'w'
F1
sg42
g43
((I2012
I7
I24
I0
I0
I0
I1
I206
I-1
t(dtRp254
sg37
S'Scotland'
p255
sa(dp256
g36
I1
sS'b'
F24
sS'e'
F7
sg39
I251
sg192
I2
sg186
F0
sS'r'
F28
sg40
S'Belfast'
p257
sS'w'
F1
sg42
g43
((I2012
I7
I21
I0
I0
I0
I5
I203
I-1
t(dtRp258
sg37
S'Ireland'
p259
sa(dp260
g36
I2
sS'b'
F24
sS'e'
F7.75
sg39
I250
sg192
I3
sg186
F0
sS'r'
F31
sg40
S'Belfast'
p261
sS'w'
F0
sg42
g43
((I2012
I7
I20
I0
I0
I0
I4
I202
I-1
t(dtRp262
sg37
S'Ireland'
p263
sa(dp264
g36
I2
sS'b'
F24
sS'e'
F6.5
sg39
I249
sg192
I3
sg186
F0
sS'r'
F26
sg40
S'Belfast'
p265
sS'w'
F0
sg42
g43
((I2012
I7
I18
I0
I0
I0
I2
I200
I-1
t(dtRp266
sg37
S'Ireland'
p267
sa(dp268
g36
I1
sS'b'
F24
sS'e'
F6
sg39
I216
sg192
I3
sg186
F1
sS'r'
F24
sg40
S'Dhaka'
p269
sS'w'
F2
sg42
g43
((I2011
I11
I29
I0
I0
I0
I1
I333
I-1
t(dtRp270
sg37
S'Pakistan'
p271
sa(dp272
g36
I1
sS'b'
F24
sS'e'
F6.25
sg39
I209
sg192
I4
sg186
F0
sS'r'
F25
sg40
S'Dhaka'
p273
sS'w'
F2
sg42
g43
((I2011
I10
I11
I0
I0
I0
I1
I284
I-1
t(dtRp274
sg37
S'West Indies'
p275
sa(dp276
g36
I1
sS'b'
F24
sS'e'
F6
sg39
I161
sg192
I3
sg186
F0
sS'r'
F24
sg40
S'Bridgetown'
p277
sS'w'
F2
sg42
g43
((I2010
I5
I5
I0
I0
I0
I2
I125
I-1
t(dtRp278
sg37
S'Australia'
p279
sa(dp280
g36
I1
sS'b'
F24
sS'e'
F6.75
sg39
I154
sg192
I5
sg186
F0
sS'r'
F27
sg40
S'Gros Islet'
p281
sS'w'
F2
sg42
g43
((I2010
I5
I1
I0
I0
I0
I5
I121
I-1
t(dtRp282
sg37
S'Pakistan'
p283
sa(dp284
g36
I2
sS'b'
F12
sS'e'
F8
sg39
I131
sg192
I4
sg186
F0
sS'r'
F16
sg40
S'Hamilton'
p285
sS'w'
F0
sg42
g43
((I2010
I2
I3
I0
I0
I0
I2
I34
I-1
t(dtRp286
sg37
S'New Zealand'
p287
sa(dp288
g36
I2
sS'b'
F24
sS'e'
F3.25
sg39
I117
sg192
I1
sg186
F0
sS'r'
F13
sg40
S'Basseterre'
p289
sS'w'
F1
sg42
g43
((I2009
I8
I2
I0
I0
I0
I6
I214
I-1
t(dtRp290
sg37
S'West Indies'
p291
sa(dp292
g36
I2
sS'b'
F18
sS'e'
F7.666666666666667
sg39
I96
sg192
I5
sg186
F0
sS'r'
F23
sg40
S'Nottingham'
p293
sS'w'
F1
sg42
g43
((I2009
I6
I8
I0
I0
I0
I0
I159
I-1
t(dtRp294
sg37
S'Ireland'
p295
sa(dp296
g36
I1
sS'b'
F24
sS'e'
F6
sg39
I93
sg192
I5
sg186
F0
sS'r'
F24
sg40
S'Nottingham'
p297
sS'w'
F1
sg42
g43
((I2009
I6
I6
I0
I0
I0
I5
I157
I-1
t(dtRp298
sg37
S'India'
p299
sa(dp300
g36
I1
sS'b'
F18
sS'e'
F7
sg39
I77
sg192
I4
sg186
F0
sS'r'
F21
sg40
S'Johannesburg'
p301
sS'w'
F2
sg42
g43
((I2008
I11
I5
I0
I0
I0
I2
I310
I-1
t(dtRp302
sg37
S'South Africa'
p303
sa(dp304
g36
I1
sS'b'
F24
sS'e'
F8.25
sg39
I55
sg192
I5
sg186
F0
sS'r'
F33
sg40
S'Karachi'
p305
sS'w'
F1
sg42
g43
((I2008
I4
I20
I0
I0
I0
I6
I111
I-1
t(dtRp306
sg37
S'Pakistan'
p307
sa(dp308
g36
I2
sS'b'
F24
sS'e'
F4.25
sg39
I42
sg192
I4
sg186
F0
sS'r'
F17
sg40
S'Cape Town'
p309
sS'w'
F0
sg42
g43
((I2007
I9
I20
I0
I0
I0
I3
I263
I-1
t(dtRp310
sg37
S'Pakistan'
p311
sa(dp312
g36
I1
sS'b'
F18
sS'e'
F7.333333333333333
sg39
I38
sg192
I5
sg186
F0
sS'r'
F22
sg40
S'Johannesburg'
p313
sS'w'
F1
sg42
g43
((I2007
I9
I18
I0
I0
I0
I1
I261
I-1
t(dtRp314
sg37
S'Sri Lanka'
p315
sa(dp316
g36
I2
sS'b'
F12
sS'e'
F7.5
sg39
I33
sg192
I4
sg186
F0
sS'r'
F15
sg40
S'Cape Town'
p317
sS'w'
F0
sg42
g43
((I2007
I9
I16
I0
I0
I0
I6
I259
I-1
t(dtRp318
sg37
S'Australia'
p319
sa(dp320
g36
I2
sS'b'
F24
sS'e'
F7
sg39
I31
sg192
I5
sg186
F0
sS'r'
F28
sg40
S'Cape Town'
p321
sS'w'
F1
sg42
g43
((I2007
I9
I15
I0
I0
I0
I5
I258
I-1
t(dtRp322
sg37
S'South Africa'
p323
sa(dp324
g36
I1
sS'b'
F24
sS'e'
F8.5
sg39
I24
sg192
I5
sg186
F0
sS'r'
F34
sg40
S'Johannesburg'
p325
sS'w'
F4
sg42
g43
((I2007
I9
I13
I0
I0
I0
I3
I256
I-1
t(dtRp326
sg37
S'West Indies'
p327
sa(dp328
g36
I2
sS'b'
F24
sS'e'
F7.75
sg39
I9
sg192
I4
sg186
F0
sS'r'
F31
sg40
S'Khulna'
p329
sS'w'
F1
sg42
g43
((I2006
I11
I28
I0
I0
I0
I1
I332
I-1
t(dtRp330
sg37
S'Zimbabwe'
p331
satp332
sS'battingStats'
p333
((dp334
S'a'
F22.787878787878789
sS'0s'
p335
F4
sS'b'
F587
sS'no'
p336
F2
sg30
F2006
sS'hs'
p337
F84
sS'm'
F35
sS'4s'
p338
F78
sg33
F2014
sS'i'
F35
sS'6s'
p339
F20
sg184
F128.10902896081771
sS'r'
F752
sS'100s'
p340
F0
sS'50s'
p341
F4
s(lp342
(dp343
g36
I1
sS'b'
F52
sg37
S'Australia'
p344
sg184
F126.92307692307692
sg39
I396
sS'dismiss'
p345
S'caught'
p346
sg338
F5
sg192
I3
sg339
F3
sg40
S'Dhaka'
p347
sg42
g43
((I2014
I4
I1
I0
I0
I0
I1
I91
I-1
t(dtRp348
sS'r'
F66
sS'minutes'
p349
F72
sa(dp350
g36
I2
sS'b'
F32
sg37
S'Pakistan'
p351
sg184
F118.75
sg39
I392
sg345
S'caught'
p352
sg338
F2
sg192
I3
sg339
F2
sg40
S'Dhaka'
p353
sg42
g43
((I2014
I3
I30
I0
I0
I0
I6
I89
I-1
t(dtRp354
sS'r'
F38
sg349
F44
sa(dp355
g36
I1
sS'b'
F2
sg37
S'India'
p356
sg184
F50
sg39
I389
sg345
S'bowled'
p357
sg338
F0
sg192
I4
sg339
F0
sg40
S'Dhaka'
p358
sg42
g43
((I2014
I3
I28
I0
I0
I0
I4
I87
I-1
t(dtRp359
sS'r'
F1
sg349
F3
sa(dp360
g36
I2
sS'b'
F1
sg37
S'West Indies'
p361
sg184
F0
sg39
I385
sg345
S'bowled'
p362
sg338
F0
sg192
I4
sg339
F0
sg40
S'Dhaka'
p363
sg42
g43
((I2014
I3
I25
I0
I0
I0
I1
I84
I-1
t(dtRp364
sS'r'
F0
sg349
F1
sa(dp365
g36
I1
sS'b'
F27
sg37
S'Hong Kong'
p366
sg184
F125.92592592592592
sg39
I375
sg345
S'caught'
p367
sg338
F6
sg192
I4
sg339
F0
sg40
S'Chittagong'
p368
sg42
g43
((I2014
I3
I20
I0
I0
I0
I3
I79
I-1
t(dtRp369
sS'r'
F34
sg349
F42
sa(dp370
g36
I2
sS'b'
F18
sg37
S'Nepal'
p371
sg336
I01
sg184
F205.55555555555554
sg39
I371
sg345
S'not out'
p372
sg338
F1
sg192
I4
sg339
F4
sg40
S'Chittagong'
p373
sg42
g43
((I2014
I3
I18
I0
I0
I0
I1
I77
I-1
t(dtRp374
sS'r'
F37
sg349
F23
sa(dp375
g36
I2
sS'b'
F12
sg37
S'Afghanistan'
p376
sg336
I01
sg184
F83.333333333333329
sg39
I366
sg345
S'not out'
p377
sg338
F1
sg192
I3
sg339
F0
sg40
S'Dhaka'
p378
sg42
g43
((I2014
I3
I16
I0
I0
I0
I6
I75
I-1
t(dtRp379
sS'r'
F10
sg349
F-1
sa(dp380
g36
I1
sS'b'
F6
sg37
S'Sri Lanka'
p381
sg184
F200
sg39
I358
sg345
S'caught'
p382
sg338
F3
sg192
I4
sg339
F0
sg40
S'Chittagong'
p383
sg42
g43
((I2014
I2
I14
I0
I0
I0
I4
I45
I-1
t(dtRp384
sS'r'
F12
sg349
F7
sa(dp385
g36
I2
sS'b'
F17
sg37
S'Sri Lanka'
p386
sg184
F152.94117647058823
sg39
I357
sg345
S'bowled'
p387
sg338
F2
sg192
I4
sg339
F1
sg40
S'Chittagong'
p388
sg42
g43
((I2014
I2
I12
I0
I0
I0
I2
I43
I-1
t(dtRp389
sS'r'
F26
sg349
F22
sa(dp390
g36
I1
sS'b'
F28
sg37
S'Zimbabwe'
p391
sg184
F142.85714285714286
sg39
I316
sg345
S'caught'
p392
sg338
F6
sg192
I3
sg339
F1
sg40
S'Bulawayo'
p393
sg42
g43
((I2013
I5
I12
I0
I0
I0
I6
I132
I-1
t(dtRp394
sS'r'
F40
sg349
F33
sa(dp395
g36
I2
sS'b'
F40
sg37
S'Zimbabwe'
p396
sg184
F162.5
sg39
I315
sg345
S'caught'
p397
sg338
F8
sg192
I3
sg339
F2
sg40
S'Bulawayo'
p398
sg42
g43
((I2013
I5
I11
I0
I0
I0
I5
I131
I-1
t(dtRp399
sS'r'
F65
sg349
F56
sa(dp400
g36
I1
sS'b'
F54
sg37
S'Pakistan'
p401
sg184
F155.55555555555554
sg39
I274
sg345
S'caught'
p402
sg338
F11
sg192
I3
sg339
F2
sg40
S'Pallekele'
p403
sg42
g43
((I2012
I9
I25
I0
I0
I0
I1
I269
I-1
t(dtRp404
sS'r'
F84
sg349
F71
sa(dp405
g36
I2
sS'b'
F8
sg37
S'New Zealand'
p406
sg184
F137.5
sg39
I267
sg345
S'caught'
p407
sg338
F2
sg192
I3
sg339
F0
sg40
S'Pallekele'
p408
sg42
g43
((I2012
I9
I21
I0
I0
I0
I4
I265
I-1
t(dtRp409
sS'r'
F11
sg349
F12
sa(dp410
g36
I1
sS'b'
F3
sg37
S'Netherlands'
p411
sg184
F0
sg39
I254
sg345
S'bowled'
p412
sg338
F0
sg192
I3
sg339
F0
sg40
S'The Hague'
p413
sg42
g43
((I2012
I7
I26
I0
I0
I0
I3
I208
I-1
t(dtRp414
sS'r'
F0
sg349
F1
sa(dp415
g36
I2
sS'b'
F11
sg37
S'Netherlands'
p416
sg184
F109.09090909090909
sg39
I253
sg345
S'caught'
p417
sg338
F2
sg192
I3
sg339
F0
sg40
S'The Hague'
p418
sg42
g43
((I2012
I7
I25
I0
I0
I0
I2
I207
I-1
t(dtRp419
sS'r'
F12
sg349
F13
sa(dp420
g36
I2
sS'b'
F29
sg37
S'Scotland'
p421
sg184
F106.89655172413794
sg39
I252
sg345
S'caught'
p422
sg338
F1
sg192
I3
sg339
F1
sg40
S'The Hague'
p423
sg42
g43
((I2012
I7
I24
I0
I0
I0
I1
I206
I-1
t(dtRp424
sS'r'
F31
sg349
F54
sa(dp425
g36
I2
sS'b'
F5
sg37
S'Ireland'
p426
sg184
F60
sg39
I251
sg345
S'caught'
p427
sg338
F0
sg192
I3
sg339
F0
sg40
S'Belfast'
p428
sg42
g43
((I2012
I7
I21
I0
I0
I0
I5
I203
I-1
t(dtRp429
sS'r'
F3
sg349
F6
sa(dp430
g36
I1
sS'b'
F9
sg37
S'Ireland'
p431
sg184
F122.22222222222223
sg39
I250
sg345
S'caught'
p432
sg338
F2
sg192
I3
sg339
F0
sg40
S'Belfast'
p433
sg42
g43
((I2012
I7
I20
I0
I0
I0
I4
I202
I-1
t(dtRp434
sS'r'
F11
sg349
F12
sa(dp435
g36
I1
sS'b'
F33
sg37
S'Ireland'
p436
sg184
F172.72727272727272
sg39
I249
sg345
S'bowled'
p437
sg338
F9
sg192
I3
sg339
F0
sg40
S'Belfast'
p438
sg42
g43
((I2012
I7
I18
I0
I0
I0
I2
I200
I-1
t(dtRp439
sS'r'
F57
sg349
F33
sa(dp440
g36
I2
sS'b'
F14
sg37
S'Pakistan'
p441
sg184
F50
sg39
I216
sg345
S'bowled'
p442
sg338
F0
sg192
I4
sg339
F0
sg40
S'Dhaka'
p443
sg42
g43
((I2011
I11
I29
I0
I0
I0
I1
I333
I-1
t(dtRp444
sS'r'
F7
sg349
F17
sa(dp445
g36
I2
sS'b'
F1
sg37
S'West Indies'
p446
sg184
F0
sg39
I209
sg345
S'bowled'
p447
sg338
F0
sg192
I4
sg339
F0
sg40
S'Dhaka'
p448
sg42
g43
((I2011
I10
I11
I0
I0
I0
I1
I284
I-1
t(dtRp449
sS'r'
F0
sg349
F1
sa(dp450
g36
I2
sS'b'
F28
sg37
S'Australia'
p451
sg184
F100
sg39
I161
sg345
S'caught'
p452
sg338
F0
sg192
I4
sg339
F1
sg40
S'Bridgetown'
p453
sg42
g43
((I2010
I5
I5
I0
I0
I0
I2
I125
I-1
t(dtRp454
sS'r'
F28
sg349
F35
sa(dp455
g36
I2
sS'b'
F31
sg37
S'Pakistan'
p456
sg184
F151.61290322580646
sg39
I154
sg345
S'caught'
p457
sg338
F3
sg192
I4
sg339
F2
sg40
S'Gros Islet'
p458
sg42
g43
((I2010
I5
I1
I0
I0
I0
I5
I121
I-1
t(dtRp459
sS'r'
F47
sg349
F-1
sa(dp460
g36
I1
sS'b'
F5
sg37
S'New Zealand'
p461
sg184
F60
sg39
I131
sg345
S'bowled'
p462
sg338
F0
sg192
I4
sg339
F0
sg40
S'Hamilton'
p463
sg42
g43
((I2010
I2
I3
I0
I0
I0
I2
I34
I-1
t(dtRp464
sS'r'
F3
sg349
F8
sa(dp465
g36
I1
sS'b'
F16
sg37
S'West Indies'
p466
sg184
F106.25
sg39
I117
sg345
S'bowled'
p467
sg338
F3
sg192
I5
sg339
F0
sg40
S'Basseterre'
p468
sg42
g43
((I2009
I8
I2
I0
I0
I0
I6
I214
I-1
t(dtRp469
sS'r'
F17
sg349
F12
sa(dp470
g36
I1
sS'b'
F7
sg37
S'Ireland'
p471
sg184
F100
sg39
I96
sg345
S'caught'
p472
sg338
F1
sg192
I4
sg339
F0
sg40
S'Nottingham'
p473
sg42
g43
((I2009
I6
I8
I0
I0
I0
I0
I159
I-1
t(dtRp474
sS'r'
F7
sg349
F3
sa(dp475
g36
I2
sS'b'
F10
sg37
S'India'
p476
sg184
F80
sg39
I93
sg345
S'caught'
p477
sg338
F0
sg192
I4
sg339
F0
sg40
S'Nottingham'
p478
sg42
g43
((I2009
I6
I6
I0
I0
I0
I5
I157
I-1
t(dtRp479
sS'r'
F8
sg349
F7
sa(dp480
g36
I2
sS'b'
F3
sg37
S'South Africa'
p481
sg184
F133.33333333333334
sg39
I77
sg345
S'run out'
p482
sg338
F1
sg192
I5
sg339
F0
sg40
S'Johannesburg'
p483
sg42
g43
((I2008
I11
I5
I0
I0
I0
I2
I310
I-1
t(dtRp484
sS'r'
F4
sg349
F6
sa(dp485
g36
I2
sS'b'
F1
sg37
S'Pakistan'
p486
sg184
F0
sg39
I55
sg345
S'caught'
p487
sg338
F0
sg192
I5
sg339
F0
sg40
S'Karachi'
p488
sg42
g43
((I2008
I4
I20
I0
I0
I0
I6
I111
I-1
t(dtRp489
sS'r'
F0
sg349
F1
sa(dp490
g36
I1
sS'b'
F3
sg37
S'Pakistan'
p491
sg184
F33.333333333333336
sg39
I42
sg345
S'caught'
p492
sg338
F0
sg192
I5
sg339
F0
sg40
S'Cape Town'
p493
sg42
g43
((I2007
I9
I20
I0
I0
I0
I3
I263
I-1
t(dtRp494
sS'r'
F1
sg349
F2
sa(dp495
g36
I2
sS'b'
F19
sg37
S'Sri Lanka'
p496
sg184
F94.736842105263165
sg39
I38
sg345
S'bowled'
p497
sg338
F2
sg192
I5
sg339
F0
sg40
S'Johannesburg'
p498
sg42
g43
((I2007
I9
I18
I0
I0
I0
I1
I261
I-1
t(dtRp499
sS'r'
F18
sg349
F30
sa(dp500
g36
I1
sS'b'
F11
sg37
S'Australia'
p501
sg184
F145.45454545454547
sg39
I33
sg345
S'caught'
p502
sg338
F1
sg192
I5
sg339
F1
sg40
S'Cape Town'
p503
sg42
g43
((I2007
I9
I16
I0
I0
I0
I6
I259
I-1
t(dtRp504
sS'r'
F16
sg349
F13
sa(dp505
g36
I1
sS'b'
F14
sg37
S'South Africa'
p506
sg184
F135.71428571428572
sg39
I31
sg345
S'run out'
p507
sg338
F3
sg192
I5
sg339
F0
sg40
S'Cape Town'
p508
sg42
g43
((I2007
I9
I15
I0
I0
I0
I5
I258
I-1
t(dtRp509
sS'r'
F19
sg349
F22
sa(dp510
g36
I2
sS'b'
F9
sg37
S'West Indies'
p511
sg184
F144.44444444444446
sg39
I24
sg345
S'caught'
p512
sg338
F1
sg192
I5
sg339
F0
sg40
S'Johannesburg'
p513
sg42
g43
((I2007
I9
I13
I0
I0
I0
I3
I256
I-1
t(dtRp514
sS'r'
F13
sg349
F9
sa(dp515
g36
I1
sS'b'
F28
sg37
S'Zimbabwe'
p516
sg184
F92.857142857142861
sg39
I9
sg345
S'caught'
p517
sg338
F2
sg192
I4
sg339
F0
sg40
S'Khulna'
p518
sg42
g43
((I2006
I11
I28
I0
I0
I0
I1
I332
I-1
t(dtRp519
sS'r'
F26
sg349
F32
satp520
ssS'all'
p521
(dp522
g27
(dp523
S'c'
F32
sg29
F0
sS'i'
F127
sS'm'
F127
sS's'
F0
sg31
F32
sg32
F32
ssg182
(dp524
S'a'
F18.763975155279503
sS'b'
F2771
sS'e'
F6.5413208228076503
sS'i'
F127
sg184
F17.211180124223603
sg185
F2
sS'm'
F127
sg186
F0
sS'r'
F3021
sS'w'
F161
sg187
F3
sg188
F6
sg189
F6
ssg333
(dp525
S'a'
F20.23076923076923
sg335
F-1
sS'b'
F1641
sg336
F13
sS'i'
F117
sg337
F86
sS'm'
F127
sg338
F196
sg339
F64
sg184
F128.21450335161487
sS'r'
F2104
sg340
F0
sg341
F8
ssssb.