(iplayer
Player
p1
(dp2
S'is_batsman'
p3
I00
sS'name'
p4
S'Vinay Kumar'
p5
sS'dob'
p6
S'1984/02/12'
p7
sS'price'
p8
S'900000'
p9
sS'is_allrounder'
p10
I00
sS'espnid'
p11
S'35731'
p12
sS'is_overseas'
p13
I00
sS'team'
p14
S'KKR'
p15
sS'nationality'
p16
S'Indian'
p17
sS'is_bowler'
p18
I01
sS'is_keeper'
p19
I00
sS'id'
p20
S'166'
p21
sS'is_uncapped'
p22
I00
sS'tournamentStats'
p23
(dp24
S'international'
p25
(dp26
S'fieldingStats'
p27
((dp28
S'c'
F1
sS'ctw'
p29
F0
sS'span_s'
p30
F2010
sS'm'
F9
sS's'
F0
sS'dismissals'
p31
F1
sS'i'
F9
sS'ctf'
p32
F1
sS'span_f'
p33
F2013
s(lp34
(dp35
S'inning'
p36
I1
sS'c'
F1
sg29
F0
sS'opp'
p37
S'Australia'
p38
sS't20i_num'
p39
I331
sg32
F1
sg31
F1
sS's'
F0
sS'place'
p40
S'Rajkot'
p41
sS'date'
p42
ctime
struct_time
p43
((I2013
I10
I10
I0
I0
I0
I3
I283
I-1
t(dtRp44
sa(dp45
g36
I1
sS'c'
F0
sg29
F0
sg37
S'South Africa'
p46
sg39
I242
sg32
F0
sg31
F0
sS's'
F0
sg40
S'Johannesburg'
p47
sg42
g43
((I2012
I3
I30
I0
I0
I0
I4
I90
I-1
t(dtRp48
sa(dp49
g36
I1
sS'c'
F0
sg29
F0
sg37
S'Australia'
p50
sg39
I218
sg32
F0
sg31
F0
sS's'
F0
sg40
S'Melbourne'
p51
sg42
g43
((I2012
I2
I3
I0
I0
I0
I4
I34
I-1
t(dtRp52
sa(dp53
g36
I1
sS'c'
F0
sg29
F0
sg37
S'Australia'
p54
sg39
I217
sg32
F0
sg31
F0
sS's'
F0
sg40
S'Sydney'
p55
sg42
g43
((I2012
I2
I1
I0
I0
I0
I2
I32
I-1
t(dtRp56
sa(dp57
g36
I2
sS'c'
F0
sg29
F0
sg37
S'England'
p58
sg39
I214
sg32
F0
sg31
F0
sS's'
F0
sg40
S'Kolkata'
p59
sg42
g43
((I2011
I10
I29
I0
I0
I0
I5
I302
I-1
t(dtRp60
sa(dp61
g36
I2
sS'c'
F0
sg29
F0
sg37
S'England'
p62
sg39
I204
sg32
F0
sg31
F0
sS's'
F0
sg40
S'Manchester'
p63
sg42
g43
((I2011
I8
I31
I0
I0
I0
I2
I243
I-1
t(dtRp64
sa(dp65
g36
I1
sS'c'
F0
sg29
F0
sg37
S'Zimbabwe'
p66
sg39
I183
sg32
F0
sg31
F0
sS's'
F0
sg40
S'Harare'
p67
sg42
g43
((I2010
I6
I13
I0
I0
I0
I6
I164
I-1
t(dtRp68
sa(dp69
g36
I1
sS'c'
F0
sg29
F0
sg37
S'Zimbabwe'
p70
sg39
I182
sg32
F0
sg31
F0
sS's'
F0
sg40
S'Harare'
p71
sg42
g43
((I2010
I6
I12
I0
I0
I0
I5
I163
I-1
t(dtRp72
sa(dp73
g36
I2
sS'c'
F0
sg29
F0
sg37
S'Sri Lanka'
p74
sg39
I173
sg32
F0
sg31
F0
sS's'
F0
sg40
S'Gros Islet'
p75
sg42
g43
((I2010
I5
I11
I0
I0
I0
I1
I131
I-1
t(dtRp76
satp77
sS'bowlingStats'
p78
((dp79
S'a'
F24.699999999999999
sS'b'
F189
sS'e'
F7.8412698412698409
sS'i'
F9
sS'sr'
p80
F18.899999999999999
sS'5w'
p81
F0
sS'm'
F9
sS'maid'
p82
F0
sS'r'
F247
sS'w'
F10
sS'4w'
p83
F0
sS'bbir'
p84
F24
sS'bbiw'
p85
F3
sg33
F2013
sg30
F2010
s(lp86
(dp87
g36
I1
sS'b'
F24
sS'e'
F6.5
sg39
I331
sS'pos'
p88
I2
sg82
F0
sS'r'
F26
sg40
S'Rajkot'
p89
sS'w'
F3
sg42
g43
((I2013
I10
I10
I0
I0
I0
I3
I283
I-1
t(dtRp90
sg37
S'Australia'
p91
sa(dp92
g36
I1
sS'b'
F18
sS'e'
F10.666666666666666
sg39
I242
sg88
I3
sg82
F0
sS'r'
F32
sg40
S'Johannesburg'
p93
sS'w'
F0
sg42
g43
((I2012
I3
I30
I0
I0
I0
I4
I90
I-1
t(dtRp94
sg37
S'South Africa'
p95
sa(dp96
g36
I1
sS'b'
F24
sS'e'
F6.25
sg39
I218
sg88
I2
sg82
F0
sS'r'
F25
sg40
S'Melbourne'
p97
sS'w'
F1
sg42
g43
((I2012
I2
I3
I0
I0
I0
I4
I34
I-1
t(dtRp98
sg37
S'Australia'
p99
sa(dp100
g36
I1
sS'b'
F24
sS'e'
F7
sg39
I217
sg88
I3
sg82
F0
sS'r'
F28
sg40
S'Sydney'
p101
sS'w'
F1
sg42
g43
((I2012
I2
I1
I0
I0
I0
I2
I32
I-1
t(dtRp102
sg37
S'Australia'
p103
sa(dp104
g36
I2
sS'b'
F12
sS'e'
F9.5
sg39
I214
sg88
I5
sg82
F0
sS'r'
F19
sg40
S'Kolkata'
p105
sS'w'
F0
sg42
g43
((I2011
I10
I29
I0
I0
I0
I5
I302
I-1
t(dtRp106
sg37
S'England'
p107
sa(dp108
g36
I2
sS'b'
F21
sS'e'
F10
sg39
I204
sg88
I2
sg82
F0
sS'r'
F35
sg40
S'Manchester'
p109
sS'w'
F0
sg42
g43
((I2011
I8
I31
I0
I0
I0
I2
I243
I-1
t(dtRp110
sg37
S'England'
p111
sa(dp112
g36
I1
sS'b'
F24
sS'e'
F7
sg39
I183
sg88
I2
sg82
F0
sS'r'
F28
sg40
S'Harare'
p113
sS'w'
F0
sg42
g43
((I2010
I6
I13
I0
I0
I0
I6
I164
I-1
t(dtRp114
sg37
S'Zimbabwe'
p115
sa(dp116
g36
I1
sS'b'
F18
sS'e'
F8
sg39
I182
sg88
I1
sg82
F0
sS'r'
F24
sg40
S'Harare'
p117
sS'w'
F3
sg42
g43
((I2010
I6
I12
I0
I0
I0
I5
I163
I-1
t(dtRp118
sg37
S'Zimbabwe'
p119
sa(dp120
g36
I2
sS'b'
F24
sS'e'
F7.5
sg39
I173
sg88
I2
sg82
F0
sS'r'
F30
sg40
S'Gros Islet'
p121
sS'w'
F2
sg42
g43
((I2010
I5
I11
I0
I0
I0
I1
I131
I-1
t(dtRp122
sg37
S'Sri Lanka'
p123
satp124
sS'battingStats'
p125
((dp126
S'a'
F-1
sS'0s'
p127
F0
sS'b'
F4
sS'no'
p128
F1
sg30
F2010
sS'hs'
p129
F2
sS'm'
F9
sS'4s'
p130
F0
sg33
F2013
sS'i'
F1
sS'6s'
p131
F0
sg80
F50
sS'r'
F2
sS'100s'
p132
F0
sS'50s'
p133
F0
s(lp134
(dp135
g36
I1
sS'b'
F4
sg37
S'England'
p136
sg128
I01
sg80
F50
sg39
I204
sS'dismiss'
p137
S'not out'
p138
sg130
F0
sg88
I10
sg131
F0
sg40
S'Manchester'
p139
sg42
g43
((I2011
I8
I31
I0
I0
I0
I2
I243
I-1
t(dtRp140
sS'r'
F2
sS'minutes'
p141
F5
satp142
ssS'all'
p143
(dp144
g27
(dp145
S'c'
F36
sg29
F0
sS'i'
F118
sS'm'
F118
sS's'
F0
sg31
F36
sg32
F36
ssg78
(dp146
S'a'
F23.931818181818183
sS'b'
F2419
sS'e'
F7.8354692021496488
sS'i'
F117
sg80
F18.325757575757574
sg81
F0
sS'm'
F118
sg82
F0
sS'r'
F3159
sS'w'
F132
sg83
F1
sg84
F40
sg85
F4
ssg125
(dp147
S'a'
F12.771428571428572
sg127
F-1
sS'b'
F361
sg128
F20
sS'i'
F55
sg129
F34
sS'm'
F118
sg130
F27
sg131
F19
sg80
F123.82271468144044
sS'r'
F447
sg132
F0
sg133
F0
ssssb.