(iplayer
Player
p1
(dp2
S'is_batsman'
p3
I00
sS'name'
p4
S'Tim Southee'
p5
sS'dob'
p6
S'1988/12/11'
p7
sS'price'
p8
S'850000'
p9
sS'is_allrounder'
p10
I00
sS'espnid'
p11
S'232364'
p12
sS'is_overseas'
p13
I01
sS'team'
p14
S'RR'
p15
sS'nationality'
p16
S'New Zealander'
p17
sS'is_bowler'
p18
I01
sS'is_keeper'
p19
I00
sS'id'
p20
S'307'
p21
sS'is_uncapped'
p22
I00
sS'tournamentStats'
p23
(dp24
S'international'
p25
(dp26
S'fieldingStats'
p27
((dp28
S'c'
F15
sS'ctw'
p29
F0
sS'span_s'
p30
F2008
sS'm'
F35
sS's'
F0
sS'dismissals'
p31
F15
sS'i'
F35
sS'ctf'
p32
F15
sS'span_f'
p33
F2014
s(lp34
(dp35
S'inning'
p36
I1
sS'c'
F0
sg29
F0
sS'opp'
p37
S'South Africa'
p38
sS't20i_num'
p39
I383
sg32
F0
sg31
F0
sS's'
F0
sS'place'
p40
S'Chittagong'
p41
sS'date'
p42
ctime
struct_time
p43
((I2014
I3
I24
I0
I0
I0
I0
I83
I-1
t(dtRp44
sa(dp45
g36
I1
sS'c'
F1
sg29
F0
sg37
S'England'
p46
sg39
I380
sg32
F1
sg31
F1
sS's'
F0
sg40
S'Chittagong'
p47
sg42
g43
((I2014
I3
I22
I0
I0
I0
I5
I81
I-1
t(dtRp48
sa(dp49
g36
I2
sS'c'
F0
sg29
F0
sg37
S'West Indies'
p50
sg39
I352
sg32
F0
sg31
F0
sS's'
F0
sg40
S'Auckland'
p51
sg42
g43
((I2014
I1
I11
I0
I0
I0
I5
I11
I-1
t(dtRp52
sa(dp53
g36
I2
sS'c'
F1
sg29
F0
sg37
S'Bangladesh'
p54
sg39
I333
sg32
F1
sg31
F1
sS's'
F0
sg40
S'Dhaka'
p55
sg42
g43
((I2013
I11
I6
I0
I0
I0
I2
I310
I-1
t(dtRp56
sa(dp57
g36
I2
sS'c'
F0
sg29
F0
sg37
S'Sri Lanka'
p58
sg39
I290
sg32
F0
sg31
F0
sS's'
F0
sg40
S'Pallekele'
p59
sg42
g43
((I2012
I10
I30
I0
I0
I0
I1
I304
I-1
t(dtRp60
sa(dp61
g36
I1
sS'c'
F1
sg29
F0
sg37
S'West Indies'
p62
sg39
I283
sg32
F1
sg31
F1
sS's'
F0
sg40
S'Pallekele'
p63
sg42
g43
((I2012
I10
I1
I0
I0
I0
I0
I275
I-1
t(dtRp64
sa(dp65
g36
I2
sS'c'
F0
sg29
F0
sg37
S'England'
p66
sg39
I279
sg32
F0
sg31
F0
sS's'
F0
sg40
S'Pallekele'
p67
sg42
g43
((I2012
I9
I29
I0
I0
I0
I5
I273
I-1
t(dtRp68
sa(dp69
g36
I2
sS'c'
F0
sg29
F0
sg37
S'Sri Lanka'
p70
sg39
I275
sg32
F0
sg31
F0
sS's'
F0
sg40
S'Pallekele'
p71
sg42
g43
((I2012
I9
I27
I0
I0
I0
I3
I271
I-1
t(dtRp72
sa(dp73
g36
I1
sS'c'
F1
sg29
F0
sg37
S'Pakistan'
p74
sg39
I271
sg32
F1
sg31
F1
sS's'
F0
sg40
S'Pallekele'
p75
sg42
g43
((I2012
I9
I23
I0
I0
I0
I6
I267
I-1
t(dtRp76
sa(dp77
g36
I2
sS'c'
F0
sg29
F0
sg37
S'Bangladesh'
p78
sg39
I267
sg32
F0
sg31
F0
sS's'
F0
sg40
S'Pallekele'
p79
sg42
g43
((I2012
I9
I21
I0
I0
I0
I4
I265
I-1
t(dtRp80
sa(dp81
g36
I1
sS'c'
F2
sg29
F0
sg37
S'West Indies'
p82
sg39
I248
sg32
F2
sg31
F2
sS's'
F0
sg40
S'Lauderhill'
p83
sg42
g43
((I2012
I7
I1
I0
I0
I0
I6
I183
I-1
t(dtRp84
sa(dp85
g36
I1
sS'c'
F0
sg29
F0
sg37
S'West Indies'
p86
sg39
I247
sg32
F0
sg31
F0
sS's'
F0
sg40
S'Lauderhill'
p87
sg42
g43
((I2012
I6
I30
I0
I0
I0
I5
I182
I-1
t(dtRp88
sa(dp89
g36
I1
sS'c'
F0
sg29
F0
sg37
S'South Africa'
p90
sg39
I223
sg32
F0
sg31
F0
sS's'
F0
sg40
S'Auckland'
p91
sg42
g43
((I2012
I2
I22
I0
I0
I0
I2
I53
I-1
t(dtRp92
sa(dp93
g36
I2
sS'c'
F0
sg29
F0
sg37
S'South Africa'
p94
sg39
I222
sg32
F0
sg31
F0
sS's'
F0
sg40
S'Hamilton'
p95
sg42
g43
((I2012
I2
I19
I0
I0
I0
I6
I50
I-1
t(dtRp96
sa(dp97
g36
I1
sS'c'
F1
sg29
F0
sg37
S'South Africa'
p98
sg39
I221
sg32
F1
sg31
F1
sS's'
F0
sg40
S'Wellington'
p99
sg42
g43
((I2012
I2
I17
I0
I0
I0
I4
I48
I-1
t(dtRp100
sa(dp101
g36
I1
sS'c'
F1
sg29
F0
sg37
S'Zimbabwe'
p102
sg39
I220
sg32
F1
sg31
F1
sS's'
F0
sg40
S'Hamilton'
p103
sg42
g43
((I2012
I2
I14
I0
I0
I0
I1
I45
I-1
t(dtRp104
sa(dp105
g36
I1
sS'c'
F0
sg29
F0
sg37
S'Pakistan'
p106
sg39
I195
sg32
F0
sg31
F0
sS's'
F0
sg40
S'Christchurch'
p107
sg42
g43
((I2010
I12
I30
I0
I0
I0
I3
I364
I-1
t(dtRp108
sa(dp109
g36
I2
sS'c'
F0
sg29
F0
sg37
S'Pakistan'
p110
sg39
I194
sg32
F0
sg31
F0
sS's'
F0
sg40
S'Hamilton'
p111
sg42
g43
((I2010
I12
I28
I0
I0
I0
I1
I362
I-1
t(dtRp112
sa(dp113
g36
I1
sS'c'
F1
sg29
F0
sg37
S'Pakistan'
p114
sg39
I193
sg32
F1
sg31
F1
sS's'
F0
sg40
S'Auckland'
p115
sg42
g43
((I2010
I12
I26
I0
I0
I0
I6
I360
I-1
t(dtRp116
sa(dp117
g36
I2
sS'c'
F0
sg29
F0
sg37
S'Sri Lanka'
p118
sg39
I181
sg32
F0
sg31
F0
sS's'
F0
sg40
S'Lauderhill'
p119
sg42
g43
((I2010
I5
I23
I0
I0
I0
I6
I143
I-1
t(dtRp120
sa(dp121
g36
I2
sS'c'
F0
sg29
F0
sg37
S'Sri Lanka'
p122
sg39
I180
sg32
F0
sg31
F0
sS's'
F0
sg40
S'Lauderhill'
p123
sg42
g43
((I2010
I5
I22
I0
I0
I0
I5
I142
I-1
t(dtRp124
sa(dp125
g36
I1
sS'c'
F1
sg29
F0
sg37
S'South Africa'
p126
sg39
I164
sg32
F1
sg31
F1
sS's'
F0
sg40
S'Bridgetown'
p127
sg42
g43
((I2010
I5
I6
I0
I0
I0
I3
I126
I-1
t(dtRp128
sa(dp129
g36
I1
sS'c'
F0
sg29
F0
sg37
S'Zimbabwe'
p130
sg39
I159
sg32
F0
sg31
F0
sS's'
F0
sg40
S'Providence'
p131
sg42
g43
((I2010
I5
I4
I0
I0
I0
I1
I124
I-1
t(dtRp132
sa(dp133
g36
I1
sS'c'
F0
sg29
F0
sg37
S'Sri Lanka'
p134
sg39
I151
sg32
F0
sg31
F0
sS's'
F0
sg40
S'Providence'
p135
sg42
g43
((I2010
I4
I30
I0
I0
I0
I4
I120
I-1
t(dtRp136
sa(dp137
g36
I2
sS'c'
F1
sg29
F0
sg37
S'Australia'
p138
sg39
I149
sg32
F1
sg31
F1
sS's'
F0
sg40
S'Christchurch'
p139
sg42
g43
((I2010
I2
I28
I0
I0
I0
I6
I59
I-1
t(dtRp140
sa(dp141
g36
I1
sS'c'
F0
sg29
F0
sg37
S'Bangladesh'
p142
sg39
I131
sg32
F0
sg31
F0
sS's'
F0
sg40
S'Hamilton'
p143
sg42
g43
((I2010
I2
I3
I0
I0
I0
I2
I34
I-1
t(dtRp144
sa(dp145
g36
I1
sS'c'
F0
sg29
F0
sg37
S'Pakistan'
p146
sg39
I123
sg32
F0
sg31
F0
sS's'
F0
sg40
S'Dubai (DSC)'
p147
sg42
g43
((I2009
I11
I13
I0
I0
I0
I4
I317
I-1
t(dtRp148
sa(dp149
g36
I1
sS'c'
F1
sg29
F0
sg37
S'Pakistan'
p150
sg39
I122
sg32
F1
sg31
F1
sS's'
F0
sg40
S'Dubai (DSC)'
p151
sg42
g43
((I2009
I11
I12
I0
I0
I0
I3
I316
I-1
t(dtRp152
sa(dp153
g36
I1
sS'c'
F1
sg29
F0
sg37
S'India'
p154
sg39
I85
sg32
F1
sg31
F1
sS's'
F0
sg40
S'Wellington'
p155
sg42
g43
((I2009
I2
I27
I0
I0
I0
I4
I58
I-1
t(dtRp156
sa(dp157
g36
I1
sS'c'
F0
sg29
F0
sg37
S'India'
p158
sg39
I84
sg32
F0
sg31
F0
sS's'
F0
sg40
S'Christchurch'
p159
sg42
g43
((I2009
I2
I25
I0
I0
I0
I2
I56
I-1
t(dtRp160
sa(dp161
g36
I1
sS'c'
F1
sg29
F0
sg37
S'Australia'
p162
sg39
I83
sg32
F1
sg31
F1
sS's'
F0
sg40
S'Sydney'
p163
sg42
g43
((I2009
I2
I15
I0
I0
I0
I6
I46
I-1
t(dtRp164
sa(dp165
g36
I2
sS'c'
F1
sg29
F0
sg37
S'West Indies'
p166
sg39
I79
sg32
F1
sg31
F1
sS's'
F0
sg40
S'Hamilton'
p167
sg42
g43
((I2008
I12
I28
I0
I0
I0
I6
I363
I-1
t(dtRp168
sa(dp169
g36
I2
sS'c'
F0
sg29
F0
sg37
S'West Indies'
p170
sg39
I78
sg32
F0
sg31
F0
sS's'
F0
sg40
S'Auckland'
p171
sg42
g43
((I2008
I12
I26
I0
I0
I0
I4
I361
I-1
t(dtRp172
sa(dp173
g36
I1
sS'c'
F0
sg29
F0
sg37
S'England'
p174
sg39
I54
sg32
F0
sg31
F0
sS's'
F0
sg40
S'Christchurch'
p175
sg42
g43
((I2008
I2
I7
I0
I0
I0
I3
I38
I-1
t(dtRp176
sa(dp177
g36
I1
sS'c'
F0
sg29
F0
sg37
S'England'
p178
sg39
I53
sg32
F0
sg31
F0
sS's'
F0
sg40
S'Auckland'
p179
sg42
g43
((I2008
I2
I5
I0
I0
I0
I1
I36
I-1
t(dtRp180
satp181
sS'bowlingStats'
p182
((dp183
S'a'
F25.785714285714285
sS'b'
F750
sS'e'
F8.6639999999999997
sS'i'
F34
sS'sr'
p184
F17.857142857142858
sS'5w'
p185
F1
sS'm'
F35
sS'maid'
p186
F2
sS'r'
F1083
sS'w'
F42
sS'4w'
p187
F0
sS'bbir'
p188
F18
sS'bbiw'
p189
F5
sg33
F2014
sg30
F2008
s(lp190
(dp191
g36
I1
sS'b'
F24
sS'e'
F11.5
sg39
I383
sS'pos'
p192
I3
sg186
F0
sS'r'
F46
sg40
S'Chittagong'
p193
sS'w'
F2
sg42
g43
((I2014
I3
I24
I0
I0
I0
I0
I83
I-1
t(dtRp194
sg37
S'South Africa'
p195
sa(dp196
g36
I1
sS'b'
F24
sS'e'
F11.5
sg39
I380
sg192
I3
sg186
F0
sS'r'
F46
sg40
S'Chittagong'
p197
sS'w'
F1
sg42
g43
((I2014
I3
I22
I0
I0
I0
I5
I81
I-1
t(dtRp198
sg37
S'England'
p199
sa(dp200
g36
I2
sS'b'
F24
sS'e'
F9
sg39
I352
sg192
I1
sg186
F0
sS'r'
F36
sg40
S'Auckland'
p201
sS'w'
F0
sg42
g43
((I2014
I1
I11
I0
I0
I0
I5
I11
I-1
t(dtRp202
sg37
S'West Indies'
p203
sa(dp204
g36
I2
sS'b'
F24
sS'e'
F9.5
sg39
I333
sg192
I1
sg186
F0
sS'r'
F38
sg40
S'Dhaka'
p205
sS'w'
F3
sg42
g43
((I2013
I11
I6
I0
I0
I0
I2
I310
I-1
t(dtRp206
sg37
S'Bangladesh'
p207
sa(dp208
g36
I1
sS'b'
F24
sS'e'
F5.25
sg39
I283
sg192
I3
sg186
F0
sS'r'
F21
sg40
S'Pallekele'
p209
sS'w'
F3
sg42
g43
((I2012
I10
I1
I0
I0
I0
I0
I275
I-1
t(dtRp210
sg37
S'West Indies'
p211
sa(dp212
g36
I2
sS'b'
F12
sS'e'
F16
sg39
I279
sg192
I2
sg186
F0
sS'r'
F32
sg40
S'Pallekele'
p213
sS'w'
F0
sg42
g43
((I2012
I9
I29
I0
I0
I0
I5
I273
I-1
t(dtRp214
sg37
S'England'
p215
sa(dp216
g36
I2
sS'b'
F24
sS'e'
F11
sg39
I275
sg192
I3
sg186
F0
sS'r'
F44
sg40
S'Pallekele'
p217
sS'w'
F0
sg42
g43
((I2012
I9
I27
I0
I0
I0
I3
I271
I-1
t(dtRp218
sg37
S'Sri Lanka'
p219
sa(dp220
g36
I1
sS'b'
F24
sS'e'
F7.75
sg39
I271
sg192
I3
sg186
F0
sS'r'
F31
sg40
S'Pallekele'
p221
sS'w'
F2
sg42
g43
((I2012
I9
I23
I0
I0
I0
I6
I267
I-1
t(dtRp222
sg37
S'Pakistan'
p223
sa(dp224
g36
I2
sS'b'
F24
sS'e'
F4
sg39
I267
sg192
I2
sg186
F1
sS'r'
F16
sg40
S'Pallekele'
p225
sS'w'
F3
sg42
g43
((I2012
I9
I21
I0
I0
I0
I4
I265
I-1
t(dtRp226
sg37
S'Bangladesh'
p227
sa(dp228
g36
I1
sS'b'
F24
sS'e'
F10.75
sg39
I248
sg192
I3
sg186
F0
sS'r'
F43
sg40
S'Lauderhill'
p229
sS'w'
F1
sg42
g43
((I2012
I7
I1
I0
I0
I0
I6
I183
I-1
t(dtRp230
sg37
S'West Indies'
p231
sa(dp232
g36
I1
sS'b'
F24
sS'e'
F8.75
sg39
I247
sg192
I3
sg186
F0
sS'r'
F35
sg40
S'Lauderhill'
p233
sS'w'
F0
sg42
g43
((I2012
I6
I30
I0
I0
I0
I5
I182
I-1
t(dtRp234
sg37
S'West Indies'
p235
sa(dp236
g36
I1
sS'b'
F24
sS'e'
F5.5
sg39
I223
sg192
I4
sg186
F0
sS'r'
F22
sg40
S'Auckland'
p237
sS'w'
F2
sg42
g43
((I2012
I2
I22
I0
I0
I0
I2
I53
I-1
t(dtRp238
sg37
S'South Africa'
p239
sa(dp240
g36
I2
sS'b'
F24
sS'e'
F10
sg39
I222
sg192
I3
sg186
F0
sS'r'
F40
sg40
S'Hamilton'
p241
sS'w'
F0
sg42
g43
((I2012
I2
I19
I0
I0
I0
I6
I50
I-1
t(dtRp242
sg37
S'South Africa'
p243
sa(dp244
g36
I1
sS'b'
F24
sS'e'
F7
sg39
I221
sg192
I3
sg186
F0
sS'r'
F28
sg40
S'Wellington'
p245
sS'w'
F3
sg42
g43
((I2012
I2
I17
I0
I0
I0
I4
I48
I-1
t(dtRp246
sg37
S'South Africa'
p247
sa(dp248
g36
I1
sS'b'
F24
sS'e'
F8.75
sg39
I220
sg192
I3
sg186
F0
sS'r'
F35
sg40
S'Hamilton'
p249
sS'w'
F0
sg42
g43
((I2012
I2
I14
I0
I0
I0
I1
I45
I-1
t(dtRp250
sg37
S'Zimbabwe'
p251
sa(dp252
g36
I1
sS'b'
F24
sS'e'
F13.25
sg39
I195
sg192
I3
sg186
F0
sS'r'
F53
sg40
S'Christchurch'
p253
sS'w'
F1
sg42
g43
((I2010
I12
I30
I0
I0
I0
I3
I364
I-1
t(dtRp254
sg37
S'Pakistan'
p255
sa(dp256
g36
I2
sS'b'
F24
sS'e'
F6.5
sg39
I194
sg192
I3
sg186
F0
sS'r'
F26
sg40
S'Hamilton'
p257
sS'w'
F2
sg42
g43
((I2010
I12
I28
I0
I0
I0
I1
I362
I-1
t(dtRp258
sg37
S'Pakistan'
p259
sa(dp260
g36
I1
sS'b'
F24
sS'e'
F4.5
sg39
I193
sg192
I4
sg186
F1
sS'r'
F18
sg40
S'Auckland'
p261
sS'w'
F5
sg42
g43
((I2010
I12
I26
I0
I0
I0
I6
I360
I-1
t(dtRp262
sg37
S'Pakistan'
p263
sa(dp264
g36
I2
sS'b'
F6
sS'e'
F15
sg39
I181
sg192
I6
sg186
F0
sS'r'
F15
sg40
S'Lauderhill'
p265
sS'w'
F0
sg42
g43
((I2010
I5
I23
I0
I0
I0
I6
I143
I-1
t(dtRp266
sg37
S'Sri Lanka'
p267
sa(dp268
g36
I2
sS'b'
F18
sS'e'
F3.3333333333333335
sg39
I180
sg192
I3
sg186
F0
sS'r'
F10
sg40
S'Lauderhill'
p269
sS'w'
F0
sg42
g43
((I2010
I5
I22
I0
I0
I0
I5
I142
I-1
t(dtRp270
sg37
S'Sri Lanka'
p271
sa(dp272
g36
I1
sS'b'
F18
sS'e'
F13
sg39
I164
sg192
I3
sg186
F0
sS'r'
F39
sg40
S'Bridgetown'
p273
sS'w'
F1
sg42
g43
((I2010
I5
I6
I0
I0
I0
I3
I126
I-1
t(dtRp274
sg37
S'South Africa'
p275
sa(dp276
g36
I1
sS'b'
F12
sS'e'
F9
sg39
I159
sg192
I3
sg186
F0
sS'r'
F18
sg40
S'Providence'
p277
sS'w'
F1
sg42
g43
((I2010
I5
I4
I0
I0
I0
I1
I124
I-1
t(dtRp278
sg37
S'Zimbabwe'
p279
sa(dp280
g36
I1
sS'b'
F24
sS'e'
F5.25
sg39
I151
sg192
I3
sg186
F0
sS'r'
F21
sg40
S'Providence'
p281
sS'w'
F1
sg42
g43
((I2010
I4
I30
I0
I0
I0
I4
I120
I-1
t(dtRp282
sg37
S'Sri Lanka'
p283
sa(dp284
g36
I2
sS'b'
F24
sS'e'
F11
sg39
I149
sg192
I2
sg186
F0
sS'r'
F44
sg40
S'Christchurch'
p285
sS'w'
F0
sg42
g43
((I2010
I2
I28
I0
I0
I0
I6
I59
I-1
t(dtRp286
sg37
S'Australia'
p287
sa(dp288
g36
I1
sS'b'
F12
sS'e'
F7.5
sg39
I131
sg192
I2
sg186
F0
sS'r'
F15
sg40
S'Hamilton'
p289
sS'w'
F0
sg42
g43
((I2010
I2
I3
I0
I0
I0
I2
I34
I-1
t(dtRp290
sg37
S'Bangladesh'
p291
sa(dp292
g36
I1
sS'b'
F24
sS'e'
F7.75
sg39
I123
sg192
I2
sg186
F0
sS'r'
F31
sg40
S'Dubai (DSC)'
p293
sS'w'
F0
sg42
g43
((I2009
I11
I13
I0
I0
I0
I4
I317
I-1
t(dtRp294
sg37
S'Pakistan'
p295
sa(dp296
g36
I1
sS'b'
F24
sS'e'
F7
sg39
I122
sg192
I2
sg186
F0
sS'r'
F28
sg40
S'Dubai (DSC)'
p297
sS'w'
F3
sg42
g43
((I2009
I11
I12
I0
I0
I0
I3
I316
I-1
t(dtRp298
sg37
S'Pakistan'
p299
sa(dp300
g36
I1
sS'b'
F24
sS'e'
F9
sg39
I85
sg192
I1
sg186
F0
sS'r'
F36
sg40
S'Wellington'
p301
sS'w'
F1
sg42
g43
((I2009
I2
I27
I0
I0
I0
I4
I58
I-1
t(dtRp302
sg37
S'India'
p303
sa(dp304
g36
I1
sS'b'
F24
sS'e'
F10.5
sg39
I84
sg192
I1
sg186
F0
sS'r'
F42
sg40
S'Christchurch'
p305
sS'w'
F1
sg42
g43
((I2009
I2
I25
I0
I0
I0
I2
I56
I-1
t(dtRp306
sg37
S'India'
p307
sa(dp308
g36
I1
sS'b'
F24
sS'e'
F7.75
sg39
I83
sg192
I2
sg186
F0
sS'r'
F31
sg40
S'Sydney'
p309
sS'w'
F1
sg42
g43
((I2009
I2
I15
I0
I0
I0
I6
I46
I-1
t(dtRp310
sg37
S'Australia'
p311
sa(dp312
g36
I2
sS'b'
F24
sS'e'
F11
sg39
I79
sg192
I3
sg186
F0
sS'r'
F44
sg40
S'Hamilton'
p313
sS'w'
F1
sg42
g43
((I2008
I12
I28
I0
I0
I0
I6
I363
I-1
t(dtRp314
sg37
S'West Indies'
p315
sa(dp316
g36
I2
sS'b'
F24
sS'e'
F9.75
sg39
I78
sg192
I2
sg186
F0
sS'r'
F39
sg40
S'Auckland'
p317
sS'w'
F1
sg42
g43
((I2008
I12
I26
I0
I0
I0
I4
I361
I-1
t(dtRp318
sg37
S'West Indies'
p319
sa(dp320
g36
I1
sS'b'
F24
sS'e'
F5.5
sg39
I54
sg192
I4
sg186
F0
sS'r'
F22
sg40
S'Christchurch'
p321
sS'w'
F2
sg42
g43
((I2008
I2
I7
I0
I0
I0
I3
I38
I-1
t(dtRp322
sg37
S'England'
p323
sa(dp324
g36
I1
sS'b'
F24
sS'e'
F9.5
sg39
I53
sg192
I5
sg186
F0
sS'r'
F38
sg40
S'Auckland'
p325
sS'w'
F1
sg42
g43
((I2008
I2
I5
I0
I0
I0
I1
I36
I-1
t(dtRp326
sg37
S'England'
p327
satp328
sS'battingStats'
p329
((dp330
S'a'
F9.125
sS'0s'
p331
F1
sS'b'
F65
sS'no'
p332
F5
sg30
F2008
sS'hs'
p333
F23
sS'm'
F35
sS'4s'
p334
F6
sg33
F2014
sS'i'
F13
sS'6s'
p335
F3
sg184
F112.30769230769231
sS'r'
F73
sS'100s'
p336
F0
sS'50s'
p337
F0
s(lp338
(dp339
g36
I2
sS'b'
F0
sg37
S'South Africa'
p340
sg332
I01
sg184
F0
sg39
I383
sS'dismiss'
p341
S'not out'
p342
sg334
F0
sg192
I9
sg335
F0
sg40
S'Chittagong'
p343
sg42
g43
((I2014
I3
I24
I0
I0
I0
I0
I83
I-1
t(dtRp344
sS'r'
F0
sS'minutes'
p345
F1
sa(dp346
g36
I1
sS'b'
F10
sg37
S'Sri Lanka'
p347
sg332
I01
sg184
F210
sg39
I290
sg341
S'not out'
p348
sg334
F4
sg192
I9
sg335
F0
sg40
S'Pallekele'
p349
sg42
g43
((I2012
I10
I30
I0
I0
I0
I1
I304
I-1
t(dtRp350
sS'r'
F21
sg345
F10
sa(dp351
g36
I2
sS'b'
F3
sg37
S'Pakistan'
p352
sg184
F33.333333333333336
sg39
I271
sg341
S'caught'
p353
sg334
F0
sg192
I9
sg335
F0
sg40
S'Pallekele'
p354
sg42
g43
((I2012
I9
I23
I0
I0
I0
I6
I267
I-1
t(dtRp355
sS'r'
F1
sg345
F6
sa(dp356
g36
I2
sS'b'
F5
sg37
S'West Indies'
p357
sg184
F60
sg39
I248
sg341
S'caught'
p358
sg334
F0
sg192
I3
sg335
F0
sg40
S'Lauderhill'
p359
sg42
g43
((I2012
I7
I1
I0
I0
I0
I6
I183
I-1
t(dtRp360
sS'r'
F3
sg345
F12
sa(dp361
g36
I2
sS'b'
F18
sg37
S'West Indies'
p362
sg184
F127.77777777777777
sg39
I247
sg341
S'stumped'
p363
sg334
F0
sg192
I5
sg335
F2
sg40
S'Lauderhill'
p364
sg42
g43
((I2012
I6
I30
I0
I0
I0
I5
I182
I-1
t(dtRp365
sS'r'
F23
sg345
F25
sa(dp366
g36
I2
sS'b'
F1
sg37
S'South Africa'
p367
sg332
I01
sg184
F0
sg39
I223
sg341
S'not out'
p368
sg334
F0
sg192
I9
sg335
F0
sg40
S'Auckland'
p369
sg42
g43
((I2012
I2
I22
I0
I0
I0
I2
I53
I-1
t(dtRp370
sS'r'
F0
sg345
F3
sa(dp371
g36
I2
sS'b'
F1
sg37
S'Pakistan'
p372
sg184
F0
sg39
I195
sg341
S'bowled'
p373
sg334
F0
sg192
I10
sg335
F0
sg40
S'Christchurch'
p374
sg42
g43
((I2010
I12
I30
I0
I0
I0
I3
I364
I-1
t(dtRp375
sS'r'
F0
sg345
F1
sa(dp376
g36
I1
sS'b'
F9
sg37
S'Sri Lanka'
p377
sg184
F44.444444444444443
sg39
I181
sg341
S'bowled'
p378
sg334
F0
sg192
I10
sg335
F0
sg40
S'Lauderhill'
p379
sg42
g43
((I2010
I5
I23
I0
I0
I0
I6
I143
I-1
t(dtRp380
sS'r'
F4
sg345
F7
sa(dp381
g36
I2
sS'b'
F0
sg37
S'Sri Lanka'
p382
sg332
I01
sg184
F0
sg39
I151
sg341
S'not out'
p383
sg334
F0
sg192
I10
sg335
F0
sg40
S'Providence'
p384
sg42
g43
((I2010
I4
I30
I0
I0
I0
I4
I120
I-1
t(dtRp385
sS'r'
F0
sg345
F1
sa(dp386
g36
I2
sS'b'
F3
sg37
S'Pakistan'
p387
sg184
F200
sg39
I122
sg341
S'caught'
p388
sg334
F0
sg192
I10
sg335
F1
sg40
S'Dubai (DSC)'
p389
sg42
g43
((I2009
I11
I12
I0
I0
I0
I3
I316
I-1
t(dtRp390
sS'r'
F6
sg345
F1
sa(dp391
g36
I1
sS'b'
F3
sg37
S'West Indies'
p392
sg184
F66.666666666666671
sg39
I79
sg341
S'run out'
p393
sg334
F0
sg192
I10
sg335
F0
sg40
S'Hamilton'
p394
sg42
g43
((I2008
I12
I28
I0
I0
I0
I6
I363
I-1
t(dtRp395
sS'r'
F2
sg345
F3
sa(dp396
g36
I2
sS'b'
F10
sg37
S'England'
p397
sg332
I01
sg184
F120
sg39
I54
sg341
S'not out'
p398
sg334
F2
sg192
I10
sg335
F0
sg40
S'Christchurch'
p399
sg42
g43
((I2008
I2
I7
I0
I0
I0
I3
I38
I-1
t(dtRp400
sS'r'
F12
sg345
F10
sa(dp401
g36
I2
sS'b'
F2
sg37
S'England'
p402
sg184
F50
sg39
I53
sg341
S'caught'
p403
sg334
F0
sg192
I9
sg335
F0
sg40
S'Auckland'
p404
sg42
g43
((I2008
I2
I5
I0
I0
I0
I1
I36
I-1
t(dtRp405
sS'r'
F1
sg345
F4
satp406
ssS'all'
p407
(dp408
g27
(dp409
S'c'
F34
sg29
F0
sS'i'
F89
sS'm'
F89
sS's'
F0
sg31
F34
sg32
F34
ssg182
(dp410
S'a'
F23.889908256880734
sS'b'
F1897
sS'e'
F8.2361623616236166
sS'i'
F87
sg184
F17.403669724770641
sg185
F2
sS'm'
F89
sg186
F0
sS'r'
F2604
sS'w'
F109
sg187
F0
sg188
F16
sg189
F6
ssg329
(dp411
S'a'
F10.666666666666666
sg331
F-1
sS'b'
F238
sg332
F11
sS'i'
F44
sg333
F74
sS'm'
F89
sg334
F33
sg335
F18
sg184
F147.89915966386553
sS'r'
F352
sg336
F0
sg337
F1
ssssb.