(iplayer
Player
p1
(dp2
S'is_batsman'
p3
I00
sS'name'
p4
S'Ben Hilfenhaus'
p5
sS'dob'
p6
S'1983/03/15'
p7
sS'price'
p8
S'900000'
p9
sS'is_allrounder'
p10
I00
sS'espnid'
p11
S'5941'
p12
sS'is_overseas'
p13
I01
sS'team'
p14
S'CSK'
p15
sS'nationality'
p16
S'Australian'
p17
sS'is_bowler'
p18
I01
sS'is_keeper'
p19
I00
sS'id'
p20
S'17'
p21
sS'is_uncapped'
p22
I00
sS'tournamentStats'
p23
(dp24
S'international'
p25
(dp26
S'fieldingStats'
p27
((dp28
S'c'
F0
sS'ctw'
p29
F0
sS'span_s'
p30
F2007
sS'm'
F7
sS's'
F0
sS'dismissals'
p31
F0
sS'i'
F7
sS'ctf'
p32
F0
sS'span_f'
p33
F2012
s(lp34
(dp35
S'inning'
p36
I2
sS'c'
F0
sg29
F0
sS'opp'
p37
S'Pakistan'
p38
sS't20i_num'
p39
I256
sg32
F0
sg31
F0
sS's'
F0
sS'place'
p40
S'Dubai (DSC)'
p41
sS'date'
p42
ctime
struct_time
p43
((I2012
I9
I5
I0
I0
I0
I2
I249
I-1
t(dtRp44
sa(dp45
g36
I2
sS'c'
F0
sg29
F0
sg37
S'Pakistan'
p46
sg39
I89
sg32
F0
sg31
F0
sS's'
F0
sg40
S'Dubai (DSC)'
p47
sg42
g43
((I2009
I5
I7
I0
I0
I0
I3
I127
I-1
t(dtRp48
sa(dp49
g36
I2
sS'c'
F0
sg29
F0
sg37
S'New Zealand'
p50
sg39
I83
sg32
F0
sg31
F0
sS's'
F0
sg40
S'Sydney'
p51
sg42
g43
((I2009
I2
I15
I0
I0
I0
I6
I46
I-1
t(dtRp52
sa(dp53
g36
I1
sS'c'
F0
sg29
F0
sg37
S'South Africa'
p54
sg39
I81
sg32
F0
sg31
F0
sS's'
F0
sg40
S'Brisbane'
p55
sg42
g43
((I2009
I1
I13
I0
I0
I0
I1
I13
I-1
t(dtRp56
sa(dp57
g36
I2
sS'c'
F0
sg29
F0
sg37
S'South Africa'
p58
sg39
I80
sg32
F0
sg31
F0
sS's'
F0
sg40
S'Melbourne'
p59
sg42
g43
((I2009
I1
I11
I0
I0
I0
I6
I11
I-1
t(dtRp60
sa(dp61
g36
I2
sS'c'
F0
sg29
F0
sg37
S'India'
p62
sg39
I47
sg32
F0
sg31
F0
sS's'
F0
sg40
S'Mumbai (BS)'
p63
sg42
g43
((I2007
I10
I20
I0
I0
I0
I5
I293
I-1
t(dtRp64
sa(dp65
g36
I2
sS'c'
F0
sg29
F0
sg37
S'England'
p66
sg39
I13
sg32
F0
sg31
F0
sS's'
F0
sg40
S'Sydney'
p67
sg42
g43
((I2007
I1
I9
I0
I0
I0
I1
I9
I-1
t(dtRp68
satp69
sS'bowlingStats'
p70
((dp71
S'a'
F17.888888888888889
sS'b'
F156
sS'e'
F6.1923076923076925
sS'i'
F7
sS'sr'
p72
F17.333333333333332
sS'5w'
p73
F0
sS'm'
F7
sS'maid'
p74
F0
sS'r'
F161
sS'w'
F9
sS'4w'
p75
F0
sS'bbir'
p76
F15
sS'bbiw'
p77
F2
sg33
F2012
sg30
F2007
s(lp78
(dp79
g36
I2
sS'b'
F18
sS'e'
F6
sg39
I256
sS'pos'
p80
I2
sg74
F0
sS'r'
F18
sg40
S'Dubai (DSC)'
p81
sS'w'
F1
sg42
g43
((I2012
I9
I5
I0
I0
I0
I2
I249
I-1
t(dtRp82
sg37
S'Pakistan'
p83
sa(dp84
g36
I2
sS'b'
F24
sS'e'
F5
sg39
I89
sg80
I3
sg74
F0
sS'r'
F20
sg40
S'Dubai (DSC)'
p85
sS'w'
F1
sg42
g43
((I2009
I5
I7
I0
I0
I0
I3
I127
I-1
t(dtRp86
sg37
S'Pakistan'
p87
sa(dp88
g36
I2
sS'b'
F24
sS'e'
F8
sg39
I83
sg80
I3
sg74
F0
sS'r'
F32
sg40
S'Sydney'
p89
sS'w'
F1
sg42
g43
((I2009
I2
I15
I0
I0
I0
I6
I46
I-1
t(dtRp90
sg37
S'New Zealand'
p91
sa(dp92
g36
I1
sS'b'
F24
sS'e'
F8
sg39
I81
sg80
I3
sg74
F0
sS'r'
F32
sg40
S'Brisbane'
p93
sS'w'
F1
sg42
g43
((I2009
I1
I13
I0
I0
I0
I1
I13
I-1
t(dtRp94
sg37
S'South Africa'
p95
sa(dp96
g36
I2
sS'b'
F18
sS'e'
F5
sg39
I80
sg80
I3
sg74
F0
sS'r'
F15
sg40
S'Melbourne'
p97
sS'w'
F2
sg42
g43
((I2009
I1
I11
I0
I0
I0
I6
I11
I-1
t(dtRp98
sg37
S'South Africa'
p99
sa(dp100
g36
I2
sS'b'
F24
sS'e'
F7
sg39
I47
sg80
I3
sg74
F0
sS'r'
F28
sg40
S'Mumbai (BS)'
p101
sS'w'
F1
sg42
g43
((I2007
I10
I20
I0
I0
I0
I5
I293
I-1
t(dtRp102
sg37
S'India'
p103
sa(dp104
g36
I2
sS'b'
F24
sS'e'
F4
sg39
I13
sg80
I3
sg74
F0
sS'r'
F16
sg40
S'Sydney'
p105
sS'w'
F2
sg42
g43
((I2007
I1
I9
I0
I0
I0
I1
I9
I-1
t(dtRp106
sg37
S'England'
p107
satp108
sS'battingStats'
p109
((dp110
S'a'
F1
sS'0s'
p111
F1
sS'b'
F10
sS'no'
p112
F1
sg30
F2007
sS'hs'
p113
F2
sS'm'
F7
sS'4s'
p114
F0
sg33
F2012
sS'i'
F3
sS'6s'
p115
F0
sg72
F20
sS'r'
F2
sS'100s'
p116
F0
sS'50s'
p117
F0
s(lp118
(dp119
g36
I1
sS'b'
F1
sg37
S'Pakistan'
p120
sg72
F0
sg39
I256
sS'dismiss'
p121
S'caught'
p122
sg114
F0
sg80
I11
sg115
F0
sg40
S'Dubai (DSC)'
p123
sg42
g43
((I2012
I9
I5
I0
I0
I0
I2
I249
I-1
t(dtRp124
sS'r'
F0
sS'minutes'
p125
F2
sa(dp126
g36
I1
sS'b'
F8
sg37
S'Pakistan'
p127
sg72
F25
sg39
I89
sg121
S'caught'
p128
sg114
F0
sg80
I11
sg115
F0
sg40
S'Dubai (DSC)'
p129
sg42
g43
((I2009
I5
I7
I0
I0
I0
I3
I127
I-1
t(dtRp130
sS'r'
F2
sg125
F-1
sa(dp131
g36
I1
sS'b'
F1
sg37
S'South Africa'
p132
sg112
I01
sg72
F0
sg39
I80
sg121
S'not out'
p133
sg114
F0
sg80
I10
sg115
F0
sg40
S'Melbourne'
p134
sg42
g43
((I2009
I1
I11
I0
I0
I0
I6
I11
I-1
t(dtRp135
sS'r'
F0
sg125
F3
satp136
ssS'all'
p137
(dp138
g27
(dp139
S'c'
F6
sg29
F0
sS'i'
F45
sS'm'
F45
sS's'
F0
sg31
F6
sg32
F6
ssg70
(dp140
S'a'
F21.924528301886792
sS'b'
F991
sS'e'
F7.0353178607467202
sS'i'
F45
sg72
F18.69811320754717
sg73
F0
sS'm'
F45
sg74
F0
sS'r'
F1162
sS'w'
F53
sg75
F0
sg76
F17
sg77
F3
ssg109
(dp141
S'a'
F7.875
sg111
F-1
sS'b'
F76
sg112
F11
sS'i'
F19
sg113
F13
sS'm'
F45
sg114
F2
sg115
F2
sg72
F82.89473684210526
sS'r'
F63
sg116
F0
sg117
F0
ssssb.