(iplayer
Player
p1
(dp2
S'is_batsman'
p3
I01
sS'name'
p4
S'Corey Anderson'
p5
sS'dob'
p6
S'1990/12/13'
p7
sS'price'
p8
S'850000'
p9
sS'is_allrounder'
p10
I01
sS'espnid'
p11
S'277662'
p12
sS'is_overseas'
p13
I01
sS'team'
p14
S'MI'
p15
sS'nationality'
p16
S'New Zealander'
p17
sS'is_bowler'
p18
I00
sS'is_keeper'
p19
I00
sS'id'
p20
S'968'
p21
sS'is_uncapped'
p22
I00
sS'tournamentStats'
p23
(dp24
S'international'
p25
(dp26
S'fieldingStats'
p27
((dp28
S'c'
F10
sS'ctw'
p29
F0
sS'i'
F12
sS'm'
F12
sS's'
F0
sS'dismissals'
p30
F10
sS'ctf'
p31
F10
s(lp32
(dp33
S'inning'
p34
I1
sS'c'
F1
sg29
F0
sS'opp'
p35
S'Sri Lanka'
p36
sS't20i_num'
p37
I395
sg31
F1
sg30
F1
sS's'
F0
sS'place'
p38
S'Chittagong'
p39
sS'date'
p40
ctime
struct_time
p41
((I2014
I3
I31
I0
I0
I0
I0
I90
I-1
t(dtRp42
sa(dp43
g34
I1
sS'c'
F0
sg29
F0
sg35
S'Netherlands'
p44
sg37
I390
sg31
F0
sg30
F0
sS's'
F0
sg38
S'Chittagong'
p45
sg40
g41
((I2014
I3
I29
I0
I0
I0
I5
I88
I-1
t(dtRp46
sa(dp47
g34
I1
sS'c'
F2
sg29
F0
sg35
S'South Africa'
p48
sg37
I383
sg31
F2
sg30
F2
sS's'
F0
sg38
S'Chittagong'
p49
sg40
g41
((I2014
I3
I24
I0
I0
I0
I0
I83
I-1
t(dtRp50
sa(dp51
g34
I1
sS'c'
F2
sg29
F0
sg35
S'England'
p52
sg37
I380
sg31
F2
sg30
F2
sS's'
F0
sg38
S'Chittagong'
p53
sg40
g41
((I2014
I3
I22
I0
I0
I0
I5
I81
I-1
t(dtRp54
sa(dp55
g34
I1
sS'c'
F0
sg29
F0
sg35
S'West Indies'
p56
sg37
I353
sg31
F0
sg30
F0
sS's'
F0
sg38
S'Wellington'
p57
sg40
g41
((I2014
I1
I15
I0
I0
I0
I2
I15
I-1
t(dtRp58
sa(dp59
g34
I2
sS'c'
F0
sg29
F0
sg35
S'West Indies'
p60
sg37
I352
sg31
F0
sg30
F0
sS's'
F0
sg38
S'Auckland'
p61
sg40
g41
((I2014
I1
I11
I0
I0
I0
I5
I11
I-1
t(dtRp62
sa(dp63
g34
I2
sS'c'
F0
sg29
F0
sg35
S'Bangladesh'
p64
sg37
I333
sg31
F0
sg30
F0
sS's'
F0
sg38
S'Dhaka'
p65
sg40
g41
((I2013
I11
I6
I0
I0
I0
I2
I310
I-1
t(dtRp66
sa(dp67
g34
I1
sS'c'
F0
sg29
F0
sg35
S'England'
p68
sg37
I318
sg31
F0
sg30
F0
sS's'
F0
sg38
S'The Oval'
p69
sg40
g41
((I2013
I6
I27
I0
I0
I0
I3
I178
I-1
t(dtRp70
sa(dp71
g34
I2
sS'c'
F0
sg29
F0
sg35
S'England'
p72
sg37
I317
sg31
F0
sg30
F0
sS's'
F0
sg38
S'The Oval'
p73
sg40
g41
((I2013
I6
I25
I0
I0
I0
I1
I176
I-1
t(dtRp74
sa(dp75
g34
I1
sS'c'
F4
sg29
F0
sg35
S'South Africa'
p76
sg37
I297
sg31
F4
sg30
F4
sS's'
F0
sg38
S'Port Elizabeth'
p77
sg40
g41
((I2012
I12
I26
I0
I0
I0
I2
I361
I-1
t(dtRp78
sa(dp79
g34
I1
sS'c'
F1
sg29
F0
sg35
S'South Africa'
p80
sg37
I295
sg31
F1
sg30
F1
sS's'
F0
sg38
S'East London'
p81
sg40
g41
((I2012
I12
I23
I0
I0
I0
I6
I358
I-1
t(dtRp82
sa(dp83
g34
I2
sS'c'
F0
sg29
F0
sg35
S'South Africa'
p84
sg37
I293
sg31
F0
sg30
F0
sS's'
F0
sg38
S'Durban'
p85
sg40
g41
((I2012
I12
I21
I0
I0
I0
I4
I356
I-1
t(dtRp86
satp87
sS'bowlingStats'
p88
((dp89
S'a'
F41.666666666666664
sS'b'
F186
sS'e'
F8.064516129032258
sS'i'
F10
sS'sr'
p90
F31
sS'5w'
p91
F0
sS'm'
F12
sS'maid'
p92
F0
sS'r'
F250
sS'w'
F6
sS'4w'
p93
F0
sS'bbir'
p94
F21
sS'bbiw'
p95
F2
s(lp96
(dp97
g34
I1
sS'b'
F18
sS'e'
F4.333333333333333
sg37
I395
sS'pos'
p98
I3
sg92
F0
sS'r'
F13
sg38
S'Chittagong'
p99
sS'w'
F0
sg40
g41
((I2014
I3
I31
I0
I0
I0
I0
I90
I-1
t(dtRp100
sg35
S'Sri Lanka'
p101
sa(dp102
g34
I1
sS'b'
F12
sS'e'
F9.5
sg37
I390
sg98
I3
sg92
F0
sS'r'
F19
sg38
S'Chittagong'
p103
sS'w'
F0
sg40
g41
((I2014
I3
I29
I0
I0
I0
I5
I88
I-1
t(dtRp104
sg35
S'Netherlands'
p105
sa(dp106
g34
I1
sS'b'
F18
sS'e'
F9.3333333333333339
sg37
I383
sg98
I5
sg92
F0
sS'r'
F28
sg38
S'Chittagong'
p107
sS'w'
F2
sg40
g41
((I2014
I3
I24
I0
I0
I0
I0
I83
I-1
t(dtRp108
sg35
S'South Africa'
p109
sa(dp110
g34
I1
sS'b'
F24
sS'e'
F8
sg37
I380
sg98
I4
sg92
F0
sS'r'
F32
sg38
S'Chittagong'
p111
sS'w'
F2
sg40
g41
((I2014
I3
I22
I0
I0
I0
I5
I81
I-1
t(dtRp112
sg35
S'England'
p113
sa(dp114
g34
I1
sS'b'
F24
sS'e'
F12.5
sg37
I353
sg98
I4
sg92
F0
sS'r'
F50
sg38
S'Wellington'
p115
sS'w'
F0
sg40
g41
((I2014
I1
I15
I0
I0
I0
I2
I15
I-1
t(dtRp116
sg35
S'West Indies'
p117
sa(dp118
g34
I2
sS'b'
F24
sS'e'
F3.75
sg37
I352
sg98
I5
sg92
F0
sS'r'
F15
sg38
S'Auckland'
p119
sS'w'
F0
sg40
g41
((I2014
I1
I11
I0
I0
I0
I5
I11
I-1
t(dtRp120
sg35
S'West Indies'
p121
sa(dp122
g34
I2
sS'b'
F24
sS'e'
F5.25
sg37
I333
sg98
I6
sg92
F0
sS'r'
F21
sg38
S'Dhaka'
p123
sS'w'
F2
sg40
g41
((I2013
I11
I6
I0
I0
I0
I2
I310
I-1
t(dtRp124
sg35
S'Bangladesh'
p125
sa(dp126
g34
I2
sS'b'
F24
sS'e'
F10
sg37
I317
sg98
I5
sg92
F0
sS'r'
F40
sg38
S'The Oval'
p127
sS'w'
F0
sg40
g41
((I2013
I6
I25
I0
I0
I0
I1
I176
I-1
t(dtRp128
sg35
S'England'
p129
sa(dp130
g34
I1
sS'b'
F12
sS'e'
F10.5
sg37
I295
sg98
I4
sg92
F0
sS'r'
F21
sg38
S'East London'
p131
sS'w'
F0
sg40
g41
((I2012
I12
I23
I0
I0
I0
I6
I358
I-1
t(dtRp132
sg35
S'South Africa'
p133
sa(dp134
g34
I2
sS'b'
F6
sS'e'
F11
sg37
I293
sg98
I4
sg92
F0
sS'r'
F11
sg38
S'Durban'
p135
sS'w'
F0
sg40
g41
((I2012
I12
I21
I0
I0
I0
I4
I356
I-1
t(dtRp136
sg35
S'South Africa'
p137
satp138
sS'battingStats'
p139
((dp140
S'a'
F11.333333333333334
sS'0s'
p141
F1
sS'b'
F49
sS'no'
p142
F1
sS'i'
F7
sS'hs'
p143
F20
sS'm'
F12
sS'4s'
p144
F6
sS'6s'
p145
F3
sg90
F138.77551020408163
sS'r'
F68
sS'100s'
p146
F0
sS'50s'
p147
F0
s(lp148
(dp149
g34
I2
sS'b'
F14
sg35
S'Netherlands'
p150
sg142
I01
sg90
F142.85714285714286
sg37
I390
sS'dismiss'
p151
S'not out'
p152
sg144
F1
sg98
I5
sg145
F1
sg38
S'Chittagong'
p153
sg40
g41
((I2014
I3
I29
I0
I0
I0
I5
I88
I-1
t(dtRp154
sS'r'
F20
sS'minutes'
p155
F30
sa(dp156
g34
I2
sS'b'
F4
sg35
S'South Africa'
p157
sg90
F175
sg37
I383
sg151
S'caught'
p158
sg144
F1
sg98
I6
sg145
F0
sg38
S'Chittagong'
p159
sg40
g41
((I2014
I3
I24
I0
I0
I0
I0
I83
I-1
t(dtRp160
sS'r'
F7
sg155
F4
sa(dp161
g34
I2
sS'b'
F9
sg35
S'West Indies'
p162
sg90
F66.666666666666671
sg37
I353
sg151
S'caught'
p163
sg144
F1
sg98
I6
sg145
F0
sg38
S'Wellington'
p164
sg40
g41
((I2014
I1
I15
I0
I0
I0
I2
I15
I-1
t(dtRp165
sS'r'
F6
sg155
F9
sa(dp166
g34
I1
sS'b'
F2
sg35
S'West Indies'
p167
sg90
F0
sg37
I352
sg151
S'caught'
p168
sg144
F0
sg98
I6
sg145
F0
sg38
S'Auckland'
p169
sg40
g41
((I2014
I1
I11
I0
I0
I0
I5
I11
I-1
t(dtRp170
sS'r'
F0
sg155
F2
sa(dp171
g34
I1
sS'b'
F6
sg35
S'Bangladesh'
p172
sg90
F300
sg37
I333
sg151
S'bowled'
p173
sg144
F1
sg98
I5
sg145
F2
sg38
S'Dhaka'
p174
sg40
g41
((I2013
I11
I6
I0
I0
I0
I2
I310
I-1
t(dtRp175
sS'r'
F18
sg155
F8
sa(dp176
g34
I2
sS'b'
F9
sg35
S'South Africa'
p177
sg90
F133.33333333333334
sg37
I297
sg151
S'run out'
p178
sg144
F1
sg98
I8
sg145
F0
sg38
S'Port Elizabeth'
p179
sg40
g41
((I2012
I12
I26
I0
I0
I0
I2
I361
I-1
t(dtRp180
sS'r'
F12
sg155
F16
sa(dp181
g34
I1
sS'b'
F5
sg35
S'South Africa'
p182
sg90
F100
sg37
I293
sg151
S'caught'
p183
sg144
F1
sg98
I6
sg145
F0
sg38
S'Durban'
p184
sg40
g41
((I2012
I12
I21
I0
I0
I0
I4
I356
I-1
t(dtRp185
sS'r'
F5
sg155
F6
satp186
ssS'all'
p187
(dp188
g27
(dp189
S'c'
F24
sg29
F0
sS'i'
F37
sS'm'
F37
sS's'
F0
sg30
F24
sg31
F24
ssg88
(dp190
S'a'
F31.181818181818183
sS'b'
F258
sS'e'
F7.9767441860465116
sS'i'
F15
sg90
F23.454545454545453
sg91
F0
sS'm'
F37
sg92
F0
sS'r'
F343
sS'w'
F11
sg93
F0
sg94
F21
sg95
F2
ssg139
(dp191
S'a'
F14.454545454545455
sg141
F-1
sS'b'
F248
sg142
F3
sS'i'
F25
sg143
F44
sS'm'
F37
sg144
F19
sg145
F16
sg90
F128.2258064516129
sS'r'
F318
sg146
F0
sg147
F0
ssssb.