(iplayer
Player
p1
(dp2
S'is_batsman'
p3
I01
sS'name'
p4
S'AB de Villiers'
p5
sS'dob'
p6
S'1984/02/17'
p7
sS'price'
p8
S'1000000'
p9
sS'is_allrounder'
p10
I00
sS'espnid'
p11
S'44936'
p12
sS'is_overseas'
p13
I01
sS'team'
p14
S'RCB'
p15
sS'nationality'
p16
S'South African'
p17
sS'is_bowler'
p18
I00
sS'is_keeper'
p19
I01
sS'id'
p20
S'233'
p21
sS'is_uncapped'
p22
I00
sS'tournamentStats'
p23
(dp24
S'international'
p25
(dp26
S'fieldingStats'
p27
((dp28
S'c'
F52
sS'ctw'
p29
F20
sS'span_s'
p30
F2006
sS'm'
F57
sS's'
F6
sS'dismissals'
p31
F58
sS'i'
F57
sS'ctf'
p32
F32
sS'span_f'
p33
F2014
s(lp34
(dp35
S'inning'
p36
I2
sS'c'
F2
sg29
F0
sS'opp'
p37
S'India'
p38
sS't20i_num'
p39
I399
sg32
F2
sg31
F2
sS's'
F0
sS'place'
p40
S'Dhaka'
p41
sS'date'
p42
ctime
struct_time
p43
((I2014
I4
I4
I0
I0
I0
I4
I94
I-1
t(dtRp44
sa(dp45
g36
I2
sS'c'
F1
sg29
F0
sg37
S'England'
p46
sg39
I391
sg32
F1
sg31
F1
sS's'
F0
sg40
S'Chittagong'
p47
sg42
g43
((I2014
I3
I29
I0
I0
I0
I5
I88
I-1
t(dtRp48
sa(dp49
g36
I2
sS'c'
F0
sg29
F0
sg37
S'Netherlands'
p50
sg39
I386
sg32
F0
sg31
F0
sS's'
F0
sg40
S'Chittagong'
p51
sg42
g43
((I2014
I3
I27
I0
I0
I0
I3
I86
I-1
t(dtRp52
sa(dp53
g36
I2
sS'c'
F1
sg29
F0
sg37
S'New Zealand'
p54
sg39
I383
sg32
F1
sg31
F1
sS's'
F0
sg40
S'Chittagong'
p55
sg42
g43
((I2014
I3
I24
I0
I0
I0
I0
I83
I-1
t(dtRp56
sa(dp57
g36
I1
sS'c'
F1
sg29
F0
sg37
S'Sri Lanka'
p58
sg39
I379
sg32
F1
sg31
F1
sS's'
F0
sg40
S'Chittagong'
p59
sg42
g43
((I2014
I3
I22
I0
I0
I0
I5
I81
I-1
t(dtRp60
sa(dp61
g36
I2
sS'c'
F0
sg29
F0
sg37
S'Australia'
p62
sg39
I365
sg32
F0
sg31
F0
sS's'
F0
sg40
S'Centurion'
p63
sg42
g43
((I2014
I3
I14
I0
I0
I0
I4
I73
I-1
t(dtRp64
sa(dp65
g36
I1
sS'c'
F1
sg29
F0
sg37
S'Pakistan'
p66
sg39
I343
sg32
F1
sg31
F1
sS's'
F0
sg40
S'Cape Town'
p67
sg42
g43
((I2013
I11
I22
I0
I0
I0
I4
I326
I-1
t(dtRp68
sa(dp69
g36
I2
sS'c'
F0
sg29
F0
sg37
S'Pakistan'
p70
sg39
I336
sg32
F0
sg31
F0
sS's'
F0
sg40
S'Dubai (DSC)'
p71
sg42
g43
((I2013
I11
I15
I0
I0
I0
I4
I319
I-1
t(dtRp72
sa(dp73
g36
I1
sS'c'
F0
sg29
F0
sg37
S'Pakistan'
p74
sg39
I334
sg32
F0
sg31
F0
sS's'
F0
sg40
S'Dubai (DSC)'
p75
sg42
g43
((I2013
I11
I13
I0
I0
I0
I2
I317
I-1
t(dtRp76
sa(dp77
g36
I2
sS'c'
F1
sg29
F0
sg37
S'Sri Lanka'
p78
sg39
I325
sg32
F1
sg31
F1
sS's'
F0
sg40
S'Hambantota'
p79
sg42
g43
((I2013
I8
I6
I0
I0
I0
I1
I218
I-1
t(dtRp80
sa(dp81
g36
I2
sS'c'
F1
sg29
F0
sg37
S'Sri Lanka'
p82
sg39
I324
sg32
F1
sg31
F1
sS's'
F0
sg40
S'Hambantota'
p83
sg42
g43
((I2013
I8
I4
I0
I0
I0
I6
I216
I-1
t(dtRp84
sa(dp85
g36
I2
sS'c'
F2
sg29
F0
sg37
S'Sri Lanka'
p86
sg39
I323
sg32
F2
sg31
F2
sS's'
F0
sg40
S'Colombo (RPS)'
p87
sg42
g43
((I2013
I8
I2
I0
I0
I0
I4
I214
I-1
t(dtRp88
sa(dp89
g36
I1
sS'c'
F0
sg29
F0
sg37
S'Pakistan'
p90
sg39
I306
sg32
F0
sg31
F0
sS's'
F0
sg40
S'Centurion'
p91
sg42
g43
((I2013
I3
I3
I0
I0
I0
I6
I62
I-1
t(dtRp92
sa(dp93
g36
I1
sS'c'
F1
sg29
F1
sg37
S'India'
p94
sg39
I286
sg32
F0
sg31
F1
sS's'
F0
sg40
S'Colombo (RPS)'
p95
sg42
g43
((I2012
I10
I2
I0
I0
I0
I1
I276
I-1
t(dtRp96
sa(dp97
g36
I2
sS'c'
F0
sg29
F0
sg37
S'Australia'
p98
sg39
I281
sg32
F0
sg31
F0
sS's'
F0
sg40
S'Colombo (RPS)'
p99
sg42
g43
((I2012
I9
I30
I0
I0
I0
I6
I274
I-1
t(dtRp100
sa(dp101
g36
I2
sS'c'
F1
sg29
F1
sg37
S'Pakistan'
p102
sg39
I277
sg32
F0
sg31
F3
sS's'
F2
sg40
S'Colombo (RPS)'
p103
sg42
g43
((I2012
I9
I28
I0
I0
I0
I4
I272
I-1
t(dtRp104
sa(dp105
g36
I2
sS'c'
F1
sg29
F1
sg37
S'Sri Lanka'
p106
sg39
I269
sg32
F0
sg31
F1
sS's'
F0
sg40
S'Hambantota'
p107
sg42
g43
((I2012
I9
I22
I0
I0
I0
I5
I266
I-1
t(dtRp108
sa(dp109
g36
I1
sS'c'
F4
sg29
F4
sg37
S'Zimbabwe'
p110
sg39
I266
sg32
F0
sg31
F4
sS's'
F0
sg40
S'Hambantota'
p111
sg42
g43
((I2012
I9
I20
I0
I0
I0
I3
I264
I-1
t(dtRp112
sa(dp113
g36
I1
sS'c'
F0
sg29
F0
sg37
S'England'
p114
sg39
I262
sg32
F0
sg31
F0
sS's'
F0
sg40
S'Birmingham'
p115
sg42
g43
((I2012
I9
I12
I0
I0
I0
I2
I256
I-1
t(dtRp116
sa(dp117
g36
I2
sS'c'
F0
sg29
F0
sg37
S'England'
p118
sg39
I260
sg32
F0
sg31
F0
sS's'
F0
sg40
S'Manchester'
p119
sg42
g43
((I2012
I9
I10
I0
I0
I0
I0
I254
I-1
t(dtRp120
sa(dp121
g36
I1
sS'c'
F0
sg29
F0
sg37
S'England'
p122
sg39
I258
sg32
F0
sg31
F0
sS's'
F0
sg40
S'Chester-le-Street'
p123
sg42
g43
((I2012
I9
I8
I0
I0
I0
I5
I252
I-1
t(dtRp124
sa(dp125
g36
I2
sS'c'
F2
sg29
F2
sg37
S'New Zealand'
p126
sg39
I223
sg32
F0
sg31
F2
sS's'
F0
sg40
S'Auckland'
p127
sg42
g43
((I2012
I2
I22
I0
I0
I0
I2
I53
I-1
t(dtRp128
sa(dp129
g36
I1
sS'c'
F1
sg29
F1
sg37
S'New Zealand'
p130
sg39
I222
sg32
F0
sg31
F1
sS's'
F0
sg40
S'Hamilton'
p131
sg42
g43
((I2012
I2
I19
I0
I0
I0
I6
I50
I-1
t(dtRp132
sa(dp133
g36
I2
sS'c'
F0
sg29
F0
sg37
S'New Zealand'
p134
sg39
I221
sg32
F0
sg31
F0
sS's'
F0
sg40
S'Wellington'
p135
sg42
g43
((I2012
I2
I17
I0
I0
I0
I4
I48
I-1
t(dtRp136
sa(dp137
g36
I1
sS'c'
F0
sg29
F0
sg37
S'India'
p138
sg39
I196
sg32
F0
sg31
F0
sS's'
F0
sg40
S'Durban'
p139
sg42
g43
((I2011
I1
I9
I0
I0
I0
I6
I9
I-1
t(dtRp140
sa(dp141
g36
I1
sS'c'
F0
sg29
F0
sg37
S'Pakistan'
p142
sg39
I191
sg32
F0
sg31
F0
sS's'
F0
sg40
S'Abu Dhabi'
p143
sg42
g43
((I2010
I10
I27
I0
I0
I0
I2
I300
I-1
t(dtRp144
sa(dp145
g36
I1
sS'c'
F0
sg29
F0
sg37
S'Pakistan'
p146
sg39
I190
sg32
F0
sg31
F0
sS's'
F0
sg40
S'Abu Dhabi'
p147
sg42
g43
((I2010
I10
I26
I0
I0
I0
I1
I299
I-1
t(dtRp148
sa(dp149
g36
I2
sS'c'
F2
sg29
F2
sg37
S'West Indies'
p150
sg39
I179
sg32
F0
sg31
F2
sS's'
F0
sg40
S'North Sound'
p151
sg42
g43
((I2010
I5
I20
I0
I0
I0
I3
I140
I-1
t(dtRp152
sa(dp153
g36
I2
sS'c'
F2
sg29
F2
sg37
S'West Indies'
p154
sg39
I178
sg32
F0
sg31
F4
sS's'
F2
sg40
S'North Sound'
p155
sg42
g43
((I2010
I5
I19
I0
I0
I0
I2
I139
I-1
t(dtRp156
sa(dp157
g36
I1
sS'c'
F1
sg29
F0
sg37
S'Pakistan'
p158
sg39
I171
sg32
F1
sg31
F1
sS's'
F0
sg40
S'Gros Islet'
p159
sg42
g43
((I2010
I5
I10
I0
I0
I0
I0
I130
I-1
t(dtRp160
sa(dp161
g36
I1
sS'c'
F1
sg29
F0
sg37
S'England'
p162
sg39
I168
sg32
F1
sg31
F1
sS's'
F0
sg40
S'Bridgetown'
p163
sg42
g43
((I2010
I5
I8
I0
I0
I0
I5
I128
I-1
t(dtRp164
sa(dp165
g36
I2
sS'c'
F1
sg29
F0
sg37
S'New Zealand'
p166
sg39
I164
sg32
F1
sg31
F1
sS's'
F0
sg40
S'Bridgetown'
p167
sg42
g43
((I2010
I5
I6
I0
I0
I0
I3
I126
I-1
t(dtRp168
sa(dp169
g36
I2
sS'c'
F1
sg29
F0
sg37
S'Afghanistan'
p170
sg39
I162
sg32
F1
sg31
F1
sS's'
F0
sg40
S'Bridgetown'
p171
sg42
g43
((I2010
I5
I5
I0
I0
I0
I2
I125
I-1
t(dtRp172
sa(dp173
g36
I1
sS'c'
F1
sg29
F0
sg37
S'India'
p174
sg39
I155
sg32
F1
sg31
F1
sS's'
F0
sg40
S'Gros Islet'
p175
sg42
g43
((I2010
I5
I2
I0
I0
I0
I6
I122
I-1
t(dtRp176
sa(dp177
g36
I2
sS'c'
F0
sg29
F0
sg37
S'England'
p178
sg39
I125
sg32
F0
sg31
F0
sS's'
F0
sg40
S'Centurion'
p179
sg42
g43
((I2009
I11
I15
I0
I0
I0
I6
I319
I-1
t(dtRp180
sa(dp181
g36
I1
sS'c'
F1
sg29
F0
sg37
S'England'
p182
sg39
I124
sg32
F1
sg31
F1
sS's'
F0
sg40
S'Johannesburg'
p183
sg42
g43
((I2009
I11
I13
I0
I0
I0
I4
I317
I-1
t(dtRp184
sa(dp185
g36
I1
sS'c'
F1
sg29
F0
sg37
S'Pakistan'
p186
sg39
I114
sg32
F1
sg31
F1
sS's'
F0
sg40
S'Nottingham'
p187
sg42
g43
((I2009
I6
I18
I0
I0
I0
I3
I169
I-1
t(dtRp188
sa(dp189
g36
I2
sS'c'
F3
sg29
F0
sg37
S'India'
p190
sg39
I113
sg32
F3
sg31
F3
sS's'
F0
sg40
S'Nottingham'
p191
sg42
g43
((I2009
I6
I16
I0
I0
I0
I1
I167
I-1
t(dtRp192
sa(dp193
g36
I2
sS'c'
F1
sg29
F0
sg37
S'West Indies'
p194
sg39
I106
sg32
F1
sg31
F1
sS's'
F0
sg40
S'The Oval'
p195
sg42
g43
((I2009
I6
I13
I0
I0
I0
I5
I164
I-1
t(dtRp196
sa(dp197
g36
I1
sS'c'
F0
sg29
F0
sg37
S'England'
p198
sg39
I103
sg32
F0
sg31
F0
sS's'
F0
sg40
S'Nottingham'
p199
sg42
g43
((I2009
I6
I11
I0
I0
I0
I3
I162
I-1
t(dtRp200
sa(dp201
g36
I2
sS'c'
F0
sg29
F0
sg37
S'New Zealand'
p202
sg39
I99
sg32
F0
sg31
F0
sS's'
F0
sg40
S"Lord's"
p203
sg42
g43
((I2009
I6
I9
I0
I0
I0
I1
I160
I-1
t(dtRp204
sa(dp205
g36
I2
sS'c'
F0
sg29
F0
sg37
S'Scotland'
p206
sg39
I94
sg32
F0
sg31
F0
sS's'
F0
sg40
S'The Oval'
p207
sg42
g43
((I2009
I6
I7
I0
I0
I0
I6
I158
I-1
t(dtRp208
sa(dp209
g36
I2
sS'c'
F1
sg29
F0
sg37
S'Australia'
p210
sg39
I88
sg32
F1
sg31
F1
sS's'
F0
sg40
S'Centurion'
p211
sg42
g43
((I2009
I3
I29
I0
I0
I0
I6
I88
I-1
t(dtRp212
sa(dp213
g36
I1
sS'c'
F0
sg29
F0
sg37
S'Australia'
p214
sg39
I87
sg32
F0
sg31
F0
sS's'
F0
sg40
S'Johannesburg'
p215
sg42
g43
((I2009
I3
I27
I0
I0
I0
I4
I86
I-1
t(dtRp216
sa(dp217
g36
I1
sS'c'
F2
sg29
F0
sg37
S'Australia'
p218
sg39
I80
sg32
F2
sg31
F2
sS's'
F0
sg40
S'Melbourne'
p219
sg42
g43
((I2009
I1
I11
I0
I0
I0
I6
I11
I-1
t(dtRp220
sa(dp221
g36
I2
sS'c'
F2
sg29
F2
sg37
S'Bangladesh'
p222
sg39
I77
sg32
F0
sg31
F3
sS's'
F1
sg40
S'Johannesburg'
p223
sg42
g43
((I2008
I11
I5
I0
I0
I0
I2
I310
I-1
t(dtRp224
sa(dp225
g36
I1
sS'c'
F1
sg29
F0
sg37
S'West Indies'
p226
sg39
I51
sg32
F1
sg31
F1
sS's'
F0
sg40
S'Johannesburg'
p227
sg42
g43
((I2008
I1
I18
I0
I0
I0
I4
I18
I-1
t(dtRp228
sa(dp229
g36
I2
sS'c'
F0
sg29
F0
sg37
S'West Indies'
p230
sg39
I50
sg32
F0
sg31
F0
sS's'
F0
sg40
S'Port Elizabeth'
p231
sg42
g43
((I2007
I12
I16
I0
I0
I0
I6
I350
I-1
t(dtRp232
sa(dp233
g36
I1
sS'c'
F1
sg29
F0
sg37
S'New Zealand'
p234
sg39
I48
sg32
F1
sg31
F1
sS's'
F0
sg40
S'Johannesburg'
p235
sg42
g43
((I2007
I11
I23
I0
I0
I0
I4
I327
I-1
t(dtRp236
sa(dp237
g36
I1
sS'c'
F0
sg29
F0
sg37
S'India'
p238
sg39
I43
sg32
F0
sg31
F0
sS's'
F0
sg40
S'Durban'
p239
sg42
g43
((I2007
I9
I20
I0
I0
I0
I3
I263
I-1
t(dtRp240
sa(dp241
g36
I1
sS'c'
F1
sg29
F0
sg37
S'New Zealand'
p242
sg39
I39
sg32
F1
sg31
F1
sS's'
F0
sg40
S'Durban'
p243
sg42
g43
((I2007
I9
I19
I0
I0
I0
I2
I262
I-1
t(dtRp244
sa(dp245
g36
I2
sS'c'
F2
sg29
F0
sg37
S'England'
p246
sg39
I34
sg32
F2
sg31
F2
sS's'
F0
sg40
S'Cape Town'
p247
sg42
g43
((I2007
I9
I16
I0
I0
I0
I6
I259
I-1
t(dtRp248
sa(dp249
g36
I1
sS'c'
F1
sg29
F0
sg37
S'Bangladesh'
p250
sg39
I31
sg32
F1
sg31
F1
sS's'
F0
sg40
S'Cape Town'
p251
sg42
g43
((I2007
I9
I15
I0
I0
I0
I5
I258
I-1
t(dtRp252
sa(dp253
g36
I1
sS'c'
F2
sg29
F0
sg37
S'West Indies'
p254
sg39
I20
sg32
F2
sg31
F2
sS's'
F0
sg40
S'Johannesburg'
p255
sg42
g43
((I2007
I9
I11
I0
I0
I0
I1
I254
I-1
t(dtRp256
sa(dp257
g36
I1
sS'c'
F3
sg29
F3
sg37
S'Pakistan'
p258
sg39
I14
sg32
F0
sg31
F3
sS's'
F0
sg40
S'Johannesburg'
p259
sg42
g43
((I2007
I2
I2
I0
I0
I0
I4
I33
I-1
t(dtRp260
sa(dp261
g36
I2
sS'c'
F0
sg29
F0
sg37
S'India'
p262
sg39
I10
sg32
F0
sg31
F0
sS's'
F0
sg40
S'Johannesburg'
p263
sg42
g43
((I2006
I12
I1
I0
I0
I0
I4
I335
I-1
t(dtRp264
sa(dp265
g36
I2
sS'c'
F1
sg29
F1
sg37
S'Australia'
p266
sg39
I6
sg32
F0
sg31
F2
sS's'
F1
sg40
S'Johannesburg'
p267
sg42
g43
((I2006
I2
I24
I0
I0
I0
I4
I55
I-1
t(dtRp268
satp269
sS'bowlingStats'
p270
((dp271
S'a'
F-1
sS'b'
F0
sS'e'
F-1
sS'i'
F0
sS'sr'
p272
F-1
sS'5w'
p273
F0
sS'm'
F57
sS'maid'
p274
F0
sS'r'
F0
sS'w'
F0
sS'4w'
p275
F0
sS'bbir'
p276
F-1
sS'bbiw'
p277
F-1
sg33
F2014
sg30
F2006
s(ltp278
sS'battingStats'
p279
((dp280
S'a'
F22.377777777777776
sS'0s'
p281
F4
sS'b'
F804
sS'no'
p282
F9
sg30
F2006
sS'hs'
p283
F79
sS'm'
F57
sS'4s'
p284
F82
sg33
F2014
sS'i'
F54
sS'6s'
p285
F30
sg272
F125.24875621890547
sS'r'
F1007
sS'100s'
p286
F0
sS'50s'
p287
F5
s(lp288
(dp289
g36
I1
sS'b'
F8
sg37
S'India'
p290
sg272
F125
sg39
I399
sS'dismiss'
p291
S'caught'
p292
sg284
F1
sS'pos'
p293
I5
sg285
F0
sg40
S'Dhaka'
p294
sg42
g43
((I2014
I4
I4
I0
I0
I0
I4
I94
I-1
t(dtRp295
sS'r'
F10
sS'minutes'
p296
F7
sa(dp297
g36
I1
sS'b'
F28
sg37
S'England'
p298
sg282
I01
sg272
F246.42857142857142
sg39
I391
sg291
S'not out'
p299
sg284
F9
sg293
I3
sg285
F3
sg40
S'Chittagong'
p300
sg42
g43
((I2014
I3
I29
I0
I0
I0
I5
I88
I-1
t(dtRp301
sS'r'
F69
sg296
F53
sa(dp302
g36
I1
sS'b'
F21
sg37
S'Netherlands'
p303
sg272
F100
sg39
I386
sg291
S'caught'
p304
sg284
F1
sg293
I4
sg285
F0
sg40
S'Chittagong'
p305
sg42
g43
((I2014
I3
I27
I0
I0
I0
I3
I86
I-1
t(dtRp306
sS'r'
F21
sg296
F27
sa(dp307
g36
I1
sS'b'
F6
sg37
S'New Zealand'
p308
sg272
F83.333333333333329
sg39
I383
sg291
S'bowled'
p309
sg284
F1
sg293
I4
sg285
F0
sg40
S'Chittagong'
p310
sg42
g43
((I2014
I3
I24
I0
I0
I0
I0
I83
I-1
t(dtRp311
sS'r'
F5
sg296
F7
sa(dp312
g36
I2
sS'b'
F16
sg37
S'Sri Lanka'
p313
sg272
F150
sg39
I379
sg291
S'caught'
p314
sg284
F3
sg293
I4
sg285
F0
sg40
S'Chittagong'
p315
sg42
g43
((I2014
I3
I22
I0
I0
I0
I5
I81
I-1
t(dtRp316
sS'r'
F24
sg296
F14
sa(dp317
g36
I1
sS'b'
F10
sg37
S'Australia'
p318
sg272
F110
sg39
I365
sg291
S'caught'
p319
sg284
F0
sg293
I5
sg285
F1
sg40
S'Centurion'
p320
sg42
g43
((I2014
I3
I14
I0
I0
I0
I4
I73
I-1
t(dtRp321
sS'r'
F11
sg296
F13
sa(dp322
g36
I2
sS'b'
F8
sg37
S'Pakistan'
p323
sg272
F162.5
sg39
I343
sg291
S'bowled'
p324
sg284
F2
sg293
I4
sg285
F0
sg40
S'Cape Town'
p325
sg42
g43
((I2013
I11
I22
I0
I0
I0
I4
I326
I-1
t(dtRp326
sS'r'
F13
sg296
F7
sa(dp327
g36
I1
sS'b'
F6
sg37
S'Pakistan'
p328
sg272
F83.333333333333329
sg39
I336
sg291
S'caught'
p329
sg284
F1
sg293
I4
sg285
F0
sg40
S'Dubai (DSC)'
p330
sg42
g43
((I2013
I11
I15
I0
I0
I0
I4
I319
I-1
t(dtRp331
sS'r'
F5
sg296
F10
sa(dp332
g36
I1
sS'b'
F1
sg37
S'Sri Lanka'
p333
sg282
I01
sg272
F100
sg39
I325
sg291
S'not out'
p334
sg284
F0
sg293
I5
sg285
F0
sg40
S'Hambantota'
p335
sg42
g43
((I2013
I8
I6
I0
I0
I0
I1
I218
I-1
t(dtRp336
sS'r'
F1
sg296
F3
sa(dp337
g36
I1
sS'b'
F14
sg37
S'Sri Lanka'
p338
sg272
F107.14285714285714
sg39
I324
sg291
S'run out'
p339
sg284
F1
sg293
I5
sg285
F0
sg40
S'Hambantota'
p340
sg42
g43
((I2013
I8
I4
I0
I0
I0
I6
I216
I-1
t(dtRp341
sS'r'
F15
sg296
F19
sa(dp342
g36
I1
sS'b'
F16
sg37
S'Sri Lanka'
p343
sg272
F93.75
sg39
I323
sg291
S'caught'
p344
sg284
F2
sg293
I5
sg285
F0
sg40
S'Colombo (RPS)'
p345
sg42
g43
((I2013
I8
I2
I0
I0
I0
I4
I214
I-1
t(dtRp346
sS'r'
F15
sg296
F19
sa(dp347
g36
I2
sS'b'
F22
sg37
S'Pakistan'
p348
sg272
F163.63636363636363
sg39
I306
sg291
S'bowled'
p349
sg284
F4
sg293
I1
sg285
F2
sg40
S'Centurion'
p350
sg42
g43
((I2013
I3
I3
I0
I0
I0
I6
I62
I-1
t(dtRp351
sS'r'
F36
sg296
F30
sa(dp352
g36
I2
sS'b'
F13
sg37
S'India'
p353
sg272
F100
sg39
I286
sg291
S'bowled'
p354
sg284
F2
sg293
I3
sg285
F0
sg40
S'Colombo (RPS)'
p355
sg42
g43
((I2012
I10
I2
I0
I0
I0
I1
I276
I-1
t(dtRp356
sS'r'
F13
sg296
F27
sa(dp357
g36
I1
sS'b'
F24
sg37
S'Australia'
p358
sg272
F87.5
sg39
I281
sg291
S'caught'
p359
sg284
F0
sg293
I5
sg285
F0
sg40
S'Colombo (RPS)'
p360
sg42
g43
((I2012
I9
I30
I0
I0
I0
I6
I274
I-1
t(dtRp361
sS'r'
F21
sg296
F36
sa(dp362
g36
I1
sS'b'
F18
sg37
S'Pakistan'
p363
sg272
F138.88888888888889
sg39
I277
sg291
S'caught'
p364
sg284
F2
sg293
I6
sg285
F1
sg40
S'Colombo (RPS)'
p365
sg42
g43
((I2012
I9
I28
I0
I0
I0
I4
I272
I-1
t(dtRp366
sS'r'
F25
sg296
F20
sa(dp367
g36
I1
sS'b'
F13
sg37
S'Sri Lanka'
p368
sg272
F230.76923076923077
sg39
I269
sg291
S'caught'
p369
sg284
F1
sg293
I4
sg285
F2
sg40
S'Hambantota'
p370
sg42
g43
((I2012
I9
I22
I0
I0
I0
I5
I266
I-1
t(dtRp371
sS'r'
F30
sg296
F15
sa(dp372
g36
I2
sS'b'
F3
sg37
S'England'
p373
sg272
F66.666666666666671
sg39
I262
sg291
S'caught'
p374
sg284
F0
sg293
I4
sg285
F0
sg40
S'Birmingham'
p375
sg42
g43
((I2012
I9
I12
I0
I0
I0
I2
I256
I-1
t(dtRp376
sS'r'
F2
sg296
F3
sa(dp377
g36
I1
sS'b'
F4
sg37
S'England'
p378
sg272
F25
sg39
I260
sg291
S'caught'
p379
sg284
F0
sg293
I3
sg285
F0
sg40
S'Manchester'
p380
sg42
g43
((I2012
I9
I10
I0
I0
I0
I0
I254
I-1
t(dtRp381
sS'r'
F1
sg296
F9
sa(dp382
g36
I2
sS'b'
F6
sg37
S'England'
p383
sg272
F166.66666666666666
sg39
I258
sg291
S'caught'
p384
sg284
F2
sg293
I4
sg285
F0
sg40
S'Chester-le-Street'
p385
sg42
g43
((I2012
I9
I8
I0
I0
I0
I5
I252
I-1
t(dtRp386
sS'r'
F10
sg296
F5
sa(dp387
g36
I1
sS'b'
F23
sg37
S'New Zealand'
p388
sg272
F126.08695652173913
sg39
I223
sg291
S'bowled'
p389
sg284
F2
sg293
I4
sg285
F1
sg40
S'Auckland'
p390
sg42
g43
((I2012
I2
I22
I0
I0
I0
I2
I53
I-1
t(dtRp391
sS'r'
F29
sg296
F40
sa(dp392
g36
I2
sS'b'
F36
sg37
S'New Zealand'
p393
sg282
I01
sg272
F108.33333333333333
sg39
I222
sg291
S'not out'
p394
sg284
F4
sg293
I4
sg285
F0
sg40
S'Hamilton'
p395
sg42
g43
((I2012
I2
I19
I0
I0
I0
I6
I50
I-1
t(dtRp396
sS'r'
F39
sg296
F47
sa(dp397
g36
I1
sS'b'
F17
sg37
S'New Zealand'
p398
sg272
F47.058823529411768
sg39
I221
sg291
S'caught'
p399
sg284
F0
sg293
I4
sg285
F0
sg40
S'Wellington'
p400
sg42
g43
((I2012
I2
I17
I0
I0
I0
I4
I48
I-1
t(dtRp401
sS'r'
F8
sg296
F19
sa(dp402
g36
I2
sS'b'
F10
sg37
S'India'
p403
sg272
F140
sg39
I196
sg291
S'run out'
p404
sg284
F2
sg293
I4
sg285
F0
sg40
S'Durban'
p405
sg42
g43
((I2011
I1
I9
I0
I0
I0
I6
I9
I-1
t(dtRp406
sS'r'
F14
sg296
F20
sa(dp407
g36
I2
sS'b'
F15
sg37
S'Pakistan'
p408
sg272
F73.333333333333329
sg39
I191
sg291
S'caught'
p409
sg284
F0
sg293
I3
sg285
F0
sg40
S'Abu Dhabi'
p410
sg42
g43
((I2010
I10
I27
I0
I0
I0
I2
I300
I-1
t(dtRp411
sS'r'
F11
sg296
F20
sa(dp412
g36
I2
sS'b'
F3
sg37
S'Pakistan'
p413
sg272
F0
sg39
I190
sg291
S'bowled'
p414
sg284
F0
sg293
I3
sg285
F0
sg40
S'Abu Dhabi'
p415
sg42
g43
((I2010
I10
I26
I0
I0
I0
I1
I299
I-1
t(dtRp416
sS'r'
F0
sg296
F2
sa(dp417
g36
I1
sS'b'
F17
sg37
S'West Indies'
p418
sg272
F111.76470588235294
sg39
I179
sg291
S'caught'
p419
sg284
F1
sg293
I3
sg285
F1
sg40
S'North Sound'
p420
sg42
g43
((I2010
I5
I20
I0
I0
I0
I3
I140
I-1
t(dtRp421
sS'r'
F19
sg296
F27
sa(dp422
g36
I1
sS'b'
F14
sg37
S'West Indies'
p423
sg272
F78.571428571428569
sg39
I178
sg291
S'caught'
p424
sg284
F0
sg293
I4
sg285
F0
sg40
S'North Sound'
p425
sg42
g43
((I2010
I5
I19
I0
I0
I0
I2
I139
I-1
t(dtRp426
sS'r'
F11
sg296
F24
sa(dp427
g36
I2
sS'b'
F41
sg37
S'Pakistan'
p428
sg272
F129.26829268292684
sg39
I171
sg291
S'caught'
p429
sg284
F1
sg293
I4
sg285
F2
sg40
S'Gros Islet'
p430
sg42
g43
((I2010
I5
I10
I0
I0
I0
I0
I130
I-1
t(dtRp431
sS'r'
F53
sg296
F38
sa(dp432
g36
I2
sS'b'
F9
sg37
S'England'
p433
sg272
F55.555555555555557
sg39
I168
sg291
S'caught'
p434
sg284
F0
sg293
I4
sg285
F0
sg40
S'Bridgetown'
p435
sg42
g43
((I2010
I5
I8
I0
I0
I0
I5
I128
I-1
t(dtRp436
sS'r'
F5
sg296
F15
sa(dp437
g36
I1
sS'b'
F39
sg37
S'New Zealand'
p438
sg282
I01
sg272
F120.51282051282051
sg39
I164
sg291
S'not out'
p439
sg284
F1
sg293
I4
sg285
F2
sg40
S'Bridgetown'
p440
sg42
g43
((I2010
I5
I6
I0
I0
I0
I3
I126
I-1
t(dtRp441
sS'r'
F47
sg296
F43
sa(dp442
g36
I1
sS'b'
F21
sg37
S'Afghanistan'
p443
sg272
F80.952380952380949
sg39
I162
sg291
S'stumped'
p444
sg284
F1
sg293
I4
sg285
F1
sg40
S'Bridgetown'
p445
sg42
g43
((I2010
I5
I5
I0
I0
I0
I2
I125
I-1
t(dtRp446
sS'r'
F17
sg296
F17
sa(dp447
g36
I2
sS'b'
F15
sg37
S'India'
p448
sg272
F206.66666666666666
sg39
I155
sg291
S'caught'
p449
sg284
F1
sg293
I4
sg285
F3
sg40
S'Gros Islet'
p450
sg42
g43
((I2010
I5
I2
I0
I0
I0
I6
I122
I-1
t(dtRp451
sS'r'
F31
sg296
F22
sa(dp452
g36
I1
sS'b'
F13
sg37
S'England'
p453
sg272
F184.61538461538461
sg39
I125
sg291
S'run out'
p454
sg284
F3
sg293
I5
sg285
F1
sg40
S'Centurion'
p455
sg42
g43
((I2009
I11
I15
I0
I0
I0
I6
I319
I-1
t(dtRp456
sS'r'
F24
sg296
F17
sa(dp457
g36
I2
sS'b'
F10
sg37
S'England'
p458
sg282
I01
sg272
F100
sg39
I124
sg291
S'not out'
p459
sg284
F1
sg293
I4
sg285
F0
sg40
S'Johannesburg'
p460
sg42
g43
((I2009
I11
I13
I0
I0
I0
I4
I317
I-1
t(dtRp461
sS'r'
F10
sg296
F20
sa(dp462
g36
I2
sS'b'
F5
sg37
S'Pakistan'
p463
sg272
F20
sg39
I114
sg291
S'bowled'
p464
sg284
F0
sg293
I4
sg285
F0
sg40
S'Nottingham'
p465
sg42
g43
((I2009
I6
I18
I0
I0
I0
I3
I169
I-1
t(dtRp466
sS'r'
F1
sg296
F4
sa(dp467
g36
I1
sS'b'
F51
sg37
S'India'
p468
sg272
F123.52941176470588
sg39
I113
sg291
S'caught'
p469
sg284
F7
sg293
I3
sg285
F0
sg40
S'Nottingham'
p470
sg42
g43
((I2009
I6
I16
I0
I0
I0
I1
I167
I-1
t(dtRp471
sS'r'
F63
sg296
F56
sa(dp472
g36
I1
sS'b'
F10
sg37
S'West Indies'
p473
sg272
F170
sg39
I106
sg291
S'caught'
p474
sg284
F2
sg293
I4
sg285
F0
sg40
S'The Oval'
p475
sg42
g43
((I2009
I6
I13
I0
I0
I0
I5
I164
I-1
t(dtRp476
sS'r'
F17
sg296
F15
sa(dp477
g36
I2
sS'b'
F12
sg37
S'England'
p478
sg272
F91.666666666666671
sg39
I103
sg291
S'caught'
p479
sg284
F0
sg293
I4
sg285
F0
sg40
S'Nottingham'
p480
sg42
g43
((I2009
I6
I11
I0
I0
I0
I3
I162
I-1
t(dtRp481
sS'r'
F11
sg296
F8
sa(dp482
g36
I1
sS'b'
F8
sg37
S'New Zealand'
p483
sg272
F187.5
sg39
I99
sg291
S'run out'
p484
sg284
F2
sg293
I6
sg285
F0
sg40
S"Lord's"
p485
sg42
g43
((I2009
I6
I9
I0
I0
I0
I1
I160
I-1
t(dtRp486
sS'r'
F15
sg296
F9
sa(dp487
g36
I1
sS'b'
F34
sg37
S'Scotland'
p488
sg282
I01
sg272
F232.35294117647058
sg39
I94
sg291
S'not out'
p489
sg284
F5
sg293
I4
sg285
F6
sg40
S'The Oval'
p490
sg42
g43
((I2009
I6
I7
I0
I0
I0
I6
I158
I-1
t(dtRp491
sS'r'
F79
sg296
F35
sa(dp492
g36
I1
sS'b'
F5
sg37
S'Australia'
p493
sg272
F0
sg39
I88
sg291
S'caught'
p494
sg284
F0
sg293
I3
sg285
F0
sg40
S'Centurion'
p495
sg42
g43
((I2009
I3
I29
I0
I0
I0
I6
I88
I-1
t(dtRp496
sS'r'
F0
sg296
F5
sa(dp497
g36
I2
sS'b'
F7
sg37
S'Australia'
p498
sg272
F100
sg39
I87
sg291
S'bowled'
p499
sg284
F1
sg293
I3
sg285
F0
sg40
S'Johannesburg'
p500
sg42
g43
((I2009
I3
I27
I0
I0
I0
I4
I86
I-1
t(dtRp501
sS'r'
F7
sg296
F11
sa(dp502
g36
I2
sS'b'
F4
sg37
S'Australia'
p503
sg272
F0
sg39
I80
sg291
S'hit wicket'
p504
sg284
F0
sg293
I3
sg285
F0
sg40
S'Melbourne'
p505
sg42
g43
((I2009
I1
I11
I0
I0
I0
I6
I11
I-1
t(dtRp506
sS'r'
F0
sg296
F4
sa(dp507
g36
I1
sS'b'
F26
sg37
S'Bangladesh'
p508
sg272
F138.46153846153845
sg39
I77
sg291
S'bowled'
p509
sg284
F2
sg293
I4
sg285
F1
sg40
S'Johannesburg'
p510
sg42
g43
((I2008
I11
I5
I0
I0
I0
I2
I310
I-1
t(dtRp511
sS'r'
F36
sg296
F32
sa(dp512
g36
I2
sS'b'
F22
sg37
S'West Indies'
p513
sg272
F113.63636363636364
sg39
I51
sg291
S'caught'
p514
sg284
F4
sg293
I3
sg285
F0
sg40
S'Johannesburg'
p515
sg42
g43
((I2008
I1
I18
I0
I0
I0
I4
I18
I-1
t(dtRp516
sS'r'
F25
sg296
F37
sa(dp517
g36
I1
sS'b'
F4
sg37
S'West Indies'
p518
sg272
F0
sg39
I50
sg291
S'bowled'
p519
sg284
F0
sg293
I4
sg285
F0
sg40
S'Port Elizabeth'
p520
sg42
g43
((I2007
I12
I16
I0
I0
I0
I6
I350
I-1
t(dtRp521
sS'r'
F0
sg296
F3
sa(dp522
g36
I2
sS'b'
F45
sg37
S'New Zealand'
p523
sg282
I01
sg272
F115.55555555555556
sg39
I48
sg291
S'not out'
p524
sg284
F4
sg293
I4
sg285
F1
sg40
S'Johannesburg'
p525
sg42
g43
((I2007
I11
I23
I0
I0
I0
I4
I327
I-1
t(dtRp526
sS'r'
F52
sg296
F70
sa(dp527
g36
I2
sS'b'
F4
sg37
S'India'
p528
sg272
F25
sg39
I43
sg291
S'lbw'
p529
sg284
F0
sg293
I3
sg285
F0
sg40
S'Durban'
p530
sg42
g43
((I2007
I9
I20
I0
I0
I0
I3
I263
I-1
t(dtRp531
sS'r'
F1
sg296
F7
sa(dp532
g36
I2
sS'b'
F5
sg37
S'New Zealand'
p533
sg272
F20
sg39
I39
sg291
S'caught'
p534
sg284
F0
sg293
I3
sg285
F0
sg40
S'Durban'
p535
sg42
g43
((I2007
I9
I19
I0
I0
I0
I2
I262
I-1
t(dtRp536
sS'r'
F1
sg296
F4
sa(dp537
g36
I1
sS'b'
F14
sg37
S'England'
p538
sg272
F128.57142857142858
sg39
I34
sg291
S'caught'
p539
sg284
F4
sg293
I3
sg285
F0
sg40
S'Cape Town'
p540
sg42
g43
((I2007
I9
I16
I0
I0
I0
I6
I259
I-1
t(dtRp541
sS'r'
F18
sg296
F18
sa(dp542
g36
I2
sS'b'
F15
sg37
S'Bangladesh'
p543
sg282
I01
sg272
F93.333333333333329
sg39
I31
sg291
S'not out'
p544
sg284
F1
sg293
I4
sg285
F0
sg40
S'Cape Town'
p545
sg42
g43
((I2007
I9
I15
I0
I0
I0
I5
I258
I-1
t(dtRp546
sS'r'
F14
sg296
F-1
sa(dp547
g36
I2
sS'b'
F9
sg37
S'West Indies'
p548
sg272
F177.77777777777777
sg39
I20
sg291
S'caught'
p549
sg284
F1
sg293
I3
sg285
F1
sg40
S'Johannesburg'
p550
sg42
g43
((I2007
I9
I11
I0
I0
I0
I1
I254
I-1
t(dtRp551
sS'r'
F16
sg296
F18
sa(dp552
g36
I1
sS'b'
F4
sg37
S'India'
p553
sg272
F150
sg39
I10
sg291
S'caught'
p554
sg284
F0
sg293
I5
sg285
F1
sg40
S'Johannesburg'
p555
sg42
g43
((I2006
I12
I1
I0
I0
I0
I4
I335
I-1
t(dtRp556
sS'r'
F6
sg296
F4
sa(dp557
g36
I1
sS'b'
F0
sg37
S'Australia'
p558
sg282
I01
sg272
F0
sg39
I6
sg291
S'not out'
p559
sg284
F0
sg293
I6
sg285
F0
sg40
S'Johannesburg'
p560
sg42
g43
((I2006
I2
I24
I0
I0
I0
I4
I55
I-1
t(dtRp561
sS'r'
F0
sg296
F3
satp562
ssS'all'
p563
(dp564
g27
(dp565
S'c'
F108
sg29
F0
sS'i'
F150
sS'm'
F150
sS's'
F15
sg31
F123
sg32
F108
ssg270
(dp566
S'a'
F-1
sS'b'
F0
sS'e'
F-1
sS'i'
F0
sg272
F-1
sg273
F0
sS'm'
F150
sg274
F0
sS'r'
F0
sS'w'
F0
sg275
F0
sg276
F-1
sg277
F-1
ssg279
(dp567
S'a'
F29.357798165137616
sg281
F-1
sS'b'
F2391
sg282
F29
sS'i'
F138
sg283
F105
sS'm'
F150
sg284
F256
sg285
F112
sg272
F133.83521539104976
sS'r'
F3200
sg286
F1
sg287
F18
ssssb.