(iplayer
Player
p1
(dp2
S'is_batsman'
p3
I00
sS'name'
p4
S'Wayne Parnell'
p5
sS'dob'
p6
S'1989/07/30'
p7
sS'price'
p8
S'900000'
p9
sS'is_allrounder'
p10
I00
sS'espnid'
p11
S'265564'
p12
sS'is_overseas'
p13
I01
sS'team'
p14
S'DD'
p15
sS'nationality'
p16
S'South African'
p17
sS'is_bowler'
p18
I01
sS'is_keeper'
p19
I00
sS'id'
p20
S'223'
p21
sS'is_uncapped'
p22
I00
sS'tournamentStats'
p23
(dp24
S'international'
p25
(dp26
S'fieldingStats'
p27
((dp28
S'c'
F3
sS'ctw'
p29
F0
sS'span_s'
p30
F2009
sS'm'
F28
sS's'
F0
sS'dismissals'
p31
F3
sS'i'
F28
sS'ctf'
p32
F3
sS'span_f'
p33
F2014
s(lp34
(dp35
S'inning'
p36
I2
sS'c'
F0
sg29
F0
sS'opp'
p37
S'India'
p38
sS't20i_num'
p39
I399
sg32
F0
sg31
F0
sS's'
F0
sS'place'
p40
S'Dhaka'
p41
sS'date'
p42
ctime
struct_time
p43
((I2014
I4
I4
I0
I0
I0
I4
I94
I-1
t(dtRp44
sa(dp45
g36
I2
sS'c'
F0
sg29
F0
sg37
S'England'
p46
sg39
I391
sg32
F0
sg31
F0
sS's'
F0
sg40
S'Chittagong'
p47
sg42
g43
((I2014
I3
I29
I0
I0
I0
I5
I88
I-1
t(dtRp48
sa(dp49
g36
I2
sS'c'
F0
sg29
F0
sg37
S'Australia'
p50
sg39
I365
sg32
F0
sg31
F0
sS's'
F0
sg40
S'Centurion'
p51
sg42
g43
((I2014
I3
I14
I0
I0
I0
I4
I73
I-1
t(dtRp52
sa(dp53
g36
I2
sS'c'
F0
sg29
F0
sg37
S'Australia'
p54
sg39
I363
sg32
F0
sg31
F0
sS's'
F0
sg40
S'Durban'
p55
sg42
g43
((I2014
I3
I12
I0
I0
I0
I2
I71
I-1
t(dtRp56
sa(dp57
g36
I1
sS'c'
F0
sg29
F0
sg37
S'Pakistan'
p58
sg39
I343
sg32
F0
sg31
F0
sS's'
F0
sg40
S'Cape Town'
p59
sg42
g43
((I2013
I11
I22
I0
I0
I0
I4
I326
I-1
t(dtRp60
sa(dp61
g36
I2
sS'c'
F0
sg29
F0
sg37
S'Pakistan'
p62
sg39
I340
sg32
F0
sg31
F0
sS's'
F0
sg40
S'Johannesburg'
p63
sg42
g43
((I2013
I11
I20
I0
I0
I0
I2
I324
I-1
t(dtRp64
sa(dp65
g36
I2
sS'c'
F0
sg29
F0
sg37
S'Pakistan'
p66
sg39
I336
sg32
F0
sg31
F0
sS's'
F0
sg40
S'Dubai (DSC)'
p67
sg42
g43
((I2013
I11
I15
I0
I0
I0
I4
I319
I-1
t(dtRp68
sa(dp69
g36
I1
sS'c'
F0
sg29
F0
sg37
S'Pakistan'
p70
sg39
I334
sg32
F0
sg31
F0
sS's'
F0
sg40
S'Dubai (DSC)'
p71
sg42
g43
((I2013
I11
I13
I0
I0
I0
I2
I317
I-1
t(dtRp72
sa(dp73
g36
I2
sS'c'
F1
sg29
F0
sg37
S'Sri Lanka'
p74
sg39
I325
sg32
F1
sg31
F1
sS's'
F0
sg40
S'Hambantota'
p75
sg42
g43
((I2013
I8
I6
I0
I0
I0
I1
I218
I-1
t(dtRp76
sa(dp77
g36
I2
sS'c'
F0
sg29
F0
sg37
S'Sri Lanka'
p78
sg39
I324
sg32
F0
sg31
F0
sS's'
F0
sg40
S'Hambantota'
p79
sg42
g43
((I2013
I8
I4
I0
I0
I0
I6
I216
I-1
t(dtRp80
sa(dp81
g36
I2
sS'c'
F0
sg29
F0
sg37
S'Sri Lanka'
p82
sg39
I323
sg32
F0
sg31
F0
sS's'
F0
sg40
S'Colombo (RPS)'
p83
sg42
g43
((I2013
I8
I2
I0
I0
I0
I4
I214
I-1
t(dtRp84
sa(dp85
g36
I2
sS'c'
F1
sg29
F0
sg37
S'Australia'
p86
sg39
I281
sg32
F1
sg31
F1
sS's'
F0
sg40
S'Colombo (RPS)'
p87
sg42
g43
((I2012
I9
I30
I0
I0
I0
I6
I274
I-1
t(dtRp88
sa(dp89
g36
I1
sS'c'
F0
sg29
F0
sg37
S'England'
p90
sg39
I262
sg32
F0
sg31
F0
sS's'
F0
sg40
S'Birmingham'
p91
sg42
g43
((I2012
I9
I12
I0
I0
I0
I2
I256
I-1
t(dtRp92
sa(dp93
g36
I2
sS'c'
F0
sg29
F0
sg37
S'India'
p94
sg39
I242
sg32
F0
sg31
F0
sS's'
F0
sg40
S'Johannesburg'
p95
sg42
g43
((I2012
I3
I30
I0
I0
I0
I4
I90
I-1
t(dtRp96
sa(dp97
g36
I2
sS'c'
F0
sg29
F0
sg37
S'New Zealand'
p98
sg39
I223
sg32
F0
sg31
F0
sS's'
F0
sg40
S'Auckland'
p99
sg42
g43
((I2012
I2
I22
I0
I0
I0
I2
I53
I-1
t(dtRp100
sa(dp101
g36
I1
sS'c'
F0
sg29
F0
sg37
S'New Zealand'
p102
sg39
I222
sg32
F0
sg31
F0
sS's'
F0
sg40
S'Hamilton'
p103
sg42
g43
((I2012
I2
I19
I0
I0
I0
I6
I50
I-1
t(dtRp104
sa(dp105
g36
I1
sS'c'
F0
sg29
F0
sg37
S'Australia'
p106
sg39
I212
sg32
F0
sg31
F0
sS's'
F0
sg40
S'Johannesburg'
p107
sg42
g43
((I2011
I10
I16
I0
I0
I0
I6
I289
I-1
t(dtRp108
sa(dp109
g36
I1
sS'c'
F0
sg29
F0
sg37
S'India'
p110
sg39
I196
sg32
F0
sg31
F0
sS's'
F0
sg40
S'Durban'
p111
sg42
g43
((I2011
I1
I9
I0
I0
I0
I6
I9
I-1
t(dtRp112
sa(dp113
g36
I2
sS'c'
F1
sg29
F0
sg37
S'Zimbabwe'
p114
sg39
I189
sg32
F1
sg31
F1
sS's'
F0
sg40
S'Kimberley'
p115
sg42
g43
((I2010
I10
I10
I0
I0
I0
I6
I283
I-1
t(dtRp116
sa(dp117
g36
I1
sS'c'
F0
sg29
F0
sg37
S'Zimbabwe'
p118
sg39
I188
sg32
F0
sg31
F0
sS's'
F0
sg40
S'Bloemfontein'
p119
sg42
g43
((I2010
I10
I8
I0
I0
I0
I4
I281
I-1
t(dtRp120
sa(dp121
g36
I1
sS'c'
F0
sg29
F0
sg37
S'Pakistan'
p122
sg39
I114
sg32
F0
sg31
F0
sS's'
F0
sg40
S'Nottingham'
p123
sg42
g43
((I2009
I6
I18
I0
I0
I0
I3
I169
I-1
t(dtRp124
sa(dp125
g36
I2
sS'c'
F0
sg29
F0
sg37
S'India'
p126
sg39
I113
sg32
F0
sg31
F0
sS's'
F0
sg40
S'Nottingham'
p127
sg42
g43
((I2009
I6
I16
I0
I0
I0
I1
I167
I-1
t(dtRp128
sa(dp129
g36
I2
sS'c'
F0
sg29
F0
sg37
S'West Indies'
p130
sg39
I106
sg32
F0
sg31
F0
sS's'
F0
sg40
S'The Oval'
p131
sg42
g43
((I2009
I6
I13
I0
I0
I0
I5
I164
I-1
t(dtRp132
sa(dp133
g36
I1
sS'c'
F0
sg29
F0
sg37
S'England'
p134
sg39
I103
sg32
F0
sg31
F0
sS's'
F0
sg40
S'Nottingham'
p135
sg42
g43
((I2009
I6
I11
I0
I0
I0
I3
I162
I-1
t(dtRp136
sa(dp137
g36
I2
sS'c'
F0
sg29
F0
sg37
S'New Zealand'
p138
sg39
I99
sg32
F0
sg31
F0
sS's'
F0
sg40
S"Lord's"
p139
sg42
g43
((I2009
I6
I9
I0
I0
I0
I1
I160
I-1
t(dtRp140
sa(dp141
g36
I2
sS'c'
F0
sg29
F0
sg37
S'Scotland'
p142
sg39
I94
sg32
F0
sg31
F0
sS's'
F0
sg40
S'The Oval'
p143
sg42
g43
((I2009
I6
I7
I0
I0
I0
I6
I158
I-1
t(dtRp144
sa(dp145
g36
I1
sS'c'
F0
sg29
F0
sg37
S'Australia'
p146
sg39
I87
sg32
F0
sg31
F0
sS's'
F0
sg40
S'Johannesburg'
p147
sg42
g43
((I2009
I3
I27
I0
I0
I0
I4
I86
I-1
t(dtRp148
sa(dp149
g36
I2
sS'c'
F0
sg29
F0
sg37
S'Australia'
p150
sg39
I81
sg32
F0
sg31
F0
sS's'
F0
sg40
S'Brisbane'
p151
sg42
g43
((I2009
I1
I13
I0
I0
I0
I1
I13
I-1
t(dtRp152
satp153
sS'bowlingStats'
p154
((dp155
S'a'
F23.793103448275861
sS'b'
F518
sS'e'
F7.9922779922779918
sS'i'
F27
sS'sr'
p156
F17.862068965517242
sS'5w'
p157
F0
sS'm'
F28
sS'maid'
p158
F2
sS'r'
F690
sS'w'
F29
sS'4w'
p159
F1
sS'bbir'
p160
F13
sS'bbiw'
p161
F4
sg33
F2014
sg30
F2009
s(lp162
(dp163
g36
I2
sS'b'
F18
sS'e'
F11
sg39
I399
sS'pos'
p164
I5
sg158
F0
sS'r'
F33
sg40
S'Dhaka'
p165
sS'w'
F1
sg42
g43
((I2014
I4
I4
I0
I0
I0
I4
I94
I-1
t(dtRp166
sg37
S'India'
p167
sa(dp168
g36
I2
sS'b'
F24
sS'e'
F7.75
sg39
I391
sg164
I5
sg158
F0
sS'r'
F31
sg40
S'Chittagong'
p169
sS'w'
F3
sg42
g43
((I2014
I3
I29
I0
I0
I0
I5
I88
I-1
t(dtRp170
sg37
S'England'
p171
sa(dp172
g36
I2
sS'b'
F12
sS'e'
F7.5
sg39
I365
sg164
I4
sg158
F0
sS'r'
F15
sg40
S'Centurion'
p173
sS'w'
F1
sg42
g43
((I2014
I3
I14
I0
I0
I0
I4
I73
I-1
t(dtRp174
sg37
S'Australia'
p175
sa(dp176
g36
I2
sS'b'
F10
sS'e'
F10.199999999999999
sg39
I363
sg164
I4
sg158
F0
sS'r'
F17
sg40
S'Durban'
p177
sS'w'
F1
sg42
g43
((I2014
I3
I12
I0
I0
I0
I2
I71
I-1
t(dtRp178
sg37
S'Australia'
p179
sa(dp180
g36
I1
sS'b'
F24
sS'e'
F9.25
sg39
I343
sg164
I3
sg158
F1
sS'r'
F37
sg40
S'Cape Town'
p181
sS'w'
F1
sg42
g43
((I2013
I11
I22
I0
I0
I0
I4
I326
I-1
t(dtRp182
sg37
S'Pakistan'
p183
sa(dp184
g36
I2
sS'b'
F24
sS'e'
F6.25
sg39
I336
sg164
I4
sg158
F0
sS'r'
F25
sg40
S'Dubai (DSC)'
p185
sS'w'
F3
sg42
g43
((I2013
I11
I15
I0
I0
I0
I4
I319
I-1
t(dtRp186
sg37
S'Pakistan'
p187
sa(dp188
g36
I1
sS'b'
F24
sS'e'
F6.75
sg39
I334
sg164
I4
sg158
F0
sS'r'
F27
sg40
S'Dubai (DSC)'
p189
sS'w'
F0
sg42
g43
((I2013
I11
I13
I0
I0
I0
I2
I317
I-1
t(dtRp190
sg37
S'Pakistan'
p191
sa(dp192
g36
I2
sS'b'
F18
sS'e'
F12.333333333333334
sg39
I325
sg164
I3
sg158
F0
sS'r'
F37
sg40
S'Hambantota'
p193
sS'w'
F1
sg42
g43
((I2013
I8
I6
I0
I0
I0
I1
I218
I-1
t(dtRp194
sg37
S'Sri Lanka'
p195
sa(dp196
g36
I2
sS'b'
F24
sS'e'
F6.25
sg39
I324
sg164
I3
sg158
F0
sS'r'
F25
sg40
S'Hambantota'
p197
sS'w'
F1
sg42
g43
((I2013
I8
I4
I0
I0
I0
I6
I216
I-1
t(dtRp198
sg37
S'Sri Lanka'
p199
sa(dp200
g36
I2
sS'b'
F18
sS'e'
F2.6666666666666665
sg39
I323
sg164
I3
sg158
F1
sS'r'
F8
sg40
S'Colombo (RPS)'
p201
sS'w'
F2
sg42
g43
((I2013
I8
I2
I0
I0
I0
I4
I214
I-1
t(dtRp202
sg37
S'Sri Lanka'
p203
sa(dp204
g36
I2
sS'b'
F12
sS'e'
F12
sg39
I281
sg164
I6
sg158
F0
sS'r'
F24
sg40
S'Colombo (RPS)'
p205
sS'w'
F0
sg42
g43
((I2012
I9
I30
I0
I0
I0
I6
I274
I-1
t(dtRp206
sg37
S'Australia'
p207
sa(dp208
g36
I1
sS'b'
F12
sS'e'
F18.5
sg39
I262
sg164
I2
sg158
F0
sS'r'
F37
sg40
S'Birmingham'
p209
sS'w'
F1
sg42
g43
((I2012
I9
I12
I0
I0
I0
I2
I256
I-1
t(dtRp210
sg37
S'England'
p211
sa(dp212
g36
I2
sS'b'
F11
sS'e'
F7.6363636363636367
sg39
I242
sg164
I4
sg158
F0
sS'r'
F14
sg40
S'Johannesburg'
p213
sS'w'
F0
sg42
g43
((I2012
I3
I30
I0
I0
I0
I4
I90
I-1
t(dtRp214
sg37
S'India'
p215
sa(dp216
g36
I2
sS'b'
F6
sS'e'
F14
sg39
I223
sg164
I6
sg158
F0
sS'r'
F14
sg40
S'Auckland'
p217
sS'w'
F0
sg42
g43
((I2012
I2
I22
I0
I0
I0
I2
I53
I-1
t(dtRp218
sg37
S'New Zealand'
p219
sa(dp220
g36
I1
sS'b'
F12
sS'e'
F7.5
sg39
I222
sg164
I5
sg158
F0
sS'r'
F15
sg40
S'Hamilton'
p221
sS'w'
F0
sg42
g43
((I2012
I2
I19
I0
I0
I0
I6
I50
I-1
t(dtRp222
sg37
S'New Zealand'
p223
sa(dp224
g36
I1
sS'b'
F24
sS'e'
F11
sg39
I212
sg164
I3
sg158
F0
sS'r'
F44
sg40
S'Johannesburg'
p225
sS'w'
F0
sg42
g43
((I2011
I10
I16
I0
I0
I0
I6
I289
I-1
t(dtRp226
sg37
S'Australia'
p227
sa(dp228
g36
I1
sS'b'
F24
sS'e'
F6.25
sg39
I196
sg164
I1
sg158
F0
sS'r'
F25
sg40
S'Durban'
p229
sS'w'
F1
sg42
g43
((I2011
I1
I9
I0
I0
I0
I6
I9
I-1
t(dtRp230
sg37
S'India'
p231
sa(dp232
g36
I2
sS'b'
F24
sS'e'
F10.25
sg39
I189
sg164
I1
sg158
F0
sS'r'
F41
sg40
S'Kimberley'
p233
sS'w'
F0
sg42
g43
((I2010
I10
I10
I0
I0
I0
I6
I283
I-1
t(dtRp234
sg37
S'Zimbabwe'
p235
sa(dp236
g36
I1
sS'b'
F24
sS'e'
F7.25
sg39
I188
sg164
I2
sg158
F0
sS'r'
F29
sg40
S'Bloemfontein'
p237
sS'w'
F2
sg42
g43
((I2010
I10
I8
I0
I0
I0
I4
I281
I-1
t(dtRp238
sg37
S'Zimbabwe'
p239
sa(dp240
g36
I1
sS'b'
F24
sS'e'
F6.5
sg39
I114
sg164
I2
sg158
F0
sS'r'
F26
sg40
S'Nottingham'
p241
sS'w'
F1
sg42
g43
((I2009
I6
I18
I0
I0
I0
I3
I169
I-1
t(dtRp242
sg37
S'Pakistan'
p243
sa(dp244
g36
I2
sS'b'
F18
sS'e'
F7.333333333333333
sg39
I113
sg164
I2
sg158
F0
sS'r'
F22
sg40
S'Nottingham'
p245
sS'w'
F0
sg42
g43
((I2009
I6
I16
I0
I0
I0
I1
I167
I-1
t(dtRp246
sg37
S'India'
p247
sa(dp248
g36
I2
sS'b'
F24
sS'e'
F3.25
sg39
I106
sg164
I2
sg158
F0
sS'r'
F13
sg40
S'The Oval'
p249
sS'w'
F4
sg42
g43
((I2009
I6
I13
I0
I0
I0
I5
I164
I-1
t(dtRp250
sg37
S'West Indies'
p251
sa(dp252
g36
I1
sS'b'
F23
sS'e'
F3.652173913043478
sg39
I103
sg164
I2
sg158
F0
sS'r'
F14
sg40
S'Nottingham'
p253
sS'w'
F3
sg42
g43
((I2009
I6
I11
I0
I0
I0
I3
I162
I-1
t(dtRp254
sg37
S'England'
p255
sa(dp256
g36
I2
sS'b'
F24
sS'e'
F9.5
sg39
I99
sg164
I2
sg158
F0
sS'r'
F38
sg40
S"Lord's"
p257
sS'w'
F0
sg42
g43
((I2009
I6
I9
I0
I0
I0
I1
I160
I-1
t(dtRp258
sg37
S'New Zealand'
p259
sa(dp260
g36
I2
sS'b'
F12
sS'e'
F3
sg39
I94
sg164
I2
sg158
F0
sS'r'
F6
sg40
S'The Oval'
p261
sS'w'
F1
sg42
g43
((I2009
I6
I7
I0
I0
I0
I6
I158
I-1
t(dtRp262
sg37
S'Scotland'
p263
sa(dp264
g36
I1
sS'b'
F24
sS'e'
F7.25
sg39
I87
sg164
I2
sg158
F0
sS'r'
F29
sg40
S'Johannesburg'
p265
sS'w'
F2
sg42
g43
((I2009
I3
I27
I0
I0
I0
I4
I86
I-1
t(dtRp266
sg37
S'Australia'
p267
sa(dp268
g36
I2
sS'b'
F24
sS'e'
F11
sg39
I81
sg164
I3
sg158
F0
sS'r'
F44
sg40
S'Brisbane'
p269
sS'w'
F0
sg42
g43
((I2009
I1
I13
I0
I0
I0
I1
I13
I-1
t(dtRp270
sg37
S'Australia'
p271
satp272
sS'battingStats'
p273
((dp274
S'a'
F34
sS'0s'
p275
F0
sS'b'
F79
sS'no'
p276
F5
sg30
F2009
sS'hs'
p277
F29
sS'm'
F28
sS'4s'
p278
F9
sg33
F2014
sS'i'
F8
sS'6s'
p279
F3
sg156
F129.1139240506329
sS'r'
F102
sS'100s'
p280
F0
sS'50s'
p281
F0
s(lp282
(dp283
g36
I1
sS'b'
F17
sg37
S'Australia'
p284
sg276
I01
sg156
F100
sg39
I365
sS'dismiss'
p285
S'not out'
p286
sg278
F1
sg164
I8
sg279
F0
sg40
S'Centurion'
p287
sg42
g43
((I2014
I3
I14
I0
I0
I0
I4
I73
I-1
t(dtRp288
sS'r'
F17
sS'minutes'
p289
F27
sa(dp290
g36
I1
sS'b'
F6
sg37
S'Pakistan'
p291
sg156
F100
sg39
I340
sg285
S'run out'
p292
sg278
F0
sg164
I7
sg279
F0
sg40
S'Johannesburg'
p293
sg42
g43
((I2013
I11
I20
I0
I0
I0
I2
I324
I-1
t(dtRp294
sS'r'
F6
sg289
F11
sa(dp295
g36
I1
sS'b'
F6
sg37
S'Sri Lanka'
p296
sg276
I01
sg156
F166.66666666666666
sg39
I324
sg285
S'not out'
p297
sg278
F1
sg164
I8
sg279
F0
sg40
S'Hambantota'
p298
sg42
g43
((I2013
I8
I4
I0
I0
I0
I6
I216
I-1
t(dtRp299
sS'r'
F10
sg289
F6
sa(dp300
g36
I1
sS'b'
F0
sg37
S'Sri Lanka'
p301
sg276
I01
sg156
F0
sg39
I323
sg285
S'not out'
p302
sg278
F0
sg164
I8
sg279
F0
sg40
S'Colombo (RPS)'
p303
sg42
g43
((I2013
I8
I2
I0
I0
I0
I4
I214
I-1
t(dtRp304
sS'r'
F0
sg289
F2
sa(dp305
g36
I1
sS'b'
F17
sg37
S'New Zealand'
p306
sg276
I01
sg156
F129.41176470588235
sg39
I223
sg285
S'not out'
p307
sg278
F2
sg164
I8
sg279
F1
sg40
S'Auckland'
p308
sg42
g43
((I2012
I2
I22
I0
I0
I0
I2
I53
I-1
t(dtRp309
sS'r'
F22
sg289
F24
sa(dp310
g36
I2
sS'b'
F6
sg37
S'New Zealand'
p311
sg156
F66.666666666666671
sg39
I222
sg285
S'stumped'
p312
sg278
F1
sg164
I3
sg279
F0
sg40
S'Hamilton'
p313
sg42
g43
((I2012
I2
I19
I0
I0
I0
I6
I50
I-1
t(dtRp314
sS'r'
F4
sg289
F10
sa(dp315
g36
I2
sS'b'
F11
sg37
S'Australia'
p316
sg276
I01
sg156
F263.63636363636363
sg39
I212
sg285
S'not out'
p317
sg278
F3
sg164
I8
sg279
F2
sg40
S'Johannesburg'
p318
sg42
g43
((I2011
I10
I16
I0
I0
I0
I6
I289
I-1
t(dtRp319
sS'r'
F29
sg289
F28
sa(dp320
g36
I2
sS'b'
F16
sg37
S'India'
p321
sg156
F87.5
sg39
I196
sg285
S'caught'
p322
sg278
F1
sg164
I9
sg279
F0
sg40
S'Durban'
p323
sg42
g43
((I2011
I1
I9
I0
I0
I0
I6
I9
I-1
t(dtRp324
sS'r'
F14
sg289
F15
satp325
ssS'all'
p326
(dp327
g27
(dp328
S'c'
F17
sg29
F0
sS'i'
F104
sS'm'
F104
sS's'
F0
sg31
F17
sg32
F17
ssg154
(dp329
S'a'
F24.123809523809523
sS'b'
F2030
sS'e'
F7.4866995073891625
sS'i'
F101
sg156
F19.333333333333332
sg157
F0
sS'm'
F104
sg158
F0
sS'r'
F2533
sS'w'
F105
sg159
F2
sg160
F13
sg161
F4
ssg273
(dp330
S'a'
F13.290322580645162
sg275
F-1
sS'b'
F360
sg276
F24
sS'i'
F55
sg277
F29
sS'm'
F104
sg278
F34
sg279
F12
sg156
F114.44444444444444
sS'r'
F412
sg280
F0
sg281
F0
ssssb.