(iplayer
Player
p1
(dp2
S'is_batsman'
p3
I01
sS'name'
p4
S'Aaron Finch'
p5
sS'dob'
p6
S'1986/11/17'
p7
sS'price'
p8
S'950000'
p9
sS'is_allrounder'
p10
I00
sS'espnid'
p11
S'5334'
p12
sS'is_overseas'
p13
I01
sS'team'
p14
S'SRH'
p15
sS'nationality'
p16
S'Australian'
p17
sS'is_bowler'
p18
I00
sS'is_keeper'
p19
I00
sS'id'
p20
S'167'
p21
sS'is_uncapped'
p22
I00
sS'tournamentStats'
p23
(dp24
S'international'
p25
(dp26
S'fieldingStats'
p27
((dp28
S'c'
F3
sS'ctw'
p29
F0
sS'span_s'
p30
F2011
sS'm'
F18
sS's'
F0
sS'dismissals'
p31
F3
sS'i'
F18
sS'ctf'
p32
F3
sS'span_f'
p33
F2014
s(lp34
(dp35
S'inning'
p36
I1
sS'c'
F0
sg29
F0
sS'opp'
p37
S'Bangladesh'
p38
sS't20i_num'
p39
I396
sg32
F0
sg31
F0
sS's'
F0
sS'place'
p40
S'Dhaka'
p41
sS'date'
p42
ctime
struct_time
p43
((I2014
I4
I1
I0
I0
I0
I1
I91
I-1
t(dtRp44
sa(dp45
g36
I1
sS'c'
F1
sg29
F0
sg37
S'India'
p46
sg39
I393
sg32
F1
sg31
F1
sS's'
F0
sg40
S'Dhaka'
p47
sg42
g43
((I2014
I3
I30
I0
I0
I0
I6
I89
I-1
t(dtRp48
sa(dp49
g36
I2
sS'c'
F0
sg29
F0
sg37
S'West Indies'
p50
sg39
I388
sg32
F0
sg31
F0
sS's'
F0
sg40
S'Dhaka'
p51
sg42
g43
((I2014
I3
I28
I0
I0
I0
I4
I87
I-1
t(dtRp52
sa(dp53
g36
I1
sS'c'
F0
sg29
F0
sg37
S'Pakistan'
p54
sg39
I381
sg32
F0
sg31
F0
sS's'
F0
sg40
S'Dhaka'
p55
sg42
g43
((I2014
I3
I23
I0
I0
I0
I6
I82
I-1
t(dtRp56
sa(dp57
g36
I1
sS'c'
F0
sg29
F0
sg37
S'South Africa'
p58
sg39
I365
sg32
F0
sg31
F0
sS's'
F0
sg40
S'Centurion'
p59
sg42
g43
((I2014
I3
I14
I0
I0
I0
I4
I73
I-1
t(dtRp60
sa(dp61
g36
I1
sS'c'
F0
sg29
F0
sg37
S'South Africa'
p62
sg39
I363
sg32
F0
sg31
F0
sS's'
F0
sg40
S'Durban'
p63
sg42
g43
((I2014
I3
I12
I0
I0
I0
I2
I71
I-1
t(dtRp64
sa(dp65
g36
I2
sS'c'
F0
sg29
F0
sg37
S'England'
p66
sg39
I356
sg32
F0
sg31
F0
sS's'
F0
sg40
S'Sydney'
p67
sg42
g43
((I2014
I2
I2
I0
I0
I0
I6
I33
I-1
t(dtRp68
sa(dp69
g36
I1
sS'c'
F0
sg29
F0
sg37
S'England'
p70
sg39
I355
sg32
F0
sg31
F0
sS's'
F0
sg40
S'Melbourne'
p71
sg42
g43
((I2014
I1
I31
I0
I0
I0
I4
I31
I-1
t(dtRp72
sa(dp73
g36
I2
sS'c'
F1
sg29
F0
sg37
S'England'
p74
sg39
I354
sg32
F1
sg31
F1
sS's'
F0
sg40
S'Hobart'
p75
sg42
g43
((I2014
I1
I29
I0
I0
I0
I2
I29
I-1
t(dtRp76
sa(dp77
g36
I2
sS'c'
F0
sg29
F0
sg37
S'India'
p78
sg39
I331
sg32
F0
sg31
F0
sS's'
F0
sg40
S'Rajkot'
p79
sg42
g43
((I2013
I10
I10
I0
I0
I0
I3
I283
I-1
t(dtRp80
sa(dp81
g36
I1
sS'c'
F0
sg29
F0
sg37
S'England'
p82
sg39
I329
sg32
F0
sg31
F0
sS's'
F0
sg40
S'Chester-le-Street'
p83
sg42
g43
((I2013
I8
I31
I0
I0
I0
I5
I243
I-1
t(dtRp84
sa(dp85
g36
I2
sS'c'
F0
sg29
F0
sg37
S'England'
p86
sg39
I328
sg32
F0
sg31
F0
sS's'
F0
sg40
S'Southampton'
p87
sg42
g43
((I2013
I8
I29
I0
I0
I0
I3
I241
I-1
t(dtRp88
sa(dp89
g36
I1
sS'c'
F0
sg29
F0
sg37
S'West Indies'
p90
sg39
I303
sg32
F0
sg31
F0
sS's'
F0
sg40
S'Brisbane'
p91
sg42
g43
((I2013
I2
I13
I0
I0
I0
I2
I44
I-1
t(dtRp92
sa(dp93
g36
I1
sS'c'
F0
sg29
F0
sg37
S'Sri Lanka'
p94
sg39
I300
sg32
F0
sg31
F0
sS's'
F0
sg40
S'Melbourne'
p95
sg42
g43
((I2013
I1
I28
I0
I0
I0
I0
I28
I-1
t(dtRp96
sa(dp97
g36
I2
sS'c'
F0
sg29
F0
sg37
S'Sri Lanka'
p98
sg39
I299
sg32
F0
sg31
F0
sS's'
F0
sg40
S'Sydney'
p99
sg42
g43
((I2013
I1
I26
I0
I0
I0
I5
I26
I-1
t(dtRp100
sa(dp101
g36
I2
sS'c'
F0
sg29
F0
sg37
S'India'
p102
sg39
I218
sg32
F0
sg31
F0
sS's'
F0
sg40
S'Melbourne'
p103
sg42
g43
((I2012
I2
I3
I0
I0
I0
I4
I34
I-1
t(dtRp104
sa(dp105
g36
I2
sS'c'
F1
sg29
F0
sg37
S'England'
p106
sg39
I198
sg32
F1
sg31
F1
sS's'
F0
sg40
S'Melbourne'
p107
sg42
g43
((I2011
I1
I14
I0
I0
I0
I4
I14
I-1
t(dtRp108
sa(dp109
g36
I2
sS'c'
F0
sg29
F0
sg37
S'England'
p110
sg39
I197
sg32
F0
sg31
F0
sS's'
F0
sg40
S'Adelaide'
p111
sg42
g43
((I2011
I1
I12
I0
I0
I0
I2
I12
I-1
t(dtRp112
satp113
sS'bowlingStats'
p114
((dp115
S'a'
F-1
sS'b'
F12
sS'e'
F13.5
sS'i'
F2
sS'sr'
p116
F-1
sS'5w'
p117
F0
sS'm'
F18
sS'maid'
p118
F0
sS'r'
F27
sS'w'
F0
sS'4w'
p119
F0
sS'bbir'
p120
F-1
sS'bbiw'
p121
F-1
sg33
F2014
sg30
F2011
s(lp122
(dp123
g36
I1
sS'b'
F6
sS'e'
F18
sg39
I381
sS'pos'
p124
I6
sg118
F0
sS'r'
F18
sg40
S'Dhaka'
p125
sS'w'
F0
sg42
g43
((I2014
I3
I23
I0
I0
I0
I6
I82
I-1
t(dtRp126
sg37
S'Pakistan'
p127
sa(dp128
g36
I2
sS'b'
F6
sS'e'
F9
sg39
I299
sg124
I6
sg118
F0
sS'r'
F9
sg40
S'Sydney'
p129
sS'w'
F0
sg42
g43
((I2013
I1
I26
I0
I0
I0
I5
I26
I-1
t(dtRp130
sg37
S'Sri Lanka'
p131
satp132
sS'battingStats'
p133
((dp134
S'a'
F41.25
sS'0s'
p135
F0
sS'b'
F421
sS'no'
p136
F2
sg30
F2011
sS'hs'
p137
F156
sS'm'
F18
sS'4s'
p138
F70
sg33
F2014
sS'i'
F18
sS'6s'
p139
F30
sg116
F156.76959619952495
sS'r'
F660
sS'100s'
p140
F1
sS'50s'
p141
F5
s(lp142
(dp143
g36
I2
sS'b'
F45
sg37
S'Bangladesh'
p144
sg116
F157.77777777777777
sg39
I396
sS'dismiss'
p145
S'caught'
p146
sg138
F7
sg124
I1
sg139
F4
sg40
S'Dhaka'
p147
sg42
g43
((I2014
I4
I1
I0
I0
I0
I1
I91
I-1
t(dtRp148
sS'r'
F71
sS'minutes'
p149
F62
sa(dp150
g36
I2
sS'b'
F11
sg37
S'India'
p151
sg116
F54.545454545454547
sg39
I393
sg145
S'caught'
p152
sg138
F1
sg124
I1
sg139
F0
sg40
S'Dhaka'
p153
sg42
g43
((I2014
I3
I30
I0
I0
I0
I6
I89
I-1
t(dtRp154
sS'r'
F6
sg149
F15
sa(dp155
g36
I1
sS'b'
F11
sg37
S'West Indies'
p156
sg116
F145.45454545454547
sg39
I388
sg145
S'bowled'
p157
sg138
F2
sg124
I1
sg139
F1
sg40
S'Dhaka'
p158
sg42
g43
((I2014
I3
I28
I0
I0
I0
I4
I87
I-1
t(dtRp159
sS'r'
F16
sg149
F14
sa(dp160
g36
I2
sS'b'
F54
sg37
S'Pakistan'
p161
sg116
F120.37037037037037
sg39
I381
sg145
S'bowled'
p162
sg138
F7
sg124
I2
sg139
F2
sg40
S'Dhaka'
p163
sg42
g43
((I2014
I3
I23
I0
I0
I0
I6
I82
I-1
t(dtRp164
sS'r'
F65
sg149
F79
sa(dp165
g36
I2
sS'b'
F27
sg37
S'South Africa'
p166
sg116
F144.44444444444446
sg39
I365
sg145
S'caught'
p167
sg138
F6
sg124
I1
sg139
F0
sg40
S'Centurion'
p168
sg42
g43
((I2014
I3
I14
I0
I0
I0
I4
I73
I-1
t(dtRp169
sS'r'
F39
sg149
F34
sa(dp170
g36
I2
sS'b'
F5
sg37
S'South Africa'
p171
sg116
F100
sg39
I363
sg145
S'caught'
p172
sg138
F1
sg124
I1
sg139
F0
sg40
S'Durban'
p173
sg42
g43
((I2014
I3
I12
I0
I0
I0
I2
I71
I-1
t(dtRp174
sS'r'
F5
sg149
F6
sa(dp175
g36
I1
sS'b'
F21
sg37
S'England'
p176
sg116
F142.85714285714286
sg39
I356
sg145
S'caught'
p177
sg138
F1
sg124
I2
sg139
F3
sg40
S'Sydney'
p178
sg42
g43
((I2014
I2
I2
I0
I0
I0
I6
I33
I-1
t(dtRp179
sS'r'
F30
sg149
F29
sa(dp180
g36
I2
sS'b'
F11
sg37
S'England'
p181
sg116
F90.909090909090907
sg39
I355
sg145
S'lbw'
p182
sg138
F2
sg124
I2
sg139
F0
sg40
S'Melbourne'
p183
sg42
g43
((I2014
I1
I31
I0
I0
I0
I4
I31
I-1
t(dtRp184
sS'r'
F10
sg149
F21
sa(dp185
g36
I1
sS'b'
F31
sg37
S'England'
p186
sg116
F167.74193548387098
sg39
I354
sg145
S'caught'
p187
sg138
F5
sg124
I2
sg139
F3
sg40
S'Hobart'
p188
sg42
g43
((I2014
I1
I29
I0
I0
I0
I2
I29
I-1
t(dtRp189
sS'r'
F52
sg149
F46
sa(dp190
g36
I1
sS'b'
F52
sg37
S'India'
p191
sg116
F171.15384615384616
sg39
I331
sg145
S'caught'
p192
sg138
F14
sg124
I1
sg139
F1
sg40
S'Rajkot'
p193
sg42
g43
((I2013
I10
I10
I0
I0
I0
I3
I283
I-1
t(dtRp194
sS'r'
F89
sg149
F71
sa(dp195
g36
I2
sS'b'
F5
sg37
S'England'
p196
sg116
F100
sg39
I329
sg145
S'caught'
p197
sg138
F1
sg124
I2
sg139
F0
sg40
S'Chester-le-Street'
p198
sg42
g43
((I2013
I8
I31
I0
I0
I0
I5
I243
I-1
t(dtRp199
sS'r'
F5
sg149
F6
sa(dp200
g36
I1
sS'b'
F63
sg37
S'England'
p201
sg116
F247.61904761904762
sg39
I328
sg145
S'bowled'
p202
sg138
F11
sg124
I2
sg139
F14
sg40
S'Southampton'
p203
sg42
g43
((I2013
I8
I29
I0
I0
I0
I3
I241
I-1
t(dtRp204
sS'r'
F156
sg149
F70
sa(dp205
g36
I2
sS'b'
F6
sg37
S'West Indies'
p206
sg116
F66.666666666666671
sg39
I303
sg145
S'bowled'
p207
sg138
F0
sg124
I1
sg139
F0
sg40
S'Brisbane'
p208
sg42
g43
((I2013
I2
I13
I0
I0
I0
I2
I44
I-1
t(dtRp209
sS'r'
F4
sg149
F5
sa(dp210
g36
I2
sS'b'
F6
sg37
S'Sri Lanka'
p211
sg116
F116.66666666666667
sg39
I300
sg145
S'lbw'
p212
sg138
F1
sg124
I1
sg139
F0
sg40
S'Melbourne'
p213
sg42
g43
((I2013
I1
I28
I0
I0
I0
I0
I28
I-1
t(dtRp214
sS'r'
F7
sg149
F17
sa(dp215
g36
I1
sS'b'
F3
sg37
S'Sri Lanka'
p216
sg116
F33.333333333333336
sg39
I299
sg145
S'caught'
p217
sg138
F0
sg124
I2
sg139
F0
sg40
S'Sydney'
p218
sg42
g43
((I2013
I1
I26
I0
I0
I0
I5
I26
I-1
t(dtRp219
sS'r'
F1
sg149
F8
sa(dp220
g36
I1
sS'b'
F23
sg37
S'India'
p221
sg116
F156.52173913043478
sg39
I218
sg145
S'run out'
p222
sg138
F6
sg124
I2
sg139
F0
sg40
S'Melbourne'
p223
sg42
g43
((I2012
I2
I3
I0
I0
I0
I4
I34
I-1
t(dtRp224
sS'r'
F36
sg149
F33
sa(dp225
g36
I1
sS'b'
F33
sg37
S'England'
p226
sg136
I01
sg116
F160.60606060606059
sg39
I198
sg145
S'not out'
p227
sg138
F4
sg124
I6
sg139
F2
sg40
S'Melbourne'
p228
sg42
g43
((I2011
I1
I14
I0
I0
I0
I4
I14
I-1
t(dtRp229
sS'r'
F53
sg149
F35
sa(dp230
g36
I1
sS'b'
F14
sg37
S'England'
p231
sg136
I01
sg116
F107.14285714285714
sg39
I197
sg145
S'not out'
p232
sg138
F1
sg124
I5
sg139
F0
sg40
S'Adelaide'
p233
sg42
g43
((I2011
I1
I12
I0
I0
I0
I2
I12
I-1
t(dtRp234
sS'r'
F15
sg149
F21
satp235
ssS'all'
p236
(dp237
g27
(dp238
S'c'
F26
sg29
F0
sS'i'
F90
sS'm'
F90
sS's'
F0
sg31
F26
sg32
F26
ssg114
(dp239
S'a'
F50.200000000000003
sS'b'
F151
sS'e'
F9.9735099337748352
sS'i'
F15
sg116
F30.199999999999999
sg117
F0
sS'm'
F90
sg118
F0
sS'r'
F251
sS'w'
F5
sg119
F0
sg120
F11
sg121
F1
ssg133
(dp240
S'a'
F37.96153846153846
sg135
F-1
sS'b'
F2151
sg136
F9
sS'i'
F87
sg137
F156
sS'm'
F90
sg138
F301
sg139
F111
sg116
F137.65690376569037
sS'r'
F2961
sg140
F2
sg141
F21
ssssb.