(iplayer
Player
p1
(dp2
S'is_batsman'
p3
I00
sS'name'
p4
S'Pragyan Ojha'
p5
sS'dob'
p6
S'2012/02/27'
p7
sS'price'
p8
S'850000'
p9
sS'is_allrounder'
p10
I00
sS'espnid'
p11
S'32130'
p12
sS'is_overseas'
p13
I00
sS'team'
p14
S'MI'
p15
sS'nationality'
p16
S'Indian'
p17
sS'is_bowler'
p18
I01
sS'is_keeper'
p19
I00
sS'id'
p20
S'106'
p21
sS'is_uncapped'
p22
I00
sS'tournamentStats'
p23
(dp24
S'international'
p25
(dp26
S'fieldingStats'
p27
((dp28
S'c'
F1
sS'ctw'
p29
F0
sS'i'
F6
sS'm'
F6
sS's'
F0
sS'dismissals'
p30
F1
sS'ctf'
p31
F1
s(lp32
(dp33
S'inning'
p34
I1
sS'c'
F0
sg29
F0
sS'opp'
p35
S'Zimbabwe'
p36
sS't20i_num'
p37
I183
sg31
F0
sg30
F0
sS's'
F0
sS'place'
p38
S'Harare'
p39
sS'date'
p40
ctime
struct_time
p41
((I2010
I6
I13
I0
I0
I0
I6
I164
I-1
t(dtRp42
sa(dp43
g34
I1
sS'c'
F0
sg29
F0
sg35
S'Zimbabwe'
p44
sg37
I182
sg31
F0
sg30
F0
sS's'
F0
sg38
S'Harare'
p45
sg40
g41
((I2010
I6
I12
I0
I0
I0
I5
I163
I-1
t(dtRp46
sa(dp47
g34
I1
sS'c'
F0
sg29
F0
sg35
S'Sri Lanka'
p48
sg37
I126
sg31
F0
sg30
F0
sS's'
F0
sg38
S'Nagpur'
p49
sg40
g41
((I2009
I12
I9
I0
I0
I0
I2
I343
I-1
t(dtRp50
sa(dp51
g34
I2
sS'c'
F0
sg29
F0
sg35
S'West Indies'
p52
sg37
I105
sg31
F0
sg30
F0
sS's'
F0
sg38
S"Lord's"
p53
sg40
g41
((I2009
I6
I12
I0
I0
I0
I4
I163
I-1
t(dtRp54
sa(dp55
g34
I1
sS'c'
F0
sg29
F0
sg35
S'Ireland'
p56
sg37
I101
sg31
F0
sg30
F0
sS's'
F0
sg38
S'Nottingham'
p57
sg40
g41
((I2009
I6
I10
I0
I0
I0
I2
I161
I-1
t(dtRp58
sa(dp59
g34
I2
sS'c'
F1
sg29
F0
sg35
S'Bangladesh'
p60
sg37
I93
sg31
F1
sg30
F1
sS's'
F0
sg38
S'Nottingham'
p61
sg40
g41
((I2009
I6
I6
I0
I0
I0
I5
I157
I-1
t(dtRp62
satp63
sS'bowlingStats'
p64
((dp65
S'a'
F13.199999999999999
sS'b'
F126
sS'e'
F6.2857142857142856
sS'i'
F6
sS'sr'
p66
F12.6
sS'5w'
p67
F0
sS'm'
F6
sS'maid'
p68
F0
sS'r'
F132
sS'w'
F10
sS'4w'
p69
F1
sS'bbir'
p70
F21
sS'bbiw'
p71
F4
s(lp72
(dp73
g34
I1
sS'b'
F24
sS'e'
F6.5
sg37
I183
sS'pos'
p74
I3
sg68
F0
sS'r'
F26
sg38
S'Harare'
p75
sS'w'
F1
sg40
g41
((I2010
I6
I13
I0
I0
I0
I6
I164
I-1
t(dtRp76
sg35
S'Zimbabwe'
p77
sa(dp78
g34
I1
sS'b'
F24
sS'e'
F2.75
sg37
I182
sg74
I3
sg68
F0
sS'r'
F11
sg38
S'Harare'
p79
sS'w'
F2
sg40
g41
((I2010
I6
I12
I0
I0
I0
I5
I163
I-1
t(dtRp80
sg35
S'Zimbabwe'
p81
sa(dp82
g34
I1
sS'b'
F12
sS'e'
F13.5
sg37
I126
sg74
I5
sg68
F0
sS'r'
F27
sg38
S'Nagpur'
p83
sS'w'
F0
sg40
g41
((I2009
I12
I9
I0
I0
I0
I2
I343
I-1
t(dtRp84
sg35
S'Sri Lanka'
p85
sa(dp86
g34
I2
sS'b'
F18
sS'e'
F9.6666666666666661
sg37
I105
sg74
I6
sg68
F0
sS'r'
F29
sg38
S"Lord's"
p87
sS'w'
F1
sg40
g41
((I2009
I6
I12
I0
I0
I0
I4
I163
I-1
t(dtRp88
sg35
S'West Indies'
p89
sa(dp90
g34
I1
sS'b'
F24
sS'e'
F4.5
sg37
I101
sg74
I5
sg68
F0
sS'r'
F18
sg38
S'Nottingham'
p91
sS'w'
F2
sg40
g41
((I2009
I6
I10
I0
I0
I0
I2
I161
I-1
t(dtRp92
sg35
S'Ireland'
p93
sa(dp94
g34
I2
sS'b'
F24
sS'e'
F5.25
sg37
I93
sg74
I6
sg68
F0
sS'r'
F21
sg38
S'Nottingham'
p95
sS'w'
F4
sg40
g41
((I2009
I6
I6
I0
I0
I0
I5
I157
I-1
t(dtRp96
sg35
S'Bangladesh'
p97
satp98
sS'battingStats'
p99
((dp100
S'a'
F-1
sS'0s'
p101
F0
sS'b'
F6
sS'no'
p102
F1
sS'i'
F1
sS'hs'
p103
F10
sS'm'
F6
sS'4s'
p104
F0
sS'6s'
p105
F1
sg66
F166.66666666666666
sS'r'
F10
sS'100s'
p106
F0
sS'50s'
p107
F0
s(lp108
(dp109
g34
I2
sS'b'
F6
sg35
S'Sri Lanka'
p110
sg102
I01
sg66
F166.66666666666666
sg37
I126
sS'dismiss'
p111
S'not out'
p112
sg104
F0
sg74
I10
sg105
F1
sg38
S'Nagpur'
p113
sg40
g41
((I2009
I12
I9
I0
I0
I0
I2
I343
I-1
t(dtRp114
sS'r'
F10
sS'minutes'
p115
F-1
satp116
ssS'all'
p117
(dp118
g27
(dp119
S'c'
F19
sg29
F0
sS'i'
F111
sS'm'
F111
sS's'
F0
sg30
F19
sg31
F19
ssg64
(dp120
S'a'
F20.480620155038761
sS'b'
F2265
sS'e'
F6.9986754966887421
sS'i'
F108
sg66
F17.558139534883722
sg67
F0
sS'm'
F111
sg68
F0
sS'r'
F2642
sS'w'
F129
sg69
F2
sg70
F21
sg71
F4
ssg99
(dp121
S'a'
F4.7857142857142856
sg101
F-1
sS'b'
F92
sg102
F16
sS'i'
F30
sg103
F11
sS'm'
F111
sg104
F0
sg105
F3
sg66
F72.826086956521735
sS'r'
F67
sg106
F0
sg107
F0
ssssb.