(iplayer
Player
p1
(dp2
S'is_batsman'
p3
I00
sS'name'
p4
S'Ravichandran Ashwin'
p5
sS'dob'
p6
S'1986/09/17'
p7
sS'price'
p8
S'950000'
p9
sS'is_allrounder'
p10
I01
sS'espnid'
p11
S'26421'
p12
sS'is_overseas'
p13
I00
sS'team'
p14
S'CSK'
p15
sS'nationality'
p16
S'Indian'
p17
sS'is_bowler'
p18
I01
sS'is_keeper'
p19
I00
sS'id'
p20
S'8'
sS'is_uncapped'
p21
I00
sS'tournamentStats'
p22
(dp23
S'international'
p24
(dp25
S'fieldingStats'
p26
((dp27
S'c'
F5
sS'ctw'
p28
F0
sS'span_s'
p29
F2010
sS'm'
F25
sS's'
F0
sS'dismissals'
p30
F5
sS'i'
F25
sS'ctf'
p31
F5
sS'span_f'
p32
F2014
s(lp33
(dp34
S'inning'
p35
I2
sS'c'
F1
sg28
F0
sS'opp'
p36
S'Sri Lanka'
p37
sS't20i_num'
p38
I400
sg31
F1
sg30
F1
sS's'
F0
sS'place'
p39
S'Dhaka'
p40
sS'date'
p41
ctime
struct_time
p42
((I2014
I4
I6
I0
I0
I0
I6
I96
I-1
t(dtRp43
sa(dp44
g35
I1
sS'c'
F0
sg28
F0
sg36
S'South Africa'
p45
sg38
I399
sg31
F0
sg30
F0
sS's'
F0
sg39
S'Dhaka'
p46
sg41
g42
((I2014
I4
I4
I0
I0
I0
I4
I94
I-1
t(dtRp47
sa(dp48
g35
I2
sS'c'
F0
sg28
F0
sg36
S'Australia'
p49
sg38
I393
sg31
F0
sg30
F0
sS's'
F0
sg39
S'Dhaka'
p50
sg41
g42
((I2014
I3
I30
I0
I0
I0
I6
I89
I-1
t(dtRp51
sa(dp52
g35
I1
sS'c'
F0
sg28
F0
sg36
S'Bangladesh'
p53
sg38
I389
sg31
F0
sg30
F0
sS's'
F0
sg39
S'Dhaka'
p54
sg41
g42
((I2014
I3
I28
I0
I0
I0
I4
I87
I-1
t(dtRp55
sa(dp56
g35
I1
sS'c'
F1
sg28
F0
sg36
S'West Indies'
p57
sg38
I382
sg31
F1
sg30
F1
sS's'
F0
sg39
S'Dhaka'
p58
sg41
g42
((I2014
I3
I23
I0
I0
I0
I6
I82
I-1
t(dtRp59
sa(dp60
g35
I1
sS'c'
F0
sg28
F0
sg36
S'Pakistan'
p61
sg38
I378
sg31
F0
sg30
F0
sS's'
F0
sg39
S'Dhaka'
p62
sg41
g42
((I2014
I3
I21
I0
I0
I0
I4
I80
I-1
t(dtRp63
sa(dp64
g35
I1
sS'c'
F0
sg28
F0
sg36
S'Australia'
p65
sg38
I331
sg31
F0
sg30
F0
sS's'
F0
sg39
S'Rajkot'
p66
sg41
g42
((I2013
I10
I10
I0
I0
I0
I3
I283
I-1
t(dtRp67
sa(dp68
g35
I2
sS'c'
F0
sg28
F0
sg36
S'Pakistan'
p69
sg38
I298
sg31
F0
sg30
F0
sS's'
F0
sg39
S'Ahmedabad'
p70
sg41
g42
((I2012
I12
I28
I0
I0
I0
I4
I363
I-1
t(dtRp71
sa(dp72
g35
I2
sS'c'
F0
sg28
F0
sg36
S'England'
p73
sg38
I294
sg31
F0
sg30
F0
sS's'
F0
sg39
S'Mumbai'
p74
sg41
g42
((I2012
I12
I22
I0
I0
I0
I5
I357
I-1
t(dtRp75
sa(dp76
g35
I1
sS'c'
F0
sg28
F0
sg36
S'England'
p77
sg38
I292
sg31
F0
sg30
F0
sS's'
F0
sg39
S'Pune'
p78
sg41
g42
((I2012
I12
I20
I0
I0
I0
I3
I355
I-1
t(dtRp79
sa(dp80
g35
I2
sS'c'
F0
sg28
F0
sg36
S'South Africa'
p81
sg38
I286
sg31
F0
sg30
F0
sS's'
F0
sg39
S'Colombo (RPS)'
p82
sg41
g42
((I2012
I10
I2
I0
I0
I0
I1
I276
I-1
t(dtRp83
sa(dp84
g35
I1
sS'c'
F0
sg28
F0
sg36
S'Pakistan'
p85
sg38
I282
sg31
F0
sg30
F0
sS's'
F0
sg39
S'Colombo (RPS)'
p86
sg41
g42
((I2012
I9
I30
I0
I0
I0
I6
I274
I-1
t(dtRp87
sa(dp88
g35
I2
sS'c'
F0
sg28
F0
sg36
S'Australia'
p89
sg38
I278
sg31
F0
sg30
F0
sS's'
F0
sg39
S'Colombo (RPS)'
p90
sg41
g42
((I2012
I9
I28
I0
I0
I0
I4
I272
I-1
t(dtRp91
sa(dp92
g35
I2
sS'c'
F1
sg28
F0
sg36
S'Afghanistan'
p93
sg38
I265
sg31
F1
sg30
F1
sS's'
F0
sg39
S'Colombo (RPS)'
p94
sg41
g42
((I2012
I9
I19
I0
I0
I0
I2
I263
I-1
t(dtRp95
sa(dp96
g35
I1
sS'c'
F1
sg28
F0
sg36
S'New Zealand'
p97
sg38
I261
sg31
F1
sg30
F1
sS's'
F0
sg39
S'Chennai'
p98
sg41
g42
((I2012
I9
I11
I0
I0
I0
I1
I255
I-1
t(dtRp99
sa(dp100
g35
I2
sS'c'
F1
sg28
F0
sg36
S'Sri Lanka'
p101
sg38
I255
sg31
F1
sg30
F1
sS's'
F0
sg39
S'Pallekele'
p102
sg41
g42
((I2012
I8
I7
I0
I0
I0
I1
I220
I-1
t(dtRp103
sa(dp104
g35
I1
sS'c'
F0
sg28
F0
sg36
S'South Africa'
p105
sg38
I242
sg31
F0
sg30
F0
sS's'
F0
sg39
S'Johannesburg'
p106
sg41
g42
((I2012
I3
I30
I0
I0
I0
I4
I90
I-1
t(dtRp107
sa(dp108
g35
I1
sS'c'
F0
sg28
F0
sg36
S'Australia'
p109
sg38
I218
sg31
F0
sg30
F0
sS's'
F0
sg39
S'Melbourne'
p110
sg41
g42
((I2012
I2
I3
I0
I0
I0
I4
I34
I-1
t(dtRp111
sa(dp112
g35
I1
sS'c'
F0
sg28
F0
sg36
S'Australia'
p113
sg38
I217
sg31
F0
sg30
F0
sS's'
F0
sg39
S'Sydney'
p114
sg41
g42
((I2012
I2
I1
I0
I0
I0
I2
I32
I-1
t(dtRp115
sa(dp116
g35
I2
sS'c'
F0
sg28
F0
sg36
S'England'
p117
sg38
I214
sg31
F0
sg30
F0
sS's'
F0
sg39
S'Kolkata'
p118
sg41
g42
((I2011
I10
I29
I0
I0
I0
I5
I302
I-1
t(dtRp119
sa(dp120
g35
I2
sS'c'
F0
sg28
F0
sg36
S'England'
p121
sg38
I204
sg31
F0
sg30
F0
sS's'
F0
sg39
S'Manchester'
p122
sg41
g42
((I2011
I8
I31
I0
I0
I0
I2
I243
I-1
t(dtRp123
sa(dp124
g35
I2
sS'c'
F0
sg28
F0
sg36
S'West Indies'
p125
sg38
I200
sg31
F0
sg30
F0
sS's'
F0
sg39
S'Port of Spain'
p126
sg41
g42
((I2011
I6
I4
I0
I0
I0
I5
I155
I-1
t(dtRp127
sa(dp128
g35
I2
sS'c'
F0
sg28
F0
sg36
S'South Africa'
p129
sg38
I196
sg31
F0
sg30
F0
sS's'
F0
sg39
S'Durban'
p130
sg41
g42
((I2011
I1
I9
I0
I0
I0
I6
I9
I-1
t(dtRp131
sa(dp132
g35
I1
sS'c'
F0
sg28
F0
sg36
S'Zimbabwe'
p133
sg38
I183
sg31
F0
sg30
F0
sS's'
F0
sg39
S'Harare'
p134
sg41
g42
((I2010
I6
I13
I0
I0
I0
I6
I164
I-1
t(dtRp135
sa(dp136
g35
I1
sS'c'
F0
sg28
F0
sg36
S'Zimbabwe'
p137
sg38
I182
sg31
F0
sg30
F0
sS's'
F0
sg39
S'Harare'
p138
sg41
g42
((I2010
I6
I12
I0
I0
I0
I5
I163
I-1
t(dtRp139
satp140
sS'bowlingStats'
p141
((dp142
S'a'
F27.800000000000001
sS'b'
F576
sS'e'
F7.239583333333333
sS'i'
F25
sS'sr'
p143
F23.039999999999999
sS'5w'
p144
F0
sS'm'
F25
sS'maid'
p145
F1
sS'r'
F695
sS'w'
F25
sS'4w'
p146
F1
sS'bbir'
p147
F11
sS'bbiw'
p148
F4
sg32
F2014
sg29
F2010
s(lp149
(dp150
g35
I2
sS'b'
F23
sS'e'
F7.5652173913043477
sg38
I400
sS'pos'
p151
I3
sg145
F0
sS'r'
F29
sg39
S'Dhaka'
p152
sS'w'
F1
sg41
g42
((I2014
I4
I6
I0
I0
I0
I6
I96
I-1
t(dtRp153
sg36
S'Sri Lanka'
p154
sa(dp155
g35
I1
sS'b'
F24
sS'e'
F5.5
sg38
I399
sg151
I3
sg145
F0
sS'r'
F22
sg39
S'Dhaka'
p156
sS'w'
F3
sg41
g42
((I2014
I4
I4
I0
I0
I0
I4
I94
I-1
t(dtRp157
sg36
S'South Africa'
p158
sa(dp159
g35
I2
sS'b'
F20
sS'e'
F3.2999999999999998
sg38
I393
sg151
I3
sg145
F0
sS'r'
F11
sg39
S'Dhaka'
p160
sS'w'
F4
sg41
g42
((I2014
I3
I30
I0
I0
I0
I6
I89
I-1
t(dtRp161
sg36
S'Australia'
p162
sa(dp163
g35
I1
sS'b'
F24
sS'e'
F3.75
sg38
I389
sg151
I2
sg145
F0
sS'r'
F15
sg39
S'Dhaka'
p164
sS'w'
F2
sg41
g42
((I2014
I3
I28
I0
I0
I0
I4
I87
I-1
t(dtRp165
sg36
S'Bangladesh'
p166
sa(dp167
g35
I1
sS'b'
F24
sS'e'
F6
sg38
I382
sg151
I3
sg145
F0
sS'r'
F24
sg39
S'Dhaka'
p168
sS'w'
F1
sg41
g42
((I2014
I3
I23
I0
I0
I0
I6
I82
I-1
t(dtRp169
sg36
S'West Indies'
p170
sa(dp171
g35
I1
sS'b'
F24
sS'e'
F5.75
sg38
I378
sg151
I1
sg145
F0
sS'r'
F23
sg39
S'Dhaka'
p172
sS'w'
F0
sg41
g42
((I2014
I3
I21
I0
I0
I0
I4
I80
I-1
t(dtRp173
sg36
S'Pakistan'
p174
sa(dp175
g35
I1
sS'b'
F12
sS'e'
F20.5
sg38
I331
sg151
I3
sg145
F0
sS'r'
F41
sg39
S'Rajkot'
p176
sS'w'
F0
sg41
g42
((I2013
I10
I10
I0
I0
I0
I3
I283
I-1
t(dtRp177
sg36
S'Australia'
p178
sa(dp179
g35
I2
sS'b'
F24
sS'e'
F7
sg38
I298
sg151
I4
sg145
F0
sS'r'
F28
sg39
S'Ahmedabad'
p180
sS'w'
F1
sg41
g42
((I2012
I12
I28
I0
I0
I0
I4
I363
I-1
t(dtRp181
sg36
S'Pakistan'
p182
sa(dp183
g35
I2
sS'b'
F24
sS'e'
F9.5
sg38
I294
sg151
I3
sg145
F0
sS'r'
F38
sg39
S'Mumbai'
p184
sS'w'
F0
sg41
g42
((I2012
I12
I22
I0
I0
I0
I5
I357
I-1
t(dtRp185
sg36
S'England'
p186
sa(dp187
g35
I1
sS'b'
F24
sS'e'
F8.25
sg38
I292
sg151
I2
sg145
F1
sS'r'
F33
sg39
S'Pune'
p188
sS'w'
F1
sg41
g42
((I2012
I12
I20
I0
I0
I0
I3
I355
I-1
t(dtRp189
sg36
S'England'
p190
sa(dp191
g35
I2
sS'b'
F24
sS'e'
F6.75
sg38
I286
sg151
I5
sg145
F0
sS'r'
F27
sg39
S'Colombo (RPS)'
p192
sS'w'
F1
sg41
g42
((I2012
I10
I2
I0
I0
I0
I1
I276
I-1
t(dtRp193
sg36
S'South Africa'
p194
sa(dp195
g35
I1
sS'b'
F24
sS'e'
F4
sg38
I282
sg151
I4
sg145
F0
sS'r'
F16
sg39
S'Colombo (RPS)'
p196
sS'w'
F2
sg41
g42
((I2012
I9
I30
I0
I0
I0
I6
I274
I-1
t(dtRp197
sg36
S'Pakistan'
p198
sa(dp199
g35
I2
sS'b'
F23
sS'e'
F8.3478260869565215
sg38
I278
sg151
I1
sg145
F0
sS'r'
F32
sg39
S'Colombo (RPS)'
p200
sS'w'
F0
sg41
g42
((I2012
I9
I28
I0
I0
I0
I4
I272
I-1
t(dtRp201
sg36
S'Australia'
p202
sa(dp203
g35
I2
sS'b'
F24
sS'e'
F5
sg38
I265
sg151
I6
sg145
F0
sS'r'
F20
sg39
S'Colombo (RPS)'
p204
sS'w'
F2
sg41
g42
((I2012
I9
I19
I0
I0
I0
I2
I263
I-1
t(dtRp205
sg36
S'Afghanistan'
p206
sa(dp207
g35
I1
sS'b'
F18
sS'e'
F11.333333333333334
sg38
I261
sg151
I5
sg145
F0
sS'r'
F34
sg39
S'Chennai'
p208
sS'w'
F0
sg41
g42
((I2012
I9
I11
I0
I0
I0
I1
I255
I-1
t(dtRp209
sg36
S'New Zealand'
p210
sa(dp211
g35
I2
sS'b'
F24
sS'e'
F5.5
sg38
I255
sg151
I6
sg145
F0
sS'r'
F22
sg39
S'Pallekele'
p212
sS'w'
F1
sg41
g42
((I2012
I8
I7
I0
I0
I0
I1
I220
I-1
t(dtRp213
sg36
S'Sri Lanka'
p214
sa(dp215
g35
I1
sS'b'
F24
sS'e'
F8.25
sg38
I242
sg151
I4
sg145
F0
sS'r'
F33
sg39
S'Johannesburg'
p216
sS'w'
F1
sg41
g42
((I2012
I3
I30
I0
I0
I0
I4
I90
I-1
t(dtRp217
sg36
S'South Africa'
p218
sa(dp219
g35
I1
sS'b'
F24
sS'e'
F5.75
sg38
I218
sg151
I7
sg145
F0
sS'r'
F23
sg39
S'Melbourne'
p220
sS'w'
F0
sg41
g42
((I2012
I2
I3
I0
I0
I0
I4
I34
I-1
t(dtRp221
sg36
S'Australia'
p222
sa(dp223
g35
I1
sS'b'
F24
sS'e'
F8.5
sg38
I217
sg151
I1
sg145
F0
sS'r'
F34
sg39
S'Sydney'
p224
sS'w'
F1
sg41
g42
((I2012
I2
I1
I0
I0
I0
I2
I32
I-1
t(dtRp225
sg36
S'Australia'
p226
sa(dp227
g35
I2
sS'b'
F24
sS'e'
F5
sg38
I214
sg151
I1
sg145
F0
sS'r'
F20
sg39
S'Kolkata'
p228
sS'w'
F0
sg41
g42
((I2011
I10
I29
I0
I0
I0
I5
I302
I-1
t(dtRp229
sg36
S'England'
p230
sa(dp231
g35
I2
sS'b'
F24
sS'e'
F9.25
sg38
I204
sg151
I4
sg145
F0
sS'r'
F37
sg39
S'Manchester'
p232
sS'w'
F0
sg41
g42
((I2011
I8
I31
I0
I0
I0
I2
I243
I-1
t(dtRp233
sg36
S'England'
p234
sa(dp235
g35
I2
sS'b'
F24
sS'e'
F7.5
sg38
I200
sg151
I3
sg145
F0
sS'r'
F30
sg39
S'Port of Spain'
p236
sS'w'
F1
sg41
g42
((I2011
I6
I4
I0
I0
I0
I5
I155
I-1
t(dtRp237
sg36
S'West Indies'
p238
sa(dp239
g35
I2
sS'b'
F24
sS'e'
F8.25
sg38
I196
sg151
I4
sg145
F0
sS'r'
F33
sg39
S'Durban'
p240
sS'w'
F1
sg41
g42
((I2011
I1
I9
I0
I0
I0
I6
I9
I-1
t(dtRp241
sg36
S'South Africa'
p242
sa(dp243
g35
I1
sS'b'
F24
sS'e'
F12
sg38
I183
sg151
I5
sg145
F0
sS'r'
F48
sg39
S'Harare'
p244
sS'w'
F1
sg41
g42
((I2010
I6
I13
I0
I0
I0
I6
I164
I-1
t(dtRp245
sg36
S'Zimbabwe'
p246
sa(dp247
g35
I1
sS'b'
F24
sS'e'
F5.5
sg38
I182
sg151
I4
sg145
F0
sS'r'
F22
sg39
S'Harare'
p248
sS'w'
F1
sg41
g42
((I2010
I6
I12
I0
I0
I0
I5
I163
I-1
t(dtRp249
sg36
S'Zimbabwe'
p250
satp251
sS'battingStats'
p252
((dp253
S'a'
F27.5
sS'0s'
p254
F0
sS'b'
F47
sS'no'
p255
F4
sg29
F2010
sS'hs'
p256
F17
sS'm'
F25
sS'4s'
p257
F6
sg32
F2014
sS'i'
F6
sS'6s'
p258
F1
sg143
F117.02127659574468
sS'r'
F55
sS'100s'
p259
F0
sS'50s'
p260
F0
s(lp261
(dp262
g35
I1
sS'b'
F3
sg36
S'Australia'
p263
sg255
I01
sg143
F66.666666666666671
sg38
I393
sS'dismiss'
p264
S'not out'
p265
sg257
F0
sg151
I8
sg258
F0
sg39
S'Dhaka'
p266
sg41
g42
((I2014
I3
I30
I0
I0
I0
I6
I89
I-1
t(dtRp267
sS'r'
F2
sS'minutes'
p268
F5
sa(dp269
g35
I1
sS'b'
F3
sg36
S'England'
p270
sg143
F33.333333333333336
sg38
I294
sg264
S'caught'
p271
sg257
F0
sg151
I8
sg258
F0
sg39
S'Mumbai'
p272
sg41
g42
((I2012
I12
I22
I0
I0
I0
I5
I357
I-1
t(dtRp273
sS'r'
F1
sg268
F5
sa(dp274
g35
I1
sS'b'
F12
sg36
S'Australia'
p275
sg255
I01
sg143
F133.33333333333334
sg38
I278
sg264
S'not out'
p276
sg257
F1
sg151
I8
sg258
F1
sg39
S'Colombo (RPS)'
p277
sg41
g42
((I2012
I9
I28
I0
I0
I0
I4
I272
I-1
t(dtRp278
sS'r'
F16
sg268
F18
sa(dp279
g35
I2
sS'b'
F16
sg36
S'Australia'
p280
sg255
I01
sg143
F93.75
sg38
I217
sg264
S'not out'
p281
sg257
F1
sg151
I8
sg258
F0
sg39
S'Sydney'
p282
sg41
g42
((I2012
I2
I1
I0
I0
I0
I2
I32
I-1
t(dtRp283
sS'r'
F15
sg268
F30
sa(dp284
g35
I1
sS'b'
F11
sg36
S'England'
p285
sg255
I01
sg143
F154.54545454545453
sg38
I214
sg264
S'not out'
p286
sg257
F3
sg151
I10
sg258
F0
sg39
S'Kolkata'
p287
sg41
g42
((I2011
I10
I29
I0
I0
I0
I5
I302
I-1
t(dtRp288
sS'r'
F17
sg268
F14
sa(dp289
g35
I1
sS'b'
F2
sg36
S'England'
p290
sg143
F200
sg38
I204
sg264
S'run out'
p291
sg257
F1
sg151
I8
sg258
F0
sg39
S'Manchester'
p292
sg41
g42
((I2011
I8
I31
I0
I0
I0
I2
I243
I-1
t(dtRp293
sS'r'
F4
sg268
F1
satp294
ssS'all'
p295
(dp296
g26
(dp297
S'c'
F31
sg28
F0
sS'i'
F126
sS'm'
F126
sS's'
F0
sg30
F31
sg31
F31
ssg141
(dp298
S'a'
F23.287878787878789
sS'b'
F2759
sS'e'
F6.6850308082638641
sS'i'
F124
sg143
F20.901515151515152
sg144
F0
sS'm'
F126
sg145
F0
sS'r'
F3074
sS'w'
F132
sg146
F2
sg147
F11
sg148
F4
ssg252
(dp299
S'a'
F11.375
sg254
F-1
sS'b'
F251
sg255
F14
sS'i'
F38
sg256
F46
sS'm'
F126
sg257
F25
sg258
F7
sg143
F108.76494023904382
sS'r'
F273
sg259
F0
sg260
F0
ssssb.