(iplayer
Player
p1
(dp2
S'is_batsman'
p3
I01
sS'name'
p4
S'Virat Kohli'
p5
sS'dob'
p6
S'1988/11/05'
p7
sS'price'
p8
S'1050000'
p9
sS'is_allrounder'
p10
I00
sS'espnid'
p11
S'253802'
p12
sS'is_overseas'
p13
I00
sS'team'
p14
S'RCB'
p15
sS'nationality'
p16
S'Indian'
p17
sS'is_bowler'
p18
I00
sS'is_keeper'
p19
I00
sS'id'
p20
S'164'
p21
sS'is_uncapped'
p22
I00
sS'tournamentStats'
p23
(dp24
S'international'
p25
(dp26
S'fieldingStats'
p27
((dp28
S'c'
F13
sS'ctw'
p29
F0
sS'span_s'
p30
F2010
sS'm'
F27
sS's'
F0
sS'dismissals'
p31
F13
sS'i'
F27
sS'ctf'
p32
F13
sS'span_f'
p33
F2014
s(lp34
(dp35
S'inning'
p36
I2
sS'c'
F1
sg29
F0
sS'opp'
p37
S'Sri Lanka'
p38
sS't20i_num'
p39
I400
sg32
F1
sg31
F1
sS's'
F0
sS'place'
p40
S'Dhaka'
p41
sS'date'
p42
ctime
struct_time
p43
((I2014
I4
I6
I0
I0
I0
I6
I96
I-1
t(dtRp44
sa(dp45
g36
I1
sS'c'
F0
sg29
F0
sg37
S'South Africa'
p46
sg39
I399
sg32
F0
sg31
F0
sS's'
F0
sg40
S'Dhaka'
p47
sg42
g43
((I2014
I4
I4
I0
I0
I0
I4
I94
I-1
t(dtRp48
sa(dp49
g36
I2
sS'c'
F2
sg29
F0
sg37
S'Australia'
p50
sg39
I393
sg32
F2
sg31
F2
sS's'
F0
sg40
S'Dhaka'
p51
sg42
g43
((I2014
I3
I30
I0
I0
I0
I6
I89
I-1
t(dtRp52
sa(dp53
g36
I1
sS'c'
F1
sg29
F0
sg37
S'Bangladesh'
p54
sg39
I389
sg32
F1
sg31
F1
sS's'
F0
sg40
S'Dhaka'
p55
sg42
g43
((I2014
I3
I28
I0
I0
I0
I4
I87
I-1
t(dtRp56
sa(dp57
g36
I1
sS'c'
F1
sg29
F0
sg37
S'West Indies'
p58
sg39
I382
sg32
F1
sg31
F1
sS's'
F0
sg40
S'Dhaka'
p59
sg42
g43
((I2014
I3
I23
I0
I0
I0
I6
I82
I-1
t(dtRp60
sa(dp61
g36
I1
sS'c'
F0
sg29
F0
sg37
S'Pakistan'
p62
sg39
I378
sg32
F0
sg31
F0
sS's'
F0
sg40
S'Dhaka'
p63
sg42
g43
((I2014
I3
I21
I0
I0
I0
I4
I80
I-1
t(dtRp64
sa(dp65
g36
I1
sS'c'
F0
sg29
F0
sg37
S'Australia'
p66
sg39
I331
sg32
F0
sg31
F0
sS's'
F0
sg40
S'Rajkot'
p67
sg42
g43
((I2013
I10
I10
I0
I0
I0
I3
I283
I-1
t(dtRp68
sa(dp69
g36
I2
sS'c'
F2
sg29
F0
sg37
S'Pakistan'
p70
sg39
I298
sg32
F2
sg31
F2
sS's'
F0
sg40
S'Ahmedabad'
p71
sg42
g43
((I2012
I12
I28
I0
I0
I0
I4
I363
I-1
t(dtRp72
sa(dp73
g36
I2
sS'c'
F0
sg29
F0
sg37
S'Pakistan'
p74
sg39
I296
sg32
F0
sg31
F0
sS's'
F0
sg40
S'Bangalore'
p75
sg42
g43
((I2012
I12
I25
I0
I0
I0
I1
I360
I-1
t(dtRp76
sa(dp77
g36
I2
sS'c'
F0
sg29
F0
sg37
S'England'
p78
sg39
I294
sg32
F0
sg31
F0
sS's'
F0
sg40
S'Mumbai'
p79
sg42
g43
((I2012
I12
I22
I0
I0
I0
I5
I357
I-1
t(dtRp80
sa(dp81
g36
I1
sS'c'
F1
sg29
F0
sg37
S'England'
p82
sg39
I292
sg32
F1
sg31
F1
sS's'
F0
sg40
S'Pune'
p83
sg42
g43
((I2012
I12
I20
I0
I0
I0
I3
I355
I-1
t(dtRp84
sa(dp85
g36
I2
sS'c'
F0
sg29
F0
sg37
S'South Africa'
p86
sg39
I286
sg32
F0
sg31
F0
sS's'
F0
sg40
S'Colombo (RPS)'
p87
sg42
g43
((I2012
I10
I2
I0
I0
I0
I1
I276
I-1
t(dtRp88
sa(dp89
g36
I1
sS'c'
F0
sg29
F0
sg37
S'Pakistan'
p90
sg39
I282
sg32
F0
sg31
F0
sS's'
F0
sg40
S'Colombo (RPS)'
p91
sg42
g43
((I2012
I9
I30
I0
I0
I0
I6
I274
I-1
t(dtRp92
sa(dp93
g36
I2
sS'c'
F0
sg29
F0
sg37
S'Australia'
p94
sg39
I278
sg32
F0
sg31
F0
sS's'
F0
sg40
S'Colombo (RPS)'
p95
sg42
g43
((I2012
I9
I28
I0
I0
I0
I4
I272
I-1
t(dtRp96
sa(dp97
g36
I2
sS'c'
F1
sg29
F0
sg37
S'England'
p98
sg39
I272
sg32
F1
sg31
F1
sS's'
F0
sg40
S'Colombo (RPS)'
p99
sg42
g43
((I2012
I9
I23
I0
I0
I0
I6
I267
I-1
t(dtRp100
sa(dp101
g36
I2
sS'c'
F0
sg29
F0
sg37
S'Afghanistan'
p102
sg39
I265
sg32
F0
sg31
F0
sS's'
F0
sg40
S'Colombo (RPS)'
p103
sg42
g43
((I2012
I9
I19
I0
I0
I0
I2
I263
I-1
t(dtRp104
sa(dp105
g36
I1
sS'c'
F0
sg29
F0
sg37
S'New Zealand'
p106
sg39
I261
sg32
F0
sg31
F0
sS's'
F0
sg40
S'Chennai'
p107
sg42
g43
((I2012
I9
I11
I0
I0
I0
I1
I255
I-1
t(dtRp108
sa(dp109
g36
I2
sS'c'
F1
sg29
F0
sg37
S'Sri Lanka'
p110
sg39
I255
sg32
F1
sg31
F1
sS's'
F0
sg40
S'Pallekele'
p111
sg42
g43
((I2012
I8
I7
I0
I0
I0
I1
I220
I-1
t(dtRp112
sa(dp113
g36
I1
sS'c'
F0
sg29
F0
sg37
S'South Africa'
p114
sg39
I242
sg32
F0
sg31
F0
sS's'
F0
sg40
S'Johannesburg'
p115
sg42
g43
((I2012
I3
I30
I0
I0
I0
I4
I90
I-1
t(dtRp116
sa(dp117
g36
I1
sS'c'
F0
sg29
F0
sg37
S'Australia'
p118
sg39
I218
sg32
F0
sg31
F0
sS's'
F0
sg40
S'Melbourne'
p119
sg42
g43
((I2012
I2
I3
I0
I0
I0
I4
I34
I-1
t(dtRp120
sa(dp121
g36
I1
sS'c'
F0
sg29
F0
sg37
S'Australia'
p122
sg39
I217
sg32
F0
sg31
F0
sS's'
F0
sg40
S'Sydney'
p123
sg42
g43
((I2012
I2
I1
I0
I0
I0
I2
I32
I-1
t(dtRp124
sa(dp125
g36
I2
sS'c'
F0
sg29
F0
sg37
S'England'
p126
sg39
I214
sg32
F0
sg31
F0
sS's'
F0
sg40
S'Kolkata'
p127
sg42
g43
((I2011
I10
I29
I0
I0
I0
I5
I302
I-1
t(dtRp128
sa(dp129
g36
I2
sS'c'
F0
sg29
F0
sg37
S'England'
p130
sg39
I204
sg32
F0
sg31
F0
sS's'
F0
sg40
S'Manchester'
p131
sg42
g43
((I2011
I8
I31
I0
I0
I0
I2
I243
I-1
t(dtRp132
sa(dp133
g36
I2
sS'c'
F2
sg29
F0
sg37
S'West Indies'
p134
sg39
I200
sg32
F2
sg31
F2
sS's'
F0
sg40
S'Port of Spain'
p135
sg42
g43
((I2011
I6
I4
I0
I0
I0
I5
I155
I-1
t(dtRp136
sa(dp137
g36
I2
sS'c'
F1
sg29
F0
sg37
S'South Africa'
p138
sg39
I196
sg32
F1
sg31
F1
sS's'
F0
sg40
S'Durban'
p139
sg42
g43
((I2011
I1
I9
I0
I0
I0
I6
I9
I-1
t(dtRp140
sa(dp141
g36
I1
sS'c'
F0
sg29
F0
sg37
S'Zimbabwe'
p142
sg39
I183
sg32
F0
sg31
F0
sS's'
F0
sg40
S'Harare'
p143
sg42
g43
((I2010
I6
I13
I0
I0
I0
I6
I164
I-1
t(dtRp144
sa(dp145
g36
I1
sS'c'
F0
sg29
F0
sg37
S'Zimbabwe'
p146
sg39
I182
sg32
F0
sg31
F0
sS's'
F0
sg40
S'Harare'
p147
sg42
g43
((I2010
I6
I12
I0
I0
I0
I5
I163
I-1
t(dtRp148
satp149
sS'bowlingStats'
p150
((dp151
S'a'
F61
sS'b'
F136
sS'e'
F8.0735294117647065
sS'i'
F11
sS'sr'
p152
F45.333333333333336
sS'5w'
p153
F0
sS'm'
F27
sS'maid'
p154
F0
sS'r'
F183
sS'w'
F3
sS'4w'
p155
F0
sS'bbir'
p156
F13
sS'bbiw'
p157
F1
sg33
F2014
sg30
F2010
s(lp158
(dp159
g36
I1
sS'b'
F12
sS'e'
F12
sg39
I331
sS'pos'
p160
I6
sg154
F0
sS'r'
F24
sg40
S'Rajkot'
p161
sS'w'
F0
sg42
g43
((I2013
I10
I10
I0
I0
I0
I3
I283
I-1
t(dtRp162
sg37
S'Australia'
p163
sa(dp164
g36
I2
sS'b'
F12
sS'e'
F10.5
sg39
I296
sg160
I4
sg154
F0
sS'r'
F21
sg40
S'Bangalore'
p165
sS'w'
F0
sg42
g43
((I2012
I12
I25
I0
I0
I0
I1
I360
I-1
t(dtRp166
sg37
S'Pakistan'
p167
sa(dp168
g36
I1
sS'b'
F6
sS'e'
F10
sg39
I292
sg160
I6
sg154
F0
sS'r'
F10
sg40
S'Pune'
p169
sS'w'
F0
sg42
g43
((I2012
I12
I20
I0
I0
I0
I3
I355
I-1
t(dtRp170
sg37
S'England'
p171
sa(dp172
g36
I1
sS'b'
F18
sS'e'
F7
sg39
I282
sg160
I6
sg154
F0
sS'r'
F21
sg40
S'Colombo (RPS)'
p173
sS'w'
F1
sg42
g43
((I2012
I9
I30
I0
I0
I0
I6
I274
I-1
t(dtRp174
sg37
S'Pakistan'
p175
sa(dp176
g36
I2
sS'b'
F6
sS'e'
F10
sg39
I278
sg160
I6
sg154
F0
sS'r'
F10
sg40
S'Colombo (RPS)'
p177
sS'w'
F0
sg42
g43
((I2012
I9
I28
I0
I0
I0
I4
I272
I-1
t(dtRp178
sg37
S'Australia'
p179
sa(dp180
g36
I1
sS'b'
F18
sS'e'
F9
sg39
I261
sg160
I6
sg154
F0
sS'r'
F27
sg40
S'Chennai'
p181
sS'w'
F0
sg42
g43
((I2012
I9
I11
I0
I0
I0
I1
I255
I-1
t(dtRp182
sg37
S'New Zealand'
p183
sa(dp184
g36
I2
sS'b'
F18
sS'e'
F4.333333333333333
sg39
I255
sg160
I4
sg154
F0
sS'r'
F13
sg40
S'Pallekele'
p185
sS'w'
F0
sg42
g43
((I2012
I8
I7
I0
I0
I0
I1
I220
I-1
t(dtRp186
sg37
S'Sri Lanka'
p187
sa(dp188
g36
I1
sS'b'
F6
sS'e'
F15
sg39
I242
sg160
I8
sg154
F0
sS'r'
F15
sg40
S'Johannesburg'
p189
sS'w'
F0
sg42
g43
((I2012
I3
I30
I0
I0
I0
I4
I90
I-1
t(dtRp190
sg37
S'South Africa'
p191
sa(dp192
g36
I1
sS'b'
F6
sS'e'
F7
sg39
I218
sg160
I3
sg154
F0
sS'r'
F7
sg40
S'Melbourne'
p193
sS'w'
F0
sg42
g43
((I2012
I2
I3
I0
I0
I0
I4
I34
I-1
t(dtRp194
sg37
S'Australia'
p195
sa(dp196
g36
I2
sS'b'
F16
sS'e'
F4.875
sg39
I214
sg160
I6
sg154
F0
sS'r'
F13
sg40
S'Kolkata'
p197
sS'w'
F1
sg42
g43
((I2011
I10
I29
I0
I0
I0
I5
I302
I-1
t(dtRp198
sg37
S'England'
p199
sa(dp200
g36
I2
sS'b'
F18
sS'e'
F7.333333333333333
sg39
I204
sg160
I5
sg154
F0
sS'r'
F22
sg40
S'Manchester'
p201
sS'w'
F1
sg42
g43
((I2011
I8
I31
I0
I0
I0
I2
I243
I-1
t(dtRp202
sg37
S'England'
p203
satp204
sS'battingStats'
p205
((dp206
S'a'
F45.299999999999997
sS'0s'
p207
F0
sS'b'
F697
sS'no'
p208
F5
sg30
F2010
sS'hs'
p209
F78
sS'm'
F27
sS'4s'
p210
F96
sg33
F2014
sS'i'
F25
sS'6s'
p211
F19
sg152
F129.98565279770446
sS'r'
F906
sS'100s'
p212
F0
sS'50s'
p213
F8
s(lp214
(dp215
g36
I1
sS'b'
F58
sg37
S'Sri Lanka'
p216
sg152
F132.75862068965517
sg39
I400
sS'dismiss'
p217
S'run out'
p218
sg210
F5
sg160
I3
sg211
F4
sg40
S'Dhaka'
p219
sg42
g43
((I2014
I4
I6
I0
I0
I0
I6
I96
I-1
t(dtRp220
sS'r'
F77
sS'minutes'
p221
F75
sa(dp222
g36
I2
sS'b'
F44
sg37
S'South Africa'
p223
sg208
I01
sg152
F163.63636363636363
sg39
I399
sg217
S'not out'
p224
sg210
F5
sg160
I3
sg211
F2
sg40
S'Dhaka'
p225
sg42
g43
((I2014
I4
I4
I0
I0
I0
I4
I94
I-1
t(dtRp226
sS'r'
F72
sg221
F67
sa(dp227
g36
I1
sS'b'
F22
sg37
S'Australia'
p228
sg152
F104.54545454545455
sg39
I393
sg217
S'caught'
p229
sg210
F2
sg160
I3
sg211
F1
sg40
S'Dhaka'
p230
sg42
g43
((I2014
I3
I30
I0
I0
I0
I6
I89
I-1
t(dtRp231
sS'r'
F23
sg221
F23
sa(dp232
g36
I2
sS'b'
F50
sg37
S'Bangladesh'
p233
sg208
I01
sg152
F114
sg39
I389
sg217
S'not out'
p234
sg210
F3
sg160
I3
sg211
F1
sg40
S'Dhaka'
p235
sg42
g43
((I2014
I3
I28
I0
I0
I0
I4
I87
I-1
t(dtRp236
sS'r'
F57
sg221
F66
sa(dp237
g36
I2
sS'b'
F41
sg37
S'West Indies'
p238
sg152
F131.70731707317074
sg39
I382
sg217
S'bowled'
p239
sg210
F5
sg160
I3
sg211
F1
sg40
S'Dhaka'
p240
sg42
g43
((I2014
I3
I23
I0
I0
I0
I6
I82
I-1
t(dtRp241
sS'r'
F54
sg221
F51
sa(dp242
g36
I2
sS'b'
F32
sg37
S'Pakistan'
p243
sg208
I01
sg152
F112.5
sg39
I378
sg217
S'not out'
p244
sg210
F4
sg160
I3
sg211
F1
sg40
S'Dhaka'
p245
sg42
g43
((I2014
I3
I21
I0
I0
I0
I4
I80
I-1
t(dtRp246
sS'r'
F36
sg221
F45
sa(dp247
g36
I2
sS'b'
F22
sg37
S'Australia'
p248
sg152
F131.81818181818181
sg39
I331
sg217
S'caught'
p249
sg210
F2
sg160
I4
sg211
F1
sg40
S'Rajkot'
p250
sg42
g43
((I2013
I10
I10
I0
I0
I0
I3
I283
I-1
t(dtRp251
sS'r'
F29
sg221
F26
sa(dp252
g36
I1
sS'b'
F22
sg37
S'Pakistan'
p253
sg152
F122.72727272727273
sg39
I298
sg217
S'run out'
p254
sg210
F3
sg160
I3
sg211
F0
sg40
S'Ahmedabad'
p255
sg42
g43
((I2012
I12
I28
I0
I0
I0
I4
I363
I-1
t(dtRp256
sS'r'
F27
sg221
F31
sa(dp257
g36
I1
sS'b'
F11
sg37
S'Pakistan'
p258
sg152
F81.818181818181813
sg39
I296
sg217
S'caught'
p259
sg210
F1
sg160
I3
sg211
F0
sg40
S'Bangalore'
p260
sg42
g43
((I2012
I12
I25
I0
I0
I0
I1
I360
I-1
t(dtRp261
sS'r'
F9
sg221
F15
sa(dp262
g36
I1
sS'b'
F20
sg37
S'England'
p263
sg152
F190
sg39
I294
sg217
S'lbw'
p264
sg210
F7
sg160
I3
sg211
F0
sg40
S'Mumbai'
p265
sg42
g43
((I2012
I12
I22
I0
I0
I0
I5
I357
I-1
t(dtRp266
sS'r'
F38
sg221
F25
sa(dp267
g36
I2
sS'b'
F17
sg37
S'England'
p268
sg152
F123.52941176470588
sg39
I292
sg217
S'bowled'
p269
sg210
F2
sg160
I3
sg211
F0
sg40
S'Pune'
p270
sg42
g43
((I2012
I12
I20
I0
I0
I0
I3
I355
I-1
t(dtRp271
sS'r'
F21
sg221
F35
sa(dp272
g36
I1
sS'b'
F6
sg37
S'South Africa'
p273
sg152
F33.333333333333336
sg39
I286
sg217
S'caught'
p274
sg210
F0
sg160
I3
sg211
F0
sg40
S'Colombo (RPS)'
p275
sg42
g43
((I2012
I10
I2
I0
I0
I0
I1
I276
I-1
t(dtRp276
sS'r'
F2
sg221
F5
sa(dp277
g36
I2
sS'b'
F61
sg37
S'Pakistan'
p278
sg208
I01
sg152
F127.8688524590164
sg39
I282
sg217
S'not out'
p279
sg210
F8
sg160
I3
sg211
F2
sg40
S'Colombo (RPS)'
p280
sg42
g43
((I2012
I9
I30
I0
I0
I0
I6
I274
I-1
t(dtRp281
sS'r'
F78
sg221
F61
sa(dp282
g36
I1
sS'b'
F13
sg37
S'Australia'
p283
sg152
F115.38461538461539
sg39
I278
sg217
S'caught'
p284
sg210
F2
sg160
I3
sg211
F0
sg40
S'Colombo (RPS)'
p285
sg42
g43
((I2012
I9
I28
I0
I0
I0
I4
I272
I-1
t(dtRp286
sS'r'
F15
sg221
F18
sa(dp287
g36
I1
sS'b'
F32
sg37
S'England'
p288
sg152
F125
sg39
I272
sg217
S'caught'
p289
sg210
F6
sg160
I3
sg211
F0
sg40
S'Colombo (RPS)'
p290
sg42
g43
((I2012
I9
I23
I0
I0
I0
I6
I267
I-1
t(dtRp291
sS'r'
F40
sg221
F33
sa(dp292
g36
I1
sS'b'
F39
sg37
S'Afghanistan'
p293
sg152
F128.2051282051282
sg39
I265
sg217
S'caught'
p294
sg210
F4
sg160
I3
sg211
F2
sg40
S'Colombo (RPS)'
p295
sg42
g43
((I2012
I9
I19
I0
I0
I0
I2
I263
I-1
t(dtRp296
sS'r'
F50
sg221
F60
sa(dp297
g36
I2
sS'b'
F41
sg37
S'New Zealand'
p298
sg152
F170.73170731707316
sg39
I261
sg217
S'caught'
p299
sg210
F10
sg160
I2
sg211
F1
sg40
S'Chennai'
p300
sg42
g43
((I2012
I9
I11
I0
I0
I0
I1
I255
I-1
t(dtRp301
sS'r'
F70
sg221
F67
sa(dp302
g36
I1
sS'b'
F48
sg37
S'Sri Lanka'
p303
sg152
F141.66666666666666
sg39
I255
sg217
S'caught'
p304
sg210
F11
sg160
I3
sg211
F1
sg40
S'Pallekele'
p305
sg42
g43
((I2012
I8
I7
I0
I0
I0
I1
I220
I-1
t(dtRp306
sS'r'
F68
sg221
F65
sa(dp307
g36
I2
sS'b'
F24
sg37
S'Australia'
p308
sg152
F129.16666666666666
sg39
I218
sg217
S'caught'
p309
sg210
F3
sg160
I3
sg211
F0
sg40
S'Melbourne'
p310
sg42
g43
((I2012
I2
I3
I0
I0
I0
I4
I34
I-1
t(dtRp311
sS'r'
F31
sg221
F29
sa(dp312
g36
I2
sS'b'
F21
sg37
S'Australia'
p313
sg152
F104.76190476190476
sg39
I217
sg217
S'caught'
p314
sg210
F0
sg160
I3
sg211
F1
sg40
S'Sydney'
p315
sg42
g43
((I2012
I2
I1
I0
I0
I0
I2
I32
I-1
t(dtRp316
sS'r'
F22
sg221
F30
sa(dp317
g36
I1
sS'b'
F16
sg37
S'England'
p318
sg152
F93.75
sg39
I214
sg217
S'caught'
p319
sg210
F3
sg160
I3
sg211
F0
sg40
S'Kolkata'
p320
sg42
g43
((I2011
I10
I29
I0
I0
I0
I5
I302
I-1
t(dtRp321
sS'r'
F15
sg221
F21
sa(dp322
g36
I1
sS'b'
F5
sg37
S'England'
p323
sg152
F80
sg39
I204
sg217
S'caught'
p324
sg210
F0
sg160
I4
sg211
F0
sg40
S'Manchester'
p325
sg42
g43
((I2011
I8
I31
I0
I0
I0
I2
I243
I-1
t(dtRp326
sS'r'
F4
sg221
F5
sa(dp327
g36
I1
sS'b'
F12
sg37
S'West Indies'
p328
sg152
F116.66666666666667
sg39
I200
sg217
S'caught'
p329
sg210
F2
sg160
I3
sg211
F0
sg40
S'Port of Spain'
p330
sg42
g43
((I2011
I6
I4
I0
I0
I0
I5
I155
I-1
t(dtRp331
sS'r'
F14
sg221
F15
sa(dp332
g36
I1
sS'b'
F19
sg37
S'South Africa'
p333
sg152
F147.36842105263159
sg39
I196
sg217
S'bowled'
p334
sg210
F5
sg160
I1
sg211
F0
sg40
S'Durban'
p335
sg42
g43
((I2011
I1
I9
I0
I0
I0
I6
I9
I-1
t(dtRp336
sS'r'
F28
sg221
F28
sa(dp337
g36
I2
sS'b'
F21
sg37
S'Zimbabwe'
p338
sg208
I01
sg152
F123.80952380952381
sg39
I182
sg217
S'not out'
p339
sg210
F3
sg160
I5
sg211
F1
sg40
S'Harare'
p340
sg42
g43
((I2010
I6
I12
I0
I0
I0
I5
I163
I-1
t(dtRp341
sS'r'
F26
sg221
F30
satp342
ssS'all'
p343
(dp344
g27
(dp345
S'c'
F62
sg29
F0
sS'i'
F142
sS'm'
F142
sS's'
F0
sg31
F62
sg32
F62
ssg150
(dp346
S'a'
F89
sS'b'
F427
sS'e'
F8.7540983606557372
sS'i'
F40
sg152
F61
sg153
F0
sS'm'
F142
sg154
F0
sS'r'
F623
sS'w'
F7
sg155
F0
sg156
F25
sg157
F2
ssg205
(dp347
S'a'
F35.209090909090911
sg207
F-1
sS'b'
F3009
sg208
F21
sS'i'
F131
sg209
F99
sS'm'
F142
sg210
F384
sg211
F110
sg152
F128.71385842472583
sS'r'
F3873
sg212
F0
sg213
F26
ssssb.