(iplayer
Player
p1
(dp2
S'is_batsman'
p3
I01
sS'name'
p4
S'Ajinkya Rahane'
p5
sS'dob'
p6
S'1988/06/05'
p7
sS'price'
p8
S'900000'
p9
sS'is_allrounder'
p10
I00
sS'espnid'
p11
S'277916'
p12
sS'is_overseas'
p13
I00
sS'team'
p14
S'RR'
p15
sS'nationality'
p16
S'Indian'
p17
sS'is_bowler'
p18
I00
sS'is_keeper'
p19
I00
sS'id'
p20
S'135'
p21
sS'is_uncapped'
p22
I00
sS'tournamentStats'
p23
(dp24
S'international'
p25
(dp26
S'fieldingStats'
p27
((dp28
S'c'
F7
sS'ctw'
p29
F0
sS'span_s'
p30
F2011
sS'm'
F10
sS's'
F0
sS'dismissals'
p31
F7
sS'i'
F10
sS'ctf'
p32
F7
sS'span_f'
p33
F2014
s(lp34
(dp35
S'inning'
p36
I2
sS'c'
F0
sg29
F0
sS'opp'
p37
S'Sri Lanka'
p38
sS't20i_num'
p39
I400
sg32
F0
sg31
F0
sS's'
F0
sS'place'
p40
S'Dhaka'
p41
sS'date'
p42
ctime
struct_time
p43
((I2014
I4
I6
I0
I0
I0
I6
I96
I-1
t(dtRp44
sa(dp45
g36
I1
sS'c'
F0
sg29
F0
sg37
S'South Africa'
p46
sg39
I399
sg32
F0
sg31
F0
sS's'
F0
sg40
S'Dhaka'
p47
sg42
g43
((I2014
I4
I4
I0
I0
I0
I4
I94
I-1
t(dtRp48
sa(dp49
g36
I2
sS'c'
F1
sg29
F0
sg37
S'Australia'
p50
sg39
I393
sg32
F1
sg31
F1
sS's'
F0
sg40
S'Dhaka'
p51
sg42
g43
((I2014
I3
I30
I0
I0
I0
I6
I89
I-1
t(dtRp52
sa(dp53
g36
I2
sS'c'
F1
sg29
F0
sg37
S'Pakistan'
p54
sg39
I298
sg32
F1
sg31
F1
sS's'
F0
sg40
S'Ahmedabad'
p55
sg42
g43
((I2012
I12
I28
I0
I0
I0
I4
I363
I-1
t(dtRp56
sa(dp57
g36
I2
sS'c'
F0
sg29
F0
sg37
S'Pakistan'
p58
sg39
I296
sg32
F0
sg31
F0
sS's'
F0
sg40
S'Bangalore'
p59
sg42
g43
((I2012
I12
I25
I0
I0
I0
I1
I360
I-1
t(dtRp60
sa(dp61
g36
I2
sS'c'
F0
sg29
F0
sg37
S'England'
p62
sg39
I294
sg32
F0
sg31
F0
sS's'
F0
sg40
S'Mumbai'
p63
sg42
g43
((I2012
I12
I22
I0
I0
I0
I5
I357
I-1
t(dtRp64
sa(dp65
g36
I1
sS'c'
F3
sg29
F0
sg37
S'England'
p66
sg39
I292
sg32
F3
sg31
F3
sS's'
F0
sg40
S'Pune'
p67
sg42
g43
((I2012
I12
I20
I0
I0
I0
I3
I355
I-1
t(dtRp68
sa(dp69
g36
I2
sS'c'
F1
sg29
F0
sg37
S'Sri Lanka'
p70
sg39
I255
sg32
F1
sg31
F1
sS's'
F0
sg40
S'Pallekele'
p71
sg42
g43
((I2012
I8
I7
I0
I0
I0
I1
I220
I-1
t(dtRp72
sa(dp73
g36
I2
sS'c'
F1
sg29
F0
sg37
S'England'
p74
sg39
I214
sg32
F1
sg31
F1
sS's'
F0
sg40
S'Kolkata'
p75
sg42
g43
((I2011
I10
I29
I0
I0
I0
I5
I302
I-1
t(dtRp76
sa(dp77
g36
I2
sS'c'
F0
sg29
F0
sg37
S'England'
p78
sg39
I204
sg32
F0
sg31
F0
sS's'
F0
sg40
S'Manchester'
p79
sg42
g43
((I2011
I8
I31
I0
I0
I0
I2
I243
I-1
t(dtRp80
satp81
sS'bowlingStats'
p82
((dp83
S'a'
F-1
sS'b'
F0
sS'e'
F-1
sS'i'
F0
sS'sr'
p84
F-1
sS'5w'
p85
F0
sS'm'
F10
sS'maid'
p86
F0
sS'r'
F0
sS'w'
F0
sS'4w'
p87
F0
sS'bbir'
p88
F-1
sS'bbiw'
p89
F-1
sg33
F2014
sg30
F2011
s(ltp90
sS'battingStats'
p91
((dp92
S'a'
F22.800000000000001
sS'0s'
p93
F1
sS'b'
F196
sS'no'
p94
F0
sg30
F2011
sS'hs'
p95
F61
sS'm'
F10
sS'4s'
p96
F21
sg33
F2014
sS'i'
F10
sS'6s'
p97
F5
sg84
F116.32653061224489
sS'r'
F228
sS'100s'
p98
F0
sS'50s'
p99
F1
s(lp100
(dp101
g36
I1
sS'b'
F8
sg37
S'Sri Lanka'
p102
sg84
F37.5
sg39
I400
sS'dismiss'
p103
S'bowled'
p104
sg96
F0
sS'pos'
p105
I2
sg97
F0
sg40
S'Dhaka'
p106
sg42
g43
((I2014
I4
I6
I0
I0
I0
I6
I96
I-1
t(dtRp107
sS'r'
F3
sS'minutes'
p108
F6
sa(dp109
g36
I2
sS'b'
F30
sg37
S'South Africa'
p110
sg84
F106.66666666666667
sg39
I399
sg103
S'caught'
p111
sg96
F2
sg105
I2
sg97
F1
sg40
S'Dhaka'
p112
sg42
g43
((I2014
I4
I4
I0
I0
I0
I4
I94
I-1
t(dtRp113
sS'r'
F32
sg108
F41
sa(dp114
g36
I1
sS'b'
F16
sg37
S'Australia'
p115
sg84
F118.75
sg39
I393
sg103
S'caught'
p116
sg96
F2
sg105
I2
sg97
F0
sg40
S'Dhaka'
p117
sg42
g43
((I2014
I3
I30
I0
I0
I0
I6
I89
I-1
t(dtRp118
sS'r'
F19
sg108
F34
sa(dp119
g36
I1
sS'b'
F26
sg37
S'Pakistan'
p120
sg84
F107.69230769230769
sg39
I298
sg103
S'caught'
p121
sg96
F4
sg105
I2
sg97
F0
sg40
S'Ahmedabad'
p122
sg42
g43
((I2012
I12
I28
I0
I0
I0
I4
I363
I-1
t(dtRp123
sS'r'
F28
sg108
F31
sa(dp124
g36
I1
sS'b'
F31
sg37
S'Pakistan'
p125
sg84
F135.48387096774192
sg39
I296
sg103
S'caught'
p126
sg96
F5
sg105
I2
sg97
F1
sg40
S'Bangalore'
p127
sg42
g43
((I2012
I12
I25
I0
I0
I0
I1
I360
I-1
t(dtRp128
sS'r'
F42
sg108
F43
sa(dp129
g36
I1
sS'b'
F5
sg37
S'England'
p130
sg84
F60
sg39
I294
sg103
S'caught'
p131
sg96
F0
sg105
I2
sg97
F0
sg40
S'Mumbai'
p132
sg42
g43
((I2012
I12
I22
I0
I0
I0
I5
I357
I-1
t(dtRp133
sS'r'
F3
sg108
F8
sa(dp134
g36
I2
sS'b'
F13
sg37
S'England'
p135
sg84
F146.15384615384616
sg39
I292
sg103
S'caught'
p136
sg96
F0
sg105
I2
sg97
F2
sg40
S'Pune'
p137
sg42
g43
((I2012
I12
I20
I0
I0
I0
I3
I355
I-1
t(dtRp138
sS'r'
F19
sg108
F25
sa(dp139
g36
I1
sS'b'
F25
sg37
S'Sri Lanka'
p140
sg84
F84
sg39
I255
sg103
S'caught'
p141
sg96
F0
sg105
I2
sg97
F1
sg40
S'Pallekele'
p142
sg42
g43
((I2012
I8
I7
I0
I0
I0
I1
I220
I-1
t(dtRp143
sS'r'
F21
sg108
F46
sa(dp144
g36
I1
sS'b'
F3
sg37
S'England'
p145
sg84
F0
sg39
I214
sg103
S'caught'
p146
sg96
F0
sg105
I2
sg97
F0
sg40
S'Kolkata'
p147
sg42
g43
((I2011
I10
I29
I0
I0
I0
I5
I302
I-1
t(dtRp148
sS'r'
F0
sg108
F2
sa(dp149
g36
I1
sS'b'
F39
sg37
S'England'
p150
sg84
F156.41025641025641
sg39
I204
sg103
S'caught'
p151
sg96
F8
sg105
I2
sg97
F0
sg40
S'Manchester'
p152
sg42
g43
((I2011
I8
I31
I0
I0
I0
I2
I243
I-1
t(dtRp153
sS'r'
F61
sg108
F49
satp154
ssS'all'
p155
(dp156
g27
(dp157
S'c'
F37
sg29
F0
sS'i'
F92
sS'm'
F92
sS's'
F0
sg31
F37
sg32
F37
ssg82
(dp158
S'a'
F5
sS'b'
F6
sS'e'
F5
sS'i'
F1
sg84
F6
sg85
F0
sS'm'
F92
sg86
F0
sS'r'
F5
sS'w'
F1
sg87
F0
sg88
F5
sg89
F1
ssg91
(dp159
S'a'
F27.897435897435898
sg93
F-1
sS'b'
F1891
sg94
F10
sS'i'
F88
sg95
F103
sS'm'
F92
sg96
F222
sg97
F43
sg84
F115.0713907985193
sS'r'
F2176
sg98
F1
sg99
F17
ssssb.