(iplayer
Player
p1
(dp2
S'is_batsman'
p3
I00
sS'name'
p4
S'Shardul Thakur'
p5
sS'dob'
p6
S'1991/10/16'
p7
sS'price'
p8
S'600000'
p9
sS'is_allrounder'
p10
I00
sS'espnid'
p11
S'475281'
p12
sS'is_overseas'
p13
I00
sS'team'
p14
S'KXIP'
p15
sS'nationality'
p16
S'Indian'
p17
sS'is_bowler'
p18
I01
sS'is_keeper'
p19
I00
sS'id'
p20
S'1745'
p21
sS'is_uncapped'
p22
I01
sS'tournamentStats'
p23
(dp24
S'international'
p25
(dp26
S'bowlingStats'
p27
(I-1
I-1
tp28
ssS'all'
p29
I-1
ssb.