(iplayer
Player
p1
(dp2
S'is_batsman'
p3
I01
sS'name'
p4
S'Gautam Gambhir'
p5
sS'dob'
p6
S'1981/10/14'
p7
sS'price'
p8
S'950000'
p9
sS'is_allrounder'
p10
I00
sS'espnid'
p11
S'28763'
p12
sS'is_overseas'
p13
I00
sS'team'
p14
S'KKR'
p15
sS'nationality'
p16
S'Indian'
p17
sS'is_bowler'
p18
I00
sS'is_keeper'
p19
I00
sS'id'
p20
S'84'
p21
sS'is_uncapped'
p22
I00
sS'tournamentStats'
p23
(dp24
S'international'
p25
(dp26
S'fieldingStats'
p27
((dp28
S'c'
F11
sS'ctw'
p29
F0
sS'span_s'
p30
F2007
sS'm'
F37
sS's'
F0
sS'dismissals'
p31
F11
sS'i'
F36
sS'ctf'
p32
F11
sS'span_f'
p33
F2012
s(lp34
(dp35
S'inning'
p36
I2
sS'c'
F0
sg29
F0
sS'opp'
p37
S'Pakistan'
p38
sS't20i_num'
p39
I298
sg32
F0
sg31
F0
sS's'
F0
sS'place'
p40
S'Ahmedabad'
p41
sS'date'
p42
ctime
struct_time
p43
((I2012
I12
I28
I0
I0
I0
I4
I363
I-1
t(dtRp44
sa(dp45
g36
I2
sS'c'
F0
sg29
F0
sg37
S'Pakistan'
p46
sg39
I296
sg32
F0
sg31
F0
sS's'
F0
sg40
S'Bangalore'
p47
sg42
g43
((I2012
I12
I25
I0
I0
I0
I1
I360
I-1
t(dtRp48
sa(dp49
g36
I2
sS'c'
F1
sg29
F0
sg37
S'England'
p50
sg39
I294
sg32
F1
sg31
F1
sS's'
F0
sg40
S'Mumbai'
p51
sg42
g43
((I2012
I12
I22
I0
I0
I0
I5
I357
I-1
t(dtRp52
sa(dp53
g36
I1
sS'c'
F0
sg29
F0
sg37
S'England'
p54
sg39
I292
sg32
F0
sg31
F0
sS's'
F0
sg40
S'Pune'
p55
sg42
g43
((I2012
I12
I20
I0
I0
I0
I3
I355
I-1
t(dtRp56
sa(dp57
g36
I2
sS'c'
F1
sg29
F0
sg37
S'South Africa'
p58
sg39
I286
sg32
F1
sg31
F1
sS's'
F0
sg40
S'Colombo (RPS)'
p59
sg42
g43
((I2012
I10
I2
I0
I0
I0
I1
I276
I-1
t(dtRp60
sa(dp61
g36
I1
sS'c'
F0
sg29
F0
sg37
S'Pakistan'
p62
sg39
I282
sg32
F0
sg31
F0
sS's'
F0
sg40
S'Colombo (RPS)'
p63
sg42
g43
((I2012
I9
I30
I0
I0
I0
I6
I274
I-1
t(dtRp64
sa(dp65
g36
I2
sS'c'
F0
sg29
F0
sg37
S'Australia'
p66
sg39
I278
sg32
F0
sg31
F0
sS's'
F0
sg40
S'Colombo (RPS)'
p67
sg42
g43
((I2012
I9
I28
I0
I0
I0
I4
I272
I-1
t(dtRp68
sa(dp69
g36
I2
sS'c'
F2
sg29
F0
sg37
S'England'
p70
sg39
I272
sg32
F2
sg31
F2
sS's'
F0
sg40
S'Colombo (RPS)'
p71
sg42
g43
((I2012
I9
I23
I0
I0
I0
I6
I267
I-1
t(dtRp72
sa(dp73
g36
I2
sS'c'
F1
sg29
F0
sg37
S'Afghanistan'
p74
sg39
I265
sg32
F1
sg31
F1
sS's'
F0
sg40
S'Colombo (RPS)'
p75
sg42
g43
((I2012
I9
I19
I0
I0
I0
I2
I263
I-1
t(dtRp76
sa(dp77
g36
I1
sS'c'
F0
sg29
F0
sg37
S'New Zealand'
p78
sg39
I261
sg32
F0
sg31
F0
sS's'
F0
sg40
S'Chennai'
p79
sg42
g43
((I2012
I9
I11
I0
I0
I0
I1
I255
I-1
t(dtRp80
sa(dp81
g36
I2
sS'c'
F0
sg29
F0
sg37
S'Sri Lanka'
p82
sg39
I255
sg32
F0
sg31
F0
sS's'
F0
sg40
S'Pallekele'
p83
sg42
g43
((I2012
I8
I7
I0
I0
I0
I1
I220
I-1
t(dtRp84
sa(dp85
g36
I1
sS'c'
F0
sg29
F0
sg37
S'South Africa'
p86
sg39
I242
sg32
F0
sg31
F0
sS's'
F0
sg40
S'Johannesburg'
p87
sg42
g43
((I2012
I3
I30
I0
I0
I0
I4
I90
I-1
t(dtRp88
sa(dp89
g36
I1
sS'c'
F1
sg29
F0
sg37
S'Australia'
p90
sg39
I218
sg32
F1
sg31
F1
sS's'
F0
sg40
S'Melbourne'
p91
sg42
g43
((I2012
I2
I3
I0
I0
I0
I4
I34
I-1
t(dtRp92
sa(dp93
g36
I1
sS'c'
F0
sg29
F0
sg37
S'Australia'
p94
sg39
I217
sg32
F0
sg31
F0
sS's'
F0
sg40
S'Sydney'
p95
sg42
g43
((I2012
I2
I1
I0
I0
I0
I2
I32
I-1
t(dtRp96
sa(dp97
g36
I2
sS'c'
F0
sg29
F0
sg37
S'Sri Lanka'
p98
sg39
I173
sg32
F0
sg31
F0
sS's'
F0
sg40
S'Gros Islet'
p99
sg42
g43
((I2010
I5
I11
I0
I0
I0
I1
I131
I-1
t(dtRp100
sa(dp101
g36
I1
sS'c'
F0
sg29
F0
sg37
S'West Indies'
p102
sg39
I169
sg32
F0
sg31
F0
sS's'
F0
sg40
S'Bridgetown'
p103
sg42
g43
((I2010
I5
I9
I0
I0
I0
I6
I129
I-1
t(dtRp104
sa(dp105
g36
I1
sS'c'
F0
sg29
F0
sg37
S'Australia'
p106
sg39
I165
sg32
F0
sg31
F0
sS's'
F0
sg40
S'Bridgetown'
p107
sg42
g43
((I2010
I5
I7
I0
I0
I0
I4
I127
I-1
t(dtRp108
sa(dp109
g36
I1
sS'c'
F1
sg29
F0
sg37
S'Afghanistan'
p110
sg39
I153
sg32
F1
sg31
F1
sS's'
F0
sg40
S'Gros Islet'
p111
sg42
g43
((I2010
I5
I1
I0
I0
I0
I5
I121
I-1
t(dtRp112
sa(dp113
g36
I1
sS'c'
F0
sg29
F0
sg37
S'Sri Lanka'
p114
sg39
I127
sg32
F0
sg31
F0
sS's'
F0
sg40
S'Mohali'
p115
sg42
g43
((I2009
I12
I12
I0
I0
I0
I5
I346
I-1
t(dtRp116
sa(dp117
g36
I1
sS'c'
F0
sg29
F0
sg37
S'Sri Lanka'
p118
sg39
I126
sg32
F0
sg31
F0
sS's'
F0
sg40
S'Nagpur'
p119
sg42
g43
((I2009
I12
I9
I0
I0
I0
I2
I343
I-1
t(dtRp120
sa(dp121
g36
I1
sS'c'
F0
sg29
F0
sg37
S'South Africa'
p122
sg39
I113
sg32
F0
sg31
F0
sS's'
F0
sg40
S'Nottingham'
p123
sg42
g43
((I2009
I6
I16
I0
I0
I0
I1
I167
I-1
t(dtRp124
sa(dp125
g36
I1
sS'c'
F0
sg29
F0
sg37
S'England'
p126
sg39
I109
sg32
F0
sg31
F0
sS's'
F0
sg40
S"Lord's"
p127
sg42
g43
((I2009
I6
I14
I0
I0
I0
I6
I165
I-1
t(dtRp128
sa(dp129
g36
I2
sS'c'
F0
sg29
F0
sg37
S'West Indies'
p130
sg39
I105
sg32
F0
sg31
F0
sS's'
F0
sg40
S"Lord's"
p131
sg42
g43
((I2009
I6
I12
I0
I0
I0
I4
I163
I-1
t(dtRp132
sa(dp133
g36
I1
sS'c'
F0
sg29
F0
sg37
S'Ireland'
p134
sg39
I101
sg32
F0
sg31
F0
sS's'
F0
sg40
S'Nottingham'
p135
sg42
g43
((I2009
I6
I10
I0
I0
I0
I2
I161
I-1
t(dtRp136
sa(dp137
g36
I2
sS'c'
F1
sg29
F0
sg37
S'Bangladesh'
p138
sg39
I93
sg32
F1
sg31
F1
sS's'
F0
sg40
S'Nottingham'
p139
sg42
g43
((I2009
I6
I6
I0
I0
I0
I5
I157
I-1
t(dtRp140
sa(dp141
g36
I2
sS'c'
F0
sg29
F0
sg37
S'New Zealand'
p142
sg39
I85
sg32
F0
sg31
F0
sS's'
F0
sg40
S'Wellington'
p143
sg42
g43
((I2009
I2
I27
I0
I0
I0
I4
I58
I-1
t(dtRp144
sa(dp145
g36
I2
sS'c'
F0
sg29
F0
sg37
S'New Zealand'
p146
sg39
I84
sg32
F0
sg31
F0
sS's'
F0
sg40
S'Christchurch'
p147
sg42
g43
((I2009
I2
I25
I0
I0
I0
I2
I56
I-1
t(dtRp148
sa(dp149
g36
I1
sS'c'
F0
sg29
F0
sg37
S'Sri Lanka'
p150
sg39
I82
sg32
F0
sg31
F0
sS's'
F0
sg40
S'Colombo (RPS)'
p151
sg42
g43
((I2009
I2
I10
I0
I0
I0
I1
I41
I-1
t(dtRp152
sa(dp153
g36
I2
sS'c'
F1
sg29
F0
sg37
S'Australia'
p154
sg39
I52
sg32
F1
sg31
F1
sS's'
F0
sg40
S'Melbourne'
p155
sg42
g43
((I2008
I2
I1
I0
I0
I0
I4
I32
I-1
t(dtRp156
sa(dp157
g36
I1
sS'c'
F0
sg29
F0
sg37
S'Australia'
p158
sg39
I47
sg32
F0
sg31
F0
sS's'
F0
sg40
S'Mumbai (BS)'
p159
sg42
g43
((I2007
I10
I20
I0
I0
I0
I5
I293
I-1
t(dtRp160
sa(dp161
g36
I2
sS'c'
F0
sg29
F0
sg37
S'Pakistan'
p162
sg39
I46
sg32
F0
sg31
F0
sS's'
F0
sg40
S'Johannesburg'
p163
sg42
g43
((I2007
I9
I24
I0
I0
I0
I0
I267
I-1
t(dtRp164
sa(dp165
g36
I2
sS'c'
F0
sg29
F0
sg37
S'Australia'
p166
sg39
I45
sg32
F0
sg31
F0
sS's'
F0
sg40
S'Durban'
p167
sg42
g43
((I2007
I9
I22
I0
I0
I0
I5
I265
I-1
t(dtRp168
sa(dp169
g36
I2
sS'c'
F0
sg29
F0
sg37
S'South Africa'
p170
sg39
I43
sg32
F0
sg31
F0
sS's'
F0
sg40
S'Durban'
p171
sg42
g43
((I2007
I9
I20
I0
I0
I0
I3
I263
I-1
t(dtRp172
sa(dp173
g36
I2
sS'c'
F1
sg29
F0
sg37
S'England'
p174
sg39
I40
sg32
F1
sg31
F1
sS's'
F0
sg40
S'Durban'
p175
sg42
g43
((I2007
I9
I19
I0
I0
I0
I2
I262
I-1
t(dtRp176
sa(dp177
g36
I1
sS'c'
F1
sg29
F0
sg37
S'New Zealand'
p178
sg39
I32
sg32
F1
sg31
F1
sS's'
F0
sg40
S'Johannesburg'
p179
sg42
g43
((I2007
I9
I16
I0
I0
I0
I6
I259
I-1
t(dtRp180
sa(dp181
g36
I2
sS'c'
F0
sg29
F0
sg37
S'Pakistan'
p182
sg39
I29
sg32
F0
sg31
F0
sS's'
F0
sg40
S'Durban'
p183
sg42
g43
((I2007
I9
I14
I0
I0
I0
I4
I257
I-1
t(dtRp184
satp185
sS'bowlingStats'
p186
((dp187
S'a'
F-1
sS'b'
F0
sS'e'
F-1
sS'i'
F0
sS'sr'
p188
F-1
sS'5w'
p189
F0
sS'm'
F37
sS'maid'
p190
F0
sS'r'
F0
sS'w'
F0
sS'4w'
p191
F0
sS'bbir'
p192
F-1
sS'bbiw'
p193
F-1
sg33
F2012
sg30
F2007
s(ltp194
sS'battingStats'
p195
((dp196
S'a'
F27.411764705882351
sS'0s'
p197
F2
sS'b'
F783
sS'no'
p198
F2
sg30
F2007
sS'hs'
p199
F75
sS'm'
F37
sS'4s'
p200
F109
sg33
F2012
sS'i'
F36
sS'6s'
p201
F10
sg188
F119.02937420178799
sS'r'
F932
sS'100s'
p202
F0
sS'50s'
p203
F7
s(lp204
(dp205
g36
I1
sS'b'
F11
sg37
S'Pakistan'
p206
sg188
F190.90909090909091
sg39
I298
sS'dismiss'
p207
S'lbw'
p208
sg200
F4
sS'pos'
p209
I1
sg201
F0
sg40
S'Ahmedabad'
p210
sg42
g43
((I2012
I12
I28
I0
I0
I0
I4
I363
I-1
t(dtRp211
sS'r'
F21
sS'minutes'
p212
F22
sa(dp213
g36
I1
sS'b'
F41
sg37
S'Pakistan'
p214
sg188
F104.8780487804878
sg39
I296
sg207
S'run out'
p215
sg200
F2
sg209
I1
sg201
F1
sg40
S'Bangalore'
p216
sg42
g43
((I2012
I12
I25
I0
I0
I0
I1
I360
I-1
t(dtRp217
sS'r'
F43
sg212
F56
sa(dp218
g36
I1
sS'b'
F27
sg37
S'England'
p219
sg188
F62.962962962962962
sg39
I294
sg207
S'caught'
p220
sg200
F1
sg209
I1
sg201
F0
sg40
S'Mumbai'
p221
sg42
g43
((I2012
I12
I22
I0
I0
I0
I5
I357
I-1
t(dtRp222
sS'r'
F17
sg212
F52
sa(dp223
g36
I2
sS'b'
F16
sg37
S'England'
p224
sg188
F100
sg39
I292
sg207
S'caught'
p225
sg200
F3
sg209
I1
sg201
F0
sg40
S'Pune'
p226
sg42
g43
((I2012
I12
I20
I0
I0
I0
I3
I355
I-1
t(dtRp227
sS'r'
F16
sg212
F23
sa(dp228
g36
I1
sS'b'
F12
sg37
S'South Africa'
p229
sg188
F66.666666666666671
sg39
I286
sg207
S'bowled'
p230
sg200
F1
sg209
I1
sg201
F0
sg40
S'Colombo (RPS)'
p231
sg42
g43
((I2012
I10
I2
I0
I0
I0
I1
I276
I-1
t(dtRp232
sS'r'
F8
sg212
F15
sa(dp233
g36
I2
sS'b'
F2
sg37
S'Pakistan'
p234
sg188
F0
sg39
I282
sg207
S'caught'
p235
sg200
F0
sg209
I1
sg201
F0
sg40
S'Colombo (RPS)'
p236
sg42
g43
((I2012
I9
I30
I0
I0
I0
I6
I274
I-1
t(dtRp237
sS'r'
F0
sg212
F2
sa(dp238
g36
I1
sS'b'
F12
sg37
S'Australia'
p239
sg188
F141.66666666666666
sg39
I278
sg207
S'run out'
p240
sg200
F3
sg209
I1
sg201
F0
sg40
S'Colombo (RPS)'
p241
sg42
g43
((I2012
I9
I28
I0
I0
I0
I4
I272
I-1
t(dtRp242
sS'r'
F17
sg212
F12
sa(dp243
g36
I1
sS'b'
F38
sg37
S'England'
p244
sg188
F118.42105263157895
sg39
I272
sg207
S'caught'
p245
sg200
F5
sg209
I1
sg201
F0
sg40
S'Colombo (RPS)'
p246
sg42
g43
((I2012
I9
I23
I0
I0
I0
I6
I267
I-1
t(dtRp247
sS'r'
F45
sg212
F70
sa(dp248
g36
I1
sS'b'
F8
sg37
S'Afghanistan'
p249
sg188
F125
sg39
I265
sg207
S'bowled'
p250
sg200
F1
sg209
I1
sg201
F0
sg40
S'Colombo (RPS)'
p251
sg42
g43
((I2012
I9
I19
I0
I0
I0
I2
I263
I-1
t(dtRp252
sS'r'
F10
sg212
F14
sa(dp253
g36
I2
sS'b'
F6
sg37
S'New Zealand'
p254
sg188
F50
sg39
I261
sg207
S'caught'
p255
sg200
F0
sg209
I1
sg201
F0
sg40
S'Chennai'
p256
sg42
g43
((I2012
I9
I11
I0
I0
I0
I1
I255
I-1
t(dtRp257
sS'r'
F3
sg212
F12
sa(dp258
g36
I1
sS'b'
F8
sg37
S'Sri Lanka'
p259
sg188
F75
sg39
I255
sg207
S'bowled'
p260
sg200
F1
sg209
I1
sg201
F0
sg40
S'Pallekele'
p261
sg42
g43
((I2012
I8
I7
I0
I0
I0
I1
I220
I-1
t(dtRp262
sS'r'
F6
sg212
F7
sa(dp263
g36
I2
sS'b'
F28
sg37
S'South Africa'
p264
sg198
I01
sg188
F175
sg39
I242
sg207
S'not out'
p265
sg200
F7
sg209
I2
sg201
F1
sg40
S'Johannesburg'
p266
sg42
g43
((I2012
I3
I30
I0
I0
I0
I4
I90
I-1
t(dtRp267
sS'r'
F49
sg212
F36
sa(dp268
g36
I2
sS'b'
F60
sg37
S'Australia'
p269
sg198
I01
sg188
F93.333333333333329
sg39
I218
sg207
S'not out'
p270
sg200
F4
sg209
I1
sg201
F0
sg40
S'Melbourne'
p271
sg42
g43
((I2012
I2
I3
I0
I0
I0
I4
I34
I-1
t(dtRp272
sS'r'
F56
sg212
F91
sa(dp273
g36
I2
sS'b'
F14
sg37
S'Australia'
p274
sg188
F142.85714285714286
sg39
I217
sg207
S'caught'
p275
sg200
F3
sg209
I1
sg201
F0
sg40
S'Sydney'
p276
sg42
g43
((I2012
I2
I1
I0
I0
I0
I2
I32
I-1
t(dtRp277
sS'r'
F20
sg212
F27
sa(dp278
g36
I1
sS'b'
F32
sg37
S'Sri Lanka'
p279
sg188
F128.125
sg39
I173
sg207
S'caught'
p280
sg200
F3
sg209
I2
sg201
F0
sg40
S'Gros Islet'
p281
sg42
g43
((I2010
I5
I11
I0
I0
I0
I1
I131
I-1
t(dtRp282
sS'r'
F41
sg212
F52
sa(dp283
g36
I2
sS'b'
F14
sg37
S'West Indies'
p284
sg188
F107.14285714285714
sg39
I169
sg207
S'caught'
p285
sg200
F3
sg209
I2
sg201
F0
sg40
S'Bridgetown'
p286
sg42
g43
((I2010
I5
I9
I0
I0
I0
I6
I129
I-1
t(dtRp287
sS'r'
F15
sg212
F22
sa(dp288
g36
I2
sS'b'
F10
sg37
S'Australia'
p289
sg188
F90
sg39
I165
sg207
S'caught'
p290
sg200
F2
sg209
I2
sg201
F0
sg40
S'Bridgetown'
p291
sg42
g43
((I2010
I5
I7
I0
I0
I0
I4
I127
I-1
t(dtRp292
sS'r'
F9
sg212
F14
sa(dp293
g36
I2
sS'b'
F6
sg37
S'Afghanistan'
p294
sg188
F66.666666666666671
sg39
I153
sg207
S'caught'
p295
sg200
F0
sg209
I1
sg201
F0
sg40
S'Gros Islet'
p296
sg42
g43
((I2010
I5
I1
I0
I0
I0
I5
I121
I-1
t(dtRp297
sS'r'
F4
sg212
F11
sa(dp298
g36
I2
sS'b'
F18
sg37
S'Sri Lanka'
p299
sg188
F116.66666666666667
sg39
I127
sg207
S'run out'
p300
sg200
F1
sg209
I1
sg201
F0
sg40
S'Mohali'
p301
sg42
g43
((I2009
I12
I12
I0
I0
I0
I5
I346
I-1
t(dtRp302
sS'r'
F21
sg212
F30
sa(dp303
g36
I2
sS'b'
F26
sg37
S'Sri Lanka'
p304
sg188
F211.53846153846155
sg39
I126
sg207
S'bowled'
p305
sg200
F11
sg209
I1
sg201
F0
sg40
S'Nagpur'
p306
sg42
g43
((I2009
I12
I9
I0
I0
I0
I2
I343
I-1
t(dtRp307
sS'r'
F55
sg212
F-1
sa(dp308
g36
I2
sS'b'
F19
sg37
S'South Africa'
p309
sg188
F110.52631578947368
sg39
I113
sg207
S'caught'
p310
sg200
F3
sg209
I1
sg201
F0
sg40
S'Nottingham'
p311
sg42
g43
((I2009
I6
I16
I0
I0
I0
I1
I167
I-1
t(dtRp312
sS'r'
F21
sg212
F27
sa(dp313
g36
I2
sS'b'
F26
sg37
S'England'
p314
sg188
F100
sg39
I109
sg207
S'caught'
p315
sg200
F4
sg209
I1
sg201
F0
sg40
S"Lord's"
p316
sg42
g43
((I2009
I6
I14
I0
I0
I0
I6
I165
I-1
t(dtRp317
sS'r'
F26
sg212
F50
sa(dp318
g36
I1
sS'b'
F13
sg37
S'West Indies'
p319
sg188
F107.69230769230769
sg39
I105
sg207
S'caught'
p320
sg200
F2
sg209
I1
sg201
F0
sg40
S"Lord's"
p321
sg42
g43
((I2009
I6
I12
I0
I0
I0
I4
I163
I-1
t(dtRp322
sS'r'
F14
sg212
F23
sa(dp323
g36
I2
sS'b'
F31
sg37
S'Ireland'
p324
sg188
F119.35483870967742
sg39
I101
sg207
S'caught'
p325
sg200
F3
sg209
I1
sg201
F1
sg40
S'Nottingham'
p326
sg42
g43
((I2009
I6
I10
I0
I0
I0
I2
I161
I-1
t(dtRp327
sS'r'
F37
sg212
F42
sa(dp328
g36
I1
sS'b'
F46
sg37
S'Bangladesh'
p329
sg188
F108.69565217391305
sg39
I93
sg207
S'caught'
p330
sg200
F4
sg209
I1
sg201
F0
sg40
S'Nottingham'
p331
sg42
g43
((I2009
I6
I6
I0
I0
I0
I5
I157
I-1
t(dtRp332
sS'r'
F50
sg212
F70
sa(dp333
g36
I1
sS'b'
F13
sg37
S'New Zealand'
p334
sg188
F76.92307692307692
sg39
I85
sg207
S'caught'
p335
sg200
F0
sg209
I1
sg201
F1
sg40
S'Wellington'
p336
sg42
g43
((I2009
I2
I27
I0
I0
I0
I4
I58
I-1
t(dtRp337
sS'r'
F10
sg212
F29
sa(dp338
g36
I1
sS'b'
F7
sg37
S'New Zealand'
p339
sg188
F85.714285714285708
sg39
I84
sg207
S'bowled'
p340
sg200
F1
sg209
I1
sg201
F0
sg40
S'Christchurch'
p341
sg42
g43
((I2009
I2
I25
I0
I0
I0
I2
I56
I-1
t(dtRp342
sS'r'
F6
sg212
F8
sa(dp343
g36
I2
sS'b'
F6
sg37
S'Sri Lanka'
p344
sg188
F216.66666666666666
sg39
I82
sg207
S'caught'
p345
sg200
F3
sg209
I1
sg201
F0
sg40
S'Colombo (RPS)'
p346
sg42
g43
((I2009
I2
I10
I0
I0
I0
I1
I41
I-1
t(dtRp347
sS'r'
F13
sg212
F6
sa(dp348
g36
I1
sS'b'
F6
sg37
S'Australia'
p349
sg188
F150
sg39
I52
sg207
S'caught'
p350
sg200
F1
sg209
I1
sg201
F0
sg40
S'Melbourne'
p351
sg42
g43
((I2008
I2
I1
I0
I0
I0
I4
I32
I-1
t(dtRp352
sS'r'
F9
sg212
F9
sa(dp353
g36
I2
sS'b'
F52
sg37
S'Australia'
p354
sg188
F121.15384615384616
sg39
I47
sg207
S'caught'
p355
sg200
F6
sg209
I1
sg201
F1
sg40
S'Mumbai (BS)'
p356
sg42
g43
((I2007
I10
I20
I0
I0
I0
I5
I293
I-1
t(dtRp357
sS'r'
F63
sg212
F74
sa(dp358
g36
I1
sS'b'
F54
sg37
S'Pakistan'
p359
sg188
F138.88888888888889
sg39
I46
sg207
S'caught'
p360
sg200
F8
sg209
I1
sg201
F2
sg40
S'Johannesburg'
p361
sg42
g43
((I2007
I9
I24
I0
I0
I0
I0
I267
I-1
t(dtRp362
sS'r'
F75
sg212
F76
sa(dp363
g36
I1
sS'b'
F25
sg37
S'Australia'
p364
sg188
F96
sg39
I45
sg207
S'caught'
p365
sg200
F4
sg209
I1
sg201
F0
sg40
S'Durban'
p366
sg42
g43
((I2007
I9
I22
I0
I0
I0
I5
I265
I-1
t(dtRp367
sS'r'
F24
sg212
F37
sa(dp368
g36
I1
sS'b'
F19
sg37
S'South Africa'
p369
sg188
F100
sg39
I43
sg207
S'caught'
p370
sg200
F3
sg209
I1
sg201
F0
sg40
S'Durban'
p371
sg42
g43
((I2007
I9
I20
I0
I0
I0
I3
I263
I-1
t(dtRp372
sS'r'
F19
sg212
F19
sa(dp373
g36
I1
sS'b'
F41
sg37
S'England'
p374
sg188
F141.46341463414635
sg39
I40
sg207
S'caught'
p375
sg200
F7
sg209
I1
sg201
F1
sg40
S'Durban'
p376
sg42
g43
((I2007
I9
I19
I0
I0
I0
I2
I262
I-1
t(dtRp377
sS'r'
F58
sg212
F62
sa(dp378
g36
I2
sS'b'
F33
sg37
S'New Zealand'
p379
sg188
F154.54545454545453
sg39
I32
sg207
S'caught'
p380
sg200
F5
sg209
I1
sg201
F2
sg40
S'Johannesburg'
p381
sg42
g43
((I2007
I9
I16
I0
I0
I0
I6
I259
I-1
t(dtRp382
sS'r'
F51
sg212
F45
sa(dp383
g36
I1
sS'b'
F3
sg37
S'Pakistan'
p384
sg188
F0
sg39
I29
sg207
S'caught'
p385
sg200
F0
sg209
I1
sg201
F0
sg40
S'Durban'
p386
sg42
g43
((I2007
I9
I14
I0
I0
I0
I4
I257
I-1
t(dtRp387
sS'r'
F0
sg212
F2
satp388
ssS'all'
p389
(dp390
g27
(dp391
S'c'
F29
sg29
F0
sS'i'
F148
sS'm'
F148
sS's'
F0
sg31
F29
sg32
F29
ssg186
(dp392
S'a'
F-1
sS'b'
F0
sS'e'
F-1
sS'i'
F0
sg188
F-1
sg189
F0
sS'm'
F148
sg190
F0
sS'r'
F0
sS'w'
F0
sg191
F0
sg192
F-1
sg193
F-1
ssg195
(dp393
S'a'
F30.5078125
sg197
F-1
sS'b'
F3163
sg198
F16
sS'i'
F144
sg199
F93
sS'm'
F148
sg200
F453
sg201
F59
sg188
F123.45874170091685
sS'r'
F3905
sg202
F0
sg203
F31
ssssb.