(iplayer
Player
p1
(dp2
S'is_batsman'
p3
I00
sS'name'
p4
S'James Faulkner'
p5
sS'dob'
p6
S'1990/04/29'
p7
sS'price'
p8
S'950000'
p9
sS'is_allrounder'
p10
I01
sS'espnid'
p11
S'270484'
p12
sS'is_overseas'
p13
I01
sS'team'
p14
S'RR'
p15
sS'nationality'
p16
S'Australian'
p17
sS'is_bowler'
p18
I01
sS'is_keeper'
p19
I00
sS'id'
p20
S'193'
p21
sS'is_uncapped'
p22
I00
sS'tournamentStats'
p23
(dp24
S'international'
p25
(dp26
S'fieldingStats'
p27
((dp28
S'c'
F2
sS'ctw'
p29
F0
sS'span_s'
p30
F2012
sS'm'
F7
sS's'
F0
sS'dismissals'
p31
F2
sS'i'
F7
sS'ctf'
p32
F2
sS'span_f'
p33
F2014
s(lp34
(dp35
S'inning'
p36
I2
sS'c'
F0
sg29
F0
sS'opp'
p37
S'West Indies'
p38
sS't20i_num'
p39
I388
sg32
F0
sg31
F0
sS's'
F0
sS'place'
p40
S'Dhaka'
p41
sS'date'
p42
ctime
struct_time
p43
((I2014
I3
I28
I0
I0
I0
I4
I87
I-1
t(dtRp44
sa(dp45
g36
I2
sS'c'
F1
sg29
F0
sg37
S'India'
p46
sg39
I331
sg32
F1
sg31
F1
sS's'
F0
sg40
S'Rajkot'
p47
sg42
g43
((I2013
I10
I10
I0
I0
I0
I3
I283
I-1
t(dtRp48
sa(dp49
g36
I1
sS'c'
F0
sg29
F0
sg37
S'England'
p50
sg39
I329
sg32
F0
sg31
F0
sS's'
F0
sg40
S'Chester-le-Street'
p51
sg42
g43
((I2013
I8
I31
I0
I0
I0
I5
I243
I-1
t(dtRp52
sa(dp53
g36
I2
sS'c'
F0
sg29
F0
sg37
S'England'
p54
sg39
I328
sg32
F0
sg31
F0
sS's'
F0
sg40
S'Southampton'
p55
sg42
g43
((I2013
I8
I29
I0
I0
I0
I3
I241
I-1
t(dtRp56
sa(dp57
g36
I1
sS'c'
F0
sg29
F0
sg37
S'West Indies'
p58
sg39
I303
sg32
F0
sg31
F0
sS's'
F0
sg40
S'Brisbane'
p59
sg42
g43
((I2013
I2
I13
I0
I0
I0
I2
I44
I-1
t(dtRp60
sa(dp61
g36
I1
sS'c'
F1
sg29
F0
sg37
S'Sri Lanka'
p62
sg39
I300
sg32
F1
sg31
F1
sS's'
F0
sg40
S'Melbourne'
p63
sg42
g43
((I2013
I1
I28
I0
I0
I0
I0
I28
I-1
t(dtRp64
sa(dp65
g36
I2
sS'c'
F0
sg29
F0
sg37
S'India'
p66
sg39
I217
sg32
F0
sg31
F0
sS's'
F0
sg40
S'Sydney'
p67
sg42
g43
((I2012
I2
I1
I0
I0
I0
I2
I32
I-1
t(dtRp68
satp69
sS'bowlingStats'
p70
((dp71
S'a'
F29.857142857142858
sS'b'
F154
sS'e'
F8.1428571428571423
sS'i'
F7
sS'sr'
p72
F22
sS'5w'
p73
F0
sS'm'
F7
sS'maid'
p74
F0
sS'r'
F209
sS'w'
F7
sS'4w'
p75
F0
sS'bbir'
p76
F28
sS'bbiw'
p77
F3
sg33
F2014
sg30
F2012
s(lp78
(dp79
g36
I2
sS'b'
F22
sS'e'
F7.3636363636363633
sg39
I388
sS'pos'
p80
I5
sg74
F0
sS'r'
F27
sg40
S'Dhaka'
p81
sS'w'
F0
sg42
g43
((I2014
I3
I28
I0
I0
I0
I4
I87
I-1
t(dtRp82
sg37
S'West Indies'
p83
sa(dp84
g36
I2
sS'b'
F24
sS'e'
F9
sg39
I331
sg80
I3
sg74
F0
sS'r'
F36
sg40
S'Rajkot'
p85
sS'w'
F0
sg42
g43
((I2013
I10
I10
I0
I0
I0
I3
I283
I-1
t(dtRp86
sg37
S'India'
p87
sa(dp88
g36
I1
sS'b'
F24
sS'e'
F9.25
sg39
I329
sg80
I4
sg74
F0
sS'r'
F37
sg40
S'Chester-le-Street'
p89
sS'w'
F2
sg42
g43
((I2013
I8
I31
I0
I0
I0
I5
I243
I-1
t(dtRp90
sg37
S'England'
p91
sa(dp92
g36
I2
sS'b'
F24
sS'e'
F9.75
sg39
I328
sg80
I5
sg74
F0
sS'r'
F39
sg40
S'Southampton'
p93
sS'w'
F1
sg42
g43
((I2013
I8
I29
I0
I0
I0
I3
I241
I-1
t(dtRp94
sg37
S'England'
p95
sa(dp96
g36
I1
sS'b'
F24
sS'e'
F7
sg39
I303
sg80
I3
sg74
F0
sS'r'
F28
sg40
S'Brisbane'
p97
sS'w'
F3
sg42
g43
((I2013
I2
I13
I0
I0
I0
I2
I44
I-1
t(dtRp98
sg37
S'West Indies'
p99
sa(dp100
g36
I1
sS'b'
F24
sS'e'
F6
sg39
I300
sg80
I3
sg74
F0
sS'r'
F24
sg40
S'Melbourne'
p101
sS'w'
F1
sg42
g43
((I2013
I1
I28
I0
I0
I0
I0
I28
I-1
t(dtRp102
sg37
S'Sri Lanka'
p103
sa(dp104
g36
I2
sS'b'
F12
sS'e'
F9
sg39
I217
sg80
I3
sg74
F0
sS'r'
F18
sg40
S'Sydney'
p105
sS'w'
F0
sg42
g43
((I2012
I2
I1
I0
I0
I0
I2
I32
I-1
t(dtRp106
sg37
S'India'
p107
satp108
sS'battingStats'
p109
((dp110
S'a'
F13.333333333333334
sS'0s'
p111
F0
sS'b'
F36
sS'no'
p112
F2
sg30
F2012
sS'hs'
p113
F13
sS'm'
F7
sS'4s'
p114
F2
sg33
F2014
sS'i'
F5
sS'6s'
p115
F1
sg72
F111.11111111111111
sS'r'
F40
sS'100s'
p116
F0
sS'50s'
p117
F0
s(lp118
(dp119
g36
I1
sS'b'
F17
sg37
S'West Indies'
p120
sg72
F76.470588235294116
sg39
I388
sS'dismiss'
p121
S'caught'
p122
sg114
F1
sg80
I7
sg115
F0
sg40
S'Dhaka'
p123
sg42
g43
((I2014
I3
I28
I0
I0
I0
I4
I87
I-1
t(dtRp124
sS'r'
F13
sS'minutes'
p125
F32
sa(dp126
g36
I1
sS'b'
F5
sg37
S'India'
p127
sg112
I01
sg72
F200
sg39
I331
sg121
S'not out'
p128
sg114
F0
sg80
I9
sg115
F1
sg40
S'Rajkot'
p129
sg42
g43
((I2013
I10
I10
I0
I0
I0
I3
I283
I-1
t(dtRp130
sS'r'
F10
sg125
F15
sa(dp131
g36
I2
sS'b'
F5
sg37
S'England'
p132
sg72
F100
sg39
I329
sg121
S'caught'
p133
sg114
F1
sg80
I8
sg115
F0
sg40
S'Chester-le-Street'
p134
sg42
g43
((I2013
I8
I31
I0
I0
I0
I5
I243
I-1
t(dtRp135
sS'r'
F5
sg125
F9
sa(dp136
g36
I1
sS'b'
F3
sg37
S'England'
p137
sg112
I01
sg72
F166.66666666666666
sg39
I328
sg121
S'not out'
p138
sg114
F0
sg80
I8
sg115
F0
sg40
S'Southampton'
p139
sg42
g43
((I2013
I8
I29
I0
I0
I0
I3
I241
I-1
t(dtRp140
sS'r'
F5
sg125
F3
sa(dp141
g36
I2
sS'b'
F6
sg37
S'West Indies'
p142
sg72
F116.66666666666667
sg39
I303
sg121
S'caught'
p143
sg114
F0
sg80
I7
sg115
F0
sg40
S'Brisbane'
p144
sg42
g43
((I2013
I2
I13
I0
I0
I0
I2
I44
I-1
t(dtRp145
sS'r'
F7
sg125
F8
satp146
ssS'all'
p147
(dp148
g27
(dp149
S'c'
F18
sg29
F0
sS'i'
F63
sS'm'
F63
sS's'
F0
sg31
F18
sg32
F18
ssg70
(dp150
S'a'
F21.278481012658229
sS'b'
F1386
sS'e'
F7.2770562770562774
sS'i'
F63
sg72
F17.544303797468356
sg73
F2
sS'm'
F63
sg74
F0
sS'r'
F1681
sS'w'
F79
sg75
F1
sg76
F16
sg77
F5
ssg109
(dp151
S'a'
F14.090909090909092
sg111
F-1
sS'b'
F284
sg112
F17
sS'i'
F39
sg113
F38
sS'm'
F63
sg114
F17
sg115
F8
sg72
F109.15492957746478
sS'r'
F310
sg116
F0
sg117
F0
ssssb.