(iplayer
Player
p1
(dp2
S'is_batsman'
p3
I00
sS'name'
p4
S'Dale Steyn'
p5
sS'dob'
p6
S'1983/06/27'
p7
sS'price'
p8
S'1050000'
p9
sS'is_allrounder'
p10
I00
sS'espnid'
p11
S'47492'
p12
sS'is_overseas'
p13
I01
sS'team'
p14
S'SRH'
p15
sS'nationality'
p16
S'South African'
p17
sS'is_bowler'
p18
I01
sS'is_keeper'
p19
I00
sS'id'
p20
S'180'
p21
sS'is_uncapped'
p22
I00
sS'tournamentStats'
p23
(dp24
S'international'
p25
(dp26
S'fieldingStats'
p27
((dp28
S'c'
F11
sS'ctw'
p29
F0
sS'span_s'
p30
F2007
sS'm'
F38
sS's'
F0
sS'dismissals'
p31
F11
sS'i'
F38
sS'ctf'
p32
F11
sS'span_f'
p33
F2014
s(lp34
(dp35
S'inning'
p36
I2
sS'c'
F0
sg29
F0
sS'opp'
p37
S'India'
p38
sS't20i_num'
p39
I399
sg32
F0
sg31
F0
sS's'
F0
sS'place'
p40
S'Dhaka'
p41
sS'date'
p42
ctime
struct_time
p43
((I2014
I4
I4
I0
I0
I0
I4
I94
I-1
t(dtRp44
sa(dp45
g36
I2
sS'c'
F0
sg29
F0
sg37
S'England'
p46
sg39
I391
sg32
F0
sg31
F0
sS's'
F0
sg40
S'Chittagong'
p47
sg42
g43
((I2014
I3
I29
I0
I0
I0
I5
I88
I-1
t(dtRp48
sa(dp49
g36
I2
sS'c'
F0
sg29
F0
sg37
S'Netherlands'
p50
sg39
I386
sg32
F0
sg31
F0
sS's'
F0
sg40
S'Chittagong'
p51
sg42
g43
((I2014
I3
I27
I0
I0
I0
I3
I86
I-1
t(dtRp52
sa(dp53
g36
I2
sS'c'
F0
sg29
F0
sg37
S'New Zealand'
p54
sg39
I383
sg32
F0
sg31
F0
sS's'
F0
sg40
S'Chittagong'
p55
sg42
g43
((I2014
I3
I24
I0
I0
I0
I0
I83
I-1
t(dtRp56
sa(dp57
g36
I1
sS'c'
F1
sg29
F0
sg37
S'Sri Lanka'
p58
sg39
I379
sg32
F1
sg31
F1
sS's'
F0
sg40
S'Chittagong'
p59
sg42
g43
((I2014
I3
I22
I0
I0
I0
I5
I81
I-1
t(dtRp60
sa(dp61
g36
I1
sS'c'
F0
sg29
F0
sg37
S'Pakistan'
p62
sg39
I343
sg32
F0
sg31
F0
sS's'
F0
sg40
S'Cape Town'
p63
sg42
g43
((I2013
I11
I22
I0
I0
I0
I4
I326
I-1
t(dtRp64
sa(dp65
g36
I2
sS'c'
F0
sg29
F0
sg37
S'Pakistan'
p66
sg39
I340
sg32
F0
sg31
F0
sS's'
F0
sg40
S'Johannesburg'
p67
sg42
g43
((I2013
I11
I20
I0
I0
I0
I2
I324
I-1
t(dtRp68
sa(dp69
g36
I2
sS'c'
F0
sg29
F0
sg37
S'Pakistan'
p70
sg39
I336
sg32
F0
sg31
F0
sS's'
F0
sg40
S'Dubai (DSC)'
p71
sg42
g43
((I2013
I11
I15
I0
I0
I0
I4
I319
I-1
t(dtRp72
sa(dp73
g36
I1
sS'c'
F0
sg29
F0
sg37
S'Pakistan'
p74
sg39
I334
sg32
F0
sg31
F0
sS's'
F0
sg40
S'Dubai (DSC)'
p75
sg42
g43
((I2013
I11
I13
I0
I0
I0
I2
I317
I-1
t(dtRp76
sa(dp77
g36
I1
sS'c'
F1
sg29
F0
sg37
S'New Zealand'
p78
sg39
I293
sg32
F1
sg31
F1
sS's'
F0
sg40
S'Durban'
p79
sg42
g43
((I2012
I12
I21
I0
I0
I0
I4
I356
I-1
t(dtRp80
sa(dp81
g36
I1
sS'c'
F0
sg29
F0
sg37
S'India'
p82
sg39
I286
sg32
F0
sg31
F0
sS's'
F0
sg40
S'Colombo (RPS)'
p83
sg42
g43
((I2012
I10
I2
I0
I0
I0
I1
I276
I-1
t(dtRp84
sa(dp85
g36
I2
sS'c'
F0
sg29
F0
sg37
S'Australia'
p86
sg39
I281
sg32
F0
sg31
F0
sS's'
F0
sg40
S'Colombo (RPS)'
p87
sg42
g43
((I2012
I9
I30
I0
I0
I0
I6
I274
I-1
t(dtRp88
sa(dp89
g36
I2
sS'c'
F1
sg29
F0
sg37
S'Pakistan'
p90
sg39
I277
sg32
F1
sg31
F1
sS's'
F0
sg40
S'Colombo (RPS)'
p91
sg42
g43
((I2012
I9
I28
I0
I0
I0
I4
I272
I-1
t(dtRp92
sa(dp93
g36
I2
sS'c'
F0
sg29
F0
sg37
S'Sri Lanka'
p94
sg39
I269
sg32
F0
sg31
F0
sS's'
F0
sg40
S'Hambantota'
p95
sg42
g43
((I2012
I9
I22
I0
I0
I0
I5
I266
I-1
t(dtRp96
sa(dp97
g36
I1
sS'c'
F0
sg29
F0
sg37
S'Zimbabwe'
p98
sg39
I266
sg32
F0
sg31
F0
sS's'
F0
sg40
S'Hambantota'
p99
sg42
g43
((I2012
I9
I20
I0
I0
I0
I3
I264
I-1
t(dtRp100
sa(dp101
g36
I2
sS'c'
F0
sg29
F0
sg37
S'England'
p102
sg39
I260
sg32
F0
sg31
F0
sS's'
F0
sg40
S'Manchester'
p103
sg42
g43
((I2012
I9
I10
I0
I0
I0
I0
I254
I-1
t(dtRp104
sa(dp105
g36
I1
sS'c'
F0
sg29
F0
sg37
S'England'
p106
sg39
I258
sg32
F0
sg31
F0
sS's'
F0
sg40
S'Chester-le-Street'
p107
sg42
g43
((I2012
I9
I8
I0
I0
I0
I5
I252
I-1
t(dtRp108
sa(dp109
g36
I2
sS'c'
F1
sg29
F0
sg37
S'West Indies'
p110
sg39
I179
sg32
F1
sg31
F1
sS's'
F0
sg40
S'North Sound'
p111
sg42
g43
((I2010
I5
I20
I0
I0
I0
I3
I140
I-1
t(dtRp112
sa(dp113
g36
I2
sS'c'
F0
sg29
F0
sg37
S'West Indies'
p114
sg39
I178
sg32
F0
sg31
F0
sS's'
F0
sg40
S'North Sound'
p115
sg42
g43
((I2010
I5
I19
I0
I0
I0
I2
I139
I-1
t(dtRp116
sa(dp117
g36
I1
sS'c'
F1
sg29
F0
sg37
S'Pakistan'
p118
sg39
I171
sg32
F1
sg31
F1
sS's'
F0
sg40
S'Gros Islet'
p119
sg42
g43
((I2010
I5
I10
I0
I0
I0
I0
I130
I-1
t(dtRp120
sa(dp121
g36
I1
sS'c'
F1
sg29
F0
sg37
S'England'
p122
sg39
I168
sg32
F1
sg31
F1
sS's'
F0
sg40
S'Bridgetown'
p123
sg42
g43
((I2010
I5
I8
I0
I0
I0
I5
I128
I-1
t(dtRp124
sa(dp125
g36
I2
sS'c'
F1
sg29
F0
sg37
S'New Zealand'
p126
sg39
I164
sg32
F1
sg31
F1
sS's'
F0
sg40
S'Bridgetown'
p127
sg42
g43
((I2010
I5
I6
I0
I0
I0
I3
I126
I-1
t(dtRp128
sa(dp129
g36
I2
sS'c'
F1
sg29
F0
sg37
S'Afghanistan'
p130
sg39
I162
sg32
F1
sg31
F1
sS's'
F0
sg40
S'Bridgetown'
p131
sg42
g43
((I2010
I5
I5
I0
I0
I0
I2
I125
I-1
t(dtRp132
sa(dp133
g36
I1
sS'c'
F0
sg29
F0
sg37
S'India'
p134
sg39
I155
sg32
F0
sg31
F0
sS's'
F0
sg40
S'Gros Islet'
p135
sg42
g43
((I2010
I5
I2
I0
I0
I0
I6
I122
I-1
t(dtRp136
sa(dp137
g36
I2
sS'c'
F0
sg29
F0
sg37
S'England'
p138
sg39
I125
sg32
F0
sg31
F0
sS's'
F0
sg40
S'Centurion'
p139
sg42
g43
((I2009
I11
I15
I0
I0
I0
I6
I319
I-1
t(dtRp140
sa(dp141
g36
I1
sS'c'
F0
sg29
F0
sg37
S'England'
p142
sg39
I124
sg32
F0
sg31
F0
sS's'
F0
sg40
S'Johannesburg'
p143
sg42
g43
((I2009
I11
I13
I0
I0
I0
I4
I317
I-1
t(dtRp144
sa(dp145
g36
I1
sS'c'
F0
sg29
F0
sg37
S'Pakistan'
p146
sg39
I114
sg32
F0
sg31
F0
sS's'
F0
sg40
S'Nottingham'
p147
sg42
g43
((I2009
I6
I18
I0
I0
I0
I3
I169
I-1
t(dtRp148
sa(dp149
g36
I2
sS'c'
F1
sg29
F0
sg37
S'India'
p150
sg39
I113
sg32
F1
sg31
F1
sS's'
F0
sg40
S'Nottingham'
p151
sg42
g43
((I2009
I6
I16
I0
I0
I0
I1
I167
I-1
t(dtRp152
sa(dp153
g36
I2
sS'c'
F1
sg29
F0
sg37
S'West Indies'
p154
sg39
I106
sg32
F1
sg31
F1
sS's'
F0
sg40
S'The Oval'
p155
sg42
g43
((I2009
I6
I13
I0
I0
I0
I5
I164
I-1
t(dtRp156
sa(dp157
g36
I1
sS'c'
F0
sg29
F0
sg37
S'England'
p158
sg39
I103
sg32
F0
sg31
F0
sS's'
F0
sg40
S'Nottingham'
p159
sg42
g43
((I2009
I6
I11
I0
I0
I0
I3
I162
I-1
t(dtRp160
sa(dp161
g36
I2
sS'c'
F0
sg29
F0
sg37
S'New Zealand'
p162
sg39
I99
sg32
F0
sg31
F0
sS's'
F0
sg40
S"Lord's"
p163
sg42
g43
((I2009
I6
I9
I0
I0
I0
I1
I160
I-1
t(dtRp164
sa(dp165
g36
I2
sS'c'
F0
sg29
F0
sg37
S'Scotland'
p166
sg39
I94
sg32
F0
sg31
F0
sS's'
F0
sg40
S'The Oval'
p167
sg42
g43
((I2009
I6
I7
I0
I0
I0
I6
I158
I-1
t(dtRp168
sa(dp169
g36
I1
sS'c'
F0
sg29
F0
sg37
S'Australia'
p170
sg39
I87
sg32
F0
sg31
F0
sS's'
F0
sg40
S'Johannesburg'
p171
sg42
g43
((I2009
I3
I27
I0
I0
I0
I4
I86
I-1
t(dtRp172
sa(dp173
g36
I2
sS'c'
F0
sg29
F0
sg37
S'Australia'
p174
sg39
I81
sg32
F0
sg31
F0
sS's'
F0
sg40
S'Brisbane'
p175
sg42
g43
((I2009
I1
I13
I0
I0
I0
I1
I13
I-1
t(dtRp176
sa(dp177
g36
I1
sS'c'
F1
sg29
F0
sg37
S'Australia'
p178
sg39
I80
sg32
F1
sg31
F1
sS's'
F0
sg40
S'Melbourne'
p179
sg42
g43
((I2009
I1
I11
I0
I0
I0
I6
I11
I-1
t(dtRp180
sa(dp181
g36
I2
sS'c'
F0
sg29
F0
sg37
S'Bangladesh'
p182
sg39
I77
sg32
F0
sg31
F0
sS's'
F0
sg40
S'Johannesburg'
p183
sg42
g43
((I2008
I11
I5
I0
I0
I0
I2
I310
I-1
t(dtRp184
sa(dp185
g36
I2
sS'c'
F0
sg29
F0
sg37
S'West Indies'
p186
sg39
I50
sg32
F0
sg31
F0
sS's'
F0
sg40
S'Port Elizabeth'
p187
sg42
g43
((I2007
I12
I16
I0
I0
I0
I6
I350
I-1
t(dtRp188
sa(dp189
g36
I1
sS'c'
F0
sg29
F0
sg37
S'New Zealand'
p190
sg39
I48
sg32
F0
sg31
F0
sS's'
F0
sg40
S'Johannesburg'
p191
sg42
g43
((I2007
I11
I23
I0
I0
I0
I4
I327
I-1
t(dtRp192
satp193
sS'bowlingStats'
p194
((dp195
S'a'
F15.981818181818182
sS'b'
F817
sS'e'
F6.4553243574051411
sS'i'
F38
sS'sr'
p196
F14.854545454545455
sS'5w'
p197
F0
sS'm'
F38
sS'maid'
p198
F2
sS'r'
F879
sS'w'
F55
sS'4w'
p199
F2
sS'bbir'
p200
F9
sS'bbiw'
p201
F4
sg33
F2014
sg30
F2007
s(lp202
(dp203
g36
I2
sS'b'
F19
sS'e'
F11.368421052631579
sg39
I399
sS'pos'
p204
I3
sg198
F0
sS'r'
F36
sg40
S'Dhaka'
p205
sS'w'
F0
sg42
g43
((I2014
I4
I4
I0
I0
I0
I4
I94
I-1
t(dtRp206
sg37
S'India'
p207
sa(dp208
g36
I2
sS'b'
F24
sS'e'
F11
sg39
I391
sg204
I4
sg198
F0
sS'r'
F44
sg40
S'Chittagong'
p209
sS'w'
F1
sg42
g43
((I2014
I3
I29
I0
I0
I0
I5
I88
I-1
t(dtRp210
sg37
S'England'
p211
sa(dp212
g36
I2
sS'b'
F24
sS'e'
F4.75
sg39
I386
sg204
I4
sg198
F0
sS'r'
F19
sg40
S'Chittagong'
p213
sS'w'
F2
sg42
g43
((I2014
I3
I27
I0
I0
I0
I3
I86
I-1
t(dtRp214
sg37
S'Netherlands'
p215
sa(dp216
g36
I2
sS'b'
F24
sS'e'
F4.25
sg39
I383
sg204
I3
sg198
F0
sS'r'
F17
sg40
S'Chittagong'
p217
sS'w'
F4
sg42
g43
((I2014
I3
I24
I0
I0
I0
I0
I83
I-1
t(dtRp218
sg37
S'New Zealand'
p219
sa(dp220
g36
I1
sS'b'
F24
sS'e'
F9.25
sg39
I379
sg204
I1
sg198
F0
sS'r'
F37
sg40
S'Chittagong'
p221
sS'w'
F2
sg42
g43
((I2014
I3
I22
I0
I0
I0
I5
I81
I-1
t(dtRp222
sg37
S'Sri Lanka'
p223
sa(dp224
g36
I1
sS'b'
F24
sS'e'
F7.25
sg39
I343
sg204
I2
sg198
F0
sS'r'
F29
sg40
S'Cape Town'
p225
sS'w'
F2
sg42
g43
((I2013
I11
I22
I0
I0
I0
I4
I326
I-1
t(dtRp226
sg37
S'Pakistan'
p227
sa(dp228
g36
I2
sS'b'
F12
sS'e'
F6.5
sg39
I340
sg204
I2
sg198
F0
sS'r'
F13
sg40
S'Johannesburg'
p229
sS'w'
F0
sg42
g43
((I2013
I11
I20
I0
I0
I0
I2
I324
I-1
t(dtRp230
sg37
S'Pakistan'
p231
sa(dp232
g36
I2
sS'b'
F24
sS'e'
F5
sg39
I336
sg204
I1
sg198
F1
sS'r'
F20
sg40
S'Dubai (DSC)'
p233
sS'w'
F2
sg42
g43
((I2013
I11
I15
I0
I0
I0
I4
I319
I-1
t(dtRp234
sg37
S'Pakistan'
p235
sa(dp236
g36
I1
sS'b'
F24
sS'e'
F3.75
sg39
I334
sg204
I2
sg198
F0
sS'r'
F15
sg40
S'Dubai (DSC)'
p237
sS'w'
F3
sg42
g43
((I2013
I11
I13
I0
I0
I0
I2
I317
I-1
t(dtRp238
sg37
S'Pakistan'
p239
sa(dp240
g36
I1
sS'b'
F18
sS'e'
F4.333333333333333
sg39
I293
sg204
I2
sg198
F0
sS'r'
F13
sg40
S'Durban'
p241
sS'w'
F2
sg42
g43
((I2012
I12
I21
I0
I0
I0
I4
I356
I-1
t(dtRp242
sg37
S'New Zealand'
p243
sa(dp244
g36
I1
sS'b'
F24
sS'e'
F6.5
sg39
I286
sg204
I1
sg198
F1
sS'r'
F26
sg40
S'Colombo (RPS)'
p245
sS'w'
F0
sg42
g43
((I2012
I10
I2
I0
I0
I0
I1
I276
I-1
t(dtRp246
sg37
S'India'
p247
sa(dp248
g36
I2
sS'b'
F18
sS'e'
F5
sg39
I281
sg204
I1
sg198
F0
sS'r'
F15
sg40
S'Colombo (RPS)'
p249
sS'w'
F0
sg42
g43
((I2012
I9
I30
I0
I0
I0
I6
I274
I-1
t(dtRp250
sg37
S'Australia'
p251
sa(dp252
g36
I2
sS'b'
F24
sS'e'
F5.5
sg39
I277
sg204
I1
sg198
F0
sS'r'
F22
sg40
S'Colombo (RPS)'
p253
sS'w'
F3
sg42
g43
((I2012
I9
I28
I0
I0
I0
I4
I272
I-1
t(dtRp254
sg37
S'Pakistan'
p255
sa(dp256
g36
I2
sS'b'
F12
sS'e'
F5
sg39
I269
sg204
I2
sg198
F0
sS'r'
F10
sg40
S'Hambantota'
p257
sS'w'
F2
sg42
g43
((I2012
I9
I22
I0
I0
I0
I5
I266
I-1
t(dtRp258
sg37
S'Sri Lanka'
p259
sa(dp260
g36
I1
sS'b'
F24
sS'e'
F2.25
sg39
I266
sg204
I1
sg198
F0
sS'r'
F9
sg40
S'Hambantota'
p261
sS'w'
F1
sg42
g43
((I2012
I9
I20
I0
I0
I0
I3
I264
I-1
t(dtRp262
sg37
S'Zimbabwe'
p263
sa(dp264
g36
I2
sS'b'
F6
sS'e'
F10
sg39
I260
sg204
I2
sg198
F0
sS'r'
F10
sg40
S'Manchester'
p265
sS'w'
F1
sg42
g43
((I2012
I9
I10
I0
I0
I0
I0
I254
I-1
t(dtRp266
sg37
S'England'
p267
sa(dp268
g36
I1
sS'b'
F24
sS'e'
F3.25
sg39
I258
sg204
I2
sg198
F0
sS'r'
F13
sg40
S'Chester-le-Street'
p269
sS'w'
F1
sg42
g43
((I2012
I9
I8
I0
I0
I0
I5
I252
I-1
t(dtRp270
sg37
S'England'
p271
sa(dp272
g36
I2
sS'b'
F24
sS'e'
F4.5
sg39
I179
sg204
I1
sg198
F0
sS'r'
F18
sg40
S'North Sound'
p273
sS'w'
F1
sg42
g43
((I2010
I5
I20
I0
I0
I0
I3
I140
I-1
t(dtRp274
sg37
S'West Indies'
p275
sa(dp276
g36
I2
sS'b'
F24
sS'e'
F5.75
sg39
I178
sg204
I2
sg198
F0
sS'r'
F23
sg40
S'North Sound'
p277
sS'w'
F0
sg42
g43
((I2010
I5
I19
I0
I0
I0
I2
I139
I-1
t(dtRp278
sg37
S'West Indies'
p279
sa(dp280
g36
I1
sS'b'
F24
sS'e'
F6.5
sg39
I171
sg204
I2
sg198
F0
sS'r'
F26
sg40
S'Gros Islet'
p281
sS'w'
F1
sg42
g43
((I2010
I5
I10
I0
I0
I0
I0
I130
I-1
t(dtRp282
sg37
S'Pakistan'
p283
sa(dp284
g36
I1
sS'b'
F24
sS'e'
F12.5
sg39
I168
sg204
I2
sg198
F0
sS'r'
F50
sg40
S'Bridgetown'
p285
sS'w'
F0
sg42
g43
((I2010
I5
I8
I0
I0
I0
I5
I128
I-1
t(dtRp286
sg37
S'England'
p287
sa(dp288
g36
I2
sS'b'
F24
sS'e'
F6.25
sg39
I164
sg204
I2
sg198
F0
sS'r'
F25
sg40
S'Bridgetown'
p289
sS'w'
F1
sg42
g43
((I2010
I5
I6
I0
I0
I0
I3
I126
I-1
t(dtRp290
sg37
S'New Zealand'
p291
sa(dp292
g36
I2
sS'b'
F18
sS'e'
F2
sg39
I162
sg204
I1
sg198
F0
sS'r'
F6
sg40
S'Bridgetown'
p293
sS'w'
F2
sg42
g43
((I2010
I5
I5
I0
I0
I0
I2
I125
I-1
t(dtRp294
sg37
S'Afghanistan'
p295
sa(dp296
g36
I1
sS'b'
F24
sS'e'
F6
sg39
I155
sg204
I2
sg198
F0
sS'r'
F24
sg40
S'Gros Islet'
p297
sS'w'
F1
sg42
g43
((I2010
I5
I2
I0
I0
I0
I6
I122
I-1
t(dtRp298
sg37
S'India'
p299
sa(dp300
g36
I2
sS'b'
F24
sS'e'
F7.25
sg39
I125
sg204
I1
sg198
F0
sS'r'
F29
sg40
S'Centurion'
p301
sS'w'
F2
sg42
g43
((I2009
I11
I15
I0
I0
I0
I6
I319
I-1
t(dtRp302
sg37
S'England'
p303
sa(dp304
g36
I1
sS'b'
F24
sS'e'
F10
sg39
I124
sg204
I3
sg198
F0
sS'r'
F40
sg40
S'Johannesburg'
p305
sS'w'
F1
sg42
g43
((I2009
I11
I13
I0
I0
I0
I4
I317
I-1
t(dtRp306
sg37
S'England'
p307
sa(dp308
g36
I1
sS'b'
F24
sS'e'
F7
sg39
I114
sg204
I1
sg198
F0
sS'r'
F28
sg40
S'Nottingham'
p309
sS'w'
F1
sg42
g43
((I2009
I6
I18
I0
I0
I0
I3
I169
I-1
t(dtRp310
sg37
S'Pakistan'
p311
sa(dp312
g36
I2
sS'b'
F18
sS'e'
F8.3333333333333339
sg39
I113
sg204
I1
sg198
F0
sS'r'
F25
sg40
S'Nottingham'
p313
sS'w'
F2
sg42
g43
((I2009
I6
I16
I0
I0
I0
I1
I167
I-1
t(dtRp314
sg37
S'India'
p315
sa(dp316
g36
I2
sS'b'
F24
sS'e'
F7.5
sg39
I106
sg204
I1
sg198
F0
sS'r'
F30
sg40
S'The Oval'
p317
sS'w'
F2
sg42
g43
((I2009
I6
I13
I0
I0
I0
I5
I164
I-1
t(dtRp318
sg37
S'West Indies'
p319
sa(dp320
g36
I1
sS'b'
F24
sS'e'
F4.75
sg39
I103
sg204
I1
sg198
F0
sS'r'
F19
sg40
S'Nottingham'
p321
sS'w'
F1
sg42
g43
((I2009
I6
I11
I0
I0
I0
I3
I162
I-1
t(dtRp322
sg37
S'England'
p323
sa(dp324
g36
I2
sS'b'
F24
sS'e'
F5.5
sg39
I99
sg204
I1
sg198
F0
sS'r'
F22
sg40
S"Lord's"
p325
sS'w'
F1
sg42
g43
((I2009
I6
I9
I0
I0
I0
I1
I160
I-1
t(dtRp326
sg37
S'New Zealand'
p327
sa(dp328
g36
I2
sS'b'
F18
sS'e'
F7
sg39
I94
sg204
I1
sg198
F0
sS'r'
F21
sg40
S'The Oval'
p329
sS'w'
F2
sg42
g43
((I2009
I6
I7
I0
I0
I0
I6
I158
I-1
t(dtRp330
sg37
S'Scotland'
p331
sa(dp332
g36
I1
sS'b'
F24
sS'e'
F11
sg39
I87
sg204
I1
sg198
F0
sS'r'
F44
sg40
S'Johannesburg'
p333
sS'w'
F0
sg42
g43
((I2009
I3
I27
I0
I0
I0
I4
I86
I-1
t(dtRp334
sg37
S'Australia'
p335
sa(dp336
g36
I2
sS'b'
F18
sS'e'
F6.333333333333333
sg39
I81
sg204
I2
sg198
F0
sS'r'
F19
sg40
S'Brisbane'
p337
sS'w'
F1
sg42
g43
((I2009
I1
I13
I0
I0
I0
I1
I13
I-1
t(dtRp338
sg37
S'Australia'
p339
sa(dp340
g36
I1
sS'b'
F24
sS'e'
F9.5
sg39
I80
sg204
I4
sg198
F0
sS'r'
F38
sg40
S'Melbourne'
p341
sS'w'
F3
sg42
g43
((I2009
I1
I11
I0
I0
I0
I6
I11
I-1
t(dtRp342
sg37
S'Australia'
p343
sa(dp344
g36
I2
sS'b'
F18
sS'e'
F6
sg39
I77
sg204
I1
sg198
F0
sS'r'
F18
sg40
S'Johannesburg'
p345
sS'w'
F2
sg42
g43
((I2008
I11
I5
I0
I0
I0
I2
I310
I-1
t(dtRp346
sg37
S'Bangladesh'
p347
sa(dp348
g36
I2
sS'b'
F18
sS'e'
F3
sg39
I50
sg204
I3
sg198
F0
sS'r'
F9
sg40
S'Port Elizabeth'
p349
sS'w'
F4
sg42
g43
((I2007
I12
I16
I0
I0
I0
I6
I350
I-1
t(dtRp350
sg37
S'West Indies'
p351
sa(dp352
g36
I1
sS'b'
F24
sS'e'
F4.25
sg39
I48
sg204
I2
sg198
F0
sS'r'
F17
sg40
S'Johannesburg'
p353
sS'w'
F1
sg42
g43
((I2007
I11
I23
I0
I0
I0
I4
I327
I-1
t(dtRp354
sg37
S'New Zealand'
p355
satp356
sS'battingStats'
p357
((dp358
S'a'
F3
sS'0s'
p359
F1
sS'b'
F20
sS'no'
p360
F4
sg30
F2007
sS'hs'
p361
F5
sS'm'
F38
sS'4s'
p362
F1
sg33
F2014
sS'i'
F9
sS'6s'
p363
F0
sg196
F75
sS'r'
F15
sS'100s'
p364
F0
sS'50s'
p365
F0
s(lp366
(dp367
g36
I1
sS'b'
F4
sg37
S'Netherlands'
p368
sg196
F125
sg39
I386
sS'dismiss'
p369
S'caught'
p370
sg362
F1
sg204
I8
sg363
F0
sg40
S'Chittagong'
p371
sg42
g43
((I2014
I3
I27
I0
I0
I0
I3
I86
I-1
t(dtRp372
sS'r'
F5
sS'minutes'
p373
F6
sa(dp374
g36
I1
sS'b'
F1
sg37
S'New Zealand'
p375
sg360
I01
sg196
F100
sg39
I383
sg369
S'not out'
p376
sg362
F0
sg204
I8
sg363
F0
sg40
S'Chittagong'
p377
sg42
g43
((I2014
I3
I24
I0
I0
I0
I0
I83
I-1
t(dtRp378
sS'r'
F1
sg373
F4
sa(dp379
g36
I2
sS'b'
F2
sg37
S'Sri Lanka'
p380
sg196
F0
sg39
I379
sg369
S'run out'
p381
sg362
F0
sg204
I8
sg363
F0
sg40
S'Chittagong'
p382
sg42
g43
((I2014
I3
I22
I0
I0
I0
I5
I81
I-1
t(dtRp383
sS'r'
F0
sg373
F6
sa(dp384
g36
I1
sS'b'
F3
sg37
S'Pakistan'
p385
sg196
F33.333333333333336
sg39
I340
sg369
S'caught'
p386
sg362
F0
sg204
I8
sg363
F0
sg40
S'Johannesburg'
p387
sg42
g43
((I2013
I11
I20
I0
I0
I0
I2
I324
I-1
t(dtRp388
sS'r'
F1
sg373
F6
sa(dp389
g36
I2
sS'b'
F0
sg37
S'India'
p390
sg360
I01
sg196
F0
sg39
I286
sg369
S'not out'
p391
sg362
F0
sg204
I10
sg363
F0
sg40
S'Colombo (RPS)'
p392
sg42
g43
((I2012
I10
I2
I0
I0
I0
I1
I276
I-1
t(dtRp393
sS'r'
F0
sg373
F7
sa(dp394
g36
I2
sS'b'
F6
sg37
S'England'
p395
sg196
F83.333333333333329
sg39
I168
sg369
S'caught'
p396
sg362
F0
sg204
I9
sg363
F0
sg40
S'Bridgetown'
p397
sg42
g43
((I2010
I5
I8
I0
I0
I0
I5
I128
I-1
t(dtRp398
sS'r'
F5
sg373
F7
sa(dp399
g36
I1
sS'b'
F1
sg37
S'Afghanistan'
p400
sg360
I01
sg196
F100
sg39
I162
sg369
S'not out'
p401
sg362
F0
sg204
I9
sg363
F0
sg40
S'Bridgetown'
p402
sg42
g43
((I2010
I5
I5
I0
I0
I0
I2
I125
I-1
t(dtRp403
sS'r'
F1
sg373
F1
sa(dp404
g36
I2
sS'b'
F2
sg37
S'Australia'
p405
sg196
F50
sg39
I80
sg369
S'caught'
p406
sg362
F0
sg204
I9
sg363
F0
sg40
S'Melbourne'
p407
sg42
g43
((I2009
I1
I11
I0
I0
I0
I6
I11
I-1
t(dtRp408
sS'r'
F1
sg373
F1
sa(dp409
g36
I1
sS'b'
F1
sg37
S'West Indies'
p410
sg360
I01
sg196
F100
sg39
I50
sg369
S'not out'
p411
sg362
F0
sg204
I10
sg363
F0
sg40
S'Port Elizabeth'
p412
sg42
g43
((I2007
I12
I16
I0
I0
I0
I6
I350
I-1
t(dtRp413
sS'r'
F1
sg373
F15
satp414
ssS'all'
p415
(dp416
g27
(dp417
S'c'
F34
sg29
F0
sS'i'
F139
sS'm'
F139
sS's'
F0
sg31
F34
sg32
F34
ssg194
(dp418
S'a'
F20.975000000000001
sS'b'
F3115
sS'e'
F6.4642054574638843
sS'i'
F137
sg196
F19.46875
sg197
F0
sS'm'
F139
sg198
F0
sS'r'
F3356
sS'w'
F160
sg199
F2
sg200
F9
sg201
F4
ssg357
(dp419
S'a'
F7.8076923076923075
sg359
F-1
sS'b'
F174
sg360
F17
sS'i'
F43
sg361
F27
sS'm'
F139
sg362
F15
sg363
F8
sg196
F116.66666666666667
sS'r'
F203
sg364
F0
sg365
F0
ssssb.