(iplayer
Player
p1
(dp2
S'is_batsman'
p3
I01
sS'name'
p4
S'Francois du Plessis'
p5
sS'dob'
p6
S'1984/07/13'
p7
sS'price'
p8
S'950000'
p9
sS'is_allrounder'
p10
I01
sS'espnid'
p11
S'44828'
p12
sS'is_overseas'
p13
I01
sS'team'
p14
S'CSK'
p15
sS'nationality'
p16
S'South African'
p17
sS'is_bowler'
p18
I00
sS'is_keeper'
p19
I00
sS'id'
p20
S'24'
p21
sS'is_uncapped'
p22
I00
sS'tournamentStats'
p23
(dp24
S'international'
p25
(dp26
S'fieldingStats'
p27
((dp28
S'c'
F10
sS'ctw'
p29
F0
sS'i'
F20
sS'm'
F20
sS's'
F0
sS'dismissals'
p30
F10
sS'ctf'
p31
F10
s(lp32
(dp33
S'inning'
p34
I2
sS'c'
F2
sg29
F0
sS'opp'
p35
S'India'
p36
sS't20i_num'
p37
I399
sg31
F2
sg30
F2
sS's'
F0
sS'place'
p38
S'Dhaka'
p39
sS'date'
p40
ctime
struct_time
p41
((I2014
I4
I4
I0
I0
I0
I4
I94
I-1
t(dtRp42
sa(dp43
g34
I2
sS'c'
F1
sg29
F0
sg35
S'Netherlands'
p44
sg37
I386
sg31
F1
sg30
F1
sS's'
F0
sg38
S'Chittagong'
p45
sg40
g41
((I2014
I3
I27
I0
I0
I0
I3
I86
I-1
t(dtRp46
sa(dp47
g34
I2
sS'c'
F1
sg29
F0
sg35
S'New Zealand'
p48
sg37
I383
sg31
F1
sg30
F1
sS's'
F0
sg38
S'Chittagong'
p49
sg40
g41
((I2014
I3
I24
I0
I0
I0
I0
I83
I-1
t(dtRp50
sa(dp51
g34
I2
sS'c'
F1
sg29
F0
sg35
S'Australia'
p52
sg37
I365
sg31
F1
sg30
F1
sS's'
F0
sg38
S'Centurion'
p53
sg40
g41
((I2014
I3
I14
I0
I0
I0
I4
I73
I-1
t(dtRp54
sa(dp55
g34
I2
sS'c'
F1
sg29
F0
sg35
S'Australia'
p56
sg37
I363
sg31
F1
sg30
F1
sS's'
F0
sg38
S'Durban'
p57
sg40
g41
((I2014
I3
I12
I0
I0
I0
I2
I71
I-1
t(dtRp58
sa(dp59
g34
I1
sS'c'
F0
sg29
F0
sg35
S'Pakistan'
p60
sg37
I343
sg31
F0
sg30
F0
sS's'
F0
sg38
S'Cape Town'
p61
sg40
g41
((I2013
I11
I22
I0
I0
I0
I4
I326
I-1
t(dtRp62
sa(dp63
g34
I2
sS'c'
F0
sg29
F0
sg35
S'Pakistan'
p64
sg37
I340
sg31
F0
sg30
F0
sS's'
F0
sg38
S'Johannesburg'
p65
sg40
g41
((I2013
I11
I20
I0
I0
I0
I2
I324
I-1
t(dtRp66
sa(dp67
g34
I2
sS'c'
F1
sg29
F0
sg35
S'Pakistan'
p68
sg37
I336
sg31
F1
sg30
F1
sS's'
F0
sg38
S'Dubai (DSC)'
p69
sg40
g41
((I2013
I11
I15
I0
I0
I0
I4
I319
I-1
t(dtRp70
sa(dp71
g34
I1
sS'c'
F0
sg29
F0
sg35
S'Pakistan'
p72
sg37
I334
sg31
F0
sg30
F0
sS's'
F0
sg38
S'Dubai (DSC)'
p73
sg40
g41
((I2013
I11
I13
I0
I0
I0
I2
I317
I-1
t(dtRp74
sa(dp75
g34
I2
sS'c'
F0
sg29
F0
sg35
S'Sri Lanka'
p76
sg37
I325
sg31
F0
sg30
F0
sS's'
F0
sg38
S'Hambantota'
p77
sg40
g41
((I2013
I8
I6
I0
I0
I0
I1
I218
I-1
t(dtRp78
sa(dp79
g34
I2
sS'c'
F0
sg29
F0
sg35
S'Sri Lanka'
p80
sg37
I324
sg31
F0
sg30
F0
sS's'
F0
sg38
S'Hambantota'
p81
sg40
g41
((I2013
I8
I4
I0
I0
I0
I6
I216
I-1
t(dtRp82
sa(dp83
g34
I2
sS'c'
F2
sg29
F0
sg35
S'Sri Lanka'
p84
sg37
I323
sg31
F2
sg30
F2
sS's'
F0
sg38
S'Colombo (RPS)'
p85
sg40
g41
((I2013
I8
I2
I0
I0
I0
I4
I214
I-1
t(dtRp86
sa(dp87
g34
I1
sS'c'
F1
sg29
F0
sg35
S'Pakistan'
p88
sg37
I306
sg31
F1
sg30
F1
sS's'
F0
sg38
S'Centurion'
p89
sg40
g41
((I2013
I3
I3
I0
I0
I0
I6
I62
I-1
t(dtRp90
sa(dp91
g34
I2
sS'c'
F0
sg29
F0
sg35
S'New Zealand'
p92
sg37
I297
sg31
F0
sg30
F0
sS's'
F0
sg38
S'Port Elizabeth'
p93
sg40
g41
((I2012
I12
I26
I0
I0
I0
I2
I361
I-1
t(dtRp94
sa(dp95
g34
I2
sS'c'
F0
sg29
F0
sg35
S'New Zealand'
p96
sg37
I295
sg31
F0
sg30
F0
sS's'
F0
sg38
S'East London'
p97
sg40
g41
((I2012
I12
I23
I0
I0
I0
I6
I358
I-1
t(dtRp98
sa(dp99
g34
I1
sS'c'
F0
sg29
F0
sg35
S'New Zealand'
p100
sg37
I293
sg31
F0
sg30
F0
sS's'
F0
sg38
S'Durban'
p101
sg40
g41
((I2012
I12
I21
I0
I0
I0
I4
I356
I-1
t(dtRp102
sa(dp103
g34
I1
sS'c'
F0
sg29
F0
sg35
S'India'
p104
sg37
I286
sg31
F0
sg30
F0
sS's'
F0
sg38
S'Colombo (RPS)'
p105
sg40
g41
((I2012
I10
I2
I0
I0
I0
I1
I276
I-1
t(dtRp106
sa(dp107
g34
I2
sS'c'
F0
sg29
F0
sg35
S'Sri Lanka'
p108
sg37
I269
sg31
F0
sg30
F0
sS's'
F0
sg38
S'Hambantota'
p109
sg40
g41
((I2012
I9
I22
I0
I0
I0
I5
I266
I-1
t(dtRp110
sa(dp111
g34
I1
sS'c'
F0
sg29
F0
sg35
S'England'
p112
sg37
I262
sg31
F0
sg30
F0
sS's'
F0
sg38
S'Birmingham'
p113
sg40
g41
((I2012
I9
I12
I0
I0
I0
I2
I256
I-1
t(dtRp114
sa(dp115
g34
I1
sS'c'
F0
sg29
F0
sg35
S'England'
p116
sg37
I258
sg31
F0
sg30
F0
sS's'
F0
sg38
S'Chester-le-Street'
p117
sg40
g41
((I2012
I9
I8
I0
I0
I0
I5
I252
I-1
t(dtRp118
satp119
sS'bowlingStats'
p120
((dp121
S'a'
F-1
sS'b'
F8
sS'e'
F2.25
sS'i'
F2
sS'sr'
p122
F-1
sS'5w'
p123
F0
sS'm'
F20
sS'maid'
p124
F0
sS'r'
F3
sS'w'
F0
sS'4w'
p125
F0
sS'bbir'
p126
F-1
sS'bbiw'
p127
F-1
s(lp128
(dp129
g34
I1
sS'b'
F2
sS'e'
F0
sg37
I293
sS'pos'
p130
I6
sg124
F0
sS'r'
F0
sg38
S'Durban'
p131
sS'w'
F0
sg40
g41
((I2012
I12
I21
I0
I0
I0
I4
I356
I-1
t(dtRp132
sg35
S'New Zealand'
p133
sa(dp134
g34
I1
sS'b'
F6
sS'e'
F3
sg37
I286
sg130
I6
sg124
F0
sS'r'
F3
sg38
S'Colombo (RPS)'
p135
sS'w'
F0
sg40
g41
((I2012
I10
I2
I0
I0
I0
I1
I276
I-1
t(dtRp136
sg35
S'India'
p137
satp138
sS'battingStats'
p139
((dp140
S'a'
F34.5625
sS'0s'
p141
F0
sS'b'
F439
sS'no'
p142
F4
sS'i'
F20
sS'hs'
p143
F85
sS'm'
F20
sS'4s'
p144
F51
sS'6s'
p145
F16
sg122
F125.96810933940775
sS'r'
F553
sS'100s'
p146
F0
sS'50s'
p147
F5
s(lp148
(dp149
g34
I1
sS'b'
F41
sg35
S'India'
p150
sg122
F141.46341463414635
sg37
I399
sS'dismiss'
p151
S'bowled'
p152
sg144
F5
sg130
I3
sg145
F2
sg38
S'Dhaka'
p153
sg40
g41
((I2014
I4
I4
I0
I0
I0
I4
I94
I-1
t(dtRp154
sS'r'
F58
sS'minutes'
p155
F53
sa(dp156
g34
I1
sS'b'
F14
sg35
S'Netherlands'
p157
sg122
F171.42857142857142
sg37
I386
sg151
S'caught'
p158
sg144
F3
sg130
I3
sg145
F1
sg38
S'Chittagong'
p159
sg40
g41
((I2014
I3
I27
I0
I0
I0
I3
I86
I-1
t(dtRp160
sS'r'
F24
sg155
F36
sa(dp161
g34
I1
sS'b'
F8
sg35
S'New Zealand'
p162
sg122
F162.5
sg37
I383
sg151
S'caught'
p163
sg144
F2
sg130
I3
sg145
F0
sg38
S'Chittagong'
p164
sg40
g41
((I2014
I3
I24
I0
I0
I0
I0
I83
I-1
t(dtRp165
sS'r'
F13
sg155
F9
sa(dp166
g34
I1
sS'b'
F6
sg35
S'Australia'
p167
sg122
F83.333333333333329
sg37
I365
sg151
S'caught'
p168
sg144
F1
sg130
I3
sg145
F0
sg38
S'Centurion'
p169
sg40
g41
((I2014
I3
I14
I0
I0
I0
I4
I73
I-1
t(dtRp170
sS'r'
F5
sg155
F6
sa(dp171
g34
I1
sS'b'
F13
sg35
S'Australia'
p172
sg142
I01
sg122
F207.69230769230768
sg37
I363
sg151
S'not out'
p173
sg144
F2
sg130
I3
sg145
F2
sg38
S'Durban'
p174
sg40
g41
((I2014
I3
I12
I0
I0
I0
I2
I71
I-1
t(dtRp175
sS'r'
F27
sg155
F28
sa(dp176
g34
I2
sS'b'
F10
sg35
S'Pakistan'
p177
sg122
F60
sg37
I343
sg151
S'caught'
p178
sg144
F0
sg130
I3
sg145
F0
sg38
S'Cape Town'
p179
sg40
g41
((I2013
I11
I22
I0
I0
I0
I4
I326
I-1
t(dtRp180
sS'r'
F6
sg155
F9
sa(dp181
g34
I1
sS'b'
F22
sg35
S'Pakistan'
p182
sg122
F100
sg37
I340
sg151
S'caught'
p183
sg144
F1
sg130
I3
sg145
F0
sg38
S'Johannesburg'
p184
sg40
g41
((I2013
I11
I20
I0
I0
I0
I2
I324
I-1
t(dtRp185
sS'r'
F22
sg155
F40
sa(dp186
g34
I1
sS'b'
F48
sg35
S'Pakistan'
p187
sg142
I01
sg122
F120.83333333333333
sg37
I336
sg151
S'not out'
p188
sg144
F1
sg130
I3
sg145
F3
sg38
S'Dubai (DSC)'
p189
sg40
g41
((I2013
I11
I15
I0
I0
I0
I4
I319
I-1
t(dtRp190
sS'r'
F58
sg155
F56
sa(dp191
g34
I2
sS'b'
F40
sg35
S'Pakistan'
p192
sg142
I01
sg122
F92.5
sg37
I334
sg151
S'not out'
p193
sg144
F4
sg130
I3
sg145
F1
sg38
S'Dubai (DSC)'
p194
sg40
g41
((I2013
I11
I13
I0
I0
I0
I2
I317
I-1
t(dtRp195
sS'r'
F37
sg155
F41
sa(dp196
g34
I1
sS'b'
F65
sg35
S'Sri Lanka'
p197
sg122
F130.76923076923077
sg37
I325
sg151
S'bowled'
p198
sg144
F10
sg130
I3
sg145
F3
sg38
S'Hambantota'
p199
sg40
g41
((I2013
I8
I6
I0
I0
I0
I1
I218
I-1
t(dtRp200
sS'r'
F85
sg155
F83
sa(dp201
g34
I1
sS'b'
F15
sg35
S'Sri Lanka'
p202
sg122
F80
sg37
I324
sg151
S'bowled'
p203
sg144
F0
sg130
I3
sg145
F1
sg38
S'Hambantota'
p204
sg40
g41
((I2013
I8
I4
I0
I0
I0
I6
I216
I-1
t(dtRp205
sS'r'
F12
sg155
F24
sa(dp206
g34
I1
sS'b'
F11
sg35
S'Sri Lanka'
p207
sg122
F72.727272727272734
sg37
I323
sg151
S'bowled'
p208
sg144
F1
sg130
I3
sg145
F0
sg38
S'Colombo (RPS)'
p209
sg40
g41
((I2013
I8
I2
I0
I0
I0
I4
I214
I-1
t(dtRp210
sS'r'
F8
sg155
F17
sa(dp211
g34
I2
sS'b'
F4
sg35
S'Pakistan'
p212
sg122
F150
sg37
I306
sg151
S'caught'
p213
sg144
F0
sg130
I3
sg145
F0
sg38
S'Centurion'
p214
sg40
g41
((I2013
I3
I3
I0
I0
I0
I6
I62
I-1
t(dtRp215
sS'r'
F6
sg155
F12
sa(dp216
g34
I1
sS'b'
F9
sg35
S'New Zealand'
p217
sg122
F11.111111111111111
sg37
I297
sg151
S'bowled'
p218
sg144
F0
sg130
I2
sg145
F0
sg38
S'Port Elizabeth'
p219
sg40
g41
((I2012
I12
I26
I0
I0
I0
I2
I361
I-1
t(dtRp220
sS'r'
F1
sg155
F5
sa(dp221
g34
I1
sS'b'
F43
sg35
S'New Zealand'
p222
sg122
F146.51162790697674
sg37
I295
sg151
S'caught'
p223
sg144
F8
sg130
I3
sg145
F1
sg38
S'East London'
p224
sg40
g41
((I2012
I12
I23
I0
I0
I0
I6
I358
I-1
t(dtRp225
sS'r'
F63
sg155
F68
sa(dp226
g34
I2
sS'b'
F32
sg35
S'New Zealand'
p227
sg142
I01
sg122
F118.75
sg37
I293
sg151
S'not out'
p228
sg144
F6
sg130
I3
sg145
F0
sg38
S'Durban'
p229
sg40
g41
((I2012
I12
I21
I0
I0
I0
I4
I356
I-1
t(dtRp230
sS'r'
F38
sg155
F45
sa(dp231
g34
I2
sS'b'
F38
sg35
S'India'
p232
sg122
F171.05263157894737
sg37
I286
sg151
S'caught'
p233
sg144
F6
sg130
I4
sg145
F2
sg38
S'Colombo (RPS)'
p234
sg40
g41
((I2012
I10
I2
I0
I0
I0
I1
I276
I-1
t(dtRp235
sS'r'
F65
sg155
F40
sa(dp236
g34
I1
sS'b'
F11
sg35
S'Sri Lanka'
p237
sg122
F118.18181818181819
sg37
I269
sg151
S'caught'
p238
sg144
F0
sg130
I3
sg145
F0
sg38
S'Hambantota'
p239
sg40
g41
((I2012
I9
I22
I0
I0
I0
I5
I266
I-1
t(dtRp240
sS'r'
F13
sg155
F29
sa(dp241
g34
I2
sS'b'
F6
sg35
S'England'
p242
sg122
F133.33333333333334
sg37
I262
sg151
S'caught'
p243
sg144
F1
sg130
I3
sg145
F0
sg38
S'Birmingham'
p244
sg40
g41
((I2012
I9
I12
I0
I0
I0
I2
I256
I-1
t(dtRp245
sS'r'
F8
sg155
F15
sa(dp246
g34
I2
sS'b'
F3
sg35
S'England'
p247
sg122
F133.33333333333334
sg37
I258
sg151
S'lbw'
p248
sg144
F0
sg130
I3
sg145
F0
sg38
S'Chester-le-Street'
p249
sg40
g41
((I2012
I9
I8
I0
I0
I0
I5
I252
I-1
t(dtRp250
sS'r'
F4
sg155
F4
satp251
ssS'all'
p252
(dp253
g27
(dp254
S'c'
F33
sg29
F0
sS'i'
F99
sS'm'
F99
sS's'
F0
sg30
F33
sg31
F33
ssg120
(dp255
S'a'
F18.34
sS'b'
F790
sS'e'
F6.9645569620253163
sS'i'
F52
sg122
F15.800000000000001
sg123
F2
sS'm'
F99
sg124
F0
sS'r'
F917
sS'w'
F50
sg125
F1
sg126
F19
sg127
F5
ssg139
(dp256
S'a'
F25.637499999999999
sg141
F-1
sS'b'
F1690
sg142
F11
sS'i'
F91
sg143
F85
sS'm'
F99
sg144
F177
sg145
F58
sg122
F121.36094674556213
sS'r'
F2051
sg146
F0
sg147
F13
ssssb.