(iplayer
Player
p1
(dp2
S'is_batsman'
p3
I00
sS'name'
p4
S'Chris Gayle'
p5
sS'dob'
p6
S'1979/09/21'
p7
sS'price'
p8
S'1100000'
p9
sS'is_allrounder'
p10
I01
sS'espnid'
p11
S'51880'
p12
sS'is_overseas'
p13
I01
sS'team'
p14
S'RCB'
p15
sS'nationality'
p16
S'West Indian'
p17
sS'is_bowler'
p18
I00
sS'is_keeper'
p19
I00
sS'id'
p20
S'236'
p21
sS'is_uncapped'
p22
I00
sS'tournamentStats'
p23
(dp24
S'international'
p25
(dp26
S'fieldingStats'
p27
((dp28
S'c'
F11
sS'ctw'
p29
F0
sS'span_s'
p30
F2006
sS'm'
F42
sS's'
F0
sS'dismissals'
p31
F11
sS'i'
F42
sS'ctf'
p32
F11
sS'span_f'
p33
F2014
s(lp34
(dp35
S'inning'
p36
I1
sS'c'
F0
sg29
F0
sS'opp'
p37
S'Sri Lanka'
p38
sS't20i_num'
p39
I398
sg32
F0
sg31
F0
sS's'
F0
sS'place'
p40
S'Dhaka'
p41
sS'date'
p42
ctime
struct_time
p43
((I2014
I4
I3
I0
I0
I0
I3
I93
I-1
t(dtRp44
sa(dp45
g36
I2
sS'c'
F1
sg29
F0
sg37
S'Pakistan'
p46
sg39
I397
sg32
F1
sg31
F1
sS's'
F0
sg40
S'Dhaka'
p47
sg42
g43
((I2014
I4
I1
I0
I0
I0
I1
I91
I-1
t(dtRp48
sa(dp49
g36
I1
sS'c'
F0
sg29
F0
sg37
S'Australia'
p50
sg39
I388
sg32
F0
sg31
F0
sS's'
F0
sg40
S'Dhaka'
p51
sg42
g43
((I2014
I3
I28
I0
I0
I0
I4
I87
I-1
t(dtRp52
sa(dp53
g36
I2
sS'c'
F0
sg29
F0
sg37
S'Bangladesh'
p54
sg39
I385
sg32
F0
sg31
F0
sS's'
F0
sg40
S'Dhaka'
p55
sg42
g43
((I2014
I3
I25
I0
I0
I0
I1
I84
I-1
t(dtRp56
sa(dp57
g36
I2
sS'c'
F1
sg29
F0
sg37
S'India'
p58
sg39
I382
sg32
F1
sg31
F1
sS's'
F0
sg40
S'Dhaka'
p59
sg42
g43
((I2014
I3
I23
I0
I0
I0
I6
I82
I-1
t(dtRp60
sa(dp61
g36
I1
sS'c'
F0
sg29
F0
sg37
S'England'
p62
sg39
I362
sg32
F0
sg31
F0
sS's'
F0
sg40
S'Bridgetown'
p63
sg42
g43
((I2014
I3
I11
I0
I0
I0
I1
I70
I-1
t(dtRp64
sa(dp65
g36
I2
sS'c'
F0
sg29
F0
sg37
S'England'
p66
sg39
I361
sg32
F0
sg31
F0
sS's'
F0
sg40
S'Bridgetown'
p67
sg42
g43
((I2014
I3
I9
I0
I0
I0
I6
I68
I-1
t(dtRp68
sa(dp69
g36
I2
sS'c'
F0
sg29
F0
sg37
S'Ireland'
p70
sg39
I359
sg32
F0
sg31
F0
sS's'
F0
sg40
S'Kingston'
p71
sg42
g43
((I2014
I2
I19
I0
I0
I0
I2
I50
I-1
t(dtRp72
sa(dp73
g36
I1
sS'c'
F0
sg29
F0
sg37
S'Pakistan'
p74
sg39
I322
sg32
F0
sg31
F0
sS's'
F0
sg40
S'Kingstown'
p75
sg42
g43
((I2013
I7
I28
I0
I0
I0
I6
I209
I-1
t(dtRp76
sa(dp77
g36
I2
sS'c'
F0
sg29
F0
sg37
S'Pakistan'
p78
sg39
I321
sg32
F0
sg31
F0
sS's'
F0
sg40
S'Kingstown'
p79
sg42
g43
((I2013
I7
I27
I0
I0
I0
I5
I208
I-1
t(dtRp80
sa(dp81
g36
I2
sS'c'
F0
sg29
F0
sg37
S'Australia'
p82
sg39
I303
sg32
F0
sg31
F0
sS's'
F0
sg40
S'Brisbane'
p83
sg42
g43
((I2013
I2
I13
I0
I0
I0
I2
I44
I-1
t(dtRp84
sa(dp85
g36
I2
sS'c'
F0
sg29
F0
sg37
S'Bangladesh'
p86
sg39
I291
sg32
F0
sg31
F0
sS's'
F0
sg40
S'Dhaka'
p87
sg42
g43
((I2012
I12
I10
I0
I0
I0
I0
I345
I-1
t(dtRp88
sa(dp89
g36
I2
sS'c'
F0
sg29
F0
sg37
S'Sri Lanka'
p90
sg39
I289
sg32
F0
sg31
F0
sS's'
F0
sg40
S'Colombo (RPS)'
p91
sg42
g43
((I2012
I10
I7
I0
I0
I0
I6
I281
I-1
t(dtRp92
sa(dp93
g36
I2
sS'c'
F0
sg29
F0
sg37
S'Australia'
p94
sg39
I288
sg32
F0
sg31
F0
sS's'
F0
sg40
S'Colombo (RPS)'
p95
sg42
g43
((I2012
I10
I5
I0
I0
I0
I4
I279
I-1
t(dtRp96
sa(dp97
g36
I2
sS'c'
F1
sg29
F0
sg37
S'New Zealand'
p98
sg39
I283
sg32
F1
sg31
F1
sS's'
F0
sg40
S'Pallekele'
p99
sg42
g43
((I2012
I10
I1
I0
I0
I0
I0
I275
I-1
t(dtRp100
sa(dp101
g36
I2
sS'c'
F0
sg29
F0
sg37
S'Sri Lanka'
p102
sg39
I280
sg32
F0
sg31
F0
sS's'
F0
sg40
S'Pallekele'
p103
sg42
g43
((I2012
I9
I29
I0
I0
I0
I5
I273
I-1
t(dtRp104
sa(dp105
g36
I2
sS'c'
F1
sg29
F0
sg37
S'England'
p106
sg39
I276
sg32
F1
sg31
F1
sS's'
F0
sg40
S'Pallekele'
p107
sg42
g43
((I2012
I9
I27
I0
I0
I0
I3
I271
I-1
t(dtRp108
sa(dp109
g36
I1
sS'c'
F1
sg29
F0
sg37
S'Ireland'
p110
sg39
I273
sg32
F1
sg31
F1
sS's'
F0
sg40
S'Colombo (RPS)'
p111
sg42
g43
((I2012
I9
I24
I0
I0
I0
I0
I268
I-1
t(dtRp112
sa(dp113
g36
I2
sS'c'
F0
sg29
F0
sg37
S'Australia'
p114
sg39
I270
sg32
F0
sg31
F0
sS's'
F0
sg40
S'Colombo (RPS)'
p115
sg42
g43
((I2012
I9
I22
I0
I0
I0
I5
I266
I-1
t(dtRp116
sa(dp117
g36
I2
sS'c'
F1
sg29
F0
sg37
S'New Zealand'
p118
sg39
I248
sg32
F1
sg31
F1
sS's'
F0
sg40
S'Lauderhill'
p119
sg42
g43
((I2012
I7
I1
I0
I0
I0
I6
I183
I-1
t(dtRp120
sa(dp121
g36
I2
sS'c'
F0
sg29
F0
sg37
S'New Zealand'
p122
sg39
I247
sg32
F0
sg31
F0
sS's'
F0
sg40
S'Lauderhill'
p123
sg42
g43
((I2012
I6
I30
I0
I0
I0
I5
I182
I-1
t(dtRp124
sa(dp125
g36
I2
sS'c'
F0
sg29
F0
sg37
S'England'
p126
sg39
I246
sg32
F0
sg31
F0
sS's'
F0
sg40
S'Nottingham'
p127
sg42
g43
((I2012
I6
I24
I0
I0
I0
I6
I176
I-1
t(dtRp128
sa(dp129
g36
I1
sS'c'
F0
sg29
F0
sg37
S'South Africa'
p130
sg39
I179
sg32
F0
sg31
F0
sS's'
F0
sg40
S'North Sound'
p131
sg42
g43
((I2010
I5
I20
I0
I0
I0
I3
I140
I-1
t(dtRp132
sa(dp133
g36
I1
sS'c'
F0
sg29
F0
sg37
S'South Africa'
p134
sg39
I178
sg32
F0
sg31
F0
sS's'
F0
sg40
S'North Sound'
p135
sg42
g43
((I2010
I5
I19
I0
I0
I0
I2
I139
I-1
t(dtRp136
sa(dp137
g36
I2
sS'c'
F1
sg29
F0
sg37
S'Australia'
p138
sg39
I174
sg32
F1
sg31
F1
sS's'
F0
sg40
S'Gros Islet'
p139
sg42
g43
((I2010
I5
I11
I0
I0
I0
I1
I131
I-1
t(dtRp140
sa(dp141
g36
I2
sS'c'
F0
sg29
F0
sg37
S'India'
p142
sg39
I169
sg32
F0
sg31
F0
sS's'
F0
sg40
S'Bridgetown'
p143
sg42
g43
((I2010
I5
I9
I0
I0
I0
I6
I129
I-1
t(dtRp144
sa(dp145
g36
I1
sS'c'
F0
sg29
F0
sg37
S'Sri Lanka'
p146
sg39
I166
sg32
F0
sg31
F0
sS's'
F0
sg40
S'Bridgetown'
p147
sg42
g43
((I2010
I5
I7
I0
I0
I0
I4
I127
I-1
t(dtRp148
sa(dp149
g36
I1
sS'c'
F0
sg29
F0
sg37
S'England'
p150
sg39
I158
sg32
F0
sg31
F0
sS's'
F0
sg40
S'Providence'
p151
sg42
g43
((I2010
I5
I3
I0
I0
I0
I0
I123
I-1
t(dtRp152
sa(dp153
g36
I2
sS'c'
F0
sg29
F0
sg37
S'Australia'
p154
sg39
I147
sg32
F0
sg31
F0
sS's'
F0
sg40
S'Sydney'
p155
sg42
g43
((I2010
I2
I23
I0
I0
I0
I1
I54
I-1
t(dtRp156
sa(dp157
g36
I1
sS'c'
F0
sg29
F0
sg37
S'Australia'
p158
sg39
I146
sg32
F0
sg31
F0
sS's'
F0
sg40
S'Hobart'
p159
sg42
g43
((I2010
I2
I21
I0
I0
I0
I6
I52
I-1
t(dtRp160
sa(dp161
g36
I1
sS'c'
F0
sg29
F0
sg37
S'Sri Lanka'
p162
sg39
I115
sg32
F0
sg31
F0
sS's'
F0
sg40
S'The Oval'
p163
sg42
g43
((I2009
I6
I19
I0
I0
I0
I4
I170
I-1
t(dtRp164
sa(dp165
g36
I1
sS'c'
F0
sg29
F0
sg37
S'England'
p166
sg39
I111
sg32
F0
sg31
F0
sS's'
F0
sg40
S'The Oval'
p167
sg42
g43
((I2009
I6
I15
I0
I0
I0
I0
I166
I-1
t(dtRp168
sa(dp169
g36
I1
sS'c'
F1
sg29
F0
sg37
S'South Africa'
p170
sg39
I106
sg32
F1
sg31
F1
sS's'
F0
sg40
S'The Oval'
p171
sg42
g43
((I2009
I6
I13
I0
I0
I0
I5
I164
I-1
t(dtRp172
sa(dp173
g36
I1
sS'c'
F0
sg29
F0
sg37
S'India'
p174
sg39
I105
sg32
F0
sg31
F0
sS's'
F0
sg40
S"Lord's"
p175
sg42
g43
((I2009
I6
I12
I0
I0
I0
I4
I163
I-1
t(dtRp176
sa(dp177
g36
I1
sS'c'
F0
sg29
F0
sg37
S'Australia'
p178
sg39
I92
sg32
F0
sg31
F0
sS's'
F0
sg40
S'The Oval'
p179
sg42
g43
((I2009
I6
I6
I0
I0
I0
I5
I157
I-1
t(dtRp180
sa(dp181
g36
I1
sS'c'
F0
sg29
F0
sg37
S'New Zealand'
p182
sg39
I79
sg32
F0
sg31
F0
sS's'
F0
sg40
S'Hamilton'
p183
sg42
g43
((I2008
I12
I28
I0
I0
I0
I6
I363
I-1
t(dtRp184
sa(dp185
g36
I1
sS'c'
F1
sg29
F0
sg37
S'New Zealand'
p186
sg39
I78
sg32
F1
sg31
F1
sS's'
F0
sg40
S'Auckland'
p187
sg42
g43
((I2008
I12
I26
I0
I0
I0
I4
I361
I-1
t(dtRp188
sa(dp189
g36
I2
sS'c'
F1
sg29
F0
sg37
S'Bangladesh'
p190
sg39
I24
sg32
F1
sg31
F1
sS's'
F0
sg40
S'Johannesburg'
p191
sg42
g43
((I2007
I9
I13
I0
I0
I0
I3
I256
I-1
t(dtRp192
sa(dp193
g36
I2
sS'c'
F1
sg29
F0
sg37
S'South Africa'
p194
sg39
I20
sg32
F1
sg31
F1
sS's'
F0
sg40
S'Johannesburg'
p195
sg42
g43
((I2007
I9
I11
I0
I0
I0
I1
I254
I-1
t(dtRp196
sa(dp197
g36
I2
sS'c'
F0
sg29
F0
sg37
S'England'
p198
sg39
I16
sg32
F0
sg31
F0
sS's'
F0
sg40
S'The Oval'
p199
sg42
g43
((I2007
I6
I29
I0
I0
I0
I4
I180
I-1
t(dtRp200
sa(dp201
g36
I2
sS'c'
F0
sg29
F0
sg37
S'England'
p202
sg39
I15
sg32
F0
sg31
F0
sS's'
F0
sg40
S'The Oval'
p203
sg42
g43
((I2007
I6
I28
I0
I0
I0
I3
I179
I-1
t(dtRp204
sa(dp205
g36
I2
sS'c'
F0
sg29
F0
sg37
S'New Zealand'
p206
sg39
I5
sg32
F0
sg31
F0
sS's'
F0
sg40
S'Auckland'
p207
sg42
g43
((I2006
I2
I16
I0
I0
I0
I3
I47
I-1
t(dtRp208
satp209
sS'bowlingStats'
p210
((dp211
S'a'
F24
sS'b'
F301
sS'e'
F7.176079734219269
sS'i'
F22
sS'sr'
p212
F20.066666666666666
sS'5w'
p213
F0
sS'm'
F42
sS'maid'
p214
F0
sS'r'
F360
sS'w'
F15
sS'4w'
p215
F0
sS'bbir'
p216
F15
sS'bbiw'
p217
F2
sg33
F2014
sg30
F2006
s(lp218
(dp219
g36
I1
sS'b'
F6
sS'e'
F9
sg39
I398
sS'pos'
p220
I6
sg214
F0
sS'r'
F9
sg40
S'Dhaka'
p221
sS'w'
F0
sg42
g43
((I2014
I4
I3
I0
I0
I0
I3
I93
I-1
t(dtRp222
sg37
S'Sri Lanka'
p223
sa(dp224
g36
I2
sS'b'
F24
sS'e'
F4.5
sg39
I291
sg220
I6
sg214
F0
sS'r'
F18
sg40
S'Dhaka'
p225
sS'w'
F0
sg42
g43
((I2012
I12
I10
I0
I0
I0
I0
I345
I-1
t(dtRp226
sg37
S'Bangladesh'
p227
sa(dp228
g36
I2
sS'b'
F12
sS'e'
F7
sg39
I289
sg220
I4
sg214
F0
sS'r'
F14
sg40
S'Colombo (RPS)'
p229
sS'w'
F0
sg42
g43
((I2012
I10
I7
I0
I0
I0
I6
I281
I-1
t(dtRp230
sg37
S'Sri Lanka'
p231
sa(dp232
g36
I2
sS'b'
F6
sS'e'
F15
sg39
I283
sg220
I6
sg214
F0
sS'r'
F15
sg40
S'Pallekele'
p233
sS'w'
F0
sg42
g43
((I2012
I10
I1
I0
I0
I0
I0
I275
I-1
t(dtRp234
sg37
S'New Zealand'
p235
sa(dp236
g36
I2
sS'b'
F2
sS'e'
F6
sg39
I280
sg220
I6
sg214
F0
sS'r'
F2
sg40
S'Pallekele'
p237
sS'w'
F0
sg42
g43
((I2012
I9
I29
I0
I0
I0
I5
I273
I-1
t(dtRp238
sg37
S'Sri Lanka'
p239
sa(dp240
g36
I2
sS'b'
F24
sS'e'
F6.75
sg39
I276
sg220
I5
sg214
F0
sS'r'
F27
sg40
S'Pallekele'
p241
sS'w'
F1
sg42
g43
((I2012
I9
I27
I0
I0
I0
I3
I271
I-1
t(dtRp242
sg37
S'England'
p243
sa(dp244
g36
I1
sS'b'
F18
sS'e'
F7
sg39
I273
sg220
I6
sg214
F0
sS'r'
F21
sg40
S'Colombo (RPS)'
p245
sS'w'
F2
sg42
g43
((I2012
I9
I24
I0
I0
I0
I0
I268
I-1
t(dtRp246
sg37
S'Ireland'
p247
sa(dp248
g36
I1
sS'b'
F6
sS'e'
F12
sg39
I178
sg220
I6
sg214
F0
sS'r'
F12
sg40
S'North Sound'
p249
sS'w'
F0
sg42
g43
((I2010
I5
I19
I0
I0
I0
I2
I139
I-1
t(dtRp250
sg37
S'South Africa'
p251
sa(dp252
g36
I2
sS'b'
F2
sS'e'
F15
sg39
I174
sg220
I7
sg214
F0
sS'r'
F5
sg40
S'Gros Islet'
p253
sS'w'
F1
sg42
g43
((I2010
I5
I11
I0
I0
I0
I1
I131
I-1
t(dtRp254
sg37
S'Australia'
p255
sa(dp256
g36
I2
sS'b'
F12
sS'e'
F11
sg39
I169
sg220
I6
sg214
F0
sS'r'
F22
sg40
S'Bridgetown'
p257
sS'w'
F1
sg42
g43
((I2010
I5
I9
I0
I0
I0
I6
I129
I-1
t(dtRp258
sg37
S'India'
p259
sa(dp260
g36
I1
sS'b'
F6
sS'e'
F11
sg39
I158
sg220
I3
sg214
F0
sS'r'
F11
sg40
S'Providence'
p261
sS'w'
F1
sg42
g43
((I2010
I5
I3
I0
I0
I0
I0
I123
I-1
t(dtRp262
sg37
S'England'
p263
sa(dp264
g36
I1
sS'b'
F12
sS'e'
F7.5
sg39
I146
sg220
I6
sg214
F0
sS'r'
F15
sg40
S'Hobart'
p265
sS'w'
F2
sg42
g43
((I2010
I2
I21
I0
I0
I0
I6
I52
I-1
t(dtRp266
sg37
S'Australia'
p267
sa(dp268
g36
I1
sS'b'
F18
sS'e'
F11.666666666666666
sg39
I115
sg220
I5
sg214
F0
sS'r'
F35
sg40
S'The Oval'
p269
sS'w'
F0
sg42
g43
((I2009
I6
I19
I0
I0
I0
I4
I170
I-1
t(dtRp270
sg37
S'Sri Lanka'
p271
sa(dp272
g36
I1
sS'b'
F24
sS'e'
F6.25
sg39
I111
sg220
I5
sg214
F0
sS'r'
F25
sg40
S'The Oval'
p273
sS'w'
F1
sg42
g43
((I2009
I6
I15
I0
I0
I0
I0
I166
I-1
t(dtRp274
sg37
S'England'
p275
sa(dp276
g36
I1
sS'b'
F6
sS'e'
F7
sg39
I106
sg220
I6
sg214
F0
sS'r'
F7
sg40
S'The Oval'
p277
sS'w'
F0
sg42
g43
((I2009
I6
I13
I0
I0
I0
I5
I164
I-1
t(dtRp278
sg37
S'South Africa'
p279
sa(dp280
g36
I1
sS'b'
F18
sS'e'
F4.333333333333333
sg39
I105
sg220
I4
sg214
F0
sS'r'
F13
sg40
S"Lord's"
p281
sS'w'
F0
sg42
g43
((I2009
I6
I12
I0
I0
I0
I4
I163
I-1
t(dtRp282
sg37
S'India'
p283
sa(dp284
g36
I1
sS'b'
F12
sS'e'
F6.5
sg39
I92
sg220
I5
sg214
F0
sS'r'
F13
sg40
S'The Oval'
p285
sS'w'
F0
sg42
g43
((I2009
I6
I6
I0
I0
I0
I5
I157
I-1
t(dtRp286
sg37
S'Australia'
p287
sa(dp288
g36
I1
sS'b'
F24
sS'e'
F6.75
sg39
I79
sg220
I5
sg214
F0
sS'r'
F27
sg40
S'Hamilton'
p289
sS'w'
F2
sg42
g43
((I2008
I12
I28
I0
I0
I0
I6
I363
I-1
t(dtRp290
sg37
S'New Zealand'
p291
sa(dp292
g36
I1
sS'b'
F18
sS'e'
F5.333333333333333
sg39
I78
sg220
I6
sg214
F0
sS'r'
F16
sg40
S'Auckland'
p293
sS'w'
F2
sg42
g43
((I2008
I12
I26
I0
I0
I0
I4
I361
I-1
t(dtRp294
sg37
S'New Zealand'
p295
sa(dp296
g36
I2
sS'b'
F24
sS'e'
F5.5
sg39
I24
sg220
I3
sg214
F0
sS'r'
F22
sg40
S'Johannesburg'
p297
sS'w'
F0
sg42
g43
((I2007
I9
I13
I0
I0
I0
I3
I256
I-1
t(dtRp298
sg37
S'Bangladesh'
p299
sa(dp300
g36
I2
sS'b'
F3
sS'e'
F18
sg39
I16
sg220
I6
sg214
F0
sS'r'
F9
sg40
S'The Oval'
p301
sS'w'
F0
sg42
g43
((I2007
I6
I29
I0
I0
I0
I4
I180
I-1
t(dtRp302
sg37
S'England'
p303
sa(dp304
g36
I2
sS'b'
F24
sS'e'
F5.5
sg39
I5
sg220
I6
sg214
F0
sS'r'
F22
sg40
S'Auckland'
p305
sS'w'
F2
sg42
g43
((I2006
I2
I16
I0
I0
I0
I3
I47
I-1
t(dtRp306
sg37
S'New Zealand'
p307
satp308
sS'battingStats'
p309
((dp310
S'a'
F32.60526315789474
sS'0s'
p311
F2
sS'b'
F914
sS'no'
p312
F3
sg30
F2006
sS'hs'
p313
F117
sS'm'
F42
sS'4s'
p314
F108
sg33
F2014
sS'i'
F41
sS'6s'
p315
F72
sg212
F135.55798687089717
sS'r'
F1239
sS'100s'
p316
F1
sS'50s'
p317
F11
s(lp318
(dp319
g36
I2
sS'b'
F13
sg37
S'Sri Lanka'
p320
sg212
F23.076923076923077
sg39
I398
sS'dismiss'
p321
S'bowled'
p322
sg314
F0
sg220
I2
sg315
F0
sg40
S'Dhaka'
p323
sg42
g43
((I2014
I4
I3
I0
I0
I0
I3
I93
I-1
t(dtRp324
sS'r'
F3
sS'minutes'
p325
F19
sa(dp326
g36
I1
sS'b'
F4
sg37
S'Pakistan'
p327
sg212
F125
sg39
I397
sg321
S'stumped'
p328
sg314
F1
sg220
I2
sg315
F0
sg40
S'Dhaka'
p329
sg42
g43
((I2014
I4
I1
I0
I0
I0
I1
I91
I-1
t(dtRp330
sS'r'
F5
sg325
F10
sa(dp331
g36
I2
sS'b'
F35
sg37
S'Australia'
p332
sg212
F151.42857142857142
sg39
I388
sg321
S'caught'
p333
sg314
F6
sg220
I2
sg315
F2
sg40
S'Dhaka'
p334
sg42
g43
((I2014
I3
I28
I0
I0
I0
I4
I87
I-1
t(dtRp335
sS'r'
F53
sg325
F52
sa(dp336
g36
I1
sS'b'
F48
sg37
S'Bangladesh'
p337
sg212
F100
sg39
I385
sg321
S'caught'
p338
sg314
F3
sg220
I2
sg315
F2
sg40
S'Dhaka'
p339
sg42
g43
((I2014
I3
I25
I0
I0
I0
I1
I84
I-1
t(dtRp340
sS'r'
F48
sg325
F74
sa(dp341
g36
I1
sS'b'
F33
sg37
S'India'
p342
sg212
F103.03030303030303
sg39
I382
sg321
S'run out'
p343
sg314
F1
sg220
I2
sg315
F2
sg40
S'Dhaka'
p344
sg42
g43
((I2014
I3
I23
I0
I0
I0
I6
I82
I-1
t(dtRp345
sS'r'
F34
sg325
F49
sa(dp346
g36
I2
sS'b'
F30
sg37
S'England'
p347
sg212
F120
sg39
I362
sg321
S'bowled'
p348
sg314
F1
sg220
I2
sg315
F4
sg40
S'Bridgetown'
p349
sg42
g43
((I2014
I3
I11
I0
I0
I0
I1
I70
I-1
t(dtRp350
sS'r'
F36
sg325
F40
sa(dp351
g36
I1
sS'b'
F35
sg37
S'England'
p352
sg212
F122.85714285714286
sg39
I361
sg321
S'lbw'
p353
sg314
F5
sg220
I2
sg315
F2
sg40
S'Bridgetown'
p354
sg42
g43
((I2014
I3
I9
I0
I0
I0
I6
I68
I-1
t(dtRp355
sS'r'
F43
sg325
F47
sa(dp356
g36
I1
sS'b'
F19
sg37
S'Ireland'
p357
sg212
F94.736842105263165
sg39
I359
sg321
S'caught'
p358
sg314
F3
sg220
I2
sg315
F0
sg40
S'Kingston'
p359
sg42
g43
((I2014
I2
I19
I0
I0
I0
I2
I50
I-1
t(dtRp360
sS'r'
F18
sg325
F-1
sa(dp361
g36
I2
sS'b'
F3
sg37
S'Pakistan'
p362
sg212
F33.333333333333336
sg39
I322
sg321
S'caught'
p363
sg314
F0
sg220
I2
sg315
F0
sg40
S'Kingstown'
p364
sg42
g43
((I2013
I7
I28
I0
I0
I0
I6
I209
I-1
t(dtRp365
sS'r'
F1
sg325
F9
sa(dp366
g36
I1
sS'b'
F6
sg37
S'Pakistan'
p367
sg212
F83.333333333333329
sg39
I321
sg321
S'lbw'
p368
sg314
F1
sg220
I2
sg315
F0
sg40
S'Kingstown'
p369
sg42
g43
((I2013
I7
I27
I0
I0
I0
I5
I208
I-1
t(dtRp370
sS'r'
F5
sg325
F10
sa(dp371
g36
I1
sS'b'
F7
sg37
S'Australia'
p372
sg212
F114.28571428571429
sg39
I303
sg321
S'caught'
p373
sg314
F0
sg220
I1
sg315
F1
sg40
S'Brisbane'
p374
sg42
g43
((I2013
I2
I13
I0
I0
I0
I2
I44
I-1
t(dtRp375
sS'r'
F8
sg325
F8
sa(dp376
g36
I1
sS'b'
F7
sg37
S'Bangladesh'
p377
sg212
F85.714285714285708
sg39
I291
sg321
S'bowled'
p378
sg314
F1
sg220
I2
sg315
F0
sg40
S'Dhaka'
p379
sg42
g43
((I2012
I12
I10
I0
I0
I0
I0
I345
I-1
t(dtRp380
sS'r'
F6
sg325
F11
sa(dp381
g36
I1
sS'b'
F16
sg37
S'Sri Lanka'
p382
sg212
F18.75
sg39
I289
sg321
S'lbw'
p383
sg314
F0
sg220
I2
sg315
F0
sg40
S'Colombo (RPS)'
p384
sg42
g43
((I2012
I10
I7
I0
I0
I0
I6
I281
I-1
t(dtRp385
sS'r'
F3
sg325
F26
sa(dp386
g36
I1
sS'b'
F41
sg37
S'Australia'
p387
sg312
I01
sg212
F182.92682926829269
sg39
I288
sg321
S'not out'
p388
sg314
F5
sg220
I2
sg315
F6
sg40
S'Colombo (RPS)'
p389
sg42
g43
((I2012
I10
I5
I0
I0
I0
I4
I279
I-1
t(dtRp390
sS'r'
F75
sg325
F98
sa(dp391
g36
I1
sS'b'
F14
sg37
S'New Zealand'
p392
sg212
F214.28571428571428
sg39
I283
sg321
S'caught'
p393
sg314
F3
sg220
I2
sg315
F2
sg40
S'Pallekele'
p394
sg42
g43
((I2012
I10
I1
I0
I0
I0
I0
I275
I-1
t(dtRp395
sS'r'
F30
sg325
F31
sa(dp396
g36
I1
sS'b'
F9
sg37
S'Sri Lanka'
p397
sg212
F22.222222222222221
sg39
I280
sg321
S'caught'
p398
sg314
F0
sg220
I2
sg315
F0
sg40
S'Pallekele'
p399
sg42
g43
((I2012
I9
I29
I0
I0
I0
I5
I273
I-1
t(dtRp400
sS'r'
F2
sg325
F26
sa(dp401
g36
I1
sS'b'
F35
sg37
S'England'
p402
sg212
F165.71428571428572
sg39
I276
sg321
S'caught'
p403
sg314
F6
sg220
I2
sg315
F4
sg40
S'Pallekele'
p404
sg42
g43
((I2012
I9
I27
I0
I0
I0
I3
I271
I-1
t(dtRp405
sS'r'
F58
sg325
F46
sa(dp406
g36
I1
sS'b'
F33
sg37
S'Australia'
p407
sg212
F163.63636363636363
sg39
I270
sg321
S'caught'
p408
sg314
F5
sg220
I2
sg315
F4
sg40
S'Colombo (RPS)'
p409
sg42
g43
((I2012
I9
I22
I0
I0
I0
I5
I266
I-1
t(dtRp410
sS'r'
F54
sg325
F47
sa(dp411
g36
I1
sS'b'
F39
sg37
S'New Zealand'
p412
sg212
F135.89743589743588
sg39
I248
sg321
S'bowled'
p413
sg314
F3
sg220
I2
sg315
F4
sg40
S'Lauderhill'
p414
sg42
g43
((I2012
I7
I1
I0
I0
I0
I6
I183
I-1
t(dtRp415
sS'r'
F53
sg325
F64
sa(dp416
g36
I1
sS'b'
F52
sg37
S'New Zealand'
p417
sg312
I01
sg212
F163.46153846153845
sg39
I247
sg321
S'not out'
p418
sg314
F7
sg220
I2
sg315
F5
sg40
S'Lauderhill'
p419
sg42
g43
((I2012
I6
I30
I0
I0
I0
I5
I182
I-1
t(dtRp420
sS'r'
F85
sg325
F87
sa(dp421
g36
I1
sS'b'
F8
sg37
S'England'
p422
sg212
F25
sg39
I246
sg321
S'caught'
p423
sg314
F0
sg220
I2
sg315
F0
sg40
S'Nottingham'
p424
sg42
g43
((I2012
I6
I24
I0
I0
I0
I6
I176
I-1
t(dtRp425
sS'r'
F2
sg325
F13
sa(dp426
g36
I2
sS'b'
F2
sg37
S'South Africa'
p427
sg212
F0
sg39
I179
sg321
S'lbw'
p428
sg314
F0
sg220
I1
sg315
F0
sg40
S'North Sound'
p429
sg42
g43
((I2010
I5
I20
I0
I0
I0
I3
I140
I-1
t(dtRp430
sS'r'
F0
sg325
F7
sa(dp431
g36
I2
sS'b'
F16
sg37
S'South Africa'
p432
sg212
F87.5
sg39
I178
sg321
S'caught'
p433
sg314
F2
sg220
I1
sg315
F0
sg40
S'North Sound'
p434
sg42
g43
((I2010
I5
I19
I0
I0
I0
I2
I139
I-1
t(dtRp435
sS'r'
F14
sg325
F24
sa(dp436
g36
I1
sS'b'
F2
sg37
S'Australia'
p437
sg212
F200
sg39
I174
sg321
S'bowled'
p438
sg314
F1
sg220
I1
sg315
F0
sg40
S'Gros Islet'
p439
sg42
g43
((I2010
I5
I11
I0
I0
I0
I1
I131
I-1
t(dtRp440
sS'r'
F4
sg325
F1
sa(dp441
g36
I1
sS'b'
F66
sg37
S'India'
p442
sg212
F148.4848484848485
sg39
I169
sg321
S'run out'
p443
sg314
F5
sg220
I1
sg315
F7
sg40
S'Bridgetown'
p444
sg42
g43
((I2010
I5
I9
I0
I0
I0
I6
I129
I-1
t(dtRp445
sS'r'
F98
sg325
F88
sa(dp446
g36
I2
sS'b'
F4
sg37
S'Sri Lanka'
p447
sg212
F125
sg39
I166
sg321
S'caught'
p448
sg314
F1
sg220
I1
sg315
F0
sg40
S'Bridgetown'
p449
sg42
g43
((I2010
I5
I7
I0
I0
I0
I4
I127
I-1
t(dtRp450
sS'r'
F5
sg325
F13
sa(dp451
g36
I2
sS'b'
F12
sg37
S'England'
p452
sg212
F208.33333333333334
sg39
I158
sg321
S'caught'
p453
sg314
F2
sg220
I1
sg315
F2
sg40
S'Providence'
p454
sg42
g43
((I2010
I5
I3
I0
I0
I0
I0
I123
I-1
t(dtRp455
sS'r'
F25
sg325
F-1
sa(dp456
g36
I1
sS'b'
F14
sg37
S'Australia'
p457
sg212
F85.714285714285708
sg39
I147
sg321
S'caught'
p458
sg314
F1
sg220
I1
sg315
F1
sg40
S'Sydney'
p459
sg42
g43
((I2010
I2
I23
I0
I0
I0
I1
I54
I-1
t(dtRp460
sS'r'
F12
sg325
F15
sa(dp461
g36
I2
sS'b'
F5
sg37
S'Australia'
p462
sg212
F100
sg39
I146
sg321
S'bowled'
p463
sg314
F1
sg220
I1
sg315
F0
sg40
S'Hobart'
p464
sg42
g43
((I2010
I2
I21
I0
I0
I0
I6
I52
I-1
t(dtRp465
sS'r'
F5
sg325
F7
sa(dp466
g36
I2
sS'b'
F50
sg37
S'Sri Lanka'
p467
sg312
I01
sg212
F126
sg39
I115
sg321
S'not out'
p468
sg314
F8
sg220
I1
sg315
F2
sg40
S'The Oval'
p469
sg42
g43
((I2009
I6
I19
I0
I0
I0
I4
I170
I-1
t(dtRp470
sS'r'
F63
sg325
F89
sa(dp471
g36
I2
sS'b'
F8
sg37
S'England'
p472
sg212
F187.5
sg39
I111
sg321
S'bowled'
p473
sg314
F3
sg220
I1
sg315
F0
sg40
S'The Oval'
p474
sg42
g43
((I2009
I6
I15
I0
I0
I0
I0
I166
I-1
t(dtRp475
sS'r'
F15
sg325
F9
sa(dp476
g36
I2
sS'b'
F8
sg37
S'South Africa'
p477
sg212
F62.5
sg39
I106
sg321
S'caught'
p478
sg314
F0
sg220
I1
sg315
F0
sg40
S'The Oval'
p479
sg42
g43
((I2009
I6
I13
I0
I0
I0
I5
I164
I-1
t(dtRp480
sS'r'
F5
sg325
F13
sa(dp481
g36
I2
sS'b'
F28
sg37
S'India'
p482
sg212
F78.571428571428569
sg39
I105
sg321
S'caught'
p483
sg314
F4
sg220
I1
sg315
F0
sg40
S"Lord's"
p484
sg42
g43
((I2009
I6
I12
I0
I0
I0
I4
I163
I-1
t(dtRp485
sS'r'
F22
sg325
F33
sa(dp486
g36
I2
sS'b'
F50
sg37
S'Australia'
p487
sg212
F176
sg39
I92
sg321
S'caught'
p488
sg314
F6
sg220
I1
sg315
F6
sg40
S'The Oval'
p489
sg42
g43
((I2009
I6
I6
I0
I0
I0
I5
I157
I-1
t(dtRp490
sS'r'
F88
sg325
F75
sa(dp491
g36
I2
sS'b'
F4
sg37
S'New Zealand'
p492
sg212
F25
sg39
I79
sg321
S'caught'
p493
sg314
F0
sg220
I1
sg315
F0
sg40
S'Hamilton'
p494
sg42
g43
((I2008
I12
I28
I0
I0
I0
I6
I363
I-1
t(dtRp495
sS'r'
F1
sg325
F5
sa(dp496
g36
I2
sS'b'
F41
sg37
S'New Zealand'
p497
sg212
F163.41463414634146
sg39
I78
sg321
S'caught'
p498
sg314
F5
sg220
I1
sg315
F5
sg40
S'Auckland'
p499
sg42
g43
((I2008
I12
I26
I0
I0
I0
I4
I361
I-1
t(dtRp500
sS'r'
F67
sg325
F60
sa(dp501
g36
I1
sS'b'
F3
sg37
S'Bangladesh'
p502
sg212
F0
sg39
I24
sg321
S'caught'
p503
sg314
F0
sg220
I1
sg315
F0
sg40
S'Johannesburg'
p504
sg42
g43
((I2007
I9
I13
I0
I0
I0
I3
I256
I-1
t(dtRp505
sS'r'
F0
sg325
F2
sa(dp506
g36
I1
sS'b'
F57
sg37
S'South Africa'
p507
sg212
F205.26315789473685
sg39
I20
sg321
S'caught'
p508
sg314
F7
sg220
I1
sg315
F10
sg40
S'Johannesburg'
p509
sg42
g43
((I2007
I9
I11
I0
I0
I0
I1
I254
I-1
t(dtRp510
sS'r'
F117
sg325
F75
sa(dp511
g36
I1
sS'b'
F37
sg37
S'England'
p512
sg212
F164.86486486486487
sg39
I16
sg321
S'caught'
p513
sg314
F8
sg220
I1
sg315
F1
sg40
S'The Oval'
p514
sg42
g43
((I2007
I6
I29
I0
I0
I0
I4
I180
I-1
t(dtRp515
sS'r'
F61
sg325
F55
sa(dp516
g36
I1
sS'b'
F8
sg37
S'England'
p517
sg212
F62.5
sg39
I15
sg321
S'bowled'
p518
sg314
F1
sg220
I1
sg315
F0
sg40
S'The Oval'
p519
sg42
g43
((I2007
I6
I28
I0
I0
I0
I3
I179
I-1
t(dtRp520
sS'r'
F5
sg325
F6
sa(dp521
g36
I1
sS'b'
F12
sg37
S'New Zealand'
p522
sg212
F83.333333333333329
sg39
I5
sg321
S'caught'
p523
sg314
F2
sg220
I1
sg315
F0
sg40
S'Auckland'
p524
sg42
g43
((I2006
I2
I16
I0
I0
I0
I3
I47
I-1
t(dtRp525
sS'r'
F10
sg325
F14
satp526
ssS'all'
p527
(dp528
g27
(dp529
S'c'
F44
sg29
F0
sS'i'
F164
sS'm'
F164
sS's'
F0
sg31
F44
sg32
F44
ssg210
(dp530
S'a'
F31.104477611940297
sS'b'
F1668
sS'e'
F7.4964028776978413
sS'i'
F108
sg212
F24.895522388059703
sg213
F0
sS'm'
F164
sg214
F0
sS'r'
F2084
sS'w'
F67
sg215
F1
sg216
F22
sg217
F4
ssg309
(dp531
S'a'
F43.10791366906475
sg311
F-1
sS'b'
F4005
sg312
F22
sS'i'
F161
sg313
F175
sS'm'
F164
sg314
F464
sg315
F423
sg212
F149.61298377028714
sS'r'
F5992
sg316
F11
sg317
F39
ssssb.