(iplayer
Player
p1
(dp2
S'is_batsman'
p3
I00
sS'name'
p4
S'Pat Cummins'
p5
sS'dob'
p6
S'1993/05/08'
p7
sS'price'
p8
S'800000'
p9
sS'is_allrounder'
p10
I00
sS'espnid'
p11
S'489889'
p12
sS'is_overseas'
p13
I01
sS'team'
p14
S'KKR'
p15
sS'nationality'
p16
S'Australian'
p17
sS'is_bowler'
p18
I01
sS'is_keeper'
p19
I00
sS'id'
p20
S'488'
p21
sS'is_uncapped'
p22
I00
sS'tournamentStats'
p23
(dp24
S'international'
p25
(dp26
S'fieldingStats'
p27
((dp28
S'c'
F1
sS'ctw'
p29
F0
sS'i'
F11
sS'm'
F11
sS's'
F0
sS'dismissals'
p30
F1
sS'ctf'
p31
F1
s(lp32
(dp33
S'inning'
p34
I1
sS'c'
F0
sg29
F0
sS'opp'
p35
S'West Indies'
p36
sS't20i_num'
p37
I288
sg31
F0
sg30
F0
sS's'
F0
sS'place'
p38
S'Colombo (RPS)'
p39
sS'date'
p40
ctime
struct_time
p41
((I2012
I10
I5
I0
I0
I0
I4
I279
I-1
t(dtRp42
sa(dp43
g34
I1
sS'c'
F0
sg29
F0
sg35
S'Pakistan'
p44
sg37
I285
sg31
F0
sg30
F0
sS's'
F0
sg38
S'Colombo (RPS)'
p45
sg40
g41
((I2012
I10
I2
I0
I0
I0
I1
I276
I-1
t(dtRp46
sa(dp47
g34
I1
sS'c'
F0
sg29
F0
sg35
S'South Africa'
p48
sg37
I281
sg31
F0
sg30
F0
sS's'
F0
sg38
S'Colombo (RPS)'
p49
sg40
g41
((I2012
I9
I30
I0
I0
I0
I6
I274
I-1
t(dtRp50
sa(dp51
g34
I1
sS'c'
F0
sg29
F0
sg35
S'India'
p52
sg37
I278
sg31
F0
sg30
F0
sS's'
F0
sg38
S'Colombo (RPS)'
p53
sg40
g41
((I2012
I9
I28
I0
I0
I0
I4
I272
I-1
t(dtRp54
sa(dp55
g34
I1
sS'c'
F0
sg29
F0
sg35
S'West Indies'
p56
sg37
I270
sg31
F0
sg30
F0
sS's'
F0
sg38
S'Colombo (RPS)'
p57
sg40
g41
((I2012
I9
I22
I0
I0
I0
I5
I266
I-1
t(dtRp58
sa(dp59
g34
I1
sS'c'
F0
sg29
F0
sg35
S'Ireland'
p60
sg37
I264
sg31
F0
sg30
F0
sS's'
F0
sg38
S'Colombo (RPS)'
p61
sg40
g41
((I2012
I9
I19
I0
I0
I0
I2
I263
I-1
t(dtRp62
sa(dp63
g34
I2
sS'c'
F0
sg29
F0
sg35
S'Pakistan'
p64
sg37
I259
sg31
F0
sg30
F0
sS's'
F0
sg38
S'Dubai (DSC)'
p65
sg40
g41
((I2012
I9
I10
I0
I0
I0
I0
I254
I-1
t(dtRp66
sa(dp67
g34
I1
sS'c'
F0
sg29
F0
sg35
S'Pakistan'
p68
sg37
I257
sg31
F0
sg30
F0
sS's'
F0
sg38
S'Dubai (DSC)'
p69
sg40
g41
((I2012
I9
I7
I0
I0
I0
I4
I251
I-1
t(dtRp70
sa(dp71
g34
I2
sS'c'
F0
sg29
F0
sg35
S'Pakistan'
p72
sg37
I256
sg31
F0
sg30
F0
sS's'
F0
sg38
S'Dubai (DSC)'
p73
sg40
g41
((I2012
I9
I5
I0
I0
I0
I2
I249
I-1
t(dtRp74
sa(dp75
g34
I2
sS'c'
F0
sg29
F0
sg35
S'South Africa'
p76
sg37
I212
sg31
F0
sg30
F0
sS's'
F0
sg38
S'Johannesburg'
p77
sg40
g41
((I2011
I10
I16
I0
I0
I0
I6
I289
I-1
t(dtRp78
sa(dp79
g34
I1
sS'c'
F1
sg29
F0
sg35
S'South Africa'
p80
sg37
I210
sg31
F1
sg30
F1
sS's'
F0
sg38
S'Cape Town'
p81
sg40
g41
((I2011
I10
I13
I0
I0
I0
I3
I286
I-1
t(dtRp82
satp83
sS'bowlingStats'
p84
((dp85
S'a'
F19.6875
sS'b'
F258
sS'e'
F7.3255813953488369
sS'i'
F11
sS'sr'
p86
F16.125
sS'5w'
p87
F0
sS'm'
F11
sS'maid'
p88
F2
sS'r'
F315
sS'w'
F16
sS'4w'
p89
F0
sS'bbir'
p90
F15
sS'bbiw'
p91
F3
s(lp92
(dp93
g34
I1
sS'b'
F24
sS'e'
F9
sg37
I288
sS'pos'
p94
I3
sg88
F0
sS'r'
F36
sg38
S'Colombo (RPS)'
p95
sS'w'
F2
sg40
g41
((I2012
I10
I5
I0
I0
I0
I4
I279
I-1
t(dtRp96
sg35
S'West Indies'
p97
sa(dp98
g34
I1
sS'b'
F24
sS'e'
F10.5
sg37
I285
sg94
I4
sg88
F0
sS'r'
F42
sg38
S'Colombo (RPS)'
p99
sS'w'
F1
sg40
g41
((I2012
I10
I2
I0
I0
I0
I1
I276
I-1
t(dtRp100
sg35
S'Pakistan'
p101
sa(dp102
g34
I1
sS'b'
F24
sS'e'
F8.25
sg37
I281
sg94
I3
sg88
F0
sS'r'
F33
sg38
S'Colombo (RPS)'
p103
sS'w'
F0
sg40
g41
((I2012
I9
I30
I0
I0
I0
I6
I274
I-1
t(dtRp104
sg35
S'South Africa'
p105
sa(dp106
g34
I1
sS'b'
F24
sS'e'
F4
sg37
I278
sg94
I3
sg88
F0
sS'r'
F16
sg38
S'Colombo (RPS)'
p107
sS'w'
F2
sg40
g41
((I2012
I9
I28
I0
I0
I0
I4
I272
I-1
t(dtRp108
sg35
S'India'
p109
sa(dp110
g34
I1
sS'b'
F24
sS'e'
F10.25
sg37
I270
sg94
I3
sg88
F1
sS'r'
F41
sg38
S'Colombo (RPS)'
p111
sS'w'
F1
sg40
g41
((I2012
I9
I22
I0
I0
I0
I5
I266
I-1
t(dtRp112
sg35
S'West Indies'
p113
sa(dp114
g34
I1
sS'b'
F24
sS'e'
F7.25
sg37
I264
sg94
I3
sg88
F0
sS'r'
F29
sg38
S'Colombo (RPS)'
p115
sS'w'
F0
sg40
g41
((I2012
I9
I19
I0
I0
I0
I2
I263
I-1
t(dtRp116
sg35
S'Ireland'
p117
sa(dp118
g34
I2
sS'b'
F24
sS'e'
F3.75
sg37
I259
sg94
I3
sg88
F0
sS'r'
F15
sg38
S'Dubai (DSC)'
p119
sS'w'
F3
sg40
g41
((I2012
I9
I10
I0
I0
I0
I0
I254
I-1
t(dtRp120
sg35
S'Pakistan'
p121
sa(dp122
g34
I1
sS'b'
F24
sS'e'
F9.25
sg37
I257
sg94
I1
sg88
F0
sS'r'
F37
sg38
S'Dubai (DSC)'
p123
sS'w'
F1
sg40
g41
((I2012
I9
I7
I0
I0
I0
I4
I251
I-1
t(dtRp124
sg35
S'Pakistan'
p125
sa(dp126
g34
I2
sS'b'
F18
sS'e'
F4.666666666666667
sg37
I256
sg94
I3
sg88
F0
sS'r'
F14
sg38
S'Dubai (DSC)'
p127
sS'w'
F1
sg40
g41
((I2012
I9
I5
I0
I0
I0
I2
I249
I-1
t(dtRp128
sg35
S'Pakistan'
p129
sa(dp130
g34
I2
sS'b'
F24
sS'e'
F6.75
sg37
I212
sg94
I2
sg88
F1
sS'r'
F27
sg38
S'Johannesburg'
p131
sS'w'
F2
sg40
g41
((I2011
I10
I16
I0
I0
I0
I6
I289
I-1
t(dtRp132
sg35
S'South Africa'
p133
sa(dp134
g34
I1
sS'b'
F24
sS'e'
F6.25
sg37
I210
sg94
I2
sg88
F0
sS'r'
F25
sg38
S'Cape Town'
p135
sS'w'
F3
sg40
g41
((I2011
I10
I13
I0
I0
I0
I3
I286
I-1
t(dtRp136
sg35
S'South Africa'
p137
satp138
sS'battingStats'
p139
((dp140
S'a'
F5.5
sS'0s'
p141
F1
sS'b'
F24
sS'no'
p142
F1
sS'i'
F5
sS'hs'
p143
F13
sS'm'
F11
sS'4s'
p144
F1
sS'6s'
p145
F1
sg86
F91.666666666666671
sS'r'
F22
sS'100s'
p146
F0
sS'50s'
p147
F0
s(lp148
(dp149
g34
I2
sS'b'
F15
sg35
S'West Indies'
p150
sg86
F86.666666666666671
sg37
I288
sS'dismiss'
p151
S'caught'
p152
sg144
F1
sg94
I8
sg145
F0
sg38
S'Colombo (RPS)'
p153
sg40
g41
((I2012
I10
I5
I0
I0
I0
I4
I279
I-1
t(dtRp154
sS'r'
F13
sS'minutes'
p155
F28
sa(dp156
g34
I2
sS'b'
F1
sg35
S'Pakistan'
p157
sg86
F0
sg37
I285
sg151
S'lbw'
p158
sg144
F0
sg94
I8
sg145
F0
sg38
S'Colombo (RPS)'
p159
sg40
g41
((I2012
I10
I2
I0
I0
I0
I1
I276
I-1
t(dtRp160
sS'r'
F0
sg155
F2
sa(dp161
g34
I1
sS'b'
F1
sg35
S'Pakistan'
p162
sg142
I01
sg86
F100
sg37
I259
sg151
S'not out'
p163
sg144
F0
sg94
I9
sg145
F0
sg38
S'Dubai (DSC)'
p164
sg40
g41
((I2012
I9
I10
I0
I0
I0
I0
I254
I-1
t(dtRp165
sS'r'
F1
sg155
F2
sa(dp166
g34
I2
sS'b'
F3
sg35
S'Pakistan'
p167
sg86
F233.33333333333334
sg37
I257
sg151
S'caught'
p168
sg144
F0
sg94
I9
sg145
F1
sg38
S'Dubai (DSC)'
p169
sg40
g41
((I2012
I9
I7
I0
I0
I0
I4
I251
I-1
t(dtRp170
sS'r'
F7
sg155
F4
sa(dp171
g34
I1
sS'b'
F4
sg35
S'Pakistan'
p172
sg86
F25
sg37
I256
sg151
S'caught'
p173
sg144
F0
sg94
I9
sg145
F0
sg38
S'Dubai (DSC)'
p174
sg40
g41
((I2012
I9
I5
I0
I0
I0
I2
I249
I-1
t(dtRp175
sS'r'
F1
sg155
F10
satp176
ssS'all'
p177
(dp178
g27
(dp179
S'c'
F5
sg29
F0
sS'i'
F32
sS'm'
F32
sS's'
F0
sg30
F5
sg31
F5
ssg84
(dp180
S'a'
F21
sS'b'
F735
sS'e'
F7.5428571428571427
sS'i'
F32
sg86
F16.704545454545453
sg87
F0
sS'm'
F32
sg88
F0
sS'r'
F924
sS'w'
F44
sg89
F2
sg90
F16
sg91
F4
ssg139
(dp181
S'a'
F7.5
sg141
F-1
sS'b'
F60
sg142
F4
sS'i'
F12
sg143
F14
sS'm'
F32
sg144
F3
sg145
F2
sg86
F100
sS'r'
F60
sg146
F0
sg147
F0
ssssb.