(iplayer
Player
p1
(dp2
S'is_batsman'
p3
I00
sS'name'
p4
S'Muttiah Muralitharan'
p5
sS'dob'
p6
S'1972/04/17'
p7
sS'price'
p8
S'900000'
p9
sS'is_allrounder'
p10
I00
sS'espnid'
p11
S'49636'
p12
sS'is_overseas'
p13
I01
sS'team'
p14
S'RCB'
p15
sS'nationality'
p16
S'Sri Lankan'
p17
sS'is_bowler'
p18
I01
sS'is_keeper'
p19
I00
sS'id'
p20
S'241'
p21
sS'is_uncapped'
p22
I00
sS'tournamentStats'
p23
(dp24
S'international'
p25
(dp26
S'fieldingStats'
p27
((dp28
S'c'
F1
sS'ctw'
p29
F0
sS'span_s'
p30
F2006
sS'm'
F12
sS's'
F0
sS'dismissals'
p31
F1
sS'i'
F12
sS'ctf'
p32
F1
sS'span_f'
p33
F2010
s(lp34
(dp35
S'inning'
p36
I1
sS'c'
F1
sg29
F0
sS'opp'
p37
S'Australia'
p38
sS't20i_num'
p39
I192
sg32
F1
sg31
F1
sS's'
F0
sS'place'
p40
S'Perth'
p41
sS'date'
p42
ctime
struct_time
p43
((I2010
I10
I31
I0
I0
I0
I6
I304
I-1
t(dtRp44
sa(dp45
g36
I2
sS'c'
F0
sg29
F0
sg37
S'West Indies'
p46
sg39
I166
sg32
F0
sg31
F0
sS's'
F0
sg40
S'Bridgetown'
p47
sg42
g43
((I2010
I5
I7
I0
I0
I0
I4
I127
I-1
t(dtRp48
sa(dp49
g36
I2
sS'c'
F0
sg29
F0
sg37
S'New Zealand'
p50
sg39
I151
sg32
F0
sg31
F0
sS's'
F0
sg40
S'Providence'
p51
sg42
g43
((I2010
I4
I30
I0
I0
I0
I4
I120
I-1
t(dtRp52
sa(dp53
g36
I1
sS'c'
F0
sg29
F0
sg37
S'Pakistan'
p54
sg39
I118
sg32
F0
sg31
F0
sS's'
F0
sg40
S'Colombo (RPS)'
p55
sg42
g43
((I2009
I8
I12
I0
I0
I0
I2
I224
I-1
t(dtRp56
sa(dp57
g36
I2
sS'c'
F0
sg29
F0
sg37
S'Pakistan'
p58
sg39
I116
sg32
F0
sg31
F0
sS's'
F0
sg40
S"Lord's"
p59
sg42
g43
((I2009
I6
I21
I0
I0
I0
I6
I172
I-1
t(dtRp60
sa(dp61
g36
I2
sS'c'
F0
sg29
F0
sg37
S'West Indies'
p62
sg39
I115
sg32
F0
sg31
F0
sS's'
F0
sg40
S'The Oval'
p63
sg42
g43
((I2009
I6
I19
I0
I0
I0
I4
I170
I-1
t(dtRp64
sa(dp65
g36
I2
sS'c'
F0
sg29
F0
sg37
S'New Zealand'
p66
sg39
I112
sg32
F0
sg31
F0
sS's'
F0
sg40
S'Nottingham'
p67
sg42
g43
((I2009
I6
I16
I0
I0
I0
I1
I167
I-1
t(dtRp68
sa(dp69
g36
I2
sS'c'
F0
sg29
F0
sg37
S'Ireland'
p70
sg39
I108
sg32
F0
sg31
F0
sS's'
F0
sg40
S"Lord's"
p71
sg42
g43
((I2009
I6
I14
I0
I0
I0
I6
I165
I-1
t(dtRp72
sa(dp73
g36
I2
sS'c'
F0
sg29
F0
sg37
S'Pakistan'
p74
sg39
I104
sg32
F0
sg31
F0
sS's'
F0
sg40
S"Lord's"
p75
sg42
g43
((I2009
I6
I12
I0
I0
I0
I4
I163
I-1
t(dtRp76
sa(dp77
g36
I2
sS'c'
F0
sg29
F0
sg37
S'West Indies'
p78
sg39
I100
sg32
F0
sg31
F0
sS's'
F0
sg40
S'Nottingham'
p79
sg42
g43
((I2009
I6
I10
I0
I0
I0
I2
I161
I-1
t(dtRp80
sa(dp81
g36
I1
sS'c'
F0
sg29
F0
sg37
S'Australia'
p82
sg39
I97
sg32
F0
sg31
F0
sS's'
F0
sg40
S'Nottingham'
p83
sg42
g43
((I2009
I6
I8
I0
I0
I0
I0
I159
I-1
t(dtRp84
sa(dp85
g36
I1
sS'c'
F0
sg29
F0
sg37
S'New Zealand'
p86
sg39
I11
sg32
F0
sg31
F0
sS's'
F0
sg40
S'Wellington'
p87
sg42
g43
((I2006
I12
I22
I0
I0
I0
I4
I356
I-1
t(dtRp88
satp89
sS'bowlingStats'
p90
((dp91
S'a'
F22.846153846153847
sS'b'
F282
sS'e'
F6.3191489361702127
sS'i'
F12
sS'sr'
p92
F21.692307692307693
sS'5w'
p93
F0
sS'm'
F12
sS'maid'
p94
F0
sS'r'
F297
sS'w'
F13
sS'4w'
p95
F0
sS'bbir'
p96
F29
sS'bbiw'
p97
F3
sg33
F2010
sg30
F2006
s(lp98
(dp99
g36
I1
sS'b'
F24
sS'e'
F7.75
sg39
I192
sS'pos'
p100
I3
sg94
F0
sS'r'
F31
sg40
S'Perth'
p101
sS'w'
F0
sg42
g43
((I2010
I10
I31
I0
I0
I0
I6
I304
I-1
t(dtRp102
sg37
S'Australia'
p103
sa(dp104
g36
I2
sS'b'
F24
sS'e'
F6.5
sg39
I166
sg100
I5
sg94
F0
sS'r'
F26
sg40
S'Bridgetown'
p105
sS'w'
F0
sg42
g43
((I2010
I5
I7
I0
I0
I0
I4
I127
I-1
t(dtRp106
sg37
S'West Indies'
p107
sa(dp108
g36
I2
sS'b'
F24
sS'e'
F6.25
sg39
I151
sg100
I5
sg94
F0
sS'r'
F25
sg40
S'Providence'
p109
sS'w'
F2
sg42
g43
((I2010
I4
I30
I0
I0
I0
I4
I120
I-1
t(dtRp110
sg37
S'New Zealand'
p111
sa(dp112
g36
I1
sS'b'
F24
sS'e'
F7.5
sg39
I118
sg100
I4
sg94
F0
sS'r'
F30
sg40
S'Colombo (RPS)'
p113
sS'w'
F0
sg42
g43
((I2009
I8
I12
I0
I0
I0
I2
I224
I-1
t(dtRp114
sg37
S'Pakistan'
p115
sa(dp116
g36
I2
sS'b'
F18
sS'e'
F6.666666666666667
sg39
I116
sg100
I4
sg94
F0
sS'r'
F20
sg40
S"Lord's"
p117
sS'w'
F1
sg42
g43
((I2009
I6
I21
I0
I0
I0
I6
I172
I-1
t(dtRp118
sg37
S'Pakistan'
p119
sa(dp120
g36
I2
sS'b'
F24
sS'e'
F7.25
sg39
I115
sg100
I5
sg94
F0
sS'r'
F29
sg40
S'The Oval'
p121
sS'w'
F3
sg42
g43
((I2009
I6
I19
I0
I0
I0
I4
I170
I-1
t(dtRp122
sg37
S'West Indies'
p123
sa(dp124
g36
I2
sS'b'
F24
sS'e'
F4.5
sg39
I112
sg100
I3
sg94
F0
sS'r'
F18
sg40
S'Nottingham'
p125
sS'w'
F1
sg42
g43
((I2009
I6
I16
I0
I0
I0
I1
I167
I-1
t(dtRp126
sg37
S'New Zealand'
p127
sa(dp128
g36
I2
sS'b'
F24
sS'e'
F3.25
sg39
I108
sg100
I5
sg94
F0
sS'r'
F13
sg40
S"Lord's"
p129
sS'w'
F1
sg42
g43
((I2009
I6
I14
I0
I0
I0
I6
I165
I-1
t(dtRp130
sg37
S'Ireland'
p131
sa(dp132
g36
I2
sS'b'
F24
sS'e'
F7
sg39
I104
sg100
I4
sg94
F0
sS'r'
F28
sg40
S"Lord's"
p133
sS'w'
F2
sg42
g43
((I2009
I6
I12
I0
I0
I0
I4
I163
I-1
t(dtRp134
sg37
S'Pakistan'
p135
sa(dp136
g36
I2
sS'b'
F24
sS'e'
F5.25
sg39
I100
sg100
I5
sg94
F0
sS'r'
F21
sg40
S'Nottingham'
p137
sS'w'
F1
sg42
g43
((I2009
I6
I10
I0
I0
I0
I2
I161
I-1
t(dtRp138
sg37
S'West Indies'
p139
sa(dp140
g36
I1
sS'b'
F24
sS'e'
F7.25
sg39
I97
sg100
I6
sg94
F0
sS'r'
F29
sg40
S'Nottingham'
p141
sS'w'
F0
sg42
g43
((I2009
I6
I8
I0
I0
I0
I0
I159
I-1
t(dtRp142
sg37
S'Australia'
p143
sa(dp144
g36
I1
sS'b'
F24
sS'e'
F6.75
sg39
I11
sg100
I4
sg94
F0
sS'r'
F27
sg40
S'Wellington'
p145
sS'w'
F2
sg42
g43
((I2006
I12
I22
I0
I0
I0
I4
I356
I-1
t(dtRp146
sg37
S'New Zealand'
p147
satp148
sS'battingStats'
p149
((dp150
S'a'
F0.5
sS'0s'
p151
F1
sS'b'
F5
sS'no'
p152
F0
sg30
F2006
sS'hs'
p153
F1
sS'm'
F12
sS'4s'
p154
F0
sg33
F2010
sS'i'
F2
sS'6s'
p155
F0
sg92
F20
sS'r'
F1
sS'100s'
p156
F0
sS'50s'
p157
F0
s(lp158
(dp159
g36
I2
sS'b'
F4
sg37
S'Pakistan'
p160
sg92
F25
sg39
I118
sS'dismiss'
p161
S'caught'
p162
sg154
F0
sg100
I9
sg155
F0
sg40
S'Colombo (RPS)'
p163
sg42
g43
((I2009
I8
I12
I0
I0
I0
I2
I224
I-1
t(dtRp164
sS'r'
F1
sS'minutes'
p165
F8
sa(dp166
g36
I1
sS'b'
F1
sg37
S'Ireland'
p167
sg92
F0
sg39
I108
sg161
S'stumped'
p168
sg154
F0
sg100
I9
sg155
F0
sg40
S"Lord's"
p169
sg42
g43
((I2009
I6
I14
I0
I0
I0
I6
I165
I-1
t(dtRp170
sS'r'
F0
sg165
F3
satp171
ssS'all'
p172
(dp173
g27
(dp174
S'c'
F31
sg29
F0
sS'i'
F159
sS'm'
F159
sS's'
F0
sg31
F31
sg32
F31
ssg90
(dp175
S'a'
F21.710227272727273
sS'b'
F3609
sS'e'
F6.3524522028262673
sS'i'
F159
sg92
F20.505681818181817
sg93
F0
sS'm'
F159
sg94
F0
sS'r'
F3821
sS'w'
F176
sg95
F3
sg96
F16
sg97
F4
ssg149
(dp176
S'a'
F3.375
sg151
F-1
sS'b'
F110
sg152
F14
sS'i'
F38
sg153
F11
sS'm'
F159
sg154
F3
sg155
F2
sg92
F73.63636363636364
sS'r'
F81
sg156
F0
sg157
F0
ssssb.