(iplayer
Player
p1
(dp2
S'is_batsman'
p3
I00
sS'name'
p4
S'Ravi Rampaul'
p5
sS'dob'
p6
S'1984/10/15'
p7
sS'price'
p8
S'900000'
p9
sS'is_allrounder'
p10
I00
sS'espnid'
p11
S'52912'
p12
sS'is_overseas'
p13
I01
sS'team'
p14
S'RCB'
p15
sS'nationality'
p16
S'West Indian'
p17
sS'is_bowler'
p18
I01
sS'is_keeper'
p19
I00
sS'id'
p20
S'594'
p21
sS'is_uncapped'
p22
I00
sS'tournamentStats'
p23
(dp24
S'international'
p25
(dp26
S'fieldingStats'
p27
((dp28
S'c'
F2
sS'ctw'
p29
F0
sS'span_s'
p30
F2007
sS'm'
F22
sS's'
F0
sS'dismissals'
p31
F2
sS'i'
F22
sS'ctf'
p32
F2
sS'span_f'
p33
F2014
s(lp34
(dp35
S'inning'
p36
I1
sS'c'
F0
sg29
F0
sS'opp'
p37
S'England'
p38
sS't20i_num'
p39
I362
sg32
F0
sg31
F0
sS's'
F0
sS'place'
p40
S'Bridgetown'
p41
sS'date'
p42
ctime
struct_time
p43
((I2014
I3
I11
I0
I0
I0
I1
I70
I-1
t(dtRp44
sa(dp45
g36
I2
sS'c'
F1
sg29
F0
sg37
S'England'
p46
sg39
I361
sg32
F1
sg31
F1
sS's'
F0
sg40
S'Bridgetown'
p47
sg42
g43
((I2014
I3
I9
I0
I0
I0
I6
I68
I-1
t(dtRp48
sa(dp49
g36
I2
sS'c'
F0
sg29
F0
sg37
S'Ireland'
p50
sg39
I359
sg32
F0
sg31
F0
sS's'
F0
sg40
S'Kingston'
p51
sg42
g43
((I2014
I2
I19
I0
I0
I0
I2
I50
I-1
t(dtRp52
sa(dp53
g36
I2
sS'c'
F0
sg29
F0
sg37
S'Sri Lanka'
p54
sg39
I289
sg32
F0
sg31
F0
sS's'
F0
sg40
S'Colombo (RPS)'
p55
sg42
g43
((I2012
I10
I7
I0
I0
I0
I6
I281
I-1
t(dtRp56
sa(dp57
g36
I2
sS'c'
F1
sg29
F0
sg37
S'Australia'
p58
sg39
I288
sg32
F1
sg31
F1
sS's'
F0
sg40
S'Colombo (RPS)'
p59
sg42
g43
((I2012
I10
I5
I0
I0
I0
I4
I279
I-1
t(dtRp60
sa(dp61
g36
I2
sS'c'
F0
sg29
F0
sg37
S'New Zealand'
p62
sg39
I283
sg32
F0
sg31
F0
sS's'
F0
sg40
S'Pallekele'
p63
sg42
g43
((I2012
I10
I1
I0
I0
I0
I0
I275
I-1
t(dtRp64
sa(dp65
g36
I2
sS'c'
F0
sg29
F0
sg37
S'Sri Lanka'
p66
sg39
I280
sg32
F0
sg31
F0
sS's'
F0
sg40
S'Pallekele'
p67
sg42
g43
((I2012
I9
I29
I0
I0
I0
I5
I273
I-1
t(dtRp68
sa(dp69
g36
I2
sS'c'
F0
sg29
F0
sg37
S'England'
p70
sg39
I276
sg32
F0
sg31
F0
sS's'
F0
sg40
S'Pallekele'
p71
sg42
g43
((I2012
I9
I27
I0
I0
I0
I3
I271
I-1
t(dtRp72
sa(dp73
g36
I1
sS'c'
F0
sg29
F0
sg37
S'Ireland'
p74
sg39
I273
sg32
F0
sg31
F0
sS's'
F0
sg40
S'Colombo (RPS)'
p75
sg42
g43
((I2012
I9
I24
I0
I0
I0
I0
I268
I-1
t(dtRp76
sa(dp77
g36
I2
sS'c'
F0
sg29
F0
sg37
S'Australia'
p78
sg39
I270
sg32
F0
sg31
F0
sS's'
F0
sg40
S'Colombo (RPS)'
p79
sg42
g43
((I2012
I9
I22
I0
I0
I0
I5
I266
I-1
t(dtRp80
sa(dp81
g36
I2
sS'c'
F0
sg29
F0
sg37
S'England'
p82
sg39
I246
sg32
F0
sg31
F0
sS's'
F0
sg40
S'Nottingham'
p83
sg42
g43
((I2012
I6
I24
I0
I0
I0
I6
I176
I-1
t(dtRp84
sa(dp85
g36
I2
sS'c'
F0
sg29
F0
sg37
S'Bangladesh'
p86
sg39
I209
sg32
F0
sg31
F0
sS's'
F0
sg40
S'Dhaka'
p87
sg42
g43
((I2011
I10
I11
I0
I0
I0
I1
I284
I-1
t(dtRp88
sa(dp89
g36
I1
sS'c'
F0
sg29
F0
sg37
S'India'
p90
sg39
I200
sg32
F0
sg31
F0
sS's'
F0
sg40
S'Port of Spain'
p91
sg42
g43
((I2011
I6
I4
I0
I0
I0
I5
I155
I-1
t(dtRp92
sa(dp93
g36
I2
sS'c'
F0
sg29
F0
sg37
S'Pakistan'
p94
sg39
I199
sg32
F0
sg31
F0
sS's'
F0
sg40
S'Gros Islet'
p95
sg42
g43
((I2011
I4
I21
I0
I0
I0
I3
I111
I-1
t(dtRp96
sa(dp97
g36
I1
sS'c'
F0
sg29
F0
sg37
S'England'
p98
sg39
I158
sg32
F0
sg31
F0
sS's'
F0
sg40
S'Providence'
p99
sg42
g43
((I2010
I5
I3
I0
I0
I0
I0
I123
I-1
t(dtRp100
sa(dp101
g36
I2
sS'c'
F0
sg29
F0
sg37
S'Ireland'
p102
sg39
I152
sg32
F0
sg31
F0
sS's'
F0
sg40
S'Providence'
p103
sg42
g43
((I2010
I4
I30
I0
I0
I0
I4
I120
I-1
t(dtRp104
sa(dp105
g36
I1
sS'c'
F0
sg29
F0
sg37
S'Zimbabwe'
p106
sg39
I150
sg32
F0
sg31
F0
sS's'
F0
sg40
S'Port of Spain'
p107
sg42
g43
((I2010
I2
I28
I0
I0
I0
I6
I59
I-1
t(dtRp108
sa(dp109
g36
I2
sS'c'
F0
sg29
F0
sg37
S'South Africa'
p110
sg39
I51
sg32
F0
sg31
F0
sS's'
F0
sg40
S'Johannesburg'
p111
sg42
g43
((I2008
I1
I18
I0
I0
I0
I4
I18
I-1
t(dtRp112
sa(dp113
g36
I2
sS'c'
F0
sg29
F0
sg37
S'Bangladesh'
p114
sg39
I24
sg32
F0
sg31
F0
sS's'
F0
sg40
S'Johannesburg'
p115
sg42
g43
((I2007
I9
I13
I0
I0
I0
I3
I256
I-1
t(dtRp116
sa(dp117
g36
I2
sS'c'
F0
sg29
F0
sg37
S'South Africa'
p118
sg39
I20
sg32
F0
sg31
F0
sS's'
F0
sg40
S'Johannesburg'
p119
sg42
g43
((I2007
I9
I11
I0
I0
I0
I1
I254
I-1
t(dtRp120
sa(dp121
g36
I2
sS'c'
F0
sg29
F0
sg37
S'England'
p122
sg39
I16
sg32
F0
sg31
F0
sS's'
F0
sg40
S'The Oval'
p123
sg42
g43
((I2007
I6
I29
I0
I0
I0
I4
I180
I-1
t(dtRp124
sa(dp125
g36
I2
sS'c'
F0
sg29
F0
sg37
S'England'
p126
sg39
I15
sg32
F0
sg31
F0
sS's'
F0
sg40
S'The Oval'
p127
sg42
g43
((I2007
I6
I28
I0
I0
I0
I3
I179
I-1
t(dtRp128
satp129
sS'bowlingStats'
p130
((dp131
S'a'
F26.346153846153847
sS'b'
F473
sS'e'
F8.6892177589852011
sS'i'
F22
sS'sr'
p132
F18.192307692307693
sS'5w'
p133
F0
sS'm'
F22
sS'maid'
p134
F1
sS'r'
F685
sS'w'
F26
sS'4w'
p135
F0
sS'bbir'
p136
F16
sS'bbiw'
p137
F3
sg33
F2014
sg30
F2007
s(lp138
(dp139
g36
I1
sS'b'
F18
sS'e'
F10
sg39
I362
sS'pos'
p140
I4
sg134
F0
sS'r'
F30
sg40
S'Bridgetown'
p141
sS'w'
F0
sg42
g43
((I2014
I3
I11
I0
I0
I0
I1
I70
I-1
t(dtRp142
sg37
S'England'
p143
sa(dp144
g36
I2
sS'b'
F18
sS'e'
F10.333333333333334
sg39
I361
sg140
I2
sg134
F0
sS'r'
F31
sg40
S'Bridgetown'
p145
sS'w'
F0
sg42
g43
((I2014
I3
I9
I0
I0
I0
I6
I68
I-1
t(dtRp146
sg37
S'England'
p147
sa(dp148
g36
I2
sS'b'
F19
sS'e'
F8.526315789473685
sg39
I359
sg140
I2
sg134
F0
sS'r'
F27
sg40
S'Kingston'
p149
sS'w'
F1
sg42
g43
((I2014
I2
I19
I0
I0
I0
I2
I50
I-1
t(dtRp150
sg37
S'Ireland'
p151
sa(dp152
g36
I2
sS'b'
F18
sS'e'
F10.333333333333334
sg39
I289
sg140
I2
sg134
F0
sS'r'
F31
sg40
S'Colombo (RPS)'
p153
sS'w'
F1
sg42
g43
((I2012
I10
I7
I0
I0
I0
I6
I281
I-1
t(dtRp154
sg37
S'Sri Lanka'
p155
sa(dp156
g36
I2
sS'b'
F22
sS'e'
F4.3636363636363633
sg39
I288
sg140
I3
sg134
F0
sS'r'
F16
sg40
S'Colombo (RPS)'
p157
sS'w'
F3
sg42
g43
((I2012
I10
I5
I0
I0
I0
I4
I279
I-1
t(dtRp158
sg37
S'Australia'
p159
sa(dp160
g36
I2
sS'b'
F24
sS'e'
F5.75
sg39
I283
sg140
I1
sg134
F0
sS'r'
F23
sg40
S'Pallekele'
p161
sS'w'
F1
sg42
g43
((I2012
I10
I1
I0
I0
I0
I0
I275
I-1
t(dtRp162
sg37
S'New Zealand'
p163
sa(dp164
g36
I2
sS'b'
F24
sS'e'
F9.75
sg39
I280
sg140
I1
sg134
F0
sS'r'
F39
sg40
S'Pallekele'
p165
sS'w'
F1
sg42
g43
((I2012
I9
I29
I0
I0
I0
I5
I273
I-1
t(dtRp166
sg37
S'Sri Lanka'
p167
sa(dp168
g36
I2
sS'b'
F24
sS'e'
F9.25
sg39
I276
sg140
I1
sg134
F1
sS'r'
F37
sg40
S'Pallekele'
p169
sS'w'
F2
sg42
g43
((I2012
I9
I27
I0
I0
I0
I3
I271
I-1
t(dtRp170
sg37
S'England'
p171
sa(dp172
g36
I1
sS'b'
F24
sS'e'
F5
sg39
I273
sg140
I2
sg134
F0
sS'r'
F20
sg40
S'Colombo (RPS)'
p173
sS'w'
F1
sg42
g43
((I2012
I9
I24
I0
I0
I0
I0
I268
I-1
t(dtRp174
sg37
S'Ireland'
p175
sa(dp176
g36
I2
sS'b'
F7
sS'e'
F19.714285714285715
sg39
I270
sg140
I2
sg134
F0
sS'r'
F23
sg40
S'Colombo (RPS)'
p177
sS'w'
F0
sg42
g43
((I2012
I9
I22
I0
I0
I0
I5
I266
I-1
t(dtRp178
sg37
S'Australia'
p179
sa(dp180
g36
I2
sS'b'
F24
sS'e'
F9.25
sg39
I246
sg140
I1
sg134
F0
sS'r'
F37
sg40
S'Nottingham'
p181
sS'w'
F2
sg42
g43
((I2012
I6
I24
I0
I0
I0
I6
I176
I-1
t(dtRp182
sg37
S'England'
p183
sa(dp184
g36
I2
sS'b'
F23
sS'e'
F7.3043478260869561
sg39
I209
sg140
I1
sg134
F0
sS'r'
F28
sg40
S'Dhaka'
p185
sS'w'
F2
sg42
g43
((I2011
I10
I11
I0
I0
I0
I1
I284
I-1
t(dtRp186
sg37
S'Bangladesh'
p187
sa(dp188
g36
I1
sS'b'
F24
sS'e'
F9.5
sg39
I200
sg140
I1
sg134
F0
sS'r'
F38
sg40
S'Port of Spain'
p189
sS'w'
F0
sg42
g43
((I2011
I6
I4
I0
I0
I0
I5
I155
I-1
t(dtRp190
sg37
S'India'
p191
sa(dp192
g36
I2
sS'b'
F24
sS'e'
F7.75
sg39
I199
sg140
I1
sg134
F0
sS'r'
F31
sg40
S'Gros Islet'
p193
sS'w'
F3
sg42
g43
((I2011
I4
I21
I0
I0
I0
I3
I111
I-1
t(dtRp194
sg37
S'Pakistan'
p195
sa(dp196
g36
I1
sS'b'
F18
sS'e'
F17.333333333333332
sg39
I158
sg140
I2
sg134
F0
sS'r'
F52
sg40
S'Providence'
p197
sS'w'
F0
sg42
g43
((I2010
I5
I3
I0
I0
I0
I0
I123
I-1
t(dtRp198
sg37
S'England'
p199
sa(dp200
g36
I2
sS'b'
F18
sS'e'
F5.666666666666667
sg39
I152
sg140
I2
sg134
F0
sS'r'
F17
sg40
S'Providence'
p201
sS'w'
F3
sg42
g43
((I2010
I4
I30
I0
I0
I0
I4
I120
I-1
t(dtRp202
sg37
S'Ireland'
p203
sa(dp204
g36
I1
sS'b'
F24
sS'e'
F7
sg39
I150
sg140
I3
sg134
F0
sS'r'
F28
sg40
S'Port of Spain'
p205
sS'w'
F1
sg42
g43
((I2010
I2
I28
I0
I0
I0
I6
I59
I-1
t(dtRp206
sg37
S'Zimbabwe'
p207
sa(dp208
g36
I2
sS'b'
F24
sS'e'
F6.25
sg39
I51
sg140
I4
sg134
F0
sS'r'
F25
sg40
S'Johannesburg'
p209
sS'w'
F0
sg42
g43
((I2008
I1
I18
I0
I0
I0
I4
I18
I-1
t(dtRp210
sg37
S'South Africa'
p211
sa(dp212
g36
I2
sS'b'
F24
sS'e'
F8.75
sg39
I24
sg140
I2
sg134
F0
sS'r'
F35
sg40
S'Johannesburg'
p213
sS'w'
F2
sg42
g43
((I2007
I9
I13
I0
I0
I0
I3
I256
I-1
t(dtRp214
sg37
S'Bangladesh'
p215
sa(dp216
g36
I2
sS'b'
F24
sS'e'
F13
sg39
I20
sg140
I2
sg134
F0
sS'r'
F52
sg40
S'Johannesburg'
p217
sS'w'
F1
sg42
g43
((I2007
I9
I11
I0
I0
I0
I1
I254
I-1
t(dtRp218
sg37
S'South Africa'
p219
sa(dp220
g36
I2
sS'b'
F24
sS'e'
F9.75
sg39
I16
sg140
I2
sg134
F0
sS'r'
F39
sg40
S'The Oval'
p221
sS'w'
F2
sg42
g43
((I2007
I6
I29
I0
I0
I0
I4
I180
I-1
t(dtRp222
sg37
S'England'
p223
sa(dp224
g36
I2
sS'b'
F24
sS'e'
F6.5
sg39
I15
sg140
I2
sg134
F0
sS'r'
F26
sg40
S'The Oval'
p225
sS'w'
F0
sg42
g43
((I2007
I6
I28
I0
I0
I0
I3
I179
I-1
t(dtRp226
sg37
S'England'
p227
satp228
sS'battingStats'
p229
((dp230
S'a'
F12
sS'0s'
p231
F0
sS'b'
F21
sS'no'
p232
F5
sg30
F2007
sS'hs'
p233
F8
sS'm'
F22
sS'4s'
p234
F0
sg33
F2014
sS'i'
F6
sS'6s'
p235
F0
sg132
F57.142857142857146
sS'r'
F12
sS'100s'
p236
F0
sS'50s'
p237
F0
s(lp238
(dp239
g36
I1
sS'b'
F3
sg37
S'New Zealand'
p240
sg232
I01
sg132
F33.333333333333336
sg39
I283
sS'dismiss'
p241
S'not out'
p242
sg234
F0
sg140
I11
sg235
F0
sg40
S'Pallekele'
p243
sg42
g43
((I2012
I10
I1
I0
I0
I0
I0
I275
I-1
t(dtRp244
sS'r'
F1
sS'minutes'
p245
F6
sa(dp246
g36
I1
sS'b'
F0
sg37
S'Australia'
p247
sg232
I01
sg132
F0
sg39
I270
sg241
S'not out'
p248
sg234
F0
sg140
I9
sg235
F0
sg40
S'Colombo (RPS)'
p249
sg42
g43
((I2012
I9
I22
I0
I0
I0
I5
I266
I-1
t(dtRp250
sS'r'
F0
sg245
F2
sa(dp251
g36
I1
sS'b'
F0
sg37
S'Bangladesh'
p252
sg232
I01
sg132
F0
sg39
I209
sg241
S'not out'
p253
sg234
F0
sg140
I10
sg235
F0
sg40
S'Dhaka'
p254
sg42
g43
((I2011
I10
I11
I0
I0
I0
I1
I284
I-1
t(dtRp255
sS'r'
F0
sg245
F1
sa(dp256
g36
I1
sS'b'
F8
sg37
S'Ireland'
p257
sg132
F100
sg39
I152
sg241
S'caught'
p258
sg234
F0
sg140
I10
sg235
F0
sg40
S'Providence'
p259
sg42
g43
((I2010
I4
I30
I0
I0
I0
I4
I120
I-1
t(dtRp260
sS'r'
F8
sg245
F6
sa(dp261
g36
I2
sS'b'
F9
sg37
S'Zimbabwe'
p262
sg232
I01
sg132
F33.333333333333336
sg39
I150
sg241
S'not out'
p263
sg234
F0
sg140
I9
sg235
F0
sg40
S'Port of Spain'
p264
sg42
g43
((I2010
I2
I28
I0
I0
I0
I6
I59
I-1
t(dtRp265
sS'r'
F3
sg245
F13
sa(dp266
g36
I1
sS'b'
F1
sg37
S'England'
p267
sg232
I01
sg132
F0
sg39
I15
sg241
S'not out'
p268
sg234
F0
sg140
I10
sg235
F0
sg40
S'The Oval'
p269
sg42
g43
((I2007
I6
I28
I0
I0
I0
I3
I179
I-1
t(dtRp270
sS'r'
F0
sg245
F2
satp271
ssS'all'
p272
(dp273
g27
(dp274
S'c'
F15
sg29
F0
sS'i'
F71
sS'm'
F71
sS's'
F0
sg31
F15
sg32
F15
ssg130
(dp275
S'a'
F20.795454545454547
sS'b'
F1552
sS'e'
F7.0747422680412368
sS'i'
F70
sg132
F17.636363636363637
sg133
F1
sS'm'
F71
sg134
F0
sS'r'
F1830
sS'w'
F88
sg135
F4
sg136
F9
sg137
F5
ssg229
(dp276
S'a'
F8.6666666666666661
sg231
F-1
sS'b'
F104
sg232
F15
sS'i'
F27
sg233
F23
sS'm'
F71
sg234
F6
sg235
F3
sg132
F100
sS'r'
F104
sg236
F0
sg237
F0
ssssb.