(iplayer
Player
p1
(dp2
S'is_batsman'
p3
I00
sS'name'
p4
S'Mitchell Starc'
p5
sS'dob'
p6
S'1990/01/30'
p7
sS'price'
p8
S'900000'
p9
sS'is_allrounder'
p10
I00
sS'espnid'
p11
S'311592'
p12
sS'is_overseas'
p13
I01
sS'team'
p14
S'RCB'
p15
sS'nationality'
p16
S'Australian'
p17
sS'is_bowler'
p18
I01
sS'is_keeper'
p19
I00
sS'id'
p20
S'490'
p21
sS'is_uncapped'
p22
I00
sS'tournamentStats'
p23
(dp24
S'international'
p25
(dp26
S'fieldingStats'
p27
((dp28
S'c'
F3
sS'ctw'
p29
F0
sS'i'
F18
sS'm'
F18
sS's'
F0
sS'dismissals'
p30
F3
sS'ctf'
p31
F3
s(lp32
(dp33
S'inning'
p34
I1
sS'c'
F0
sg29
F0
sS'opp'
p35
S'Bangladesh'
p36
sS't20i_num'
p37
I396
sg31
F0
sg30
F0
sS's'
F0
sS'place'
p38
S'Dhaka'
p39
sS'date'
p40
ctime
struct_time
p41
((I2014
I4
I1
I0
I0
I0
I1
I91
I-1
t(dtRp42
sa(dp43
g34
I1
sS'c'
F0
sg29
F0
sg35
S'India'
p44
sg37
I393
sg31
F0
sg30
F0
sS's'
F0
sg38
S'Dhaka'
p45
sg40
g41
((I2014
I3
I30
I0
I0
I0
I6
I89
I-1
t(dtRp46
sa(dp47
g34
I2
sS'c'
F0
sg29
F0
sg35
S'West Indies'
p48
sg37
I388
sg31
F0
sg30
F0
sS's'
F0
sg38
S'Dhaka'
p49
sg40
g41
((I2014
I3
I28
I0
I0
I0
I4
I87
I-1
t(dtRp50
sa(dp51
g34
I1
sS'c'
F0
sg29
F0
sg35
S'Pakistan'
p52
sg37
I381
sg31
F0
sg30
F0
sS's'
F0
sg38
S'Dhaka'
p53
sg40
g41
((I2014
I3
I23
I0
I0
I0
I6
I82
I-1
t(dtRp54
sa(dp55
g34
I1
sS'c'
F0
sg29
F0
sg35
S'South Africa'
p56
sg37
I365
sg31
F0
sg30
F0
sS's'
F0
sg38
S'Centurion'
p57
sg40
g41
((I2014
I3
I14
I0
I0
I0
I4
I73
I-1
t(dtRp58
sa(dp59
g34
I1
sS'c'
F0
sg29
F0
sg35
S'South Africa'
p60
sg37
I363
sg31
F0
sg30
F0
sS's'
F0
sg38
S'Durban'
p61
sg40
g41
((I2014
I3
I12
I0
I0
I0
I2
I71
I-1
t(dtRp62
sa(dp63
g34
I2
sS'c'
F1
sg29
F0
sg35
S'England'
p64
sg37
I356
sg31
F1
sg30
F1
sS's'
F0
sg38
S'Sydney'
p65
sg40
g41
((I2014
I2
I2
I0
I0
I0
I6
I33
I-1
t(dtRp66
sa(dp67
g34
I1
sS'c'
F1
sg29
F0
sg35
S'England'
p68
sg37
I355
sg31
F1
sg30
F1
sS's'
F0
sg38
S'Melbourne'
p69
sg40
g41
((I2014
I1
I31
I0
I0
I0
I4
I31
I-1
t(dtRp70
sa(dp71
g34
I1
sS'c'
F0
sg29
F0
sg35
S'Sri Lanka'
p72
sg37
I300
sg31
F0
sg30
F0
sS's'
F0
sg38
S'Melbourne'
p73
sg40
g41
((I2013
I1
I28
I0
I0
I0
I0
I28
I-1
t(dtRp74
sa(dp75
g34
I2
sS'c'
F0
sg29
F0
sg35
S'Sri Lanka'
p76
sg37
I299
sg31
F0
sg30
F0
sS's'
F0
sg38
S'Sydney'
p77
sg40
g41
((I2013
I1
I26
I0
I0
I0
I5
I26
I-1
t(dtRp78
sa(dp79
g34
I1
sS'c'
F0
sg29
F0
sg35
S'West Indies'
p80
sg37
I288
sg31
F0
sg30
F0
sS's'
F0
sg38
S'Colombo (RPS)'
p81
sg40
g41
((I2012
I10
I5
I0
I0
I0
I4
I279
I-1
t(dtRp82
sa(dp83
g34
I1
sS'c'
F0
sg29
F0
sg35
S'Pakistan'
p84
sg37
I285
sg31
F0
sg30
F0
sS's'
F0
sg38
S'Colombo (RPS)'
p85
sg40
g41
((I2012
I10
I2
I0
I0
I0
I1
I276
I-1
t(dtRp86
sa(dp87
g34
I1
sS'c'
F0
sg29
F0
sg35
S'South Africa'
p88
sg37
I281
sg31
F0
sg30
F0
sS's'
F0
sg38
S'Colombo (RPS)'
p89
sg40
g41
((I2012
I9
I30
I0
I0
I0
I6
I274
I-1
t(dtRp90
sa(dp91
g34
I1
sS'c'
F0
sg29
F0
sg35
S'India'
p92
sg37
I278
sg31
F0
sg30
F0
sS's'
F0
sg38
S'Colombo (RPS)'
p93
sg40
g41
((I2012
I9
I28
I0
I0
I0
I4
I272
I-1
t(dtRp94
sa(dp95
g34
I1
sS'c'
F0
sg29
F0
sg35
S'West Indies'
p96
sg37
I270
sg31
F0
sg30
F0
sS's'
F0
sg38
S'Colombo (RPS)'
p97
sg40
g41
((I2012
I9
I22
I0
I0
I0
I5
I266
I-1
t(dtRp98
sa(dp99
g34
I1
sS'c'
F1
sg29
F0
sg35
S'Ireland'
p100
sg37
I264
sg31
F1
sg30
F1
sS's'
F0
sg38
S'Colombo (RPS)'
p101
sg40
g41
((I2012
I9
I19
I0
I0
I0
I2
I263
I-1
t(dtRp102
sa(dp103
g34
I2
sS'c'
F0
sg29
F0
sg35
S'Pakistan'
p104
sg37
I259
sg31
F0
sg30
F0
sS's'
F0
sg38
S'Dubai (DSC)'
p105
sg40
g41
((I2012
I9
I10
I0
I0
I0
I0
I254
I-1
t(dtRp106
sa(dp107
g34
I1
sS'c'
F0
sg29
F0
sg35
S'Pakistan'
p108
sg37
I257
sg31
F0
sg30
F0
sS's'
F0
sg38
S'Dubai (DSC)'
p109
sg40
g41
((I2012
I9
I7
I0
I0
I0
I4
I251
I-1
t(dtRp110
satp111
sS'bowlingStats'
p112
((dp113
S'a'
F19.125
sS'b'
F405
sS'e'
F6.7999999999999998
sS'i'
F18
sS'sr'
p114
F16.875
sS'5w'
p115
F0
sS'm'
F18
sS'maid'
p116
F1
sS'r'
F459
sS'w'
F24
sS'4w'
p117
F0
sS'bbir'
p118
F11
sS'bbiw'
p119
F3
s(lp120
(dp121
g34
I1
sS'b'
F24
sS'e'
F6.25
sg37
I396
sS'pos'
p122
I1
sg116
F0
sS'r'
F25
sg38
S'Dhaka'
p123
sS'w'
F1
sg40
g41
((I2014
I4
I1
I0
I0
I0
I1
I91
I-1
t(dtRp124
sg35
S'Bangladesh'
p125
sa(dp126
g34
I1
sS'b'
F24
sS'e'
F9
sg37
I393
sg122
I3
sg116
F0
sS'r'
F36
sg38
S'Dhaka'
p127
sS'w'
F1
sg40
g41
((I2014
I3
I30
I0
I0
I0
I6
I89
I-1
t(dtRp128
sg35
S'India'
p129
sa(dp130
g34
I2
sS'b'
F24
sS'e'
F12.5
sg37
I388
sg122
I2
sg116
F0
sS'r'
F50
sg38
S'Dhaka'
p131
sS'w'
F2
sg40
g41
((I2014
I3
I28
I0
I0
I0
I4
I87
I-1
t(dtRp132
sg35
S'West Indies'
p133
sa(dp134
g34
I1
sS'b'
F24
sS'e'
F8.75
sg37
I381
sg122
I1
sg116
F0
sS'r'
F35
sg38
S'Dhaka'
p135
sS'w'
F1
sg40
g41
((I2014
I3
I23
I0
I0
I0
I6
I82
I-1
t(dtRp136
sg35
S'Pakistan'
p137
sa(dp138
g34
I1
sS'b'
F24
sS'e'
F4
sg37
I365
sg122
I1
sg116
F1
sS'r'
F16
sg38
S'Centurion'
p139
sS'w'
F2
sg40
g41
((I2014
I3
I14
I0
I0
I0
I4
I73
I-1
t(dtRp140
sg35
S'South Africa'
p141
sa(dp142
g34
I1
sS'b'
F12
sS'e'
F12
sg37
I363
sg122
I1
sg116
F0
sS'r'
F24
sg38
S'Durban'
p143
sS'w'
F0
sg40
g41
((I2014
I3
I12
I0
I0
I0
I2
I71
I-1
t(dtRp144
sg35
S'South Africa'
p145
sa(dp146
g34
I2
sS'b'
F14
sS'e'
F3.4285714285714284
sg37
I356
sg122
I1
sg116
F0
sS'r'
F8
sg38
S'Sydney'
p147
sS'w'
F1
sg40
g41
((I2014
I2
I2
I0
I0
I0
I6
I33
I-1
t(dtRp148
sg35
S'England'
p149
sa(dp150
g34
I1
sS'b'
F24
sS'e'
F4.75
sg37
I355
sg122
I3
sg116
F0
sS'r'
F19
sg38
S'Melbourne'
p151
sS'w'
F1
sg40
g41
((I2014
I1
I31
I0
I0
I0
I4
I31
I-1
t(dtRp152
sg35
S'England'
p153
sa(dp154
g34
I1
sS'b'
F24
sS'e'
F8.75
sg37
I300
sg122
I2
sg116
F0
sS'r'
F35
sg38
S'Melbourne'
p155
sS'w'
F0
sg40
g41
((I2013
I1
I28
I0
I0
I0
I0
I28
I-1
t(dtRp156
sg35
S'Sri Lanka'
p157
sa(dp158
g34
I2
sS'b'
F24
sS'e'
F4.75
sg37
I299
sg122
I2
sg116
F0
sS'r'
F19
sg38
S'Sydney'
p159
sS'w'
F1
sg40
g41
((I2013
I1
I26
I0
I0
I0
I5
I26
I-1
t(dtRp160
sg35
S'Sri Lanka'
p161
sa(dp162
g34
I1
sS'b'
F24
sS'e'
F8
sg37
I288
sg122
I1
sg116
F0
sS'r'
F32
sg38
S'Colombo (RPS)'
p163
sS'w'
F1
sg40
g41
((I2012
I10
I5
I0
I0
I0
I4
I279
I-1
t(dtRp164
sg35
S'West Indies'
p165
sa(dp166
g34
I1
sS'b'
F24
sS'e'
F5
sg37
I285
sg122
I2
sg116
F0
sS'r'
F20
sg38
S'Colombo (RPS)'
p167
sS'w'
F3
sg40
g41
((I2012
I10
I2
I0
I0
I0
I1
I276
I-1
t(dtRp168
sg35
S'Pakistan'
p169
sa(dp170
g34
I1
sS'b'
F24
sS'e'
F7.5
sg37
I281
sg122
I2
sg116
F0
sS'r'
F30
sg38
S'Colombo (RPS)'
p171
sS'w'
F0
sg40
g41
((I2012
I9
I30
I0
I0
I0
I6
I274
I-1
t(dtRp172
sg35
S'South Africa'
p173
sa(dp174
g34
I1
sS'b'
F24
sS'e'
F6.75
sg37
I278
sg122
I2
sg116
F0
sS'r'
F27
sg38
S'Colombo (RPS)'
p175
sS'w'
F1
sg40
g41
((I2012
I9
I28
I0
I0
I0
I4
I272
I-1
t(dtRp176
sg35
S'India'
p177
sa(dp178
g34
I1
sS'b'
F24
sS'e'
F8.75
sg37
I270
sg122
I2
sg116
F0
sS'r'
F35
sg38
S'Colombo (RPS)'
p179
sS'w'
F3
sg40
g41
((I2012
I9
I22
I0
I0
I0
I5
I266
I-1
t(dtRp180
sg35
S'West Indies'
p181
sa(dp182
g34
I1
sS'b'
F24
sS'e'
F5
sg37
I264
sg122
I2
sg116
F0
sS'r'
F20
sg38
S'Colombo (RPS)'
p183
sS'w'
F2
sg40
g41
((I2012
I9
I19
I0
I0
I0
I2
I263
I-1
t(dtRp184
sg35
S'Ireland'
p185
sa(dp186
g34
I2
sS'b'
F19
sS'e'
F3.4736842105263159
sg37
I259
sg122
I2
sg116
F0
sS'r'
F11
sg38
S'Dubai (DSC)'
p187
sS'w'
F3
sg40
g41
((I2012
I9
I10
I0
I0
I0
I0
I254
I-1
t(dtRp188
sg35
S'Pakistan'
p189
sa(dp190
g34
I1
sS'b'
F24
sS'e'
F4.25
sg37
I257
sg122
I2
sg116
F0
sS'r'
F17
sg38
S'Dubai (DSC)'
p191
sS'w'
F1
sg40
g41
((I2012
I9
I7
I0
I0
I0
I4
I251
I-1
t(dtRp192
sg35
S'Pakistan'
p193
satp194
sS'battingStats'
p195
((dp196
S'a'
F3
sS'0s'
p197
F0
sS'b'
F18
sS'no'
p198
F1
sS'i'
F5
sS'hs'
p199
F4
sS'm'
F18
sS'4s'
p200
F0
sS'6s'
p201
F0
sg114
F66.666666666666671
sS'r'
F12
sS'100s'
p202
F0
sS'50s'
p203
F0
s(lp204
(dp205
g34
I2
sS'b'
F4
sg35
S'India'
p206
sg114
F50
sg37
I393
sS'dismiss'
p207
S'run out'
p208
sg200
F0
sg122
I9
sg201
F0
sg38
S'Dhaka'
p209
sg40
g41
((I2014
I3
I30
I0
I0
I0
I6
I89
I-1
t(dtRp210
sS'r'
F2
sS'minutes'
p211
F4
sa(dp212
g34
I1
sS'b'
F4
sg35
S'West Indies'
p213
sg114
F100
sg37
I388
sg207
S'caught'
p214
sg200
F0
sg122
I9
sg201
F0
sg38
S'Dhaka'
p215
sg40
g41
((I2014
I3
I28
I0
I0
I0
I4
I87
I-1
t(dtRp216
sS'r'
F4
sg211
F9
sa(dp217
g34
I2
sS'b'
F2
sg35
S'Pakistan'
p218
sg114
F150
sg37
I381
sg207
S'run out'
p219
sg200
F0
sg122
I9
sg201
F0
sg38
S'Dhaka'
p220
sg40
g41
((I2014
I3
I23
I0
I0
I0
I6
I82
I-1
t(dtRp221
sS'r'
F3
sg211
F6
sa(dp222
g34
I2
sS'b'
F5
sg35
S'West Indies'
p223
sg114
F40
sg37
I288
sg207
S'bowled'
p224
sg200
F0
sg122
I9
sg201
F0
sg38
S'Colombo (RPS)'
p225
sg40
g41
((I2012
I10
I5
I0
I0
I0
I4
I279
I-1
t(dtRp226
sS'r'
F2
sg211
F17
sa(dp227
g34
I2
sS'b'
F3
sg35
S'Pakistan'
p228
sg198
I01
sg114
F33.333333333333336
sg37
I285
sg207
S'not out'
p229
sg200
F0
sg122
I9
sg201
F0
sg38
S'Colombo (RPS)'
p230
sg40
g41
((I2012
I10
I2
I0
I0
I0
I1
I276
I-1
t(dtRp231
sS'r'
F1
sg211
F5
satp232
ssS'all'
p233
(dp234
g27
(dp235
S'c'
F8
sg29
F0
sS'i'
F52
sS'm'
F52
sS's'
F0
sg30
F8
sg31
F8
ssg112
(dp236
S'a'
F16.166666666666668
sS'b'
F1136
sS'e'
F7.172535211267606
sS'i'
F52
sg114
F13.523809523809524
sg115
F0
sS'm'
F52
sg116
F0
sS'r'
F1358
sS'w'
F84
sg117
F0
sg118
F11
sg119
F3
ssg195
(dp237
S'a'
F3.5714285714285716
sg197
F-1
sS'b'
F40
sg198
F6
sS'i'
F13
sg199
F8
sS'm'
F52
sg200
F1
sg201
F0
sg114
F62.5
sS'r'
F25
sg202
F0
sg203
F0
ssssb.