(iplayer
Player
p1
(dp2
S'is_batsman'
p3
I01
sS'name'
p4
S'JP Duminy'
p5
sS'dob'
p6
S'1984/04/14'
p7
sS'price'
p8
S'1000000'
p9
sS'is_allrounder'
p10
I01
sS'espnid'
p11
S'44932'
p12
sS'is_overseas'
p13
I01
sS'team'
p14
S'DD'
p15
sS'nationality'
p16
S'South African'
p17
sS'is_bowler'
p18
I00
sS'is_keeper'
p19
I00
sS'id'
p20
S'182'
p21
sS'is_uncapped'
p22
I00
sS'tournamentStats'
p23
(dp24
S'international'
p25
(dp26
S'fieldingStats'
p27
((dp28
S'c'
F22
sS'ctw'
p29
F0
sS'span_s'
p30
F2007
sS'm'
F55
sS'ctf'
p31
F22
sS'dismissals'
p32
F22
sS'i'
F55
sS's'
F0
sS'span_f'
p33
F2014
s(lp34
(dp35
S'inning'
p36
I2
sS'c'
F0
sg29
F0
sS'opp'
p37
S'India'
p38
sS't20i_num'
p39
I399
sS's'
F0
sg32
F0
sg31
F0
sS'place'
p40
S'Dhaka'
p41
sS'date'
p42
ctime
struct_time
p43
((I2014
I4
I4
I0
I0
I0
I4
I94
I-1
t(dtRp44
sa(dp45
g36
I2
sS'c'
F0
sg29
F0
sg37
S'England'
p46
sg39
I391
sS's'
F0
sg32
F0
sg31
F0
sg40
S'Chittagong'
p47
sg42
g43
((I2014
I3
I29
I0
I0
I0
I5
I88
I-1
t(dtRp48
sa(dp49
g36
I2
sS'c'
F1
sg29
F0
sg37
S'Netherlands'
p50
sg39
I386
sS's'
F0
sg32
F1
sg31
F1
sg40
S'Chittagong'
p51
sg42
g43
((I2014
I3
I27
I0
I0
I0
I3
I86
I-1
t(dtRp52
sa(dp53
g36
I2
sS'c'
F0
sg29
F0
sg37
S'New Zealand'
p54
sg39
I383
sS's'
F0
sg32
F0
sg31
F0
sg40
S'Chittagong'
p55
sg42
g43
((I2014
I3
I24
I0
I0
I0
I0
I83
I-1
t(dtRp56
sa(dp57
g36
I1
sS'c'
F0
sg29
F0
sg37
S'Sri Lanka'
p58
sg39
I379
sS's'
F0
sg32
F0
sg31
F0
sg40
S'Chittagong'
p59
sg42
g43
((I2014
I3
I22
I0
I0
I0
I5
I81
I-1
t(dtRp60
sa(dp61
g36
I2
sS'c'
F0
sg29
F0
sg37
S'Australia'
p62
sg39
I365
sS's'
F0
sg32
F0
sg31
F0
sg40
S'Centurion'
p63
sg42
g43
((I2014
I3
I14
I0
I0
I0
I4
I73
I-1
t(dtRp64
sa(dp65
g36
I2
sS'c'
F0
sg29
F0
sg37
S'Australia'
p66
sg39
I363
sS's'
F0
sg32
F0
sg31
F0
sg40
S'Durban'
p67
sg42
g43
((I2014
I3
I12
I0
I0
I0
I2
I71
I-1
t(dtRp68
sa(dp69
g36
I1
sS'c'
F1
sg29
F0
sg37
S'Pakistan'
p70
sg39
I343
sS's'
F0
sg32
F1
sg31
F1
sg40
S'Cape Town'
p71
sg42
g43
((I2013
I11
I22
I0
I0
I0
I4
I326
I-1
t(dtRp72
sa(dp73
g36
I2
sS'c'
F1
sg29
F0
sg37
S'Pakistan'
p74
sg39
I340
sS's'
F0
sg32
F1
sg31
F1
sg40
S'Johannesburg'
p75
sg42
g43
((I2013
I11
I20
I0
I0
I0
I2
I324
I-1
t(dtRp76
sa(dp77
g36
I1
sS'c'
F0
sg29
F0
sg37
S'Pakistan'
p78
sg39
I334
sS's'
F0
sg32
F0
sg31
F0
sg40
S'Dubai (DSC)'
p79
sg42
g43
((I2013
I11
I13
I0
I0
I0
I2
I317
I-1
t(dtRp80
sa(dp81
g36
I2
sS'c'
F0
sg29
F0
sg37
S'Sri Lanka'
p82
sg39
I325
sS's'
F0
sg32
F0
sg31
F0
sg40
S'Hambantota'
p83
sg42
g43
((I2013
I8
I6
I0
I0
I0
I1
I218
I-1
t(dtRp84
sa(dp85
g36
I2
sS'c'
F0
sg29
F0
sg37
S'Sri Lanka'
p86
sg39
I324
sS's'
F0
sg32
F0
sg31
F0
sg40
S'Hambantota'
p87
sg42
g43
((I2013
I8
I4
I0
I0
I0
I6
I216
I-1
t(dtRp88
sa(dp89
g36
I2
sS'c'
F1
sg29
F0
sg37
S'Sri Lanka'
p90
sg39
I323
sS's'
F0
sg32
F1
sg31
F1
sg40
S'Colombo (RPS)'
p91
sg42
g43
((I2013
I8
I2
I0
I0
I0
I4
I214
I-1
t(dtRp92
sa(dp93
g36
I1
sS'c'
F0
sg29
F0
sg37
S'India'
p94
sg39
I286
sS's'
F0
sg32
F0
sg31
F0
sg40
S'Colombo (RPS)'
p95
sg42
g43
((I2012
I10
I2
I0
I0
I0
I1
I276
I-1
t(dtRp96
sa(dp97
g36
I2
sS'c'
F0
sg29
F0
sg37
S'Australia'
p98
sg39
I281
sS's'
F0
sg32
F0
sg31
F0
sg40
S'Colombo (RPS)'
p99
sg42
g43
((I2012
I9
I30
I0
I0
I0
I6
I274
I-1
t(dtRp100
sa(dp101
g36
I2
sS'c'
F1
sg29
F0
sg37
S'Pakistan'
p102
sg39
I277
sS's'
F0
sg32
F1
sg31
F1
sg40
S'Colombo (RPS)'
p103
sg42
g43
((I2012
I9
I28
I0
I0
I0
I4
I272
I-1
t(dtRp104
sa(dp105
g36
I2
sS'c'
F1
sg29
F0
sg37
S'Sri Lanka'
p106
sg39
I269
sS's'
F0
sg32
F1
sg31
F1
sg40
S'Hambantota'
p107
sg42
g43
((I2012
I9
I22
I0
I0
I0
I5
I266
I-1
t(dtRp108
sa(dp109
g36
I1
sS'c'
F0
sg29
F0
sg37
S'Zimbabwe'
p110
sg39
I266
sS's'
F0
sg32
F0
sg31
F0
sg40
S'Hambantota'
p111
sg42
g43
((I2012
I9
I20
I0
I0
I0
I3
I264
I-1
t(dtRp112
sa(dp113
g36
I2
sS'c'
F0
sg29
F0
sg37
S'England'
p114
sg39
I260
sS's'
F0
sg32
F0
sg31
F0
sg40
S'Manchester'
p115
sg42
g43
((I2012
I9
I10
I0
I0
I0
I0
I254
I-1
t(dtRp116
sa(dp117
g36
I1
sS'c'
F0
sg29
F0
sg37
S'England'
p118
sg39
I258
sS's'
F0
sg32
F0
sg31
F0
sg40
S'Chester-le-Street'
p119
sg42
g43
((I2012
I9
I8
I0
I0
I0
I5
I252
I-1
t(dtRp120
sa(dp121
g36
I2
sS'c'
F0
sg29
F0
sg37
S'New Zealand'
p122
sg39
I223
sS's'
F0
sg32
F0
sg31
F0
sg40
S'Auckland'
p123
sg42
g43
((I2012
I2
I22
I0
I0
I0
I2
I53
I-1
t(dtRp124
sa(dp125
g36
I1
sS'c'
F0
sg29
F0
sg37
S'New Zealand'
p126
sg39
I222
sS's'
F0
sg32
F0
sg31
F0
sg40
S'Hamilton'
p127
sg42
g43
((I2012
I2
I19
I0
I0
I0
I6
I50
I-1
t(dtRp128
sa(dp129
g36
I2
sS'c'
F0
sg29
F0
sg37
S'New Zealand'
p130
sg39
I221
sS's'
F0
sg32
F0
sg31
F0
sg40
S'Wellington'
p131
sg42
g43
((I2012
I2
I17
I0
I0
I0
I4
I48
I-1
t(dtRp132
sa(dp133
g36
I1
sS'c'
F0
sg29
F0
sg37
S'Australia'
p134
sg39
I212
sS's'
F0
sg32
F0
sg31
F0
sg40
S'Johannesburg'
p135
sg42
g43
((I2011
I10
I16
I0
I0
I0
I6
I289
I-1
t(dtRp136
sa(dp137
g36
I2
sS'c'
F1
sg29
F0
sg37
S'Australia'
p138
sg39
I210
sS's'
F0
sg32
F1
sg31
F1
sg40
S'Cape Town'
p139
sg42
g43
((I2011
I10
I13
I0
I0
I0
I3
I286
I-1
t(dtRp140
sa(dp141
g36
I1
sS'c'
F0
sg29
F0
sg37
S'India'
p142
sg39
I196
sS's'
F0
sg32
F0
sg31
F0
sg40
S'Durban'
p143
sg42
g43
((I2011
I1
I9
I0
I0
I0
I6
I9
I-1
t(dtRp144
sa(dp145
g36
I1
sS'c'
F0
sg29
F0
sg37
S'Pakistan'
p146
sg39
I191
sS's'
F0
sg32
F0
sg31
F0
sg40
S'Abu Dhabi'
p147
sg42
g43
((I2010
I10
I27
I0
I0
I0
I2
I300
I-1
t(dtRp148
sa(dp149
g36
I1
sS'c'
F2
sg29
F0
sg37
S'Pakistan'
p150
sg39
I190
sS's'
F0
sg32
F2
sg31
F2
sg40
S'Abu Dhabi'
p151
sg42
g43
((I2010
I10
I26
I0
I0
I0
I1
I299
I-1
t(dtRp152
sa(dp153
g36
I2
sS'c'
F1
sg29
F0
sg37
S'Zimbabwe'
p154
sg39
I189
sS's'
F0
sg32
F1
sg31
F1
sg40
S'Kimberley'
p155
sg42
g43
((I2010
I10
I10
I0
I0
I0
I6
I283
I-1
t(dtRp156
sa(dp157
g36
I1
sS'c'
F0
sg29
F0
sg37
S'Zimbabwe'
p158
sg39
I188
sS's'
F0
sg32
F0
sg31
F0
sg40
S'Bloemfontein'
p159
sg42
g43
((I2010
I10
I8
I0
I0
I0
I4
I281
I-1
t(dtRp160
sa(dp161
g36
I2
sS'c'
F0
sg29
F0
sg37
S'West Indies'
p162
sg39
I179
sS's'
F0
sg32
F0
sg31
F0
sg40
S'North Sound'
p163
sg42
g43
((I2010
I5
I20
I0
I0
I0
I3
I140
I-1
t(dtRp164
sa(dp165
g36
I2
sS'c'
F0
sg29
F0
sg37
S'West Indies'
p166
sg39
I178
sS's'
F0
sg32
F0
sg31
F0
sg40
S'North Sound'
p167
sg42
g43
((I2010
I5
I19
I0
I0
I0
I2
I139
I-1
t(dtRp168
sa(dp169
g36
I1
sS'c'
F0
sg29
F0
sg37
S'Pakistan'
p170
sg39
I171
sS's'
F0
sg32
F0
sg31
F0
sg40
S'Gros Islet'
p171
sg42
g43
((I2010
I5
I10
I0
I0
I0
I0
I130
I-1
t(dtRp172
sa(dp173
g36
I1
sS'c'
F0
sg29
F0
sg37
S'England'
p174
sg39
I168
sS's'
F0
sg32
F0
sg31
F0
sg40
S'Bridgetown'
p175
sg42
g43
((I2010
I5
I8
I0
I0
I0
I5
I128
I-1
t(dtRp176
sa(dp177
g36
I2
sS'c'
F0
sg29
F0
sg37
S'New Zealand'
p178
sg39
I164
sS's'
F0
sg32
F0
sg31
F0
sg40
S'Bridgetown'
p179
sg42
g43
((I2010
I5
I6
I0
I0
I0
I3
I126
I-1
t(dtRp180
sa(dp181
g36
I2
sS'c'
F1
sg29
F0
sg37
S'Afghanistan'
p182
sg39
I162
sS's'
F0
sg32
F1
sg31
F1
sg40
S'Bridgetown'
p183
sg42
g43
((I2010
I5
I5
I0
I0
I0
I2
I125
I-1
t(dtRp184
sa(dp185
g36
I1
sS'c'
F0
sg29
F0
sg37
S'India'
p186
sg39
I155
sS's'
F0
sg32
F0
sg31
F0
sg40
S'Gros Islet'
p187
sg42
g43
((I2010
I5
I2
I0
I0
I0
I6
I122
I-1
t(dtRp188
sa(dp189
g36
I2
sS'c'
F0
sg29
F0
sg37
S'England'
p190
sg39
I125
sS's'
F0
sg32
F0
sg31
F0
sg40
S'Centurion'
p191
sg42
g43
((I2009
I11
I15
I0
I0
I0
I6
I319
I-1
t(dtRp192
sa(dp193
g36
I1
sS'c'
F0
sg29
F0
sg37
S'England'
p194
sg39
I124
sS's'
F0
sg32
F0
sg31
F0
sg40
S'Johannesburg'
p195
sg42
g43
((I2009
I11
I13
I0
I0
I0
I4
I317
I-1
t(dtRp196
sa(dp197
g36
I1
sS'c'
F0
sg29
F0
sg37
S'Pakistan'
p198
sg39
I114
sS's'
F0
sg32
F0
sg31
F0
sg40
S'Nottingham'
p199
sg42
g43
((I2009
I6
I18
I0
I0
I0
I3
I169
I-1
t(dtRp200
sa(dp201
g36
I2
sS'c'
F1
sg29
F0
sg37
S'India'
p202
sg39
I113
sS's'
F0
sg32
F1
sg31
F1
sg40
S'Nottingham'
p203
sg42
g43
((I2009
I6
I16
I0
I0
I0
I1
I167
I-1
t(dtRp204
sa(dp205
g36
I2
sS'c'
F1
sg29
F0
sg37
S'West Indies'
p206
sg39
I106
sS's'
F0
sg32
F1
sg31
F1
sg40
S'The Oval'
p207
sg42
g43
((I2009
I6
I13
I0
I0
I0
I5
I164
I-1
t(dtRp208
sa(dp209
g36
I1
sS'c'
F0
sg29
F0
sg37
S'England'
p210
sg39
I103
sS's'
F0
sg32
F0
sg31
F0
sg40
S'Nottingham'
p211
sg42
g43
((I2009
I6
I11
I0
I0
I0
I3
I162
I-1
t(dtRp212
sa(dp213
g36
I2
sS'c'
F0
sg29
F0
sg37
S'New Zealand'
p214
sg39
I99
sS's'
F0
sg32
F0
sg31
F0
sg40
S"Lord's"
p215
sg42
g43
((I2009
I6
I9
I0
I0
I0
I1
I160
I-1
t(dtRp216
sa(dp217
g36
I2
sS'c'
F1
sg29
F0
sg37
S'Scotland'
p218
sg39
I94
sS's'
F0
sg32
F1
sg31
F1
sg40
S'The Oval'
p219
sg42
g43
((I2009
I6
I7
I0
I0
I0
I6
I158
I-1
t(dtRp220
sa(dp221
g36
I2
sS'c'
F1
sg29
F0
sg37
S'Australia'
p222
sg39
I88
sS's'
F0
sg32
F1
sg31
F1
sg40
S'Centurion'
p223
sg42
g43
((I2009
I3
I29
I0
I0
I0
I6
I88
I-1
t(dtRp224
sa(dp225
g36
I1
sS'c'
F1
sg29
F0
sg37
S'Australia'
p226
sg39
I87
sS's'
F0
sg32
F1
sg31
F1
sg40
S'Johannesburg'
p227
sg42
g43
((I2009
I3
I27
I0
I0
I0
I4
I86
I-1
t(dtRp228
sa(dp229
g36
I2
sS'c'
F1
sg29
F0
sg37
S'Australia'
p230
sg39
I81
sS's'
F0
sg32
F1
sg31
F1
sg40
S'Brisbane'
p231
sg42
g43
((I2009
I1
I13
I0
I0
I0
I1
I13
I-1
t(dtRp232
sa(dp233
g36
I1
sS'c'
F0
sg29
F0
sg37
S'Australia'
p234
sg39
I80
sS's'
F0
sg32
F0
sg31
F0
sg40
S'Melbourne'
p235
sg42
g43
((I2009
I1
I11
I0
I0
I0
I6
I11
I-1
t(dtRp236
sa(dp237
g36
I2
sS'c'
F0
sg29
F0
sg37
S'Bangladesh'
p238
sg39
I77
sS's'
F0
sg32
F0
sg31
F0
sg40
S'Johannesburg'
p239
sg42
g43
((I2008
I11
I5
I0
I0
I0
I2
I310
I-1
t(dtRp240
sa(dp241
g36
I1
sS'c'
F1
sg29
F0
sg37
S'West Indies'
p242
sg39
I51
sS's'
F0
sg32
F1
sg31
F1
sg40
S'Johannesburg'
p243
sg42
g43
((I2008
I1
I18
I0
I0
I0
I4
I18
I-1
t(dtRp244
sa(dp245
g36
I2
sS'c'
F1
sg29
F0
sg37
S'West Indies'
p246
sg39
I50
sS's'
F0
sg32
F1
sg31
F1
sg40
S'Port Elizabeth'
p247
sg42
g43
((I2007
I12
I16
I0
I0
I0
I6
I350
I-1
t(dtRp248
sa(dp249
g36
I1
sS'c'
F2
sg29
F0
sg37
S'New Zealand'
p250
sg39
I48
sS's'
F0
sg32
F2
sg31
F2
sg40
S'Johannesburg'
p251
sg42
g43
((I2007
I11
I23
I0
I0
I0
I4
I327
I-1
t(dtRp252
sa(dp253
g36
I2
sS'c'
F0
sg29
F0
sg37
S'England'
p254
sg39
I34
sS's'
F0
sg32
F0
sg31
F0
sg40
S'Cape Town'
p255
sg42
g43
((I2007
I9
I16
I0
I0
I0
I6
I259
I-1
t(dtRp256
sa(dp257
g36
I1
sS'c'
F1
sg29
F0
sg37
S'Bangladesh'
p258
sg39
I31
sS's'
F0
sg32
F1
sg31
F1
sg40
S'Cape Town'
p259
sg42
g43
((I2007
I9
I15
I0
I0
I0
I5
I258
I-1
t(dtRp260
satp261
sS'bowlingStats'
p262
((dp263
S'a'
F24.928571428571427
sS'b'
F271
sS'e'
F7.7269372693726934
sS'i'
F25
sS'sr'
p264
F19.357142857142858
sS'5w'
p265
F0
sS'm'
F55
sS'maid'
p266
F0
sS'r'
F349
sS'w'
F14
sS'4w'
p267
F0
sS'bbir'
p268
F18
sS'bbiw'
p269
F3
sg33
F2014
sg30
F2007
s(lp270
(dp271
g36
I2
sS'b'
F18
sS'e'
F9.6666666666666661
sg39
I399
sS'pos'
p272
I1
sg266
F0
sS'r'
F29
sg40
S'Dhaka'
p273
sS'w'
F0
sg42
g43
((I2014
I4
I4
I0
I0
I0
I4
I94
I-1
t(dtRp274
sg37
S'India'
p275
sa(dp276
g36
I2
sS'b'
F12
sS'e'
F9
sg39
I391
sg272
I1
sg266
F0
sS'r'
F18
sg40
S'Chittagong'
p277
sS'w'
F0
sg42
g43
((I2014
I3
I29
I0
I0
I0
I5
I88
I-1
t(dtRp278
sg37
S'England'
p279
sa(dp280
g36
I2
sS'b'
F6
sS'e'
F12
sg39
I386
sg272
I6
sg266
F0
sS'r'
F12
sg40
S'Chittagong'
p281
sS'w'
F1
sg42
g43
((I2014
I3
I27
I0
I0
I0
I3
I86
I-1
t(dtRp282
sg37
S'Netherlands'
p283
sa(dp284
g36
I2
sS'b'
F18
sS'e'
F10
sg39
I383
sg272
I1
sg266
F0
sS'r'
F30
sg40
S'Chittagong'
p285
sS'w'
F0
sg42
g43
((I2014
I3
I24
I0
I0
I0
I0
I83
I-1
t(dtRp286
sg37
S'New Zealand'
p287
sa(dp288
g36
I1
sS'b'
F12
sS'e'
F6.5
sg39
I379
sg272
I4
sg266
F0
sS'r'
F13
sg40
S'Chittagong'
p289
sS'w'
F0
sg42
g43
((I2014
I3
I22
I0
I0
I0
I5
I81
I-1
t(dtRp290
sg37
S'Sri Lanka'
p291
sa(dp292
g36
I2
sS'b'
F12
sS'e'
F13.5
sg39
I365
sg272
I1
sg266
F0
sS'r'
F27
sg40
S'Centurion'
p293
sS'w'
F0
sg42
g43
((I2014
I3
I14
I0
I0
I0
I4
I73
I-1
t(dtRp294
sg37
S'Australia'
p295
sa(dp296
g36
I2
sS'b'
F6
sS'e'
F5
sg39
I363
sg272
I5
sg266
F0
sS'r'
F5
sg40
S'Durban'
p297
sS'w'
F2
sg42
g43
((I2014
I3
I12
I0
I0
I0
I2
I71
I-1
t(dtRp298
sg37
S'Australia'
p299
sa(dp300
g36
I1
sS'b'
F12
sS'e'
F7
sg39
I343
sg272
I6
sg266
F0
sS'r'
F14
sg40
S'Cape Town'
p301
sS'w'
F0
sg42
g43
((I2013
I11
I22
I0
I0
I0
I4
I326
I-1
t(dtRp302
sg37
S'Pakistan'
p303
sa(dp304
g36
I2
sS'b'
F7
sS'e'
F2.5714285714285716
sg39
I340
sg272
I4
sg266
F0
sS'r'
F3
sg40
S'Johannesburg'
p305
sS'w'
F1
sg42
g43
((I2013
I11
I20
I0
I0
I0
I2
I324
I-1
t(dtRp306
sg37
S'Pakistan'
p307
sa(dp308
g36
I2
sS'b'
F24
sS'e'
F4.5
sg39
I323
sg272
I5
sg266
F0
sS'r'
F18
sg40
S'Colombo (RPS)'
p309
sS'w'
F3
sg42
g43
((I2013
I8
I2
I0
I0
I0
I4
I214
I-1
t(dtRp310
sg37
S'Sri Lanka'
p311
sa(dp312
g36
I1
sS'b'
F6
sS'e'
F6
sg39
I286
sg272
I7
sg266
F0
sS'r'
F6
sg40
S'Colombo (RPS)'
p313
sS'w'
F0
sg42
g43
((I2012
I10
I2
I0
I0
I0
I1
I276
I-1
t(dtRp314
sg37
S'India'
p315
sa(dp316
g36
I2
sS'b'
F6
sS'e'
F4
sg39
I281
sg272
I7
sg266
F0
sS'r'
F4
sg40
S'Colombo (RPS)'
p317
sS'w'
F0
sg42
g43
((I2012
I9
I30
I0
I0
I0
I6
I274
I-1
t(dtRp318
sg37
S'Australia'
p319
sa(dp320
g36
I2
sS'b'
F12
sS'e'
F2.5
sg39
I277
sg272
I6
sg266
F0
sS'r'
F5
sg40
S'Colombo (RPS)'
p321
sS'w'
F1
sg42
g43
((I2012
I9
I28
I0
I0
I0
I4
I272
I-1
t(dtRp322
sg37
S'Pakistan'
p323
sa(dp324
g36
I2
sS'b'
F12
sS'e'
F4.5
sg39
I223
sg272
I7
sg266
F0
sS'r'
F9
sg40
S'Auckland'
p325
sS'w'
F0
sg42
g43
((I2012
I2
I22
I0
I0
I0
I2
I53
I-1
t(dtRp326
sg37
S'New Zealand'
p327
sa(dp328
g36
I1
sS'b'
F18
sS'e'
F9.3333333333333339
sg39
I222
sg272
I6
sg266
F0
sS'r'
F28
sg40
S'Hamilton'
p329
sS'w'
F0
sg42
g43
((I2012
I2
I19
I0
I0
I0
I6
I50
I-1
t(dtRp330
sg37
S'New Zealand'
p331
sa(dp332
g36
I2
sS'b'
F12
sS'e'
F10
sg39
I221
sg272
I6
sg266
F0
sS'r'
F20
sg40
S'Wellington'
p333
sS'w'
F1
sg42
g43
((I2012
I2
I17
I0
I0
I0
I4
I48
I-1
t(dtRp334
sg37
S'New Zealand'
p335
sa(dp336
g36
I2
sS'b'
F6
sS'e'
F4
sg39
I210
sg272
I6
sg266
F0
sS'r'
F4
sg40
S'Cape Town'
p337
sS'w'
F0
sg42
g43
((I2011
I10
I13
I0
I0
I0
I3
I286
I-1
t(dtRp338
sg37
S'Australia'
p339
sa(dp340
g36
I1
sS'b'
F12
sS'e'
F6
sg39
I196
sg272
I6
sg266
F0
sS'r'
F12
sg40
S'Durban'
p341
sS'w'
F1
sg42
g43
((I2011
I1
I9
I0
I0
I0
I6
I9
I-1
t(dtRp342
sg37
S'India'
p343
sa(dp344
g36
I2
sS'b'
F6
sS'e'
F17
sg39
I189
sg272
I6
sg266
F0
sS'r'
F17
sg40
S'Kimberley'
p345
sS'w'
F0
sg42
g43
((I2010
I10
I10
I0
I0
I0
I6
I283
I-1
t(dtRp346
sg37
S'Zimbabwe'
p347
sa(dp348
g36
I1
sS'b'
F12
sS'e'
F11.5
sg39
I188
sg272
I6
sg266
F0
sS'r'
F23
sg40
S'Bloemfontein'
p349
sS'w'
F0
sg42
g43
((I2010
I10
I8
I0
I0
I0
I4
I281
I-1
t(dtRp350
sg37
S'Zimbabwe'
p351
sa(dp352
g36
I1
sS'b'
F6
sS'e'
F11
sg39
I168
sg272
I6
sg266
F0
sS'r'
F11
sg40
S'Bridgetown'
p353
sS'w'
F1
sg42
g43
((I2010
I5
I8
I0
I0
I0
I5
I128
I-1
t(dtRp354
sg37
S'England'
p355
sa(dp356
g36
I1
sS'b'
F12
sS'e'
F7
sg39
I114
sg272
I7
sg266
F0
sS'r'
F14
sg40
S'Nottingham'
p357
sS'w'
F1
sg42
g43
((I2009
I6
I18
I0
I0
I0
I3
I169
I-1
t(dtRp358
sg37
S'Pakistan'
p359
sa(dp360
g36
I2
sS'b'
F6
sS'e'
F3
sg39
I113
sg272
I7
sg266
F0
sS'r'
F3
sg40
S'Nottingham'
p361
sS'w'
F1
sg42
g43
((I2009
I6
I16
I0
I0
I0
I1
I167
I-1
t(dtRp362
sg37
S'India'
p363
sa(dp364
g36
I2
sS'b'
F12
sS'e'
F8
sg39
I106
sg272
I7
sg266
F0
sS'r'
F16
sg40
S'The Oval'
p365
sS'w'
F1
sg42
g43
((I2009
I6
I13
I0
I0
I0
I5
I164
I-1
t(dtRp366
sg37
S'West Indies'
p367
sa(dp368
g36
I2
sS'b'
F6
sS'e'
F8
sg39
I81
sg272
I6
sg266
F0
sS'r'
F8
sg40
S'Brisbane'
p369
sS'w'
F0
sg42
g43
((I2009
I1
I13
I0
I0
I0
I1
I13
I-1
t(dtRp370
sg37
S'Australia'
p371
satp372
sS'battingStats'
p373
((dp374
S'a'
F37.277777777777779
sS'0s'
p375
F6
sS'b'
F1078
sS'no'
p376
F14
sg30
F2007
sS'hs'
p377
F96
sS'm'
F55
sS'4s'
p378
F105
sS'50s'
p379
F7
sS'i'
F50
sS'6s'
p380
F42
sg264
F124.48979591836735
sS'r'
F1342
sS'100s'
p381
F0
sg33
F2014
s(lp382
(dp383
g36
I1
sS'b'
F40
sg37
S'India'
p384
sg376
I01
sg264
F112.5
sg39
I399
sS'dismiss'
p385
S'not out'
p386
sg378
F1
sg272
I4
sg380
F3
sg40
S'Dhaka'
p387
sg42
g43
((I2014
I4
I4
I0
I0
I0
I4
I94
I-1
t(dtRp388
sS'r'
F45
sS'minutes'
p389
F56
sa(dp390
g36
I1
sS'b'
F5
sg37
S'England'
p391
sg264
F100
sg39
I391
sg385
S'run out'
p392
sg378
F0
sg272
I4
sg380
F0
sg40
S'Chittagong'
p393
sg42
g43
((I2014
I3
I29
I0
I0
I0
I5
I88
I-1
t(dtRp394
sS'r'
F5
sg389
F12
sa(dp395
g36
I1
sS'b'
F15
sg37
S'Netherlands'
p396
sg264
F80
sg39
I386
sg385
S'caught'
p397
sg378
F0
sg272
I6
sg380
F0
sg40
S'Chittagong'
p398
sg42
g43
((I2014
I3
I27
I0
I0
I0
I3
I86
I-1
t(dtRp399
sS'r'
F12
sg389
F21
sa(dp400
g36
I1
sS'b'
F43
sg37
S'New Zealand'
p401
sg376
I01
sg264
F200
sg39
I383
sg385
S'not out'
p402
sg378
F10
sg272
I5
sg380
F3
sg40
S'Chittagong'
p403
sg42
g43
((I2014
I3
I24
I0
I0
I0
I0
I83
I-1
t(dtRp404
sS'r'
F86
sg389
F57
sa(dp405
g36
I2
sS'b'
F30
sg37
S'Sri Lanka'
p406
sg264
F130
sg39
I379
sg385
S'caught'
p407
sg378
F3
sg272
I3
sg380
F2
sg40
S'Chittagong'
p408
sg42
g43
((I2014
I3
I22
I0
I0
I0
I5
I81
I-1
t(dtRp409
sS'r'
F39
sg389
F45
sa(dp410
g36
I1
sS'b'
F16
sg37
S'Australia'
p411
sg264
F81.25
sg39
I365
sg385
S'caught'
p412
sg378
F2
sg272
I4
sg380
F0
sg40
S'Centurion'
p413
sg42
g43
((I2014
I3
I14
I0
I0
I0
I4
I73
I-1
t(dtRp414
sS'r'
F13
sg389
F15
sa(dp415
g36
I2
sS'b'
F26
sg37
S'Pakistan'
p416
sg376
I01
sg264
F180.76923076923077
sg39
I343
sg385
S'not out'
p417
sg378
F3
sg272
I5
sg380
F2
sg40
S'Cape Town'
p418
sg42
g43
((I2013
I11
I22
I0
I0
I0
I4
I326
I-1
t(dtRp419
sS'r'
F47
sg389
F41
sa(dp420
g36
I1
sS'b'
F16
sg37
S'Pakistan'
p421
sg264
F68.75
sg39
I340
sg385
S'caught'
p422
sg378
F1
sg272
I5
sg380
F0
sg40
S'Johannesburg'
p423
sg42
g43
((I2013
I11
I20
I0
I0
I0
I2
I324
I-1
t(dtRp424
sS'r'
F11
sg389
F21
sa(dp425
g36
I1
sS'b'
F34
sg37
S'Sri Lanka'
p426
sg376
I01
sg264
F150
sg39
I325
sg385
S'not out'
p427
sg378
F3
sg272
I4
sg380
F2
sg40
S'Hambantota'
p428
sg42
g43
((I2013
I8
I6
I0
I0
I0
I1
I218
I-1
t(dtRp429
sS'r'
F51
sg389
F51
sa(dp430
g36
I1
sS'b'
F23
sg37
S'Sri Lanka'
p431
sg264
F130.43478260869566
sg39
I324
sg385
S'caught'
p432
sg378
F3
sg272
I4
sg380
F0
sg40
S'Hambantota'
p433
sg42
g43
((I2013
I8
I4
I0
I0
I0
I6
I216
I-1
t(dtRp434
sS'r'
F30
sg389
F35
sa(dp435
g36
I1
sS'b'
F52
sg37
S'Sri Lanka'
p436
sg264
F98.07692307692308
sg39
I323
sg385
S'caught'
p437
sg378
F3
sg272
I4
sg380
F1
sg40
S'Colombo (RPS)'
p438
sg42
g43
((I2013
I8
I2
I0
I0
I0
I4
I214
I-1
t(dtRp439
sS'r'
F51
sg389
F67
sa(dp440
g36
I2
sS'b'
F23
sg37
S'India'
p441
sg264
F69.565217391304344
sg39
I286
sg385
S'caught'
p442
sg378
F0
sg272
I5
sg380
F0
sg40
S'Colombo (RPS)'
p443
sg42
g43
((I2012
I10
I2
I0
I0
I0
I1
I276
I-1
t(dtRp444
sS'r'
F16
sg389
F39
sa(dp445
g36
I1
sS'b'
F25
sg37
S'Australia'
p446
sg264
F120
sg39
I281
sg385
S'stumped'
p447
sg378
F4
sg272
I4
sg380
F0
sg40
S'Colombo (RPS)'
p448
sg42
g43
((I2012
I9
I30
I0
I0
I0
I6
I274
I-1
t(dtRp449
sS'r'
F30
sg389
F36
sa(dp450
g36
I1
sS'b'
F38
sg37
S'Pakistan'
p451
sg264
F126.31578947368421
sg39
I277
sg385
S'caught'
p452
sg378
F2
sg272
I4
sg380
F2
sg40
S'Colombo (RPS)'
p453
sg42
g43
((I2012
I9
I28
I0
I0
I0
I4
I272
I-1
t(dtRp454
sS'r'
F48
sg389
F55
sa(dp455
g36
I1
sS'b'
F5
sg37
S'Sri Lanka'
p456
sg376
I01
sg264
F240
sg39
I269
sg385
S'not out'
p457
sg378
F1
sg272
I5
sg380
F1
sg40
S'Hambantota'
p458
sg42
g43
((I2012
I9
I22
I0
I0
I0
I5
I266
I-1
t(dtRp459
sS'r'
F12
sg389
F5
sa(dp460
g36
I1
sS'b'
F6
sg37
S'England'
p461
sg264
F83.333333333333329
sg39
I260
sg385
S'caught'
p462
sg378
F0
sg272
I5
sg380
F0
sg40
S'Manchester'
p463
sg42
g43
((I2012
I9
I10
I0
I0
I0
I0
I254
I-1
t(dtRp464
sS'r'
F5
sg389
F6
sa(dp465
g36
I2
sS'b'
F54
sg37
S'England'
p466
sg376
I01
sg264
F87.037037037037038
sg39
I258
sg385
S'not out'
p467
sg378
F4
sg272
I5
sg380
F0
sg40
S'Chester-le-Street'
p468
sg42
g43
((I2012
I9
I8
I0
I0
I0
I5
I252
I-1
t(dtRp469
sS'r'
F47
sg389
F62
sa(dp470
g36
I1
sS'b'
F20
sg37
S'New Zealand'
p471
sg264
F190
sg39
I223
sg385
S'run out'
p472
sg378
F2
sg272
I5
sg380
F2
sg40
S'Auckland'
p473
sg42
g43
((I2012
I2
I22
I0
I0
I0
I2
I53
I-1
t(dtRp474
sS'r'
F38
sg389
F23
sa(dp475
g36
I1
sS'b'
F37
sg37
S'New Zealand'
p476
sg264
F110.81081081081081
sg39
I221
sg385
S'caught'
p477
sg378
F3
sg272
I5
sg380
F0
sg40
S'Wellington'
p478
sg42
g43
((I2012
I2
I17
I0
I0
I0
I4
I48
I-1
t(dtRp479
sS'r'
F41
sg389
F50
sa(dp480
g36
I2
sS'b'
F4
sg37
S'Australia'
p481
sg264
F0
sg39
I212
sg385
S'caught'
p482
sg378
F0
sg272
I4
sg380
F0
sg40
S'Johannesburg'
p483
sg42
g43
((I2011
I10
I16
I0
I0
I0
I6
I289
I-1
t(dtRp484
sS'r'
F0
sg389
F4
sa(dp485
g36
I1
sS'b'
F53
sg37
S'Australia'
p486
sg264
F126.41509433962264
sg39
I210
sg385
S'caught'
p487
sg378
F6
sg272
I4
sg380
F3
sg40
S'Cape Town'
p488
sg42
g43
((I2011
I10
I13
I0
I0
I0
I3
I286
I-1
t(dtRp489
sS'r'
F67
sg389
F60
sa(dp490
g36
I2
sS'b'
F2
sg37
S'India'
p491
sg264
F0
sg39
I196
sg385
S'lbw'
p492
sg378
F0
sg272
I5
sg380
F0
sg40
S'Durban'
p493
sg42
g43
((I2011
I1
I9
I0
I0
I0
I6
I9
I-1
t(dtRp494
sS'r'
F0
sg389
F2
sa(dp495
g36
I2
sS'b'
F16
sg37
S'Pakistan'
p496
sg376
I01
sg264
F125
sg39
I191
sg385
S'not out'
p497
sg378
F0
sg272
I4
sg380
F2
sg40
S'Abu Dhabi'
p498
sg42
g43
((I2010
I10
I27
I0
I0
I0
I2
I300
I-1
t(dtRp499
sS'r'
F20
sg389
F35
sa(dp500
g36
I2
sS'b'
F46
sg37
S'Pakistan'
p501
sg264
F89.130434782608702
sg39
I190
sg385
S'caught'
p502
sg378
F5
sg272
I4
sg380
F0
sg40
S'Abu Dhabi'
p503
sg42
g43
((I2010
I10
I26
I0
I0
I0
I1
I299
I-1
t(dtRp504
sS'r'
F41
sg389
F54
sa(dp505
g36
I1
sS'b'
F54
sg37
S'Zimbabwe'
p506
sg376
I01
sg264
F177.77777777777777
sg39
I189
sg385
S'not out'
p507
sg378
F10
sg272
I4
sg380
F4
sg40
S'Kimberley'
p508
sg42
g43
((I2010
I10
I10
I0
I0
I0
I6
I283
I-1
t(dtRp509
sS'r'
F96
sg389
F73
sa(dp510
g36
I2
sS'b'
F22
sg37
S'Zimbabwe'
p511
sg376
I01
sg264
F159.09090909090909
sg39
I188
sg385
S'not out'
p512
sg378
F2
sg272
I4
sg380
F2
sg40
S'Bloemfontein'
p513
sg42
g43
((I2010
I10
I8
I0
I0
I0
I4
I281
I-1
t(dtRp514
sS'r'
F35
sg389
F31
sa(dp515
g36
I1
sS'b'
F20
sg37
S'West Indies'
p516
sg264
F65
sg39
I179
sg385
S'caught'
p517
sg378
F1
sg272
I4
sg380
F0
sg40
S'North Sound'
p518
sg42
g43
((I2010
I5
I20
I0
I0
I0
I3
I140
I-1
t(dtRp519
sS'r'
F13
sg389
F25
sa(dp520
g36
I1
sS'b'
F1
sg37
S'West Indies'
p521
sg264
F0
sg39
I178
sg385
S'bowled'
p522
sg378
F0
sg272
I5
sg380
F0
sg40
S'North Sound'
p523
sg42
g43
((I2010
I5
I19
I0
I0
I0
I2
I139
I-1
t(dtRp524
sS'r'
F0
sg389
F1
sa(dp525
g36
I2
sS'b'
F5
sg37
S'Pakistan'
p526
sg264
F60
sg39
I171
sg385
S'caught'
p527
sg378
F0
sg272
I5
sg380
F0
sg40
S'Gros Islet'
p528
sg42
g43
((I2010
I5
I10
I0
I0
I0
I0
I130
I-1
t(dtRp529
sS'r'
F3
sg389
F4
sa(dp530
g36
I2
sS'b'
F25
sg37
S'England'
p531
sg264
F156
sg39
I168
sg385
S'caught'
p532
sg378
F2
sg272
I6
sg380
F2
sg40
S'Bridgetown'
p533
sg42
g43
((I2010
I5
I8
I0
I0
I0
I5
I128
I-1
t(dtRp534
sS'r'
F39
sg389
F29
sa(dp535
g36
I1
sS'b'
F21
sg37
S'Afghanistan'
p536
sg264
F119.04761904761905
sg39
I162
sg385
S'caught'
p537
sg378
F0
sg272
I5
sg380
F2
sg40
S'Bridgetown'
p538
sg42
g43
((I2010
I5
I5
I0
I0
I0
I2
I125
I-1
t(dtRp539
sS'r'
F25
sg389
F23
sa(dp540
g36
I2
sS'b'
F1
sg37
S'India'
p541
sg376
I01
sg264
F400
sg39
I155
sg385
S'not out'
p542
sg378
F1
sg272
I7
sg380
F0
sg40
S'Gros Islet'
p543
sg42
g43
((I2010
I5
I2
I0
I0
I0
I6
I122
I-1
t(dtRp544
sS'r'
F4
sg389
F1
sa(dp545
g36
I1
sS'b'
F4
sg37
S'England'
p546
sg264
F50
sg39
I125
sg385
S'caught'
p547
sg378
F0
sg272
I4
sg380
F0
sg40
S'Centurion'
p548
sg42
g43
((I2009
I11
I15
I0
I0
I0
I6
I319
I-1
t(dtRp549
sS'r'
F2
sg389
F6
sa(dp550
g36
I2
sS'b'
F5
sg37
S'England'
p551
sg264
F120
sg39
I124
sg385
S'lbw'
p552
sg378
F1
sg272
I3
sg380
F0
sg40
S'Johannesburg'
p553
sg42
g43
((I2009
I11
I13
I0
I0
I0
I4
I317
I-1
t(dtRp554
sS'r'
F6
sg389
F10
sa(dp555
g36
I2
sS'b'
F39
sg37
S'Pakistan'
p556
sg376
I01
sg264
F112.82051282051282
sg39
I114
sg385
S'not out'
p557
sg378
F3
sg272
I5
sg380
F1
sg40
S'Nottingham'
p558
sg42
g43
((I2009
I6
I18
I0
I0
I0
I3
I169
I-1
t(dtRp559
sS'r'
F44
sg389
F53
sa(dp560
g36
I1
sS'b'
F15
sg37
S'India'
p561
sg264
F66.666666666666671
sg39
I113
sg385
S'stumped'
p562
sg378
F0
sg272
I4
sg380
F0
sg40
S'Nottingham'
p563
sg42
g43
((I2009
I6
I16
I0
I0
I0
I1
I167
I-1
t(dtRp564
sS'r'
F10
sg389
F20
sa(dp565
g36
I1
sS'b'
F1
sg37
S'West Indies'
p566
sg264
F0
sg39
I106
sg385
S'caught'
p567
sg378
F0
sg272
I7
sg380
F0
sg40
S'The Oval'
p568
sg42
g43
((I2009
I6
I13
I0
I0
I0
I5
I164
I-1
t(dtRp569
sS'r'
F0
sg389
F3
sa(dp570
g36
I2
sS'b'
F4
sg37
S'England'
p571
sg376
I01
sg264
F50
sg39
I103
sg385
S'not out'
p572
sg378
F0
sg272
I5
sg380
F0
sg40
S'Nottingham'
p573
sg42
g43
((I2009
I6
I11
I0
I0
I0
I3
I162
I-1
t(dtRp574
sS'r'
F2
sg389
F2
sa(dp575
g36
I1
sS'b'
F23
sg37
S'New Zealand'
p576
sg264
F126.08695652173913
sg39
I99
sg385
S'caught'
p577
sg378
F1
sg272
I5
sg380
F2
sg40
S"Lord's"
p578
sg42
g43
((I2009
I6
I9
I0
I0
I0
I1
I160
I-1
t(dtRp579
sS'r'
F29
sg389
F35
sa(dp580
g36
I1
sS'b'
F0
sg37
S'Scotland'
p581
sg376
I01
sg264
F0
sg39
I94
sg385
S'not out'
p582
sg378
F0
sg272
I7
sg380
F0
sg40
S'The Oval'
p583
sg42
g43
((I2009
I6
I7
I0
I0
I0
I6
I158
I-1
t(dtRp584
sS'r'
F0
sg389
F1
sa(dp585
g36
I1
sS'b'
F28
sg37
S'Australia'
p586
sg264
F82.142857142857139
sg39
I88
sg385
S'bowled'
p587
sg378
F1
sg272
I4
sg380
F0
sg40
S'Centurion'
p588
sg42
g43
((I2009
I3
I29
I0
I0
I0
I6
I88
I-1
t(dtRp589
sS'r'
F23
sg389
F42
sa(dp590
g36
I2
sS'b'
F21
sg37
S'Australia'
p591
sg264
F100
sg39
I87
sg385
S'bowled'
p592
sg378
F2
sg272
I4
sg380
F0
sg40
S'Johannesburg'
p593
sg42
g43
((I2009
I3
I27
I0
I0
I0
I4
I86
I-1
t(dtRp594
sS'r'
F21
sg389
F24
sa(dp595
g36
I1
sS'b'
F41
sg37
S'Australia'
p596
sg376
I01
sg264
F168.29268292682926
sg39
I81
sg385
S'not out'
p597
sg378
F7
sg272
I3
sg380
F2
sg40
S'Brisbane'
p598
sg42
g43
((I2009
I1
I13
I0
I0
I0
I1
I13
I-1
t(dtRp599
sS'r'
F69
sg389
F55
sa(dp600
g36
I2
sS'b'
F48
sg37
S'Australia'
p601
sg264
F162.5
sg39
I80
sg385
S'lbw'
p602
sg378
F9
sg272
I4
sg380
F1
sg40
S'Melbourne'
p603
sg42
g43
((I2009
I1
I11
I0
I0
I0
I6
I11
I-1
t(dtRp604
sS'r'
F78
sg389
F56
sa(dp605
g36
I1
sS'b'
F6
sg37
S'Bangladesh'
p606
sg264
F100
sg39
I77
sg385
S'caught'
p607
sg378
F0
sg272
I5
sg380
F0
sg40
S'Johannesburg'
p608
sg42
g43
((I2008
I11
I5
I0
I0
I0
I2
I310
I-1
t(dtRp609
sS'r'
F6
sg389
F10
sa(dp610
g36
I2
sS'b'
F13
sg37
S'West Indies'
p611
sg264
F100
sg39
I51
sg385
S'caught'
p612
sg378
F2
sg272
I4
sg380
F0
sg40
S'Johannesburg'
p613
sg42
g43
((I2008
I1
I18
I0
I0
I0
I4
I18
I-1
t(dtRp614
sS'r'
F13
sg389
F18
sa(dp615
g36
I1
sS'b'
F1
sg37
S'West Indies'
p616
sg264
F0
sg39
I50
sg385
S'bowled'
p617
sg378
F0
sg272
I3
sg380
F0
sg40
S'Port Elizabeth'
p618
sg42
g43
((I2007
I12
I16
I0
I0
I0
I6
I350
I-1
t(dtRp619
sS'r'
F0
sg389
F1
sa(dp620
g36
I2
sS'b'
F19
sg37
S'New Zealand'
p621
sg264
F173.68421052631578
sg39
I48
sg385
S'stumped'
p622
sg378
F3
sg272
I3
sg380
F2
sg40
S'Johannesburg'
p623
sg42
g43
((I2007
I11
I23
I0
I0
I0
I4
I327
I-1
t(dtRp624
sS'r'
F33
sg389
F34
sa(dp625
g36
I1
sS'b'
F4
sg37
S'England'
p626
sg264
F0
sg39
I34
sg385
S'caught'
p627
sg378
F0
sg272
I2
sg380
F0
sg40
S'Cape Town'
p628
sg42
g43
((I2007
I9
I16
I0
I0
I0
I6
I259
I-1
t(dtRp629
sS'r'
F0
sg389
F5
sa(dp630
g36
I2
sS'b'
F28
sg37
S'Bangladesh'
p631
sg264
F128.57142857142858
sg39
I31
sg385
S'lbw'
p632
sg378
F4
sg272
I2
sg380
F1
sg40
S'Cape Town'
p633
sg42
g43
((I2007
I9
I15
I0
I0
I0
I5
I258
I-1
t(dtRp634
sS'r'
F36
sg389
F34
satp635
ssS'all'
p636
(dp637
g27
(dp638
S'c'
F55
sg29
F0
sS'i'
F156
sS'm'
F156
sg31
F55
sg32
F55
sS's'
F0
ssg262
(dp639
S'a'
F26
sS'b'
F1052
sS'e'
F7.5627376425855513
sS'i'
F82
sg264
F20.627450980392158
sg265
F0
sS'm'
F156
sg266
F0
sS'r'
F1326
sS'w'
F51
sg267
F2
sg268
F20
sg269
F4
ssg373
(dp640
S'a'
F36.57692307692308
sg375
F-1
sS'b'
F3157
sg376
F43
sS'i'
F147
sg377
F99
sS'm'
F156
sg378
F293
sg380
F114
sg264
F120.49414000633513
sS'r'
F3804
sg381
F0
sg379
F25
ssssb.