(iplayer
Player
p1
(dp2
S'is_batsman'
p3
I00
sS'name'
p4
S'Jacques Kallis'
p5
sS'dob'
p6
S'1975/10/16'
p7
sS'price'
p8
S'1050000'
p9
sS'is_allrounder'
p10
I01
sS'espnid'
p11
S'45789'
p12
sS'is_overseas'
p13
I01
sS'team'
p14
S'KKR'
p15
sS'nationality'
p16
S'South African'
p17
sS'is_bowler'
p18
I00
sS'is_keeper'
p19
I00
sS'id'
p20
S'198'
p21
sS'is_uncapped'
p22
I00
sS'tournamentStats'
p23
(dp24
S'international'
p25
(dp26
S'fieldingStats'
p27
((dp28
S'c'
F7
sS'ctw'
p29
F0
sS'span_s'
p30
F2005
sS'm'
F25
sS's'
F0
sS'dismissals'
p31
F7
sS'i'
F25
sS'ctf'
p32
F7
sS'span_f'
p33
F2012
s(lp34
(dp35
S'inning'
p36
I1
sS'c'
F0
sg29
F0
sS'opp'
p37
S'India'
p38
sS't20i_num'
p39
I286
sg32
F0
sg31
F0
sS's'
F0
sS'place'
p40
S'Colombo (RPS)'
p41
sS'date'
p42
ctime
struct_time
p43
((I2012
I10
I2
I0
I0
I0
I1
I276
I-1
t(dtRp44
sa(dp45
g36
I2
sS'c'
F0
sg29
F0
sg37
S'Australia'
p46
sg39
I281
sg32
F0
sg31
F0
sS's'
F0
sg40
S'Colombo (RPS)'
p47
sg42
g43
((I2012
I9
I30
I0
I0
I0
I6
I274
I-1
t(dtRp48
sa(dp49
g36
I2
sS'c'
F0
sg29
F0
sg37
S'Pakistan'
p50
sg39
I277
sg32
F0
sg31
F0
sS's'
F0
sg40
S'Colombo (RPS)'
p51
sg42
g43
((I2012
I9
I28
I0
I0
I0
I4
I272
I-1
t(dtRp52
sa(dp53
g36
I2
sS'c'
F0
sg29
F0
sg37
S'Sri Lanka'
p54
sg39
I269
sg32
F0
sg31
F0
sS's'
F0
sg40
S'Hambantota'
p55
sg42
g43
((I2012
I9
I22
I0
I0
I0
I5
I266
I-1
t(dtRp56
sa(dp57
g36
I1
sS'c'
F0
sg29
F0
sg37
S'Zimbabwe'
p58
sg39
I266
sg32
F0
sg31
F0
sS's'
F0
sg40
S'Hambantota'
p59
sg42
g43
((I2012
I9
I20
I0
I0
I0
I3
I264
I-1
t(dtRp60
sa(dp61
g36
I1
sS'c'
F0
sg29
F0
sg37
S'England'
p62
sg39
I262
sg32
F0
sg31
F0
sS's'
F0
sg40
S'Birmingham'
p63
sg42
g43
((I2012
I9
I12
I0
I0
I0
I2
I256
I-1
t(dtRp64
sa(dp65
g36
I2
sS'c'
F0
sg29
F0
sg37
S'England'
p66
sg39
I260
sg32
F0
sg31
F0
sS's'
F0
sg40
S'Manchester'
p67
sg42
g43
((I2012
I9
I10
I0
I0
I0
I0
I254
I-1
t(dtRp68
sa(dp69
g36
I1
sS'c'
F1
sg29
F0
sg37
S'England'
p70
sg39
I258
sg32
F1
sg31
F1
sS's'
F0
sg40
S'Chester-le-Street'
p71
sg42
g43
((I2012
I9
I8
I0
I0
I0
I5
I252
I-1
t(dtRp72
sa(dp73
g36
I2
sS'c'
F0
sg29
F0
sg37
S'India'
p74
sg39
I242
sg32
F0
sg31
F0
sS's'
F0
sg40
S'Johannesburg'
p75
sg42
g43
((I2012
I3
I30
I0
I0
I0
I4
I90
I-1
t(dtRp76
sa(dp77
g36
I2
sS'c'
F0
sg29
F0
sg37
S'West Indies'
p78
sg39
I178
sg32
F0
sg31
F0
sS's'
F0
sg40
S'North Sound'
p79
sg42
g43
((I2010
I5
I19
I0
I0
I0
I2
I139
I-1
t(dtRp80
sa(dp81
g36
I1
sS'c'
F0
sg29
F0
sg37
S'Pakistan'
p82
sg39
I171
sg32
F0
sg31
F0
sS's'
F0
sg40
S'Gros Islet'
p83
sg42
g43
((I2010
I5
I10
I0
I0
I0
I0
I130
I-1
t(dtRp84
sa(dp85
g36
I1
sS'c'
F0
sg29
F0
sg37
S'England'
p86
sg39
I168
sg32
F0
sg31
F0
sS's'
F0
sg40
S'Bridgetown'
p87
sg42
g43
((I2010
I5
I8
I0
I0
I0
I5
I128
I-1
t(dtRp88
sa(dp89
g36
I2
sS'c'
F0
sg29
F0
sg37
S'New Zealand'
p90
sg39
I164
sg32
F0
sg31
F0
sS's'
F0
sg40
S'Bridgetown'
p91
sg42
g43
((I2010
I5
I6
I0
I0
I0
I3
I126
I-1
t(dtRp92
sa(dp93
g36
I2
sS'c'
F2
sg29
F0
sg37
S'Afghanistan'
p94
sg39
I162
sg32
F2
sg31
F2
sS's'
F0
sg40
S'Bridgetown'
p95
sg42
g43
((I2010
I5
I5
I0
I0
I0
I2
I125
I-1
t(dtRp96
sa(dp97
g36
I1
sS'c'
F0
sg29
F0
sg37
S'India'
p98
sg39
I155
sg32
F0
sg31
F0
sS's'
F0
sg40
S'Gros Islet'
p99
sg42
g43
((I2010
I5
I2
I0
I0
I0
I6
I122
I-1
t(dtRp100
sa(dp101
g36
I2
sS'c'
F0
sg29
F0
sg37
S'England'
p102
sg39
I125
sg32
F0
sg31
F0
sS's'
F0
sg40
S'Centurion'
p103
sg42
g43
((I2009
I11
I15
I0
I0
I0
I6
I319
I-1
t(dtRp104
sa(dp105
g36
I1
sS'c'
F0
sg29
F0
sg37
S'Pakistan'
p106
sg39
I114
sg32
F0
sg31
F0
sS's'
F0
sg40
S'Nottingham'
p107
sg42
g43
((I2009
I6
I18
I0
I0
I0
I3
I169
I-1
t(dtRp108
sa(dp109
g36
I2
sS'c'
F0
sg29
F0
sg37
S'West Indies'
p110
sg39
I106
sg32
F0
sg31
F0
sS's'
F0
sg40
S'The Oval'
p111
sg42
g43
((I2009
I6
I13
I0
I0
I0
I5
I164
I-1
t(dtRp112
sa(dp113
g36
I1
sS'c'
F0
sg29
F0
sg37
S'England'
p114
sg39
I103
sg32
F0
sg31
F0
sS's'
F0
sg40
S'Nottingham'
p115
sg42
g43
((I2009
I6
I11
I0
I0
I0
I3
I162
I-1
t(dtRp116
sa(dp117
g36
I2
sS'c'
F1
sg29
F0
sg37
S'New Zealand'
p118
sg39
I99
sg32
F1
sg31
F1
sS's'
F0
sg40
S"Lord's"
p119
sg42
g43
((I2009
I6
I9
I0
I0
I0
I1
I160
I-1
t(dtRp120
sa(dp121
g36
I2
sS'c'
F0
sg29
F0
sg37
S'Scotland'
p122
sg39
I94
sg32
F0
sg31
F0
sS's'
F0
sg40
S'The Oval'
p123
sg42
g43
((I2009
I6
I7
I0
I0
I0
I6
I158
I-1
t(dtRp124
sa(dp125
g36
I1
sS'c'
F1
sg29
F0
sg37
S'Australia'
p126
sg39
I80
sg32
F1
sg31
F1
sS's'
F0
sg40
S'Melbourne'
p127
sg42
g43
((I2009
I1
I11
I0
I0
I0
I6
I11
I-1
t(dtRp128
sa(dp129
g36
I1
sS'c'
F1
sg29
F0
sg37
S'New Zealand'
p130
sg39
I48
sg32
F1
sg31
F1
sS's'
F0
sg40
S'Johannesburg'
p131
sg42
g43
((I2007
I11
I23
I0
I0
I0
I4
I327
I-1
t(dtRp132
sa(dp133
g36
I1
sS'c'
F1
sg29
F0
sg37
S'Australia'
p134
sg39
I4
sg32
F1
sg31
F1
sS's'
F0
sg40
S'Brisbane'
p135
sg42
g43
((I2006
I1
I9
I0
I0
I0
I0
I9
I-1
t(dtRp136
sa(dp137
g36
I2
sS'c'
F0
sg29
F0
sg37
S'New Zealand'
p138
sg39
I3
sg32
F0
sg31
F0
sS's'
F0
sg40
S'Johannesburg'
p139
sg42
g43
((I2005
I10
I21
I0
I0
I0
I4
I294
I-1
t(dtRp140
satp141
sS'bowlingStats'
p142
((dp143
S'a'
F27.75
sS'b'
F276
sS'e'
F7.2391304347826084
sS'i'
F19
sS'sr'
p144
F23
sS'5w'
p145
F0
sS'm'
F25
sS'maid'
p146
F1
sS'r'
F333
sS'w'
F12
sS'4w'
p147
F1
sS'bbir'
p148
F15
sS'bbiw'
p149
F4
sg33
F2012
sg30
F2005
s(lp150
(dp151
g36
I1
sS'b'
F18
sS'e'
F8
sg39
I286
sS'pos'
p152
I3
sg146
F0
sS'r'
F24
sg40
S'Colombo (RPS)'
p153
sS'w'
F1
sg42
g43
((I2012
I10
I2
I0
I0
I0
I1
I276
I-1
t(dtRp154
sg37
S'India'
p155
sa(dp156
g36
I2
sS'b'
F6
sS'e'
F8
sg39
I281
sg152
I3
sg146
F0
sS'r'
F8
sg40
S'Colombo (RPS)'
p157
sS'w'
F0
sg42
g43
((I2012
I9
I30
I0
I0
I0
I6
I274
I-1
t(dtRp158
sg37
S'Australia'
p159
sa(dp160
g36
I2
sS'b'
F12
sS'e'
F8.5
sg39
I277
sg152
I7
sg146
F0
sS'r'
F17
sg40
S'Colombo (RPS)'
p161
sS'w'
F1
sg42
g43
((I2012
I9
I28
I0
I0
I0
I4
I272
I-1
t(dtRp162
sg37
S'Pakistan'
p163
sa(dp164
g36
I2
sS'b'
F6
sS'e'
F9
sg39
I269
sg152
I4
sg146
F0
sS'r'
F9
sg40
S'Hambantota'
p165
sS'w'
F1
sg42
g43
((I2012
I9
I22
I0
I0
I0
I5
I266
I-1
t(dtRp166
sg37
S'Sri Lanka'
p167
sa(dp168
g36
I1
sS'b'
F24
sS'e'
F3.75
sg39
I266
sg152
I6
sg146
F1
sS'r'
F15
sg40
S'Hambantota'
p169
sS'w'
F4
sg42
g43
((I2012
I9
I20
I0
I0
I0
I3
I264
I-1
t(dtRp170
sg37
S'Zimbabwe'
p171
sa(dp172
g36
I1
sS'b'
F6
sS'e'
F11
sg39
I262
sg152
I6
sg146
F0
sS'r'
F11
sg40
S'Birmingham'
p173
sS'w'
F0
sg42
g43
((I2012
I9
I12
I0
I0
I0
I2
I256
I-1
t(dtRp174
sg37
S'England'
p175
sa(dp176
g36
I1
sS'b'
F18
sS'e'
F6.666666666666667
sg39
I258
sg152
I6
sg146
F0
sS'r'
F20
sg40
S'Chester-le-Street'
p177
sS'w'
F0
sg42
g43
((I2012
I9
I8
I0
I0
I0
I5
I252
I-1
t(dtRp178
sg37
S'England'
p179
sa(dp180
g36
I2
sS'b'
F12
sS'e'
F6.5
sg39
I178
sg152
I5
sg146
F0
sS'r'
F13
sg40
S'North Sound'
p181
sS'w'
F0
sg42
g43
((I2010
I5
I19
I0
I0
I0
I2
I139
I-1
t(dtRp182
sg37
S'West Indies'
p183
sa(dp184
g36
I1
sS'b'
F24
sS'e'
F7
sg39
I171
sg152
I4
sg146
F0
sS'r'
F28
sg40
S'Gros Islet'
p185
sS'w'
F1
sg42
g43
((I2010
I5
I10
I0
I0
I0
I0
I130
I-1
t(dtRp186
sg37
S'Pakistan'
p187
sa(dp188
g36
I1
sS'b'
F18
sS'e'
F5
sg39
I168
sg152
I5
sg146
F0
sS'r'
F15
sg40
S'Bridgetown'
p189
sS'w'
F0
sg42
g43
((I2010
I5
I8
I0
I0
I0
I5
I128
I-1
t(dtRp190
sg37
S'England'
p191
sa(dp192
g36
I2
sS'b'
F24
sS'e'
F5.75
sg39
I164
sg152
I4
sg146
F0
sS'r'
F23
sg40
S'Bridgetown'
p193
sS'w'
F0
sg42
g43
((I2010
I5
I6
I0
I0
I0
I3
I126
I-1
t(dtRp194
sg37
S'New Zealand'
p195
sa(dp196
g36
I1
sS'b'
F24
sS'e'
F7.5
sg39
I155
sg152
I5
sg146
F0
sS'r'
F30
sg40
S'Gros Islet'
p197
sS'w'
F1
sg42
g43
((I2010
I5
I2
I0
I0
I0
I6
I122
I-1
t(dtRp198
sg37
S'India'
p199
sa(dp200
g36
I1
sS'b'
F12
sS'e'
F7
sg39
I114
sg152
I3
sg146
F0
sS'r'
F14
sg40
S'Nottingham'
p201
sS'w'
F0
sg42
g43
((I2009
I6
I18
I0
I0
I0
I3
I169
I-1
t(dtRp202
sg37
S'Pakistan'
p203
sa(dp204
g36
I2
sS'b'
F12
sS'e'
F11.5
sg39
I106
sg152
I3
sg146
F0
sS'r'
F23
sg40
S'The Oval'
p205
sS'w'
F0
sg42
g43
((I2009
I6
I13
I0
I0
I0
I5
I164
I-1
t(dtRp206
sg37
S'West Indies'
p207
sa(dp208
g36
I1
sS'b'
F18
sS'e'
F6.666666666666667
sg39
I103
sg152
I3
sg146
F0
sS'r'
F20
sg40
S'Nottingham'
p209
sS'w'
F2
sg42
g43
((I2009
I6
I11
I0
I0
I0
I3
I162
I-1
t(dtRp210
sg37
S'England'
p211
sa(dp212
g36
I2
sS'b'
F18
sS'e'
F5.666666666666667
sg39
I99
sg152
I3
sg146
F0
sS'r'
F17
sg40
S"Lord's"
p213
sS'w'
F1
sg42
g43
((I2009
I6
I9
I0
I0
I0
I1
I160
I-1
t(dtRp214
sg37
S'New Zealand'
p215
sa(dp216
g36
I2
sS'b'
F6
sS'e'
F4
sg39
I94
sg152
I3
sg146
F0
sS'r'
F4
sg40
S'The Oval'
p217
sS'w'
F0
sg42
g43
((I2009
I6
I7
I0
I0
I0
I6
I158
I-1
t(dtRp218
sg37
S'Scotland'
p219
sa(dp220
g36
I1
sS'b'
F12
sS'e'
F12.5
sg39
I80
sg152
I3
sg146
F0
sS'r'
F25
sg40
S'Melbourne'
p221
sS'w'
F0
sg42
g43
((I2009
I1
I11
I0
I0
I0
I6
I11
I-1
t(dtRp222
sg37
S'Australia'
p223
sa(dp224
g36
I1
sS'b'
F6
sS'e'
F17
sg39
I4
sg152
I6
sg146
F0
sS'r'
F17
sg40
S'Brisbane'
p225
sS'w'
F0
sg42
g43
((I2006
I1
I9
I0
I0
I0
I0
I9
I-1
t(dtRp226
sg37
S'Australia'
p227
satp228
sS'battingStats'
p229
((dp230
S'a'
F35.05263157894737
sS'0s'
p231
F0
sS'b'
F558
sS'no'
p232
F4
sg30
F2005
sS'hs'
p233
F73
sS'm'
F25
sS'4s'
p234
F56
sg33
F2012
sS'i'
F23
sS'6s'
p235
F20
sg144
F119.35483870967742
sS'r'
F666
sS'100s'
p236
F0
sS'50s'
p237
F5
s(lp238
(dp239
g36
I2
sS'b'
F8
sg37
S'India'
p240
sg144
F75
sg39
I286
sS'dismiss'
p241
S'caught'
p242
sg234
F1
sg152
I2
sg235
F0
sg40
S'Colombo (RPS)'
p243
sg42
g43
((I2012
I10
I2
I0
I0
I0
I1
I276
I-1
t(dtRp244
sS'r'
F6
sS'minutes'
p245
F16
sa(dp246
g36
I1
sS'b'
F7
sg37
S'Australia'
p247
sg144
F85.714285714285708
sg39
I281
sg241
S'caught'
p248
sg234
F1
sg152
I3
sg235
F0
sg40
S'Colombo (RPS)'
p249
sg42
g43
((I2012
I9
I30
I0
I0
I0
I6
I274
I-1
t(dtRp250
sS'r'
F6
sg245
F7
sa(dp251
g36
I1
sS'b'
F18
sg37
S'Pakistan'
p252
sg144
F66.666666666666671
sg39
I277
sg241
S'caught'
p253
sg234
F0
sg152
I3
sg235
F1
sg40
S'Colombo (RPS)'
p254
sg42
g43
((I2012
I9
I28
I0
I0
I0
I4
I272
I-1
t(dtRp255
sS'r'
F12
sg245
F18
sa(dp256
g36
I2
sS'b'
F5
sg37
S'England'
p257
sg232
I01
sg144
F160
sg39
I262
sg241
S'not out'
p258
sg234
F0
sg152
I7
sg235
F0
sg40
S'Birmingham'
p259
sg42
g43
((I2012
I9
I12
I0
I0
I0
I2
I256
I-1
t(dtRp260
sS'r'
F8
sg245
F8
sa(dp261
g36
I1
sS'b'
F7
sg37
S'England'
p262
sg232
I01
sg144
F185.71428571428572
sg39
I260
sg241
S'not out'
p263
sg234
F2
sg152
I7
sg235
F0
sg40
S'Manchester'
p264
sg42
g43
((I2012
I9
I10
I0
I0
I0
I0
I254
I-1
t(dtRp265
sS'r'
F13
sg245
F10
sa(dp266
g36
I2
sS'b'
F44
sg37
S'England'
p267
sg232
I01
sg144
F109.09090909090909
sg39
I258
sg241
S'not out'
p268
sg234
F7
sg152
I2
sg235
F0
sg40
S'Chester-le-Street'
p269
sg42
g43
((I2012
I9
I8
I0
I0
I0
I5
I252
I-1
t(dtRp270
sS'r'
F48
sg245
F81
sa(dp271
g36
I1
sS'b'
F42
sg37
S'India'
p272
sg144
F145.23809523809524
sg39
I242
sg241
S'caught'
p273
sg234
F5
sg152
I2
sg235
F2
sg40
S'Johannesburg'
p274
sg42
g43
((I2012
I3
I30
I0
I0
I0
I4
I90
I-1
t(dtRp275
sS'r'
F61
sg245
F58
sa(dp276
g36
I1
sS'b'
F45
sg37
S'West Indies'
p277
sg144
F117.77777777777777
sg39
I178
sg241
S'caught'
p278
sg234
F1
sg152
I3
sg235
F3
sg40
S'North Sound'
p279
sg42
g43
((I2010
I5
I19
I0
I0
I0
I2
I139
I-1
t(dtRp280
sS'r'
F53
sg245
F51
sa(dp281
g36
I2
sS'b'
F21
sg37
S'Pakistan'
p282
sg144
F104.76190476190476
sg39
I171
sg241
S'caught'
p283
sg234
F2
sg152
I3
sg235
F0
sg40
S'Gros Islet'
p284
sg42
g43
((I2010
I5
I10
I0
I0
I0
I0
I130
I-1
t(dtRp285
sS'r'
F22
sg245
F31
sa(dp286
g36
I2
sS'b'
F13
sg37
S'England'
p287
sg144
F84.615384615384613
sg39
I168
sg241
S'caught'
p288
sg234
F0
sg152
I2
sg235
F1
sg40
S'Bridgetown'
p289
sg42
g43
((I2010
I5
I8
I0
I0
I0
I5
I128
I-1
t(dtRp290
sS'r'
F11
sg245
F16
sa(dp291
g36
I1
sS'b'
F26
sg37
S'New Zealand'
p292
sg144
F119.23076923076923
sg39
I164
sg241
S'caught'
p293
sg234
F1
sg152
I1
sg235
F2
sg40
S'Bridgetown'
p294
sg42
g43
((I2010
I5
I6
I0
I0
I0
I3
I126
I-1
t(dtRp295
sS'r'
F31
sg245
F28
sa(dp296
g36
I1
sS'b'
F33
sg37
S'Afghanistan'
p297
sg144
F103.03030303030303
sg39
I162
sg241
S'caught'
p298
sg234
F0
sg152
I3
sg235
F2
sg40
S'Bridgetown'
p299
sg42
g43
((I2010
I5
I5
I0
I0
I0
I2
I125
I-1
t(dtRp300
sS'r'
F34
sg245
F35
sa(dp301
g36
I2
sS'b'
F54
sg37
S'India'
p302
sg144
F135.18518518518519
sg39
I155
sg241
S'caught'
p303
sg234
F3
sg152
I1
sg235
F3
sg40
S'Gros Islet'
p304
sg42
g43
((I2010
I5
I2
I0
I0
I0
I6
I122
I-1
t(dtRp305
sS'r'
F73
sg245
F60
sa(dp306
g36
I1
sS'b'
F5
sg37
S'England'
p307
sg144
F140
sg39
I125
sg241
S'bowled'
p308
sg234
F1
sg152
I6
sg235
F0
sg40
S'Centurion'
p309
sg42
g43
((I2009
I11
I15
I0
I0
I0
I6
I319
I-1
t(dtRp310
sS'r'
F7
sg245
F5
sa(dp311
g36
I2
sS'b'
F54
sg37
S'Pakistan'
p312
sg144
F118.51851851851852
sg39
I114
sg241
S'caught'
p313
sg234
F7
sg152
I1
sg235
F1
sg40
S'Nottingham'
p314
sg42
g43
((I2009
I6
I18
I0
I0
I0
I3
I169
I-1
t(dtRp315
sS'r'
F64
sg245
F75
sa(dp316
g36
I1
sS'b'
F31
sg37
S'West Indies'
p317
sg144
F145.16129032258064
sg39
I106
sg241
S'caught'
p318
sg234
F6
sg152
I1
sg235
F1
sg40
S'The Oval'
p319
sg42
g43
((I2009
I6
I13
I0
I0
I0
I5
I164
I-1
t(dtRp320
sS'r'
F45
sg245
F50
sa(dp321
g36
I2
sS'b'
F49
sg37
S'England'
p322
sg232
I01
sg144
F116.32653061224489
sg39
I103
sg241
S'not out'
p323
sg234
F5
sg152
I2
sg235
F1
sg40
S'Nottingham'
p324
sg42
g43
((I2009
I6
I11
I0
I0
I0
I3
I162
I-1
t(dtRp325
sS'r'
F57
sg245
F74
sa(dp326
g36
I1
sS'b'
F23
sg37
S'New Zealand'
p327
sg144
F104.34782608695652
sg39
I99
sg241
S'run out'
p328
sg234
F2
sg152
I1
sg235
F1
sg40
S"Lord's"
p329
sg42
g43
((I2009
I6
I9
I0
I0
I0
I1
I160
I-1
t(dtRp330
sS'r'
F24
sg245
F36
sa(dp331
g36
I1
sS'b'
F31
sg37
S'Scotland'
p332
sg144
F154.83870967741936
sg39
I94
sg241
S'bowled'
p333
sg234
F8
sg152
I2
sg235
F0
sg40
S'The Oval'
p334
sg42
g43
((I2009
I6
I7
I0
I0
I0
I6
I158
I-1
t(dtRp335
sS'r'
F48
sg245
F41
sa(dp336
g36
I2
sS'b'
F6
sg37
S'Australia'
p337
sg144
F66.666666666666671
sg39
I80
sg241
S'bowled'
p338
sg234
F1
sg152
I2
sg235
F0
sg40
S'Melbourne'
p339
sg42
g43
((I2009
I1
I11
I0
I0
I0
I6
I11
I-1
t(dtRp340
sS'r'
F4
sg245
F13
sa(dp341
g36
I2
sS'b'
F5
sg37
S'New Zealand'
p342
sg144
F80
sg39
I48
sg241
S'caught'
p343
sg234
F1
sg152
I2
sg235
F0
sg40
S'Johannesburg'
p344
sg42
g43
((I2007
I11
I23
I0
I0
I0
I4
I327
I-1
t(dtRp345
sS'r'
F4
sg245
F6
sa(dp346
g36
I2
sS'b'
F13
sg37
S'Australia'
p347
sg144
F115.38461538461539
sg39
I4
sg241
S'run out'
p348
sg234
F1
sg152
I6
sg235
F1
sg40
S'Brisbane'
p349
sg42
g43
((I2006
I1
I9
I0
I0
I0
I0
I9
I-1
t(dtRp350
sS'r'
F15
sg245
F12
sa(dp351
g36
I1
sS'b'
F18
sg37
S'New Zealand'
p352
sg144
F111.11111111111111
sg39
I3
sg241
S'bowled'
p353
sg234
F1
sg152
I2
sg235
F1
sg40
S'Johannesburg'
p354
sg42
g43
((I2005
I10
I21
I0
I0
I0
I4
I294
I-1
t(dtRp355
sS'r'
F20
sg245
F43
satp356
ssS'all'
p357
(dp358
g27
(dp359
S'c'
F43
sg29
F0
sS'i'
F135
sS'm'
F135
sS's'
F0
sg31
F43
sg32
F43
ssg142
(dp360
S'a'
F30.417582417582416
sS'b'
F2156
sS'e'
F7.7031539888682747
sS'i'
F116
sg144
F23.692307692307693
sg145
F0
sS'm'
F135
sg146
F0
sS'r'
F2768
sS'w'
F91
sg147
F2
sg148
F15
sg149
F4
ssg229
(dp361
S'a'
F32.018181818181816
sg231
F-1
sS'b'
F3161
sg232
F21
sS'i'
F131
sg233
F89
sS'm'
F135
sg234
F350
sg235
F73
sg144
F111.42043657070548
sS'r'
F3522
sg236
F0
sg237
F26
ssssb.