(iplayer
Player
p1
(dp2
S'is_batsman'
p3
I00
sS'name'
p4
S'Mitchell Johnson'
p5
sS'dob'
p6
S'1981/11/02'
p7
sS'price'
p8
S'950000'
p9
sS'is_allrounder'
p10
I01
sS'espnid'
p11
S'6033'
p12
sS'is_overseas'
p13
I01
sS'team'
p14
S'KXIP'
p15
sS'nationality'
p16
S'Australian'
p17
sS'is_bowler'
p18
I01
sS'is_keeper'
p19
I00
sS'id'
p20
S'213'
p21
sS'is_uncapped'
p22
I00
sS'tournamentStats'
p23
(dp24
S'international'
p25
(dp26
S'fieldingStats'
p27
((dp28
S'c'
F5
sS'ctw'
p29
F0
sS'span_s'
p30
F2007
sS'm'
F30
sS's'
F0
sS'dismissals'
p31
F5
sS'i'
F30
sS'ctf'
p32
F5
sS'span_f'
p33
F2013
s(lp34
(dp35
S'inning'
p36
I1
sS'c'
F1
sg29
F0
sS'opp'
p37
S'England'
p38
sS't20i_num'
p39
I329
sg32
F1
sg31
F1
sS's'
F0
sS'place'
p40
S'Chester-le-Street'
p41
sS'date'
p42
ctime
struct_time
p43
((I2013
I8
I31
I0
I0
I0
I5
I243
I-1
t(dtRp44
sa(dp45
g36
I2
sS'c'
F0
sg29
F0
sg37
S'England'
p46
sg39
I328
sg32
F0
sg31
F0
sS's'
F0
sg40
S'Southampton'
p47
sg42
g43
((I2013
I8
I29
I0
I0
I0
I3
I241
I-1
t(dtRp48
sa(dp49
g36
I1
sS'c'
F0
sg29
F0
sg37
S'Sri Lanka'
p50
sg39
I203
sg32
F0
sg31
F0
sS's'
F0
sg40
S'Pallekele'
p51
sg42
g43
((I2011
I8
I8
I0
I0
I0
I0
I220
I-1
t(dtRp52
sa(dp53
g36
I1
sS'c'
F0
sg29
F0
sg37
S'Sri Lanka'
p54
sg39
I202
sg32
F0
sg31
F0
sS's'
F0
sg40
S'Pallekele'
p55
sg42
g43
((I2011
I8
I6
I0
I0
I0
I5
I218
I-1
t(dtRp56
sa(dp57
g36
I2
sS'c'
F0
sg29
F0
sg37
S'England'
p58
sg39
I198
sg32
F0
sg31
F0
sS's'
F0
sg40
S'Melbourne'
p59
sg42
g43
((I2011
I1
I14
I0
I0
I0
I4
I14
I-1
t(dtRp60
sa(dp61
g36
I2
sS'c'
F0
sg29
F0
sg37
S'England'
p62
sg39
I197
sg32
F0
sg31
F0
sS's'
F0
sg40
S'Adelaide'
p63
sg42
g43
((I2011
I1
I12
I0
I0
I0
I2
I12
I-1
t(dtRp64
sa(dp65
g36
I1
sS'c'
F0
sg29
F0
sg37
S'Pakistan'
p66
sg39
I185
sg32
F0
sg31
F0
sS's'
F0
sg40
S'Birmingham'
p67
sg42
g43
((I2010
I7
I6
I0
I0
I0
I1
I187
I-1
t(dtRp68
sa(dp69
g36
I1
sS'c'
F0
sg29
F0
sg37
S'Pakistan'
p70
sg39
I184
sg32
F0
sg31
F0
sS's'
F0
sg40
S'Birmingham'
p71
sg42
g43
((I2010
I7
I5
I0
I0
I0
I0
I186
I-1
t(dtRp72
sa(dp73
g36
I2
sS'c'
F0
sg29
F0
sg37
S'England'
p74
sg39
I177
sg32
F0
sg31
F0
sS's'
F0
sg40
S'Bridgetown'
p75
sg42
g43
((I2010
I5
I16
I0
I0
I0
I6
I136
I-1
t(dtRp76
sa(dp77
g36
I1
sS'c'
F0
sg29
F0
sg37
S'Pakistan'
p78
sg39
I176
sg32
F0
sg31
F0
sS's'
F0
sg40
S'Gros Islet'
p79
sg42
g43
((I2010
I5
I14
I0
I0
I0
I4
I134
I-1
t(dtRp80
sa(dp81
g36
I1
sS'c'
F1
sg29
F0
sg37
S'West Indies'
p82
sg39
I174
sg32
F1
sg31
F1
sS's'
F0
sg40
S'Gros Islet'
p83
sg42
g43
((I2010
I5
I11
I0
I0
I0
I1
I131
I-1
t(dtRp84
sa(dp85
g36
I2
sS'c'
F0
sg29
F0
sg37
S'Sri Lanka'
p86
sg39
I170
sg32
F0
sg31
F0
sS's'
F0
sg40
S'Bridgetown'
p87
sg42
g43
((I2010
I5
I9
I0
I0
I0
I6
I129
I-1
t(dtRp88
sa(dp89
g36
I2
sS'c'
F0
sg29
F0
sg37
S'India'
p90
sg39
I165
sg32
F0
sg31
F0
sS's'
F0
sg40
S'Bridgetown'
p91
sg42
g43
((I2010
I5
I7
I0
I0
I0
I4
I127
I-1
t(dtRp92
sa(dp93
g36
I2
sS'c'
F0
sg29
F0
sg37
S'Pakistan'
p94
sg39
I156
sg32
F0
sg31
F0
sS's'
F0
sg40
S'Gros Islet'
p95
sg42
g43
((I2010
I5
I2
I0
I0
I0
I6
I122
I-1
t(dtRp96
sa(dp97
g36
I1
sS'c'
F0
sg29
F0
sg37
S'New Zealand'
p98
sg39
I148
sg32
F0
sg31
F0
sS's'
F0
sg40
S'Wellington'
p99
sg42
g43
((I2010
I2
I26
I0
I0
I0
I4
I57
I-1
t(dtRp100
sa(dp101
g36
I1
sS'c'
F0
sg29
F0
sg37
S'West Indies'
p102
sg39
I147
sg32
F0
sg31
F0
sS's'
F0
sg40
S'Sydney'
p103
sg42
g43
((I2010
I2
I23
I0
I0
I0
I1
I54
I-1
t(dtRp104
sa(dp105
g36
I2
sS'c'
F0
sg29
F0
sg37
S'West Indies'
p106
sg39
I146
sg32
F0
sg31
F0
sS's'
F0
sg40
S'Hobart'
p107
sg42
g43
((I2010
I2
I21
I0
I0
I0
I6
I52
I-1
t(dtRp108
sa(dp109
g36
I2
sS'c'
F0
sg29
F0
sg37
S'Pakistan'
p110
sg39
I134
sg32
F0
sg31
F0
sS's'
F0
sg40
S'Melbourne'
p111
sg42
g43
((I2010
I2
I5
I0
I0
I0
I4
I36
I-1
t(dtRp112
sa(dp113
g36
I2
sS'c'
F0
sg29
F0
sg37
S'England'
p114
sg39
I119
sg32
F0
sg31
F0
sS's'
F0
sg40
S'Manchester'
p115
sg42
g43
((I2009
I8
I30
I0
I0
I0
I6
I242
I-1
t(dtRp116
sa(dp117
g36
I2
sS'c'
F0
sg29
F0
sg37
S'Sri Lanka'
p118
sg39
I97
sg32
F0
sg31
F0
sS's'
F0
sg40
S'Nottingham'
p119
sg42
g43
((I2009
I6
I8
I0
I0
I0
I0
I159
I-1
t(dtRp120
sa(dp121
g36
I2
sS'c'
F0
sg29
F0
sg37
S'West Indies'
p122
sg39
I92
sg32
F0
sg31
F0
sS's'
F0
sg40
S'The Oval'
p123
sg42
g43
((I2009
I6
I6
I0
I0
I0
I5
I157
I-1
t(dtRp124
sa(dp125
g36
I2
sS'c'
F0
sg29
F0
sg37
S'South Africa'
p126
sg39
I87
sg32
F0
sg31
F0
sS's'
F0
sg40
S'Johannesburg'
p127
sg42
g43
((I2009
I3
I27
I0
I0
I0
I4
I86
I-1
t(dtRp128
sa(dp129
g36
I2
sS'c'
F1
sg29
F0
sg37
S'West Indies'
p130
sg39
I57
sg32
F1
sg31
F1
sS's'
F0
sg40
S'Bridgetown'
p131
sg42
g43
((I2008
I6
I20
I0
I0
I0
I4
I172
I-1
t(dtRp132
sa(dp133
g36
I2
sS'c'
F1
sg29
F0
sg37
S'New Zealand'
p134
sg39
I49
sg32
F1
sg31
F1
sS's'
F0
sg40
S'Perth'
p135
sg42
g43
((I2007
I12
I11
I0
I0
I0
I1
I345
I-1
t(dtRp136
sa(dp137
g36
I1
sS'c'
F0
sg29
F0
sg37
S'India'
p138
sg39
I45
sg32
F0
sg31
F0
sS's'
F0
sg40
S'Durban'
p139
sg42
g43
((I2007
I9
I22
I0
I0
I0
I5
I265
I-1
t(dtRp140
sa(dp141
g36
I1
sS'c'
F0
sg29
F0
sg37
S'Sri Lanka'
p142
sg39
I41
sg32
F0
sg31
F0
sS's'
F0
sg40
S'Cape Town'
p143
sg42
g43
((I2007
I9
I20
I0
I0
I0
I3
I263
I-1
t(dtRp144
sa(dp145
g36
I2
sS'c'
F1
sg29
F0
sg37
S'Pakistan'
p146
sg39
I37
sg32
F1
sg31
F1
sS's'
F0
sg40
S'Johannesburg'
p147
sg42
g43
((I2007
I9
I18
I0
I0
I0
I1
I261
I-1
t(dtRp148
sa(dp149
g36
I1
sS'c'
F0
sg29
F0
sg37
S'Bangladesh'
p150
sg39
I33
sg32
F0
sg31
F0
sS's'
F0
sg40
S'Cape Town'
p151
sg42
g43
((I2007
I9
I16
I0
I0
I0
I6
I259
I-1
t(dtRp152
sa(dp153
g36
I1
sS'c'
F0
sg29
F0
sg37
S'England'
p154
sg39
I28
sg32
F0
sg31
F0
sS's'
F0
sg40
S'Cape Town'
p155
sg42
g43
((I2007
I9
I14
I0
I0
I0
I4
I257
I-1
t(dtRp156
sa(dp157
g36
I2
sS'c'
F0
sg29
F0
sg37
S'Zimbabwe'
p158
sg39
I23
sg32
F0
sg31
F0
sS's'
F0
sg40
S'Cape Town'
p159
sg42
g43
((I2007
I9
I12
I0
I0
I0
I2
I255
I-1
t(dtRp160
satp161
sS'bowlingStats'
p162
((dp163
S'a'
F20.973684210526315
sS'b'
F656
sS'e'
F7.2896341463414638
sS'i'
F30
sS'sr'
p164
F17.263157894736842
sS'5w'
p165
F0
sS'm'
F30
sS'maid'
p166
F2
sS'r'
F797
sS'w'
F38
sS'4w'
p167
F0
sS'bbir'
p168
F15
sS'bbiw'
p169
F3
sg33
F2013
sg30
F2007
s(lp170
(dp171
g36
I1
sS'b'
F24
sS'e'
F8
sg39
I329
sS'pos'
p172
I1
sg166
F0
sS'r'
F32
sg40
S'Chester-le-Street'
p173
sS'w'
F0
sg42
g43
((I2013
I8
I31
I0
I0
I0
I5
I243
I-1
t(dtRp174
sg37
S'England'
p175
sa(dp176
g36
I2
sS'b'
F24
sS'e'
F10.25
sg39
I328
sg172
I1
sg166
F1
sS'r'
F41
sg40
S'Southampton'
p177
sS'w'
F2
sg42
g43
((I2013
I8
I29
I0
I0
I0
I3
I241
I-1
t(dtRp178
sg37
S'England'
p179
sa(dp180
g36
I1
sS'b'
F24
sS'e'
F8.75
sg39
I203
sg172
I3
sg166
F0
sS'r'
F35
sg40
S'Pallekele'
p181
sS'w'
F1
sg42
g43
((I2011
I8
I8
I0
I0
I0
I0
I220
I-1
t(dtRp182
sg37
S'Sri Lanka'
p183
sa(dp184
g36
I1
sS'b'
F24
sS'e'
F11.75
sg39
I202
sg172
I3
sg166
F0
sS'r'
F47
sg40
S'Pallekele'
p185
sS'w'
F1
sg42
g43
((I2011
I8
I6
I0
I0
I0
I5
I218
I-1
t(dtRp186
sg37
S'Sri Lanka'
p187
sa(dp188
g36
I2
sS'b'
F24
sS'e'
F7.25
sg39
I198
sg172
I4
sg166
F0
sS'r'
F29
sg40
S'Melbourne'
p189
sS'w'
F3
sg42
g43
((I2011
I1
I14
I0
I0
I0
I4
I14
I-1
t(dtRp190
sg37
S'England'
p191
sa(dp192
g36
I2
sS'b'
F24
sS'e'
F6.75
sg39
I197
sg172
I3
sg166
F0
sS'r'
F27
sg40
S'Adelaide'
p193
sS'w'
F1
sg42
g43
((I2011
I1
I12
I0
I0
I0
I2
I12
I-1
t(dtRp194
sg37
S'England'
p195
sa(dp196
g36
I1
sS'b'
F24
sS'e'
F9.75
sg39
I185
sg172
I4
sg166
F0
sS'r'
F39
sg40
S'Birmingham'
p197
sS'w'
F1
sg42
g43
((I2010
I7
I6
I0
I0
I0
I1
I187
I-1
t(dtRp198
sg37
S'Pakistan'
p199
sa(dp200
g36
I1
sS'b'
F24
sS'e'
F8.25
sg39
I184
sg172
I3
sg166
F0
sS'r'
F33
sg40
S'Birmingham'
p201
sS'w'
F0
sg42
g43
((I2010
I7
I5
I0
I0
I0
I0
I186
I-1
t(dtRp202
sg37
S'Pakistan'
p203
sa(dp204
g36
I2
sS'b'
F24
sS'e'
F6.75
sg39
I177
sg172
I3
sg166
F0
sS'r'
F27
sg40
S'Bridgetown'
p205
sS'w'
F1
sg42
g43
((I2010
I5
I16
I0
I0
I0
I6
I136
I-1
t(dtRp206
sg37
S'England'
p207
sa(dp208
g36
I1
sS'b'
F24
sS'e'
F9.25
sg39
I176
sg172
I3
sg166
F0
sS'r'
F37
sg40
S'Gros Islet'
p209
sS'w'
F1
sg42
g43
((I2010
I5
I14
I0
I0
I0
I4
I134
I-1
t(dtRp210
sg37
S'Pakistan'
p211
sa(dp212
g36
I1
sS'b'
F24
sS'e'
F5.5
sg39
I174
sg172
I4
sg166
F0
sS'r'
F22
sg40
S'Gros Islet'
p213
sS'w'
F2
sg42
g43
((I2010
I5
I11
I0
I0
I0
I1
I131
I-1
t(dtRp214
sg37
S'West Indies'
p215
sa(dp216
g36
I2
sS'b'
F20
sS'e'
F4.5
sg39
I170
sg172
I4
sg166
F0
sS'r'
F15
sg40
S'Bridgetown'
p217
sS'w'
F3
sg42
g43
((I2010
I5
I9
I0
I0
I0
I6
I129
I-1
t(dtRp218
sg37
S'Sri Lanka'
p219
sa(dp220
g36
I2
sS'b'
F18
sS'e'
F7.666666666666667
sg39
I165
sg172
I4
sg166
F0
sS'r'
F23
sg40
S'Bridgetown'
p221
sS'w'
F1
sg42
g43
((I2010
I5
I7
I0
I0
I0
I4
I127
I-1
t(dtRp222
sg37
S'India'
p223
sa(dp224
g36
I2
sS'b'
F24
sS'e'
F5.25
sg39
I156
sg172
I3
sg166
F0
sS'r'
F21
sg40
S'Gros Islet'
p225
sS'w'
F2
sg42
g43
((I2010
I5
I2
I0
I0
I0
I6
I122
I-1
t(dtRp226
sg37
S'Pakistan'
p227
sa(dp228
g36
I1
sS'b'
F24
sS'e'
F4.75
sg39
I148
sg172
I3
sg166
F0
sS'r'
F19
sg40
S'Wellington'
p229
sS'w'
F3
sg42
g43
((I2010
I2
I26
I0
I0
I0
I4
I57
I-1
t(dtRp230
sg37
S'New Zealand'
p231
sa(dp232
g36
I1
sS'b'
F24
sS'e'
F5.5
sg39
I147
sg172
I3
sg166
F0
sS'r'
F22
sg40
S'Sydney'
p233
sS'w'
F0
sg42
g43
((I2010
I2
I23
I0
I0
I0
I1
I54
I-1
t(dtRp234
sg37
S'West Indies'
p235
sa(dp236
g36
I2
sS'b'
F24
sS'e'
F7
sg39
I146
sg172
I3
sg166
F0
sS'r'
F28
sg40
S'Hobart'
p237
sS'w'
F2
sg42
g43
((I2010
I2
I21
I0
I0
I0
I6
I52
I-1
t(dtRp238
sg37
S'West Indies'
p239
sa(dp240
g36
I2
sS'b'
F24
sS'e'
F6
sg39
I134
sg172
I3
sg166
F1
sS'r'
F24
sg40
S'Melbourne'
p241
sS'w'
F0
sg42
g43
((I2010
I2
I5
I0
I0
I0
I4
I36
I-1
t(dtRp242
sg37
S'Pakistan'
p243
sa(dp244
g36
I2
sS'b'
F1
sS'e'
F6
sg39
I119
sg172
I2
sg166
F0
sS'r'
F1
sg40
S'Manchester'
p245
sS'w'
F1
sg42
g43
((I2009
I8
I30
I0
I0
I0
I6
I242
I-1
t(dtRp246
sg37
S'England'
p247
sa(dp248
g36
I2
sS'b'
F12
sS'e'
F8.5
sg39
I97
sg172
I2
sg166
F0
sS'r'
F17
sg40
S'Nottingham'
p249
sS'w'
F0
sg42
g43
((I2009
I6
I8
I0
I0
I0
I0
I159
I-1
t(dtRp250
sg37
S'Sri Lanka'
p251
sa(dp252
g36
I2
sS'b'
F23
sS'e'
F9.3913043478260878
sg39
I92
sg172
I2
sg166
F0
sS'r'
F36
sg40
S'The Oval'
p253
sS'w'
F2
sg42
g43
((I2009
I6
I6
I0
I0
I0
I5
I157
I-1
t(dtRp254
sg37
S'West Indies'
p255
sa(dp256
g36
I2
sS'b'
F24
sS'e'
F5
sg39
I87
sg172
I1
sg166
F0
sS'r'
F20
sg40
S'Johannesburg'
p257
sS'w'
F1
sg42
g43
((I2009
I3
I27
I0
I0
I0
I4
I86
I-1
t(dtRp258
sg37
S'South Africa'
p259
sa(dp260
g36
I2
sS'b'
F12
sS'e'
F15
sg39
I57
sg172
I2
sg166
F0
sS'r'
F30
sg40
S'Bridgetown'
p261
sS'w'
F0
sg42
g43
((I2008
I6
I20
I0
I0
I0
I4
I172
I-1
t(dtRp262
sg37
S'West Indies'
p263
sa(dp264
g36
I2
sS'b'
F18
sS'e'
F6.333333333333333
sg39
I49
sg172
I3
sg166
F0
sS'r'
F19
sg40
S'Perth'
p265
sS'w'
F2
sg42
g43
((I2007
I12
I11
I0
I0
I0
I1
I345
I-1
t(dtRp266
sg37
S'New Zealand'
p267
sa(dp268
g36
I1
sS'b'
F24
sS'e'
F7.75
sg39
I45
sg172
I4
sg166
F0
sS'r'
F31
sg40
S'Durban'
p269
sS'w'
F2
sg42
g43
((I2007
I9
I22
I0
I0
I0
I5
I265
I-1
t(dtRp270
sg37
S'India'
p271
sa(dp272
g36
I1
sS'b'
F24
sS'e'
F4.5
sg39
I41
sg172
I3
sg166
F0
sS'r'
F18
sg40
S'Cape Town'
p273
sS'w'
F0
sg42
g43
((I2007
I9
I20
I0
I0
I0
I3
I263
I-1
t(dtRp274
sg37
S'Sri Lanka'
p275
sa(dp276
g36
I2
sS'b'
F24
sS'e'
F7
sg39
I37
sg172
I4
sg166
F0
sS'r'
F28
sg40
S'Johannesburg'
p277
sS'w'
F1
sg42
g43
((I2007
I9
I18
I0
I0
I0
I1
I261
I-1
t(dtRp278
sg37
S'Pakistan'
p279
sa(dp280
g36
I1
sS'b'
F24
sS'e'
F7
sg39
I33
sg172
I4
sg166
F0
sS'r'
F28
sg40
S'Cape Town'
p281
sS'w'
F1
sg42
g43
((I2007
I9
I16
I0
I0
I0
I6
I259
I-1
t(dtRp282
sg37
S'Bangladesh'
p283
sa(dp284
g36
I1
sS'b'
F24
sS'e'
F5.5
sg39
I28
sg172
I4
sg166
F0
sS'r'
F22
sg40
S'Cape Town'
p285
sS'w'
F3
sg42
g43
((I2007
I9
I14
I0
I0
I0
I4
I257
I-1
t(dtRp286
sg37
S'England'
p287
sa(dp288
g36
I2
sS'b'
F24
sS'e'
F6.5
sg39
I23
sg172
I4
sg166
F0
sS'r'
F26
sg40
S'Cape Town'
p289
sS'w'
F1
sg42
g43
((I2007
I9
I12
I0
I0
I0
I2
I255
I-1
t(dtRp290
sg37
S'Zimbabwe'
p291
satp292
sS'battingStats'
p293
((dp294
S'a'
F10.9
sS'0s'
p295
F2
sS'b'
F95
sS'no'
p296
F7
sg30
F2007
sS'hs'
p297
F28
sS'm'
F30
sS'4s'
p298
F8
sg33
F2013
sS'i'
F17
sS'6s'
p299
F3
sg164
F114.73684210526316
sS'r'
F109
sS'100s'
p300
F0
sS'50s'
p301
F0
s(lp302
(dp303
g36
I2
sS'b'
F5
sg37
S'England'
p304
sg296
I01
sg164
F60
sg39
I329
sS'dismiss'
p305
S'not out'
p306
sg298
F0
sg172
I9
sg299
F0
sg40
S'Chester-le-Street'
p307
sg42
g43
((I2013
I8
I31
I0
I0
I0
I5
I243
I-1
t(dtRp308
sS'r'
F3
sS'minutes'
p309
F14
sa(dp310
g36
I2
sS'b'
F11
sg37
S'Sri Lanka'
p311
sg164
F63.636363636363633
sg39
I203
sg305
S'bowled'
p312
sg298
F0
sg172
I8
sg299
F0
sg40
S'Pallekele'
p313
sg42
g43
((I2011
I8
I8
I0
I0
I0
I0
I220
I-1
t(dtRp314
sS'r'
F7
sg309
F9
sa(dp315
g36
I2
sS'b'
F16
sg37
S'Sri Lanka'
p316
sg296
I01
sg164
F137.5
sg39
I202
sg305
S'not out'
p317
sg298
F1
sg172
I8
sg299
F1
sg40
S'Pallekele'
p318
sg42
g43
((I2011
I8
I6
I0
I0
I0
I5
I218
I-1
t(dtRp319
sS'r'
F22
sg309
F23
sa(dp320
g36
I1
sS'b'
F1
sg37
S'England'
p321
sg296
I01
sg164
F100
sg39
I198
sg305
S'not out'
p322
sg298
F0
sg172
I9
sg299
F0
sg40
S'Melbourne'
p323
sg42
g43
((I2011
I1
I14
I0
I0
I0
I4
I14
I-1
t(dtRp324
sS'r'
F1
sg309
F3
sa(dp325
g36
I2
sS'b'
F1
sg37
S'Pakistan'
p326
sg164
F0
sg39
I185
sg305
S'lbw'
p327
sg298
F0
sg172
I9
sg299
F0
sg40
S'Birmingham'
p328
sg42
g43
((I2010
I7
I6
I0
I0
I0
I1
I187
I-1
t(dtRp329
sS'r'
F0
sg309
F7
sa(dp330
g36
I2
sS'b'
F3
sg37
S'Pakistan'
p331
sg164
F100
sg39
I184
sg305
S'stumped'
p332
sg298
F0
sg172
I9
sg299
F0
sg40
S'Birmingham'
p333
sg42
g43
((I2010
I7
I5
I0
I0
I0
I0
I186
I-1
t(dtRp334
sS'r'
F3
sg309
F2
sa(dp335
g36
I2
sS'b'
F3
sg37
S'Pakistan'
p336
sg296
I01
sg164
F166.66666666666666
sg39
I176
sg305
S'not out'
p337
sg298
F1
sg172
I9
sg299
F0
sg40
S'Gros Islet'
p338
sg42
g43
((I2010
I5
I14
I0
I0
I0
I4
I134
I-1
t(dtRp339
sS'r'
F5
sg309
F15
sa(dp340
g36
I1
sS'b'
F1
sg37
S'Pakistan'
p341
sg164
F0
sg39
I156
sg305
S'bowled'
p342
sg298
F0
sg172
I8
sg299
F0
sg40
S'Gros Islet'
p343
sg42
g43
((I2010
I5
I2
I0
I0
I0
I6
I122
I-1
t(dtRp344
sS'r'
F0
sg309
F1
sa(dp345
g36
I2
sS'b'
F3
sg37
S'New Zealand'
p346
sg164
F33.333333333333336
sg39
I148
sg305
S'bowled'
p347
sg298
F0
sg172
I4
sg299
F0
sg40
S'Wellington'
p348
sg42
g43
((I2010
I2
I26
I0
I0
I0
I4
I57
I-1
t(dtRp349
sS'r'
F1
sg309
F3
sa(dp350
g36
I1
sS'b'
F7
sg37
S'West Indies'
p351
sg164
F57.142857142857146
sg39
I146
sg305
S'caught'
p352
sg298
F0
sg172
I8
sg299
F0
sg40
S'Hobart'
p353
sg42
g43
((I2010
I2
I21
I0
I0
I0
I6
I52
I-1
t(dtRp354
sS'r'
F4
sg309
F11
sa(dp355
g36
I1
sS'b'
F7
sg37
S'Pakistan'
p356
sg164
F28.571428571428573
sg39
I134
sg305
S'caught'
p357
sg298
F0
sg172
I9
sg299
F0
sg40
S'Melbourne'
p358
sg42
g43
((I2010
I2
I5
I0
I0
I0
I4
I36
I-1
t(dtRp359
sS'r'
F2
sg309
F6
sa(dp360
g36
I1
sS'b'
F13
sg37
S'Sri Lanka'
p361
sg296
I01
sg164
F215.38461538461539
sg39
I97
sg305
S'not out'
p362
sg298
F2
sg172
I8
sg299
F2
sg40
S'Nottingham'
p363
sg42
g43
((I2009
I6
I8
I0
I0
I0
I0
I159
I-1
t(dtRp364
sS'r'
F28
sg309
F24
sa(dp365
g36
I1
sS'b'
F7
sg37
S'West Indies'
p366
sg164
F128.57142857142858
sg39
I92
sg305
S'caught'
p367
sg298
F1
sg172
I8
sg299
F0
sg40
S'The Oval'
p368
sg42
g43
((I2009
I6
I6
I0
I0
I0
I5
I157
I-1
t(dtRp369
sS'r'
F9
sg309
F3
sa(dp370
g36
I1
sS'b'
F10
sg37
S'South Africa'
p371
sg164
F100
sg39
I87
sg305
S'bowled'
p372
sg298
F1
sg172
I8
sg299
F0
sg40
S'Johannesburg'
p373
sg42
g43
((I2009
I3
I27
I0
I0
I0
I4
I86
I-1
t(dtRp374
sS'r'
F10
sg309
F13
sa(dp375
g36
I2
sS'b'
F1
sg37
S'India'
p376
sg296
I01
sg164
F400
sg39
I45
sg305
S'not out'
p377
sg298
F1
sg172
I9
sg299
F0
sg40
S'Durban'
p378
sg42
g43
((I2007
I9
I22
I0
I0
I0
I5
I265
I-1
t(dtRp379
sS'r'
F4
sg309
F2
sa(dp380
g36
I1
sS'b'
F1
sg37
S'Pakistan'
p381
sg296
I01
sg164
F100
sg39
I37
sg305
S'not out'
p382
sg298
F0
sg172
I9
sg299
F0
sg40
S'Johannesburg'
p383
sg42
g43
((I2007
I9
I18
I0
I0
I0
I1
I261
I-1
t(dtRp384
sS'r'
F1
sg309
F1
sa(dp385
g36
I1
sS'b'
F5
sg37
S'Zimbabwe'
p386
sg164
F180
sg39
I23
sg305
S'run out'
p387
sg298
F1
sg172
I9
sg299
F0
sg40
S'Cape Town'
p388
sg42
g43
((I2007
I9
I12
I0
I0
I0
I2
I255
I-1
t(dtRp389
sS'r'
F9
sg309
F5
satp390
ssS'all'
p391
(dp392
g27
(dp393
S'c'
F13
sg29
F0
sS'i'
F56
sS'm'
F56
sS's'
F0
sg31
F13
sg32
F13
ssg162
(dp394
S'a'
F22.333333333333332
sS'b'
F1202
sS'e'
F7.3577371048252909
sS'i'
F55
sg164
F18.212121212121211
sg165
F0
sS'm'
F56
sg166
F0
sS'r'
F1474
sS'w'
F66
sg167
F0
sg168
F15
sg169
F3
ssg293
(dp395
S'a'
F11.75
sg295
F-1
sS'b'
F170
sg296
F11
sS'i'
F27
sg297
F30
sS'm'
F56
sg298
F15
sg299
F5
sg164
F110.58823529411765
sS'r'
F188
sg300
F0
sg301
F0
ssssb.