(iplayer
Player
p1
(dp2
S'is_batsman'
p3
I01
sS'name'
p4
S'Virender Sehwag'
p5
sS'dob'
p6
S'1978/10/20'
p7
sS'price'
p8
S'950000'
p9
sS'is_allrounder'
p10
I00
sS'espnid'
p11
S'35263'
p12
sS'is_overseas'
p13
I00
sS'team'
p14
S'KXIP'
p15
sS'nationality'
p16
S'Indian'
p17
sS'is_bowler'
p18
I00
sS'is_keeper'
p19
I00
sS'id'
p20
S'45'
p21
sS'is_uncapped'
p22
I00
sS'tournamentStats'
p23
(dp24
S'international'
p25
(dp26
S'fieldingStats'
p27
((dp28
S'c'
F2
sS'ctw'
p29
F0
sS'span_s'
p30
F2006
sS'm'
F19
sS's'
F0
sS'dismissals'
p31
F2
sS'i'
F18
sS'ctf'
p32
F2
sS'span_f'
p33
F2012
s(lp34
(dp35
S'inning'
p36
I2
sS'c'
F1
sg29
F0
sS'opp'
p37
S'South Africa'
p38
sS't20i_num'
p39
I286
sg32
F1
sg31
F1
sS's'
F0
sS'place'
p40
S'Colombo (RPS)'
p41
sS'date'
p42
ctime
struct_time
p43
((I2012
I10
I2
I0
I0
I0
I1
I276
I-1
t(dtRp44
sa(dp45
g36
I1
sS'c'
F0
sg29
F0
sg37
S'Pakistan'
p46
sg39
I282
sg32
F0
sg31
F0
sS's'
F0
sg40
S'Colombo (RPS)'
p47
sg42
g43
((I2012
I9
I30
I0
I0
I0
I6
I274
I-1
t(dtRp48
sa(dp49
g36
I2
sS'c'
F0
sg29
F0
sg37
S'Afghanistan'
p50
sg39
I265
sg32
F0
sg31
F0
sS's'
F0
sg40
S'Colombo (RPS)'
p51
sg42
g43
((I2012
I9
I19
I0
I0
I0
I2
I263
I-1
t(dtRp52
sa(dp53
g36
I1
sS'c'
F0
sg29
F0
sg37
S'Australia'
p54
sg39
I218
sg32
F0
sg31
F0
sS's'
F0
sg40
S'Melbourne'
p55
sg42
g43
((I2012
I2
I3
I0
I0
I0
I4
I34
I-1
t(dtRp56
sa(dp57
g36
I1
sS'c'
F0
sg29
F0
sg37
S'Australia'
p58
sg39
I217
sg32
F0
sg31
F0
sS's'
F0
sg40
S'Sydney'
p59
sg42
g43
((I2012
I2
I1
I0
I0
I0
I2
I32
I-1
t(dtRp60
sa(dp61
g36
I1
sS'c'
F0
sg29
F0
sg37
S'Sri Lanka'
p62
sg39
I127
sg32
F0
sg31
F0
sS's'
F0
sg40
S'Mohali'
p63
sg42
g43
((I2009
I12
I12
I0
I0
I0
I5
I346
I-1
t(dtRp64
sa(dp65
g36
I1
sS'c'
F0
sg29
F0
sg37
S'Sri Lanka'
p66
sg39
I126
sg32
F0
sg31
F0
sS's'
F0
sg40
S'Nagpur'
p67
sg42
g43
((I2009
I12
I9
I0
I0
I0
I2
I343
I-1
t(dtRp68
sa(dp69
g36
I2
sS'c'
F0
sg29
F0
sg37
S'New Zealand'
p70
sg39
I85
sg32
F0
sg31
F0
sS's'
F0
sg40
S'Wellington'
p71
sg42
g43
((I2009
I2
I27
I0
I0
I0
I4
I58
I-1
t(dtRp72
sa(dp73
g36
I2
sS'c'
F0
sg29
F0
sg37
S'New Zealand'
p74
sg39
I84
sg32
F0
sg31
F0
sS's'
F0
sg40
S'Christchurch'
p75
sg42
g43
((I2009
I2
I25
I0
I0
I0
I2
I56
I-1
t(dtRp76
sa(dp77
g36
I1
sS'c'
F1
sg29
F0
sg37
S'Sri Lanka'
p78
sg39
I82
sg32
F1
sg31
F1
sS's'
F0
sg40
S'Colombo (RPS)'
p79
sg42
g43
((I2009
I2
I10
I0
I0
I0
I1
I41
I-1
t(dtRp80
sa(dp81
g36
I2
sS'c'
F0
sg29
F0
sg37
S'Australia'
p82
sg39
I52
sg32
F0
sg31
F0
sS's'
F0
sg40
S'Melbourne'
p83
sg42
g43
((I2008
I2
I1
I0
I0
I0
I4
I32
I-1
t(dtRp84
sa(dp85
g36
I1
sS'c'
F0
sg29
F0
sg37
S'Australia'
p86
sg39
I47
sg32
F0
sg31
F0
sS's'
F0
sg40
S'Mumbai (BS)'
p87
sg42
g43
((I2007
I10
I20
I0
I0
I0
I5
I293
I-1
t(dtRp88
sa(dp89
g36
I2
sS'c'
F0
sg29
F0
sg37
S'Australia'
p90
sg39
I45
sg32
F0
sg31
F0
sS's'
F0
sg40
S'Durban'
p91
sg42
g43
((I2007
I9
I22
I0
I0
I0
I5
I265
I-1
t(dtRp92
sa(dp93
g36
I2
sS'c'
F0
sg29
F0
sg37
S'South Africa'
p94
sg39
I43
sg32
F0
sg31
F0
sS's'
F0
sg40
S'Durban'
p95
sg42
g43
((I2007
I9
I20
I0
I0
I0
I3
I263
I-1
t(dtRp96
sa(dp97
g36
I2
sS'c'
F0
sg29
F0
sg37
S'England'
p98
sg39
I40
sg32
F0
sg31
F0
sS's'
F0
sg40
S'Durban'
p99
sg42
g43
((I2007
I9
I19
I0
I0
I0
I2
I262
I-1
t(dtRp100
sa(dp101
g36
I1
sS'c'
F0
sg29
F0
sg37
S'New Zealand'
p102
sg39
I32
sg32
F0
sg31
F0
sS's'
F0
sg40
S'Johannesburg'
p103
sg42
g43
((I2007
I9
I16
I0
I0
I0
I6
I259
I-1
t(dtRp104
sa(dp105
g36
I2
sS'c'
F0
sg29
F0
sg37
S'Pakistan'
p106
sg39
I29
sg32
F0
sg31
F0
sS's'
F0
sg40
S'Durban'
p107
sg42
g43
((I2007
I9
I14
I0
I0
I0
I4
I257
I-1
t(dtRp108
sa(dp109
g36
I1
sS'c'
F0
sg29
F0
sg37
S'South Africa'
p110
sg39
I10
sg32
F0
sg31
F0
sS's'
F0
sg40
S'Johannesburg'
p111
sg42
g43
((I2006
I12
I1
I0
I0
I0
I4
I335
I-1
t(dtRp112
satp113
sS'bowlingStats'
p114
((dp115
S'a'
F-1
sS'b'
F6
sS'e'
F20
sS'i'
F1
sS'sr'
p116
F-1
sS'5w'
p117
F0
sS'm'
F19
sS'maid'
p118
F0
sS'r'
F20
sS'w'
F0
sS'4w'
p119
F0
sS'bbir'
p120
F-1
sS'bbiw'
p121
F-1
sg33
F2012
sg30
F2006
s(lp122
(dp123
g36
I2
sS'b'
F6
sS'e'
F20
sg39
I45
sS'pos'
p124
I6
sg118
F0
sS'r'
F20
sg40
S'Durban'
p125
sS'w'
F0
sg42
g43
((I2007
I9
I22
I0
I0
I0
I5
I265
I-1
t(dtRp126
sg37
S'Australia'
p127
satp128
sS'battingStats'
p129
((dp130
S'a'
F21.888888888888889
sS'0s'
p131
F1
sS'b'
F271
sS'no'
p132
F0
sg30
F2006
sS'hs'
p133
F68
sS'm'
F19
sS'4s'
p134
F43
sg33
F2012
sS'i'
F18
sS'6s'
p135
F16
sg116
F145.38745387453875
sS'r'
F394
sS'100s'
p136
F0
sS'50s'
p137
F2
s(lp138
(dp139
g36
I1
sS'b'
F14
sg37
S'South Africa'
p140
sg116
F121.42857142857143
sg39
I286
sS'dismiss'
p141
S'bowled'
p142
sg134
F1
sg124
I2
sg135
F1
sg40
S'Colombo (RPS)'
p143
sg42
g43
((I2012
I10
I2
I0
I0
I0
I1
I276
I-1
t(dtRp144
sS'r'
F17
sS'minutes'
p145
F25
sa(dp146
g36
I2
sS'b'
F24
sg37
S'Pakistan'
p147
sg116
F120.83333333333333
sg39
I282
sg141
S'caught'
p148
sg134
F4
sg124
I2
sg135
F0
sg40
S'Colombo (RPS)'
p149
sg42
g43
((I2012
I9
I30
I0
I0
I0
I6
I274
I-1
t(dtRp150
sS'r'
F29
sg145
F38
sa(dp151
g36
I1
sS'b'
F10
sg37
S'Afghanistan'
p152
sg116
F80
sg39
I265
sg141
S'caught'
p153
sg134
F1
sg124
I2
sg135
F0
sg40
S'Colombo (RPS)'
p154
sg42
g43
((I2012
I9
I19
I0
I0
I0
I2
I263
I-1
t(dtRp155
sS'r'
F8
sg145
F25
sa(dp156
g36
I2
sS'b'
F16
sg37
S'Australia'
p157
sg116
F143.75
sg39
I218
sg141
S'caught'
p158
sg134
F2
sg124
I2
sg135
F1
sg40
S'Melbourne'
p159
sg42
g43
((I2012
I2
I3
I0
I0
I0
I4
I34
I-1
t(dtRp160
sS'r'
F23
sg145
F32
sa(dp161
g36
I2
sS'b'
F3
sg37
S'Australia'
p162
sg116
F133.33333333333334
sg39
I217
sg141
S'caught'
p163
sg134
F1
sg124
I2
sg135
F0
sg40
S'Sydney'
p164
sg42
g43
((I2012
I2
I1
I0
I0
I0
I2
I32
I-1
t(dtRp165
sS'r'
F4
sg145
F2
sa(dp166
g36
I2
sS'b'
F36
sg37
S'Sri Lanka'
p167
sg116
F177.77777777777777
sg39
I127
sg141
S'caught'
p168
sg134
F7
sg124
I2
sg135
F3
sg40
S'Mohali'
p169
sg42
g43
((I2009
I12
I12
I0
I0
I0
I5
I346
I-1
t(dtRp170
sS'r'
F64
sg145
F56
sa(dp171
g36
I2
sS'b'
F14
sg37
S'Sri Lanka'
p172
sg116
F185.71428571428572
sg39
I126
sg141
S'caught'
p173
sg134
F3
sg124
I2
sg135
F1
sg40
S'Nagpur'
p174
sg42
g43
((I2009
I12
I9
I0
I0
I0
I2
I343
I-1
t(dtRp175
sS'r'
F26
sg145
F-1
sa(dp176
g36
I1
sS'b'
F11
sg37
S'New Zealand'
p177
sg116
F218.18181818181819
sg39
I85
sg141
S'caught'
p178
sg134
F5
sg124
I2
sg135
F0
sg40
S'Wellington'
p179
sg42
g43
((I2009
I2
I27
I0
I0
I0
I4
I58
I-1
t(dtRp180
sS'r'
F24
sg145
F15
sa(dp181
g36
I1
sS'b'
F10
sg37
S'New Zealand'
p182
sg116
F260
sg39
I84
sg141
S'bowled'
p183
sg134
F0
sg124
I2
sg135
F4
sg40
S'Christchurch'
p184
sg42
g43
((I2009
I2
I25
I0
I0
I0
I2
I56
I-1
t(dtRp185
sS'r'
F26
sg145
F14
sa(dp186
g36
I2
sS'b'
F1
sg37
S'Sri Lanka'
p187
sg116
F100
sg39
I82
sg141
S'run out'
p188
sg134
F0
sg124
I2
sg135
F0
sg40
S'Colombo (RPS)'
p189
sg42
g43
((I2009
I2
I10
I0
I0
I0
I1
I41
I-1
t(dtRp190
sS'r'
F1
sg145
F4
sa(dp191
g36
I1
sS'b'
F3
sg37
S'Australia'
p192
sg116
F0
sg39
I52
sg141
S'run out'
p193
sg134
F0
sg124
I2
sg135
F0
sg40
S'Melbourne'
p194
sg42
g43
((I2008
I2
I1
I0
I0
I0
I4
I32
I-1
t(dtRp195
sS'r'
F0
sg145
F5
sa(dp196
g36
I2
sS'b'
F4
sg37
S'Australia'
p197
sg116
F125
sg39
I47
sg141
S'caught'
p198
sg134
F1
sg124
I2
sg135
F0
sg40
S'Mumbai (BS)'
p199
sg42
g43
((I2007
I10
I20
I0
I0
I0
I5
I293
I-1
t(dtRp200
sS'r'
F5
sg145
F12
sa(dp201
g36
I1
sS'b'
F13
sg37
S'Australia'
p202
sg116
F69.230769230769226
sg39
I45
sg141
S'caught'
p203
sg134
F1
sg124
I2
sg135
F0
sg40
S'Durban'
p204
sg42
g43
((I2007
I9
I22
I0
I0
I0
I5
I265
I-1
t(dtRp205
sS'r'
F9
sg145
F25
sa(dp206
g36
I1
sS'b'
F11
sg37
S'South Africa'
p207
sg116
F100
sg39
I43
sg141
S'caught'
p208
sg134
F1
sg124
I2
sg135
F0
sg40
S'Durban'
p209
sg42
g43
((I2007
I9
I20
I0
I0
I0
I3
I263
I-1
t(dtRp210
sS'r'
F11
sg145
F23
sa(dp211
g36
I1
sS'b'
F52
sg37
S'England'
p212
sg116
F130.76923076923077
sg39
I40
sg141
S'bowled'
p213
sg134
F4
sg124
I2
sg135
F3
sg40
S'Durban'
p214
sg42
g43
((I2007
I9
I19
I0
I0
I0
I2
I262
I-1
t(dtRp215
sS'r'
F68
sg145
F59
sa(dp216
g36
I2
sS'b'
F17
sg37
S'New Zealand'
p217
sg116
F235.29411764705881
sg39
I32
sg141
S'caught'
p218
sg134
F6
sg124
I2
sg135
F2
sg40
S'Johannesburg'
p219
sg42
g43
((I2007
I9
I16
I0
I0
I0
I6
I259
I-1
t(dtRp220
sS'r'
F40
sg145
F24
sa(dp221
g36
I1
sS'b'
F3
sg37
S'Pakistan'
p222
sg116
F166.66666666666666
sg39
I29
sg141
S'bowled'
p223
sg134
F1
sg124
I2
sg135
F0
sg40
S'Durban'
p224
sg42
g43
((I2007
I9
I14
I0
I0
I0
I4
I257
I-1
t(dtRp225
sS'r'
F5
sg145
F10
sa(dp226
g36
I2
sS'b'
F29
sg37
S'South Africa'
p227
sg116
F117.24137931034483
sg39
I10
sg141
S'run out'
p228
sg134
F5
sg124
I1
sg135
F1
sg40
S'Johannesburg'
p229
sg42
g43
((I2006
I12
I1
I0
I0
I0
I4
I335
I-1
t(dtRp230
sS'r'
F34
sg145
F45
satp231
ssS'all'
p232
(dp233
g27
(dp234
S'c'
F35
sg29
F0
sS'i'
F124
sS'm'
F124
sS's'
F0
sg31
F35
sg32
F35
ssg114
(dp235
S'a'
F21.727272727272727
sS'b'
F346
sS'e'
F8.2890173410404628
sS'i'
F26
sg116
F15.727272727272727
sg117
F0
sS'm'
F124
sg118
F0
sS'r'
F478
sS'w'
F22
sg119
F0
sg120
F14
sg121
F3
ssg129
(dp236
S'a'
F28.137931034482758
sg131
F-1
sS'b'
F2155
sg132
F6
sS'i'
F122
sg133
F119
sS'm'
F124
sg134
F398
sg135
F115
sg116
F151.46171693735499
sS'r'
F3264
sg136
F1
sg137
F21
ssssb.