(iplayer
Player
p1
(dp2
S'is_batsman'
p3
I00
sS'name'
p4
S'Thisara Perera'
p5
sS'dob'
p6
S'1989/04/03'
p7
sS'price'
p8
S'950000'
p9
sS'is_allrounder'
p10
I01
sS'espnid'
p11
S'233514'
p12
sS'is_overseas'
p13
I01
sS'team'
p14
S'KXIP'
p15
sS'nationality'
p16
S'Sri Lankan'
p17
sS'is_bowler'
p18
I00
sS'is_keeper'
p19
I00
sS'id'
p20
S'215'
p21
sS'is_uncapped'
p22
I00
sS'tournamentStats'
p23
(dp24
S'international'
p25
(dp26
S'fieldingStats'
p27
((dp28
S'c'
F13
sS'ctw'
p29
F0
sS'span_s'
p30
F2010
sS'm'
F37
sS's'
F0
sS'dismissals'
p31
F13
sS'i'
F37
sS'ctf'
p32
F13
sS'span_f'
p33
F2014
s(lp34
(dp35
S'inning'
p36
I1
sS'c'
F1
sg29
F0
sS'opp'
p37
S'India'
p38
sS't20i_num'
p39
I400
sg32
F1
sg31
F1
sS's'
F0
sS'place'
p40
S'Dhaka'
p41
sS'date'
p42
ctime
struct_time
p43
((I2014
I4
I6
I0
I0
I0
I6
I96
I-1
t(dtRp44
sa(dp45
g36
I2
sS'c'
F0
sg29
F0
sg37
S'New Zealand'
p46
sg39
I395
sg32
F0
sg31
F0
sS's'
F0
sg40
S'Chittagong'
p47
sg42
g43
((I2014
I3
I31
I0
I0
I0
I0
I90
I-1
t(dtRp48
sa(dp49
g36
I2
sS'c'
F0
sg29
F0
sg37
S'England'
p50
sg39
I387
sg32
F0
sg31
F0
sS's'
F0
sg40
S'Chittagong'
p51
sg42
g43
((I2014
I3
I27
I0
I0
I0
I3
I86
I-1
t(dtRp52
sa(dp53
g36
I1
sS'c'
F0
sg29
F0
sg37
S'Netherlands'
p54
sg39
I384
sg32
F0
sg31
F0
sS's'
F0
sg40
S'Chittagong'
p55
sg42
g43
((I2014
I3
I24
I0
I0
I0
I0
I83
I-1
t(dtRp56
sa(dp57
g36
I2
sS'c'
F0
sg29
F0
sg37
S'South Africa'
p58
sg39
I379
sg32
F0
sg31
F0
sS's'
F0
sg40
S'Chittagong'
p59
sg42
g43
((I2014
I3
I22
I0
I0
I0
I5
I81
I-1
t(dtRp60
sa(dp61
g36
I1
sS'c'
F0
sg29
F0
sg37
S'Bangladesh'
p62
sg39
I358
sg32
F0
sg31
F0
sS's'
F0
sg40
S'Chittagong'
p63
sg42
g43
((I2014
I2
I14
I0
I0
I0
I4
I45
I-1
t(dtRp64
sa(dp65
g36
I2
sS'c'
F2
sg29
F0
sg37
S'Bangladesh'
p66
sg39
I357
sg32
F2
sg31
F2
sS's'
F0
sg40
S'Chittagong'
p67
sg42
g43
((I2014
I2
I12
I0
I0
I0
I2
I43
I-1
t(dtRp68
sa(dp69
g36
I2
sS'c'
F0
sg29
F0
sg37
S'Pakistan'
p70
sg39
I351
sg32
F0
sg31
F0
sS's'
F0
sg40
S'Dubai (DSC)'
p71
sg42
g43
((I2013
I12
I13
I0
I0
I0
I4
I347
I-1
t(dtRp72
sa(dp73
g36
I2
sS'c'
F1
sg29
F0
sg37
S'Pakistan'
p74
sg39
I350
sg32
F1
sg31
F1
sS's'
F0
sg40
S'Dubai (DSC)'
p75
sg42
g43
((I2013
I12
I11
I0
I0
I0
I2
I345
I-1
t(dtRp76
sa(dp77
g36
I1
sS'c'
F0
sg29
F0
sg37
S'New Zealand'
p78
sg39
I341
sg32
F0
sg31
F0
sS's'
F0
sg40
S'Pallekele'
p79
sg42
g43
((I2013
I11
I21
I0
I0
I0
I3
I325
I-1
t(dtRp80
sa(dp81
g36
I1
sS'c'
F0
sg29
F0
sg37
S'South Africa'
p82
sg39
I325
sg32
F0
sg31
F0
sS's'
F0
sg40
S'Hambantota'
p83
sg42
g43
((I2013
I8
I6
I0
I0
I0
I1
I218
I-1
t(dtRp84
sa(dp85
g36
I1
sS'c'
F0
sg29
F0
sg37
S'South Africa'
p86
sg39
I324
sg32
F0
sg31
F0
sS's'
F0
sg40
S'Hambantota'
p87
sg42
g43
((I2013
I8
I4
I0
I0
I0
I6
I216
I-1
t(dtRp88
sa(dp89
g36
I1
sS'c'
F0
sg29
F0
sg37
S'South Africa'
p90
sg39
I323
sg32
F0
sg31
F0
sS's'
F0
sg40
S'Colombo (RPS)'
p91
sg42
g43
((I2013
I8
I2
I0
I0
I0
I4
I214
I-1
t(dtRp92
sa(dp93
g36
I2
sS'c'
F0
sg29
F0
sg37
S'Bangladesh'
p94
sg39
I312
sg32
F0
sg31
F0
sS's'
F0
sg40
S'Pallekele'
p95
sg42
g43
((I2013
I3
I31
I0
I0
I0
I6
I90
I-1
t(dtRp96
sa(dp97
g36
I2
sS'c'
F1
sg29
F0
sg37
S'Australia'
p98
sg39
I300
sg32
F1
sg31
F1
sS's'
F0
sg40
S'Melbourne'
p99
sg42
g43
((I2013
I1
I28
I0
I0
I0
I0
I28
I-1
t(dtRp100
sa(dp101
g36
I1
sS'c'
F0
sg29
F0
sg37
S'Australia'
p102
sg39
I299
sg32
F0
sg31
F0
sS's'
F0
sg40
S'Sydney'
p103
sg42
g43
((I2013
I1
I26
I0
I0
I0
I5
I26
I-1
t(dtRp104
sa(dp105
g36
I1
sS'c'
F1
sg29
F0
sg37
S'New Zealand'
p106
sg39
I290
sg32
F1
sg31
F1
sS's'
F0
sg40
S'Pallekele'
p107
sg42
g43
((I2012
I10
I30
I0
I0
I0
I1
I304
I-1
t(dtRp108
sa(dp109
g36
I1
sS'c'
F0
sg29
F0
sg37
S'West Indies'
p110
sg39
I289
sg32
F0
sg31
F0
sS's'
F0
sg40
S'Colombo (RPS)'
p111
sg42
g43
((I2012
I10
I7
I0
I0
I0
I6
I281
I-1
t(dtRp112
sa(dp113
g36
I2
sS'c'
F0
sg29
F0
sg37
S'Pakistan'
p114
sg39
I287
sg32
F0
sg31
F0
sS's'
F0
sg40
S'Colombo (RPS)'
p115
sg42
g43
((I2012
I10
I4
I0
I0
I0
I3
I278
I-1
t(dtRp116
sa(dp117
g36
I2
sS'c'
F0
sg29
F0
sg37
S'England'
p118
sg39
I284
sg32
F0
sg31
F0
sS's'
F0
sg40
S'Pallekele'
p119
sg42
g43
((I2012
I10
I1
I0
I0
I0
I0
I275
I-1
t(dtRp120
sa(dp121
g36
I1
sS'c'
F0
sg29
F0
sg37
S'West Indies'
p122
sg39
I280
sg32
F0
sg31
F0
sS's'
F0
sg40
S'Pallekele'
p123
sg42
g43
((I2012
I9
I29
I0
I0
I0
I5
I273
I-1
t(dtRp124
sa(dp125
g36
I1
sS'c'
F2
sg29
F0
sg37
S'New Zealand'
p126
sg39
I275
sg32
F2
sg31
F2
sS's'
F0
sg40
S'Pallekele'
p127
sg42
g43
((I2012
I9
I27
I0
I0
I0
I3
I271
I-1
t(dtRp128
sa(dp129
g36
I1
sS'c'
F0
sg29
F0
sg37
S'South Africa'
p130
sg39
I269
sg32
F0
sg31
F0
sS's'
F0
sg40
S'Hambantota'
p131
sg42
g43
((I2012
I9
I22
I0
I0
I0
I5
I266
I-1
t(dtRp132
sa(dp133
g36
I2
sS'c'
F0
sg29
F0
sg37
S'Zimbabwe'
p134
sg39
I263
sg32
F0
sg31
F0
sS's'
F0
sg40
S'Hambantota'
p135
sg42
g43
((I2012
I9
I18
I0
I0
I0
I1
I262
I-1
t(dtRp136
sa(dp137
g36
I1
sS'c'
F0
sg29
F0
sg37
S'India'
p138
sg39
I255
sg32
F0
sg31
F0
sS's'
F0
sg40
S'Pallekele'
p139
sg42
g43
((I2012
I8
I7
I0
I0
I0
I1
I220
I-1
t(dtRp140
sa(dp141
g36
I1
sS'c'
F0
sg29
F0
sg37
S'Pakistan'
p142
sg39
I245
sg32
F0
sg31
F0
sS's'
F0
sg40
S'Hambantota'
p143
sg42
g43
((I2012
I6
I3
I0
I0
I0
I6
I155
I-1
t(dtRp144
sa(dp145
g36
I2
sS'c'
F1
sg29
F0
sg37
S'Pakistan'
p146
sg39
I244
sg32
F1
sg31
F1
sS's'
F0
sg40
S'Hambantota'
p147
sg42
g43
((I2012
I6
I1
I0
I0
I0
I4
I153
I-1
t(dtRp148
sa(dp149
g36
I2
sS'c'
F1
sg29
F0
sg37
S'Pakistan'
p150
sg39
I215
sg32
F1
sg31
F1
sS's'
F0
sg40
S'Abu Dhabi'
p151
sg42
g43
((I2011
I11
I25
I0
I0
I0
I4
I329
I-1
t(dtRp152
sa(dp153
g36
I2
sS'c'
F1
sg29
F0
sg37
S'Australia'
p154
sg39
I203
sg32
F1
sg31
F1
sS's'
F0
sg40
S'Pallekele'
p155
sg42
g43
((I2011
I8
I8
I0
I0
I0
I0
I220
I-1
t(dtRp156
sa(dp157
g36
I1
sS'c'
F1
sg29
F0
sg37
S'England'
p158
sg39
I201
sg32
F1
sg31
F1
sS's'
F0
sg40
S'Bristol'
p159
sg42
g43
((I2011
I6
I25
I0
I0
I0
I5
I176
I-1
t(dtRp160
sa(dp161
g36
I1
sS'c'
F1
sg29
F0
sg37
S'Australia'
p162
sg39
I192
sg32
F1
sg31
F1
sS's'
F0
sg40
S'Perth'
p163
sg42
g43
((I2010
I10
I31
I0
I0
I0
I6
I304
I-1
t(dtRp164
sa(dp165
g36
I1
sS'c'
F0
sg29
F0
sg37
S'New Zealand'
p166
sg39
I181
sg32
F0
sg31
F0
sS's'
F0
sg40
S'Lauderhill'
p167
sg42
g43
((I2010
I5
I23
I0
I0
I0
I6
I143
I-1
t(dtRp168
sa(dp169
g36
I1
sS'c'
F0
sg29
F0
sg37
S'New Zealand'
p170
sg39
I180
sg32
F0
sg31
F0
sS's'
F0
sg40
S'Lauderhill'
p171
sg42
g43
((I2010
I5
I22
I0
I0
I0
I5
I142
I-1
t(dtRp172
sa(dp173
g36
I2
sS'c'
F0
sg29
F0
sg37
S'England'
p174
sg39
I175
sg32
F0
sg31
F0
sS's'
F0
sg40
S'Gros Islet'
p175
sg42
g43
((I2010
I5
I13
I0
I0
I0
I3
I133
I-1
t(dtRp176
sa(dp177
g36
I1
sS'c'
F0
sg29
F0
sg37
S'India'
p178
sg39
I173
sg32
F0
sg31
F0
sS's'
F0
sg40
S'Gros Islet'
p179
sg42
g43
((I2010
I5
I11
I0
I0
I0
I1
I131
I-1
t(dtRp180
sa(dp181
g36
I2
sS'c'
F0
sg29
F0
sg37
S'West Indies'
p182
sg39
I166
sg32
F0
sg31
F0
sS's'
F0
sg40
S'Bridgetown'
p183
sg42
g43
((I2010
I5
I7
I0
I0
I0
I4
I127
I-1
t(dtRp184
sa(dp185
g36
I2
sS'c'
F0
sg29
F0
sg37
S'Zimbabwe'
p186
sg39
I157
sg32
F0
sg31
F0
sS's'
F0
sg40
S'Providence'
p187
sg42
g43
((I2010
I5
I3
I0
I0
I0
I0
I123
I-1
t(dtRp188
satp189
sS'bowlingStats'
p190
((dp191
S'a'
F26.363636363636363
sS'b'
F412
sS'e'
F8.4466019417475735
sS'i'
F27
sS'sr'
p192
F18.727272727272727
sS'5w'
p193
F0
sS'm'
F37
sS'maid'
p194
F0
sS'r'
F580
sS'w'
F22
sS'4w'
p195
F0
sS'bbir'
p196
F19
sS'bbiw'
p197
F2
sg33
F2014
sg30
F2010
s(lp198
(dp199
g36
I2
sS'b'
F6
sS'e'
F14
sg39
I387
sS'pos'
p200
I6
sg194
F0
sS'r'
F14
sg40
S'Chittagong'
p201
sS'w'
F0
sg42
g43
((I2014
I3
I27
I0
I0
I0
I3
I86
I-1
t(dtRp202
sg37
S'England'
p203
sa(dp204
g36
I2
sS'b'
F12
sS'e'
F9
sg39
I379
sg200
I5
sg194
F0
sS'r'
F18
sg40
S'Chittagong'
p205
sS'w'
F0
sg42
g43
((I2014
I3
I22
I0
I0
I0
I5
I81
I-1
t(dtRp206
sg37
S'South Africa'
p207
sa(dp208
g36
I2
sS'b'
F24
sS'e'
F10.5
sg39
I357
sg200
I5
sg194
F0
sS'r'
F42
sg40
S'Chittagong'
p209
sS'w'
F2
sg42
g43
((I2014
I2
I12
I0
I0
I0
I2
I43
I-1
t(dtRp210
sg37
S'Bangladesh'
p211
sa(dp212
g36
I2
sS'b'
F18
sS'e'
F12
sg39
I351
sg200
I7
sg194
F0
sS'r'
F36
sg40
S'Dubai (DSC)'
p213
sS'w'
F2
sg42
g43
((I2013
I12
I13
I0
I0
I0
I4
I347
I-1
t(dtRp214
sg37
S'Pakistan'
p215
sa(dp216
g36
I2
sS'b'
F18
sS'e'
F9
sg39
I350
sg200
I6
sg194
F0
sS'r'
F27
sg40
S'Dubai (DSC)'
p217
sS'w'
F1
sg42
g43
((I2013
I12
I11
I0
I0
I0
I2
I345
I-1
t(dtRp218
sg37
S'Pakistan'
p219
sa(dp220
g36
I1
sS'b'
F12
sS'e'
F6.5
sg39
I341
sg200
I7
sg194
F0
sS'r'
F13
sg40
S'Pallekele'
p221
sS'w'
F1
sg42
g43
((I2013
I11
I21
I0
I0
I0
I3
I325
I-1
t(dtRp222
sg37
S'New Zealand'
p223
sa(dp224
g36
I1
sS'b'
F6
sS'e'
F10
sg39
I325
sg200
I4
sg194
F0
sS'r'
F10
sg40
S'Hambantota'
p225
sS'w'
F0
sg42
g43
((I2013
I8
I6
I0
I0
I0
I1
I218
I-1
t(dtRp226
sg37
S'South Africa'
p227
sa(dp228
g36
I1
sS'b'
F6
sS'e'
F11
sg39
I323
sg200
I5
sg194
F0
sS'r'
F11
sg40
S'Colombo (RPS)'
p229
sS'w'
F0
sg42
g43
((I2013
I8
I2
I0
I0
I0
I4
I214
I-1
t(dtRp230
sg37
S'South Africa'
p231
sa(dp232
g36
I2
sS'b'
F12
sS'e'
F12.5
sg39
I312
sg200
I5
sg194
F0
sS'r'
F25
sg40
S'Pallekele'
p233
sS'w'
F2
sg42
g43
((I2013
I3
I31
I0
I0
I0
I6
I90
I-1
t(dtRp234
sg37
S'Bangladesh'
p235
sa(dp236
g36
I2
sS'b'
F18
sS'e'
F8.3333333333333339
sg39
I300
sg200
I6
sg194
F0
sS'r'
F25
sg40
S'Melbourne'
p237
sS'w'
F1
sg42
g43
((I2013
I1
I28
I0
I0
I0
I0
I28
I-1
t(dtRp238
sg37
S'Australia'
p239
sa(dp240
g36
I1
sS'b'
F24
sS'e'
F7.25
sg39
I299
sg200
I4
sg194
F0
sS'r'
F29
sg40
S'Sydney'
p241
sS'w'
F1
sg42
g43
((I2013
I1
I26
I0
I0
I0
I5
I26
I-1
t(dtRp242
sg37
S'Australia'
p243
sa(dp244
g36
I1
sS'b'
F18
sS'e'
F7.333333333333333
sg39
I290
sg200
I4
sg194
F0
sS'r'
F22
sg40
S'Pallekele'
p245
sS'w'
F2
sg42
g43
((I2012
I10
I30
I0
I0
I0
I1
I304
I-1
t(dtRp246
sg37
S'New Zealand'
p247
sa(dp248
g36
I2
sS'b'
F6
sS'e'
F8
sg39
I287
sg200
I5
sg194
F0
sS'r'
F8
sg40
S'Colombo (RPS)'
p249
sS'w'
F0
sg42
g43
((I2012
I10
I4
I0
I0
I0
I3
I278
I-1
t(dtRp250
sg37
S'Pakistan'
p251
sa(dp252
g36
I1
sS'b'
F6
sS'e'
F12
sg39
I269
sg200
I5
sg194
F0
sS'r'
F12
sg40
S'Hambantota'
p253
sS'w'
F1
sg42
g43
((I2012
I9
I22
I0
I0
I0
I5
I266
I-1
t(dtRp254
sg37
S'South Africa'
p255
sa(dp256
g36
I2
sS'b'
F12
sS'e'
F8
sg39
I263
sg200
I5
sg194
F0
sS'r'
F16
sg40
S'Hambantota'
p257
sS'w'
F0
sg42
g43
((I2012
I9
I18
I0
I0
I0
I1
I262
I-1
t(dtRp258
sg37
S'Zimbabwe'
p259
sa(dp260
g36
I1
sS'b'
F24
sS'e'
F8.5
sg39
I255
sg200
I4
sg194
F0
sS'r'
F34
sg40
S'Pallekele'
p261
sS'w'
F0
sg42
g43
((I2012
I8
I7
I0
I0
I0
I1
I220
I-1
t(dtRp262
sg37
S'India'
p263
sa(dp264
g36
I1
sS'b'
F24
sS'e'
F7.75
sg39
I245
sg200
I3
sg194
F0
sS'r'
F31
sg40
S'Hambantota'
p265
sS'w'
F1
sg42
g43
((I2012
I6
I3
I0
I0
I0
I6
I155
I-1
t(dtRp266
sg37
S'Pakistan'
p267
sa(dp268
g36
I2
sS'b'
F16
sS'e'
F8.625
sg39
I244
sg200
I4
sg194
F0
sS'r'
F23
sg40
S'Hambantota'
p269
sS'w'
F1
sg42
g43
((I2012
I6
I1
I0
I0
I0
I4
I153
I-1
t(dtRp270
sg37
S'Pakistan'
p271
sa(dp272
g36
I2
sS'b'
F24
sS'e'
F6.5
sg39
I215
sg200
I2
sg194
F0
sS'r'
F26
sg40
S'Abu Dhabi'
p273
sS'w'
F1
sg42
g43
((I2011
I11
I25
I0
I0
I0
I4
I329
I-1
t(dtRp274
sg37
S'Pakistan'
p275
sa(dp276
g36
I2
sS'b'
F12
sS'e'
F10.5
sg39
I203
sg200
I2
sg194
F0
sS'r'
F21
sg40
S'Pallekele'
p277
sS'w'
F1
sg42
g43
((I2011
I8
I8
I0
I0
I0
I0
I220
I-1
t(dtRp278
sg37
S'Australia'
p279
sa(dp280
g36
I1
sS'b'
F12
sS'e'
F17.5
sg39
I201
sg200
I4
sg194
F0
sS'r'
F35
sg40
S'Bristol'
p281
sS'w'
F0
sg42
g43
((I2011
I6
I25
I0
I0
I0
I5
I176
I-1
t(dtRp282
sg37
S'England'
p283
sa(dp284
g36
I1
sS'b'
F24
sS'e'
F5.5
sg39
I192
sg200
I4
sg194
F0
sS'r'
F22
sg40
S'Perth'
p285
sS'w'
F2
sg42
g43
((I2010
I10
I31
I0
I0
I0
I6
I304
I-1
t(dtRp286
sg37
S'Australia'
p287
sa(dp288
g36
I1
sS'b'
F12
sS'e'
F4
sg39
I181
sg200
I6
sg194
F0
sS'r'
F8
sg40
S'Lauderhill'
p289
sS'w'
F0
sg42
g43
((I2010
I5
I23
I0
I0
I0
I6
I143
I-1
t(dtRp290
sg37
S'New Zealand'
p291
sa(dp292
g36
I1
sS'b'
F24
sS'e'
F6.25
sg39
I180
sg200
I5
sg194
F0
sS'r'
F25
sg40
S'Lauderhill'
p293
sS'w'
F0
sg42
g43
((I2010
I5
I22
I0
I0
I0
I5
I142
I-1
t(dtRp294
sg37
S'New Zealand'
p295
sa(dp296
g36
I2
sS'b'
F12
sS'e'
F9.5
sg39
I175
sg200
I7
sg194
F0
sS'r'
F19
sg40
S'Gros Islet'
p297
sS'w'
F2
sg42
g43
((I2010
I5
I13
I0
I0
I0
I3
I133
I-1
t(dtRp298
sg37
S'England'
p299
sa(dp300
g36
I1
sS'b'
F18
sS'e'
F5
sg39
I173
sg200
I2
sg194
F0
sS'r'
F15
sg40
S'Gros Islet'
p301
sS'w'
F1
sg42
g43
((I2010
I5
I11
I0
I0
I0
I1
I131
I-1
t(dtRp302
sg37
S'India'
p303
sa(dp304
g36
I2
sS'b'
F12
sS'e'
F6.5
sg39
I166
sg200
I4
sg194
F0
sS'r'
F13
sg40
S'Bridgetown'
p305
sS'w'
F0
sg42
g43
((I2010
I5
I7
I0
I0
I0
I4
I127
I-1
t(dtRp306
sg37
S'West Indies'
p307
satp308
sS'battingStats'
p309
((dp310
S'a'
F32.07692307692308
sS'0s'
p311
F3
sS'b'
F279
sS'no'
p312
F17
sg30
F2010
sS'hs'
p313
F35
sS'm'
F37
sS'4s'
p314
F29
sg33
F2014
sS'i'
F30
sS'6s'
p315
F21
sg192
F149.46236559139786
sS'r'
F417
sS'100s'
p316
F0
sS'50s'
p317
F0
s(lp318
(dp319
g36
I2
sS'b'
F14
sg37
S'India'
p320
sg312
I01
sg192
F164.28571428571428
sg39
I400
sS'dismiss'
p321
S'not out'
p322
sg314
F0
sg200
I6
sg315
F3
sg40
S'Dhaka'
p323
sg42
g43
((I2014
I4
I6
I0
I0
I0
I6
I96
I-1
t(dtRp324
sS'r'
F23
sS'minutes'
p325
F17
sa(dp326
g36
I1
sS'b'
F13
sg37
S'New Zealand'
p327
sg192
F123.07692307692308
sg39
I395
sg321
S'caught'
p328
sg314
F3
sg200
I7
sg315
F0
sg40
S'Chittagong'
p329
sg42
g43
((I2014
I3
I31
I0
I0
I0
I0
I90
I-1
t(dtRp330
sS'r'
F16
sg325
F20
sa(dp331
g36
I1
sS'b'
F12
sg37
S'England'
p332
sg312
I01
sg192
F191.66666666666666
sg39
I387
sg321
S'not out'
p333
sg314
F2
sg200
I4
sg315
F1
sg40
S'Chittagong'
p334
sg42
g43
((I2014
I3
I27
I0
I0
I0
I3
I86
I-1
t(dtRp335
sS'r'
F23
sg325
F22
sa(dp336
g36
I1
sS'b'
F6
sg37
S'South Africa'
p337
sg192
F133.33333333333334
sg39
I379
sg321
S'bowled'
p338
sg314
F1
sg200
I7
sg315
F0
sg40
S'Chittagong'
p339
sg42
g43
((I2014
I3
I22
I0
I0
I0
I5
I81
I-1
t(dtRp340
sS'r'
F8
sg325
F8
sa(dp341
g36
I2
sS'b'
F28
sg37
S'Bangladesh'
p342
sg312
I01
sg192
F125
sg39
I358
sg321
S'not out'
p343
sg314
F3
sg200
I8
sg315
F0
sg40
S'Chittagong'
p344
sg42
g43
((I2014
I2
I14
I0
I0
I0
I4
I45
I-1
t(dtRp345
sS'r'
F35
sg325
F52
sa(dp346
g36
I1
sS'b'
F16
sg37
S'Bangladesh'
p347
sg312
I01
sg192
F118.75
sg39
I357
sg321
S'not out'
p348
sg314
F0
sg200
I7
sg315
F0
sg40
S'Chittagong'
p349
sg42
g43
((I2014
I2
I12
I0
I0
I0
I2
I43
I-1
t(dtRp350
sS'r'
F19
sg325
F30
sa(dp351
g36
I1
sS'b'
F2
sg37
S'Pakistan'
p352
sg312
I01
sg192
F100
sg39
I350
sg321
S'not out'
p353
sg314
F0
sg200
I7
sg315
F0
sg40
S'Dubai (DSC)'
p354
sg42
g43
((I2013
I12
I11
I0
I0
I0
I2
I345
I-1
t(dtRp355
sS'r'
F2
sg325
F2
sa(dp356
g36
I2
sS'b'
F11
sg37
S'South Africa'
p357
sg312
I01
sg192
F227.27272727272728
sg39
I325
sg321
S'not out'
p358
sg314
F3
sg200
I6
sg315
F1
sg40
S'Hambantota'
p359
sg42
g43
((I2013
I8
I6
I0
I0
I0
I1
I218
I-1
t(dtRp360
sS'r'
F25
sg325
F14
sa(dp361
g36
I2
sS'b'
F20
sg37
S'South Africa'
p362
sg312
I01
sg192
F110
sg39
I324
sg321
S'not out'
p363
sg314
F2
sg200
I7
sg315
F0
sg40
S'Hambantota'
p364
sg42
g43
((I2013
I8
I4
I0
I0
I0
I6
I216
I-1
t(dtRp365
sS'r'
F22
sg325
F25
sa(dp366
g36
I2
sS'b'
F3
sg37
S'South Africa'
p367
sg192
F0
sg39
I323
sg321
S'caught'
p368
sg314
F0
sg200
I8
sg315
F0
sg40
S'Colombo (RPS)'
p369
sg42
g43
((I2013
I8
I2
I0
I0
I0
I4
I214
I-1
t(dtRp370
sS'r'
F0
sg325
F4
sa(dp371
g36
I1
sS'b'
F7
sg37
S'Bangladesh'
p372
sg312
I01
sg192
F314.28571428571428
sg39
I312
sg321
S'not out'
p373
sg314
F2
sg200
I7
sg315
F2
sg40
S'Pallekele'
p374
sg42
g43
((I2013
I3
I31
I0
I0
I0
I6
I90
I-1
t(dtRp375
sS'r'
F22
sg325
F10
sa(dp376
g36
I1
sS'b'
F15
sg37
S'Australia'
p377
sg312
I01
sg192
F233.33333333333334
sg39
I300
sg321
S'not out'
p378
sg314
F3
sg200
I6
sg315
F2
sg40
S'Melbourne'
p379
sg42
g43
((I2013
I1
I28
I0
I0
I0
I0
I28
I-1
t(dtRp380
sS'r'
F35
sg325
F22
sa(dp381
g36
I2
sS'b'
F12
sg37
S'Australia'
p382
sg312
I01
sg192
F158.33333333333334
sg39
I299
sg321
S'not out'
p383
sg314
F0
sg200
I7
sg315
F2
sg40
S'Sydney'
p384
sg42
g43
((I2013
I1
I26
I0
I0
I0
I5
I26
I-1
t(dtRp385
sS'r'
F19
sg325
F19
sa(dp386
g36
I2
sS'b'
F5
sg37
S'West Indies'
p387
sg192
F60
sg39
I289
sg321
S'run out'
p388
sg314
F0
sg200
I6
sg315
F0
sg40
S'Colombo (RPS)'
p389
sg42
g43
((I2012
I10
I7
I0
I0
I0
I6
I281
I-1
t(dtRp390
sS'r'
F3
sg325
F6
sa(dp391
g36
I1
sS'b'
F7
sg37
S'Pakistan'
p392
sg312
I01
sg192
F157.14285714285714
sg39
I287
sg321
S'not out'
p393
sg314
F2
sg200
I5
sg315
F0
sg40
S'Colombo (RPS)'
p394
sg42
g43
((I2012
I10
I4
I0
I0
I0
I3
I278
I-1
t(dtRp395
sS'r'
F11
sg325
F12
sa(dp396
g36
I1
sS'b'
F16
sg37
S'England'
p397
sg312
I01
sg192
F162.5
sg39
I284
sg321
S'not out'
p398
sg314
F0
sg200
I7
sg315
F2
sg40
S'Pallekele'
p399
sg42
g43
((I2012
I10
I1
I0
I0
I0
I0
I275
I-1
t(dtRp400
sS'r'
F26
sg325
F21
sa(dp401
g36
I2
sS'b'
F3
sg37
S'New Zealand'
p402
sg192
F166.66666666666666
sg39
I275
sg321
S'bowled'
p403
sg314
F1
sg200
I6
sg315
F0
sg40
S'Pallekele'
p404
sg42
g43
((I2012
I9
I27
I0
I0
I0
I3
I271
I-1
t(dtRp405
sS'r'
F5
sg325
F5
sa(dp406
g36
I2
sS'b'
F3
sg37
S'South Africa'
p407
sg192
F33.333333333333336
sg39
I269
sg321
S'caught'
p408
sg314
F0
sg200
I5
sg315
F0
sg40
S'Hambantota'
p409
sg42
g43
((I2012
I9
I22
I0
I0
I0
I5
I266
I-1
t(dtRp410
sS'r'
F1
sg325
F5
sa(dp411
g36
I1
sS'b'
F2
sg37
S'Zimbabwe'
p412
sg312
I01
sg192
F300
sg39
I263
sg321
S'not out'
p413
sg314
F0
sg200
I6
sg315
F1
sg40
S'Hambantota'
p414
sg42
g43
((I2012
I9
I18
I0
I0
I0
I1
I262
I-1
t(dtRp415
sS'r'
F6
sg325
F2
sa(dp416
g36
I2
sS'b'
F5
sg37
S'India'
p417
sg192
F20
sg39
I255
sg321
S'run out'
p418
sg314
F0
sg200
I8
sg315
F0
sg40
S'Pallekele'
p419
sg42
g43
((I2012
I8
I7
I0
I0
I0
I1
I220
I-1
t(dtRp420
sS'r'
F1
sg325
F4
sa(dp421
g36
I2
sS'b'
F2
sg37
S'Pakistan'
p422
sg192
F0
sg39
I245
sg321
S'bowled'
p423
sg314
F0
sg200
I8
sg315
F0
sg40
S'Hambantota'
p424
sg42
g43
((I2012
I6
I3
I0
I0
I0
I6
I155
I-1
t(dtRp425
sS'r'
F0
sg325
F2
sa(dp426
g36
I1
sS'b'
F16
sg37
S'Pakistan'
p427
sg312
I01
sg192
F200
sg39
I244
sg321
S'not out'
p428
sg314
F2
sg200
I8
sg315
F2
sg40
S'Hambantota'
p429
sg42
g43
((I2012
I6
I1
I0
I0
I0
I4
I153
I-1
t(dtRp430
sS'r'
F32
sg325
F17
sa(dp431
g36
I1
sS'b'
F2
sg37
S'Pakistan'
p432
sg192
F0
sg39
I215
sg321
S'caught'
p433
sg314
F0
sg200
I7
sg315
F0
sg40
S'Abu Dhabi'
p434
sg42
g43
((I2011
I11
I25
I0
I0
I0
I4
I329
I-1
t(dtRp435
sS'r'
F0
sg325
F-1
sa(dp436
g36
I1
sS'b'
F6
sg37
S'Australia'
p437
sg192
F150
sg39
I203
sg321
S'caught'
p438
sg314
F1
sg200
I4
sg315
F0
sg40
S'Pallekele'
p439
sg42
g43
((I2011
I8
I8
I0
I0
I0
I0
I220
I-1
t(dtRp440
sS'r'
F9
sg325
F4
sa(dp441
g36
I2
sS'b'
F4
sg37
S'Australia'
p442
sg312
I01
sg192
F425
sg39
I192
sg321
S'not out'
p443
sg314
F1
sg200
I5
sg315
F2
sg40
S'Perth'
p444
sg42
g43
((I2010
I10
I31
I0
I0
I0
I6
I304
I-1
t(dtRp445
sS'r'
F17
sg325
F-1
sa(dp446
g36
I2
sS'b'
F17
sg37
S'New Zealand'
p447
sg192
F141.1764705882353
sg39
I181
sg321
S'caught'
p448
sg314
F2
sg200
I3
sg315
F1
sg40
S'Lauderhill'
p449
sg42
g43
((I2010
I5
I23
I0
I0
I0
I6
I143
I-1
t(dtRp450
sS'r'
F24
sg325
F25
sa(dp451
g36
I2
sS'b'
F5
sg37
S'New Zealand'
p452
sg192
F60
sg39
I180
sg321
S'caught'
p453
sg314
F0
sg200
I7
sg315
F0
sg40
S'Lauderhill'
p454
sg42
g43
((I2010
I5
I22
I0
I0
I0
I5
I142
I-1
t(dtRp455
sS'r'
F3
sg325
F12
sa(dp456
g36
I1
sS'b'
F8
sg37
S'England'
p457
sg312
I01
sg192
F87.5
sg39
I175
sg321
S'not out'
p458
sg314
F0
sg200
I7
sg315
F0
sg40
S'Gros Islet'
p459
sg42
g43
((I2010
I5
I13
I0
I0
I0
I3
I133
I-1
t(dtRp460
sS'r'
F7
sg325
F19
sa(dp461
g36
I2
sS'b'
F0
sg37
S'India'
p462
sg312
I01
sg192
F0
sg39
I173
sg321
S'not out'
p463
sg314
F0
sg200
I7
sg315
F0
sg40
S'Gros Islet'
p464
sg42
g43
((I2010
I5
I11
I0
I0
I0
I1
I131
I-1
t(dtRp465
sS'r'
F0
sg325
F1
sa(dp466
g36
I1
sS'b'
F19
sg37
S'Zimbabwe'
p467
sg192
F121.05263157894737
sg39
I157
sg321
S'caught'
p468
sg314
F1
sg200
I3
sg315
F2
sg40
S'Providence'
p469
sg42
g43
((I2010
I5
I3
I0
I0
I0
I0
I123
I-1
t(dtRp470
sS'r'
F23
sg325
F24
satp471
ssS'all'
p472
(dp473
g27
(dp474
S'c'
F42
sg29
F0
sS'i'
F111
sS'm'
F111
sS's'
F0
sg31
F42
sg32
F42
ssg190
(dp475
S'a'
F26.010869565217391
sS'b'
F1755
sS'e'
F8.1811965811965806
sS'i'
F100
sg192
F19.076086956521738
sg193
F0
sS'm'
F111
sg194
F0
sS'r'
F2393
sS'w'
F92
sg195
F0
sg196
F17
sg197
F3
ssg309
(dp476
S'a'
F21.464285714285715
sg311
F-1
sS'b'
F833
sg312
F35
sS'i'
F91
sg313
F72
sS'm'
F111
sg314
F85
sg315
F63
sg192
F144.29771908763504
sS'r'
F1202
sg316
F0
sg317
F2
ssssb.