(iplayer
Player
p1
(dp2
S'is_batsman'
p3
I00
sS'name'
p4
S'Quinton de Kock'
p5
sS'dob'
p6
S'1992/12/17'
p7
sS'price'
p8
S'950000'
p9
sS'is_allrounder'
p10
I00
sS'espnid'
p11
S'379143'
p12
sS'is_overseas'
p13
I01
sS'team'
p14
S'DD'
p15
sS'nationality'
p16
S'South African'
p17
sS'is_bowler'
p18
I00
sS'is_keeper'
p19
I01
sS'id'
p20
S'834'
p21
sS'is_uncapped'
p22
I00
sS'tournamentStats'
p23
(dp24
S'international'
p25
(dp26
S'fieldingStats'
p27
((dp28
S'c'
F17
sS'ctw'
p29
F17
sS'i'
F17
sS'm'
F17
sS's'
F6
sS'dismissals'
p30
F23
sS'ctf'
p31
F0
s(lp32
(dp33
S'inning'
p34
I2
sS'c'
F0
sg29
F0
sS'opp'
p35
S'India'
p36
sS't20i_num'
p37
I399
sg31
F0
sg30
F0
sS's'
F0
sS'place'
p38
S'Dhaka'
p39
sS'date'
p40
ctime
struct_time
p41
((I2014
I4
I4
I0
I0
I0
I4
I94
I-1
t(dtRp42
sa(dp43
g34
I2
sS'c'
F2
sg29
F2
sg35
S'England'
p44
sg37
I391
sg31
F0
sg30
F2
sS's'
F0
sg38
S'Chittagong'
p45
sg40
g41
((I2014
I3
I29
I0
I0
I0
I5
I88
I-1
t(dtRp46
sa(dp47
g34
I2
sS'c'
F2
sg29
F2
sg35
S'Netherlands'
p48
sg37
I386
sg31
F0
sg30
F2
sS's'
F0
sg38
S'Chittagong'
p49
sg40
g41
((I2014
I3
I27
I0
I0
I0
I3
I86
I-1
t(dtRp50
sa(dp51
g34
I2
sS'c'
F2
sg29
F2
sg35
S'New Zealand'
p52
sg37
I383
sg31
F0
sg30
F3
sS's'
F1
sg38
S'Chittagong'
p53
sg40
g41
((I2014
I3
I24
I0
I0
I0
I0
I83
I-1
t(dtRp54
sa(dp55
g34
I1
sS'c'
F0
sg29
F0
sg35
S'Sri Lanka'
p56
sg37
I379
sg31
F0
sg30
F1
sS's'
F1
sg38
S'Chittagong'
p57
sg40
g41
((I2014
I3
I22
I0
I0
I0
I5
I81
I-1
t(dtRp58
sa(dp59
g34
I2
sS'c'
F0
sg29
F0
sg35
S'Australia'
p60
sg37
I365
sg31
F0
sg30
F0
sS's'
F0
sg38
S'Centurion'
p61
sg40
g41
((I2014
I3
I14
I0
I0
I0
I4
I73
I-1
t(dtRp62
sa(dp63
g34
I2
sS'c'
F0
sg29
F0
sg35
S'Australia'
p64
sg37
I363
sg31
F0
sg30
F0
sS's'
F0
sg38
S'Durban'
p65
sg40
g41
((I2014
I3
I12
I0
I0
I0
I2
I71
I-1
t(dtRp66
sa(dp67
g34
I1
sS'c'
F0
sg29
F0
sg35
S'Pakistan'
p68
sg37
I343
sg31
F0
sg30
F1
sS's'
F1
sg38
S'Cape Town'
p69
sg40
g41
((I2013
I11
I22
I0
I0
I0
I4
I326
I-1
t(dtRp70
sa(dp71
g34
I2
sS'c'
F0
sg29
F0
sg35
S'Pakistan'
p72
sg37
I340
sg31
F0
sg30
F0
sS's'
F0
sg38
S'Johannesburg'
p73
sg40
g41
((I2013
I11
I20
I0
I0
I0
I2
I324
I-1
t(dtRp74
sa(dp75
g34
I2
sS'c'
F1
sg29
F1
sg35
S'Pakistan'
p76
sg37
I336
sg31
F0
sg30
F1
sS's'
F0
sg38
S'Dubai (DSC)'
p77
sg40
g41
((I2013
I11
I15
I0
I0
I0
I4
I319
I-1
t(dtRp78
sa(dp79
g34
I1
sS'c'
F2
sg29
F2
sg35
S'Pakistan'
p80
sg37
I334
sg31
F0
sg30
F4
sS's'
F2
sg38
S'Dubai (DSC)'
p81
sg40
g41
((I2013
I11
I13
I0
I0
I0
I2
I317
I-1
t(dtRp82
sa(dp83
g34
I2
sS'c'
F0
sg29
F0
sg35
S'Sri Lanka'
p84
sg37
I325
sg31
F0
sg30
F1
sS's'
F1
sg38
S'Hambantota'
p85
sg40
g41
((I2013
I8
I6
I0
I0
I0
I1
I218
I-1
t(dtRp86
sa(dp87
g34
I2
sS'c'
F3
sg29
F3
sg35
S'Sri Lanka'
p88
sg37
I324
sg31
F0
sg30
F3
sS's'
F0
sg38
S'Hambantota'
p89
sg40
g41
((I2013
I8
I4
I0
I0
I0
I6
I216
I-1
t(dtRp90
sa(dp91
g34
I2
sS'c'
F2
sg29
F2
sg35
S'Sri Lanka'
p92
sg37
I323
sg31
F0
sg30
F2
sS's'
F0
sg38
S'Colombo (RPS)'
p93
sg40
g41
((I2013
I8
I2
I0
I0
I0
I4
I214
I-1
t(dtRp94
sa(dp95
g34
I2
sS'c'
F1
sg29
F1
sg35
S'New Zealand'
p96
sg37
I297
sg31
F0
sg30
F1
sS's'
F0
sg38
S'Port Elizabeth'
p97
sg40
g41
((I2012
I12
I26
I0
I0
I0
I2
I361
I-1
t(dtRp98
sa(dp99
g34
I2
sS'c'
F0
sg29
F0
sg35
S'New Zealand'
p100
sg37
I295
sg31
F0
sg30
F0
sS's'
F0
sg38
S'East London'
p101
sg40
g41
((I2012
I12
I23
I0
I0
I0
I6
I358
I-1
t(dtRp102
sa(dp103
g34
I1
sS'c'
F2
sg29
F2
sg35
S'New Zealand'
p104
sg37
I293
sg31
F0
sg30
F2
sS's'
F0
sg38
S'Durban'
p105
sg40
g41
((I2012
I12
I21
I0
I0
I0
I4
I356
I-1
t(dtRp106
satp107
sS'bowlingStats'
p108
((dp109
S'a'
F-1
sS'b'
F0
sS'e'
F-1
sS'i'
F0
sS'sr'
p110
F-1
sS'5w'
p111
F0
sS'm'
F17
sS'maid'
p112
F0
sS'r'
F0
sS'w'
F0
sS'4w'
p113
F0
sS'bbir'
p114
F-1
sS'bbiw'
p115
F-1
s(ltp116
sS'battingStats'
p117
((dp118
S'a'
F27.923076923076923
sS'0s'
p119
F1
sS'b'
F315
sS'no'
p120
F4
sS'i'
F17
sS'hs'
p121
F48
sS'm'
F17
sS'4s'
p122
F44
sS'6s'
p123
F9
sg110
F115.23809523809524
sS'r'
F363
sS'100s'
p124
F0
sS'50s'
p125
F0
s(lp126
(dp127
g34
I1
sS'b'
F4
sg35
S'India'
p128
sg110
F150
sg37
I399
sS'dismiss'
p129
S'caught'
p130
sg122
F1
sS'pos'
p131
I1
sg123
F0
sg38
S'Dhaka'
p132
sg40
g41
((I2014
I4
I4
I0
I0
I0
I4
I94
I-1
t(dtRp133
sS'r'
F6
sS'minutes'
p134
F3
sa(dp135
g34
I1
sS'b'
F33
sg35
S'England'
p136
sg110
F87.878787878787875
sg37
I391
sg129
S'stumped'
p137
sg122
F2
sg131
I2
sg123
F0
sg38
S'Chittagong'
p138
sg40
g41
((I2014
I3
I29
I0
I0
I0
I5
I88
I-1
t(dtRp139
sS'r'
F29
sg134
F53
sa(dp140
g34
I1
sS'b'
F2
sg35
S'Netherlands'
p141
sg110
F0
sg37
I386
sg129
S'caught'
p142
sg122
F0
sg131
I2
sg123
F0
sg38
S'Chittagong'
p143
sg40
g41
((I2014
I3
I27
I0
I0
I0
I3
I86
I-1
t(dtRp144
sS'r'
F0
sg134
F4
sa(dp145
g34
I1
sS'b'
F8
sg35
S'New Zealand'
p146
sg110
F50
sg37
I383
sg129
S'caught'
p147
sg122
F0
sg131
I1
sg123
F0
sg38
S'Chittagong'
p148
sg40
g41
((I2014
I3
I24
I0
I0
I0
I0
I83
I-1
t(dtRp149
sS'r'
F4
sg134
F12
sa(dp150
g34
I2
sS'b'
F18
sg35
S'Sri Lanka'
p151
sg110
F138.88888888888889
sg37
I379
sg129
S'bowled'
p152
sg122
F4
sg131
I1
sg123
F1
sg38
S'Chittagong'
p153
sg40
g41
((I2014
I3
I22
I0
I0
I0
I5
I81
I-1
t(dtRp154
sS'r'
F25
sg134
F18
sa(dp155
g34
I1
sS'b'
F40
sg35
S'Australia'
p156
sg110
F102.5
sg37
I365
sg129
S'caught'
p157
sg122
F2
sg131
I1
sg123
F2
sg38
S'Centurion'
p158
sg40
g41
((I2014
I3
I14
I0
I0
I0
I4
I73
I-1
t(dtRp159
sS'r'
F41
sg134
F62
sa(dp160
g34
I1
sS'b'
F20
sg35
S'Australia'
p161
sg120
I01
sg110
F205
sg37
I363
sg129
S'not out'
p162
sg122
F2
sg131
I2
sg123
F4
sg38
S'Durban'
p163
sg40
g41
((I2014
I3
I12
I0
I0
I0
I2
I71
I-1
t(dtRp164
sS'r'
F41
sg134
F37
sa(dp165
g34
I2
sS'b'
F24
sg35
S'Pakistan'
p166
sg110
F108.33333333333333
sg37
I343
sg129
S'caught'
p167
sg122
F4
sg131
I2
sg123
F0
sg38
S'Cape Town'
p168
sg40
g41
((I2013
I11
I22
I0
I0
I0
I4
I326
I-1
t(dtRp169
sS'r'
F26
sg134
F30
sa(dp170
g34
I1
sS'b'
F33
sg35
S'Pakistan'
p171
sg110
F130.30303030303031
sg37
I340
sg129
S'caught'
p172
sg122
F8
sg131
I1
sg123
F0
sg38
S'Johannesburg'
p173
sg40
g41
((I2013
I11
I20
I0
I0
I0
I2
I324
I-1
t(dtRp174
sS'r'
F43
sg134
F45
sa(dp175
g34
I1
sS'b'
F19
sg35
S'Pakistan'
p176
sg110
F157.89473684210526
sg37
I336
sg129
S'caught'
p177
sg122
F6
sg131
I1
sg123
F0
sg38
S'Dubai (DSC)'
p178
sg40
g41
((I2013
I11
I15
I0
I0
I0
I4
I319
I-1
t(dtRp179
sS'r'
F30
sg134
F26
sa(dp180
g34
I2
sS'b'
F38
sg35
S'Pakistan'
p181
sg120
I01
sg110
F126.31578947368421
sg37
I334
sg129
S'not out'
p182
sg122
F3
sg131
I2
sg123
F2
sg38
S'Dubai (DSC)'
p183
sg40
g41
((I2013
I11
I13
I0
I0
I0
I2
I317
I-1
t(dtRp184
sS'r'
F48
sg134
F52
sa(dp185
g34
I1
sS'b'
F19
sg35
S'Sri Lanka'
p186
sg110
F84.21052631578948
sg37
I325
sg129
S'lbw'
p187
sg122
F3
sg131
I2
sg123
F0
sg38
S'Hambantota'
p188
sg40
g41
((I2013
I8
I6
I0
I0
I0
I1
I218
I-1
t(dtRp189
sS'r'
F16
sg134
F36
sa(dp190
g34
I1
sS'b'
F23
sg35
S'Sri Lanka'
p191
sg110
F82.608695652173907
sg37
I324
sg129
S'stumped'
p192
sg122
F3
sg131
I2
sg123
F0
sg38
S'Hambantota'
p193
sg40
g41
((I2013
I8
I4
I0
I0
I0
I6
I216
I-1
t(dtRp194
sS'r'
F19
sg134
F30
sa(dp195
g34
I1
sS'b'
F7
sg35
S'Sri Lanka'
p196
sg110
F71.428571428571431
sg37
I323
sg129
S'lbw'
p197
sg122
F1
sg131
I2
sg123
F0
sg38
S'Colombo (RPS)'
p198
sg40
g41
((I2013
I8
I2
I0
I0
I0
I4
I214
I-1
t(dtRp199
sS'r'
F5
sg134
F9
sa(dp200
g34
I1
sS'b'
F4
sg35
S'New Zealand'
p201
sg110
F50
sg37
I297
sg129
S'caught'
p202
sg122
F0
sg131
I3
sg123
F0
sg38
S'Port Elizabeth'
p203
sg40
g41
((I2012
I12
I26
I0
I0
I0
I2
I361
I-1
t(dtRp204
sS'r'
F2
sg134
F12
sa(dp205
g34
I1
sS'b'
F0
sg35
S'New Zealand'
p206
sg120
I01
sg110
F0
sg37
I295
sg129
S'not out'
p207
sg122
F0
sg131
I7
sg123
F0
sg38
S'East London'
p208
sg40
g41
((I2012
I12
I23
I0
I0
I0
I6
I358
I-1
t(dtRp209
sS'r'
F0
sg134
F1
sa(dp210
g34
I2
sS'b'
F23
sg35
S'New Zealand'
p211
sg120
I01
sg110
F121.73913043478261
sg37
I293
sg129
S'not out'
p212
sg122
F5
sg131
I4
sg123
F0
sg38
S'Durban'
p213
sg40
g41
((I2012
I12
I21
I0
I0
I0
I4
I356
I-1
t(dtRp214
sS'r'
F28
sg134
F23
satp215
ssS'all'
p216
(dp217
g27
(dp218
S'c'
F41
sg29
F0
sS'i'
F68
sS'm'
F68
sS's'
F12
sg30
F53
sg31
F41
ssg108
(dp219
S'a'
F-1
sS'b'
F0
sS'e'
F-1
sS'i'
F0
sg110
F-1
sg111
F0
sS'm'
F68
sg112
F0
sS'r'
F0
sS'w'
F0
sg113
F0
sg114
F-1
sg115
F-1
ssg117
(dp220
S'a'
F35.666666666666664
sg119
F-1
sS'b'
F1434
sg120
F8
sS'i'
F62
sg121
F126
sS'm'
F68
sg122
F194
sg123
F74
sg110
F134.30962343096235
sS'r'
F1926
sg124
F2
sg125
F9
ssssb.