(iplayer
Player
p1
(dp2
S'is_batsman'
p3
I00
sS'name'
p4
S'Ryan ten Doeschate'
p5
sS'dob'
p6
S'1980/06/30'
p7
sS'price'
p8
S'950000'
p9
sS'is_allrounder'
p10
I01
sS'espnid'
p11
S'47660'
p12
sS'is_overseas'
p13
I01
sS'team'
p14
S'KKR'
p15
sS'nationality'
p16
S'Dutch'
p17
sS'is_bowler'
p18
I00
sS'is_keeper'
p19
I00
sS'id'
p20
S'200'
p21
sS'is_uncapped'
p22
I00
sS'tournamentStats'
p23
(dp24
S'international'
p25
(dp26
S'fieldingStats'
p27
((dp28
S'c'
F3
sS'ctw'
p29
F0
sS'i'
F9
sS'm'
F9
sS's'
F0
sS'dismissals'
p30
F3
sS'ctf'
p31
F3
s(lp32
(dp33
S'inning'
p34
I1
sS'c'
F0
sg29
F0
sS'opp'
p35
S'Ireland'
p36
sS't20i_num'
p37
I142
sg31
F0
sg30
F0
sS's'
F0
sS'place'
p38
S'Dubai (DSC)'
p39
sS'date'
p40
ctime
struct_time
p41
((I2010
I2
I13
I0
I0
I0
I5
I44
I-1
t(dtRp42
sa(dp43
g34
I1
sS'c'
F1
sg29
F0
sg35
S'Afghanistan'
p44
sg37
I141
sg31
F1
sg30
F1
sS's'
F0
sg38
S'Dubai (DSC)'
p45
sg40
g41
((I2010
I2
I12
I0
I0
I0
I4
I43
I-1
t(dtRp46
sa(dp47
g34
I1
sS'c'
F1
sg29
F0
sg35
S'Kenya'
p48
sg37
I139
sg31
F1
sg30
F1
sS's'
F0
sg38
S'Abu Dhabi'
p49
sg40
g41
((I2010
I2
I11
I0
I0
I0
I3
I42
I-1
t(dtRp50
sa(dp51
g34
I1
sS'c'
F0
sg29
F0
sg35
S'Canada'
p52
sg37
I136
sg31
F0
sg30
F0
sS's'
F0
sg38
S'Dubai (DSC)'
p53
sg40
g41
((I2010
I2
I9
I0
I0
I0
I1
I40
I-1
t(dtRp54
sa(dp55
g34
I1
sS'c'
F0
sg29
F0
sg35
S'Pakistan'
p56
sg37
I98
sg31
F0
sg30
F0
sS's'
F0
sg38
S"Lord's"
p57
sg40
g41
((I2009
I6
I9
I0
I0
I0
I1
I160
I-1
t(dtRp58
sa(dp59
g34
I1
sS'c'
F0
sg29
F0
sg35
S'England'
p60
sg37
I90
sg31
F0
sg30
F0
sS's'
F0
sg38
S"Lord's"
p61
sg40
g41
((I2009
I6
I5
I0
I0
I0
I4
I156
I-1
t(dtRp62
sa(dp63
g34
I1
sS'c'
F0
sg29
F0
sg35
S'Scotland'
p64
sg37
I65
sg31
F0
sg30
F0
sS's'
F0
sg38
S'Belfast'
p65
sg40
g41
((I2008
I8
I4
I0
I0
I0
I0
I217
I-1
t(dtRp66
sa(dp67
g34
I2
sS'c'
F0
sg29
F0
sg35
S'Canada'
p68
sg37
I60
sg31
F0
sg30
F0
sS's'
F0
sg38
S'Belfast'
p69
sg40
g41
((I2008
I8
I2
I0
I0
I0
I5
I215
I-1
t(dtRp70
sa(dp71
g34
I2
sS'c'
F1
sg29
F0
sg35
S'Kenya'
p72
sg37
I58
sg31
F1
sg30
F1
sS's'
F0
sg38
S'Belfast'
p73
sg40
g41
((I2008
I8
I2
I0
I0
I0
I5
I215
I-1
t(dtRp74
satp75
sS'bowlingStats'
p76
((dp77
S'a'
F20.083333333333332
sS'b'
F204
sS'e'
F7.0882352941176467
sS'i'
F9
sS'sr'
p78
F17
sS'5w'
p79
F0
sS'm'
F9
sS'maid'
p80
F0
sS'r'
F241
sS'w'
F12
sS'4w'
p81
F0
sS'bbir'
p82
F23
sS'bbiw'
p83
F3
s(lp84
(dp85
g34
I1
sS'b'
F24
sS'e'
F6.25
sg37
I142
sS'pos'
p86
I2
sg80
F0
sS'r'
F25
sg38
S'Dubai (DSC)'
p87
sS'w'
F1
sg40
g41
((I2010
I2
I13
I0
I0
I0
I5
I44
I-1
t(dtRp88
sg35
S'Ireland'
p89
sa(dp90
g34
I1
sS'b'
F12
sS'e'
F7.5
sg37
I141
sg86
I2
sg80
F0
sS'r'
F15
sg38
S'Dubai (DSC)'
p91
sS'w'
F1
sg40
g41
((I2010
I2
I12
I0
I0
I0
I4
I43
I-1
t(dtRp92
sg35
S'Afghanistan'
p93
sa(dp94
g34
I1
sS'b'
F24
sS'e'
F6.75
sg37
I139
sg86
I2
sg80
F0
sS'r'
F27
sg38
S'Abu Dhabi'
p95
sS'w'
F0
sg40
g41
((I2010
I2
I11
I0
I0
I0
I3
I42
I-1
t(dtRp96
sg35
S'Kenya'
p97
sa(dp98
g34
I1
sS'b'
F24
sS'e'
F7.5
sg37
I136
sg86
I3
sg80
F0
sS'r'
F30
sg38
S'Dubai (DSC)'
p99
sS'w'
F1
sg40
g41
((I2010
I2
I9
I0
I0
I0
I1
I40
I-1
t(dtRp100
sg35
S'Canada'
p101
sa(dp102
g34
I1
sS'b'
F24
sS'e'
F10.5
sg37
I98
sg86
I3
sg80
F0
sS'r'
F42
sg38
S"Lord's"
p103
sS'w'
F1
sg40
g41
((I2009
I6
I9
I0
I0
I0
I1
I160
I-1
t(dtRp104
sg35
S'Pakistan'
p105
sa(dp106
g34
I1
sS'b'
F24
sS'e'
F8.75
sg37
I90
sg86
I3
sg80
F0
sS'r'
F35
sg38
S"Lord's"
p107
sS'w'
F2
sg40
g41
((I2009
I6
I5
I0
I0
I0
I4
I156
I-1
t(dtRp108
sg35
S'England'
p109
sa(dp110
g34
I1
sS'b'
F24
sS'e'
F5.75
sg37
I65
sg86
I3
sg80
F0
sS'r'
F23
sg38
S'Belfast'
p111
sS'w'
F3
sg40
g41
((I2008
I8
I4
I0
I0
I0
I0
I217
I-1
t(dtRp112
sg35
S'Scotland'
p113
sa(dp114
g34
I2
sS'b'
F24
sS'e'
F4.25
sg37
I60
sg86
I3
sg80
F0
sS'r'
F17
sg38
S'Belfast'
p115
sS'w'
F0
sg40
g41
((I2008
I8
I2
I0
I0
I0
I5
I215
I-1
t(dtRp116
sg35
S'Canada'
p117
sa(dp118
g34
I2
sS'b'
F24
sS'e'
F6.75
sg37
I58
sg86
I3
sg80
F0
sS'r'
F27
sg38
S'Belfast'
p119
sS'w'
F3
sg40
g41
((I2008
I8
I2
I0
I0
I0
I5
I215
I-1
t(dtRp120
sg35
S'Kenya'
p121
satp122
sS'battingStats'
p123
((dp124
S'a'
F42.799999999999997
sS'0s'
p125
F0
sS'b'
F166
sS'no'
p126
F4
sS'i'
F9
sS'hs'
p127
F56
sS'm'
F9
sS'4s'
p128
F11
sS'6s'
p129
F7
sg78
F128.9156626506024
sS'r'
F214
sS'100s'
p130
F0
sS'50s'
p131
F1
s(lp132
(dp133
g34
I2
sS'b'
F20
sg35
S'Ireland'
p134
sg78
F160
sg37
I142
sS'dismiss'
p135
S'caught'
p136
sg128
F1
sg86
I5
sg129
F2
sg38
S'Dubai (DSC)'
p137
sg40
g41
((I2010
I2
I13
I0
I0
I0
I5
I44
I-1
t(dtRp138
sS'r'
F32
sS'minutes'
p139
F27
sa(dp140
g34
I2
sS'b'
F20
sg35
S'Afghanistan'
p141
sg126
I01
sg78
F120
sg37
I141
sg135
S'not out'
p142
sg128
F2
sg86
I5
sg129
F0
sg38
S'Dubai (DSC)'
p143
sg40
g41
((I2010
I2
I12
I0
I0
I0
I4
I43
I-1
t(dtRp144
sS'r'
F24
sg139
F35
sa(dp145
g34
I2
sS'b'
F15
sg35
S'Kenya'
p146
sg126
I01
sg78
F140
sg37
I139
sg135
S'not out'
p147
sg128
F3
sg86
I4
sg129
F0
sg38
S'Abu Dhabi'
p148
sg40
g41
((I2010
I2
I11
I0
I0
I0
I3
I42
I-1
t(dtRp149
sS'r'
F21
sg139
F28
sa(dp150
g34
I2
sS'b'
F14
sg35
S'Canada'
p151
sg78
F121.42857142857143
sg37
I136
sg135
S'caught'
p152
sg128
F1
sg86
I5
sg129
F0
sg38
S'Dubai (DSC)'
p153
sg40
g41
((I2010
I2
I9
I0
I0
I0
I1
I40
I-1
t(dtRp154
sS'r'
F17
sg139
F23
sa(dp155
g34
I2
sS'b'
F10
sg35
S'Pakistan'
p156
sg78
F140
sg37
I98
sg135
S'stumped'
p157
sg128
F0
sg86
I5
sg129
F1
sg38
S"Lord's"
p158
sg40
g41
((I2009
I6
I9
I0
I0
I0
I1
I160
I-1
t(dtRp159
sS'r'
F14
sg139
F14
sa(dp160
g34
I2
sS'b'
F17
sg35
S'England'
p161
sg126
I01
sg78
F129.41176470588235
sg37
I90
sg135
S'not out'
p162
sg128
F2
sg86
I6
sg129
F0
sg38
S"Lord's"
p163
sg40
g41
((I2009
I6
I5
I0
I0
I0
I4
I156
I-1
t(dtRp164
sS'r'
F22
sg139
F35
sa(dp165
g34
I2
sS'b'
F18
sg35
S'Scotland'
p166
sg126
I01
sg78
F133.33333333333334
sg37
I65
sg135
S'not out'
p167
sg128
F1
sg86
I5
sg129
F1
sg38
S'Belfast'
p168
sg40
g41
((I2008
I8
I4
I0
I0
I0
I0
I217
I-1
t(dtRp169
sS'r'
F24
sg139
F28
sa(dp170
g34
I1
sS'b'
F7
sg35
S'Canada'
p171
sg78
F57.142857142857146
sg37
I60
sg135
S'caught'
p172
sg128
F0
sg86
I5
sg129
F0
sg38
S'Belfast'
p173
sg40
g41
((I2008
I8
I2
I0
I0
I0
I5
I215
I-1
t(dtRp174
sS'r'
F4
sg139
F11
sa(dp175
g34
I1
sS'b'
F45
sg35
S'Kenya'
p176
sg78
F124.44444444444444
sg37
I58
sg135
S'caught'
p177
sg128
F1
sg86
I3
sg129
F3
sg38
S'Belfast'
p178
sg40
g41
((I2008
I8
I2
I0
I0
I0
I5
I215
I-1
t(dtRp179
sS'r'
F56
sg139
F48
satp180
ssS'all'
p181
(dp182
g27
(dp183
S'c'
F71
sg29
F0
sS'i'
F197
sS'm'
F197
sS's'
F0
sg30
F71
sg31
F71
ssg76
(dp184
S'a'
F25.433333333333334
sS'b'
F1706
sS'e'
F8.050410316529895
sS'i'
F104
sg78
F18.955555555555556
sg79
F0
sS'm'
F197
sg80
F0
sS'r'
F2289
sS'w'
F90
sg81
F1
sg82
F24
sg83
F4
ssg123
(dp185
S'a'
F29.421428571428571
sg125
F-1
sS'b'
F3000
sg126
F37
sS'i'
F177
sg127
F121
sS'm'
F197
sg128
F246
sg129
F183
sg78
F137.30000000000001
sS'r'
F4119
sg130
F2
sg131
F18
ssssb.