(iplayer
Player
p1
(dp2
S'is_batsman'
p3
I00
sS'name'
p4
S'Brendan Taylor'
p5
sS'dob'
p6
S'1986/02/06'
p7
sS'price'
p8
S'850000'
p9
sS'is_allrounder'
p10
I00
sS'espnid'
p11
S'55814'
p12
sS'is_overseas'
p13
I01
sS'team'
p14
S'SRH'
p15
sS'nationality'
p16
S'Zimbabwean'
p17
sS'is_bowler'
p18
I00
sS'is_keeper'
p19
I01
sS'id'
p20
S'530'
p21
sS'is_uncapped'
p22
I00
sS'tournamentStats'
p23
(dp24
S'international'
p25
(dp26
S'fieldingStats'
p27
((dp28
S'c'
F10
sS'ctw'
p29
F8
sS'span_s'
p30
F2006
sS'm'
F26
sS's'
F1
sS'dismissals'
p31
F11
sS'i'
F26
sS'ctf'
p32
F2
sS'span_f'
p33
F2014
s(lp34
(dp35
S'inning'
p36
I1
sS'c'
F1
sg29
F1
sS'opp'
p37
S'U.A.E.'
p38
sS't20i_num'
p39
I376
sg32
F0
sg31
F1
sS's'
F0
sS'place'
p40
S'Sylhet'
p41
sS'date'
p42
ctime
struct_time
p43
((I2014
I3
I21
I0
I0
I0
I4
I80
I-1
t(dtRp44
sa(dp45
g36
I1
sS'c'
F0
sg29
F0
sg37
S'Netherlands'
p46
sg39
I372
sg32
F0
sg31
F0
sS's'
F0
sg40
S'Sylhet'
p47
sg42
g43
((I2014
I3
I19
I0
I0
I0
I2
I78
I-1
t(dtRp48
sa(dp49
g36
I2
sS'c'
F0
sg29
F0
sg37
S'Ireland'
p50
sg39
I368
sg32
F0
sg31
F0
sS's'
F0
sg40
S'Sylhet'
p51
sg42
g43
((I2014
I3
I17
I0
I0
I0
I0
I76
I-1
t(dtRp52
sa(dp53
g36
I1
sS'c'
F0
sg29
F0
sg37
S'Pakistan'
p54
sg39
I327
sg32
F0
sg31
F0
sS's'
F0
sg40
S'Harare'
p55
sg42
g43
((I2013
I8
I24
I0
I0
I0
I5
I236
I-1
t(dtRp56
sa(dp57
g36
I1
sS'c'
F2
sg29
F2
sg37
S'Pakistan'
p58
sg39
I326
sg32
F0
sg31
F2
sS's'
F0
sg40
S'Harare'
p59
sg42
g43
((I2013
I8
I23
I0
I0
I0
I4
I235
I-1
t(dtRp60
sa(dp61
g36
I1
sS'c'
F0
sg29
F0
sg37
S'Bangladesh'
p62
sg39
I316
sg32
F0
sg31
F0
sS's'
F0
sg40
S'Bulawayo'
p63
sg42
g43
((I2013
I5
I12
I0
I0
I0
I6
I132
I-1
t(dtRp64
sa(dp65
g36
I2
sS'c'
F1
sg29
F1
sg37
S'Bangladesh'
p66
sg39
I315
sg32
F0
sg31
F1
sS's'
F0
sg40
S'Bulawayo'
p67
sg42
g43
((I2013
I5
I11
I0
I0
I0
I5
I131
I-1
t(dtRp68
sa(dp69
g36
I1
sS'c'
F1
sg29
F1
sg37
S'West Indies'
p70
sg39
I308
sg32
F0
sg31
F1
sS's'
F0
sg40
S'North Sound'
p71
sg42
g43
((I2013
I3
I3
I0
I0
I0
I6
I62
I-1
t(dtRp72
sa(dp73
g36
I2
sS'c'
F0
sg29
F0
sg37
S'West Indies'
p74
sg39
I305
sg32
F0
sg31
F0
sS's'
F0
sg40
S'North Sound'
p75
sg42
g43
((I2013
I3
I2
I0
I0
I0
I5
I61
I-1
t(dtRp76
sa(dp77
g36
I2
sS'c'
F0
sg29
F0
sg37
S'South Africa'
p78
sg39
I266
sg32
F0
sg31
F0
sS's'
F0
sg40
S'Hambantota'
p79
sg42
g43
((I2012
I9
I20
I0
I0
I0
I3
I264
I-1
t(dtRp80
sa(dp81
g36
I1
sS'c'
F1
sg29
F1
sg37
S'Sri Lanka'
p82
sg39
I263
sg32
F0
sg31
F1
sS's'
F0
sg40
S'Hambantota'
p83
sg42
g43
((I2012
I9
I18
I0
I0
I0
I1
I262
I-1
t(dtRp84
sa(dp85
g36
I2
sS'c'
F0
sg29
F0
sg37
S'New Zealand'
p86
sg39
I220
sg32
F0
sg31
F0
sS's'
F0
sg40
S'Hamilton'
p87
sg42
g43
((I2012
I2
I14
I0
I0
I0
I1
I45
I-1
t(dtRp88
sa(dp89
g36
I2
sS'c'
F0
sg29
F0
sg37
S'New Zealand'
p90
sg39
I219
sg32
F0
sg31
F0
sS's'
F0
sg40
S'Auckland'
p91
sg42
g43
((I2012
I2
I11
I0
I0
I0
I5
I42
I-1
t(dtRp92
sa(dp93
g36
I1
sS'c'
F0
sg29
F0
sg37
S'New Zealand'
p94
sg39
I213
sg32
F0
sg31
F0
sS's'
F0
sg40
S'Harare'
p95
sg42
g43
((I2011
I10
I17
I0
I0
I0
I0
I290
I-1
t(dtRp96
sa(dp97
g36
I2
sS'c'
F0
sg29
F0
sg37
S'New Zealand'
p98
sg39
I211
sg32
F0
sg31
F0
sS's'
F0
sg40
S'Harare'
p99
sg42
g43
((I2011
I10
I15
I0
I0
I0
I5
I288
I-1
t(dtRp100
sa(dp101
g36
I1
sS'c'
F0
sg29
F0
sg37
S'Pakistan'
p102
sg39
I206
sg32
F0
sg31
F0
sS's'
F0
sg40
S'Harare'
p103
sg42
g43
((I2011
I9
I18
I0
I0
I0
I6
I261
I-1
t(dtRp104
sa(dp105
g36
I1
sS'c'
F0
sg29
F0
sg37
S'Pakistan'
p106
sg39
I205
sg32
F0
sg31
F0
sS's'
F0
sg40
S'Harare'
p107
sg42
g43
((I2011
I9
I16
I0
I0
I0
I4
I259
I-1
t(dtRp108
sa(dp109
g36
I1
sS'c'
F1
sg29
F0
sg37
S'South Africa'
p110
sg39
I189
sg32
F1
sg31
F1
sS's'
F0
sg40
S'Kimberley'
p111
sg42
g43
((I2010
I10
I10
I0
I0
I0
I6
I283
I-1
t(dtRp112
sa(dp113
g36
I2
sS'c'
F1
sg29
F0
sg37
S'South Africa'
p114
sg39
I188
sg32
F1
sg31
F1
sS's'
F0
sg40
S'Bloemfontein'
p115
sg42
g43
((I2010
I10
I8
I0
I0
I0
I4
I281
I-1
t(dtRp116
sa(dp117
g36
I2
sS'c'
F0
sg29
F0
sg37
S'India'
p118
sg39
I183
sg32
F0
sg31
F0
sS's'
F0
sg40
S'Harare'
p119
sg42
g43
((I2010
I6
I13
I0
I0
I0
I6
I164
I-1
t(dtRp120
sa(dp121
g36
I2
sS'c'
F0
sg29
F0
sg37
S'India'
p122
sg39
I182
sg32
F0
sg31
F0
sS's'
F0
sg40
S'Harare'
p123
sg42
g43
((I2010
I6
I12
I0
I0
I0
I5
I163
I-1
t(dtRp124
sa(dp125
g36
I1
sS'c'
F0
sg29
F0
sg37
S'Sri Lanka'
p126
sg39
I157
sg32
F0
sg31
F0
sS's'
F0
sg40
S'Providence'
p127
sg42
g43
((I2010
I5
I3
I0
I0
I0
I0
I123
I-1
t(dtRp128
sa(dp129
g36
I2
sS'c'
F0
sg29
F0
sg37
S'West Indies'
p130
sg39
I150
sg32
F0
sg31
F0
sS's'
F0
sg40
S'Port of Spain'
p131
sg42
g43
((I2010
I2
I28
I0
I0
I0
I6
I59
I-1
t(dtRp132
sa(dp133
g36
I1
sS'c'
F1
sg29
F1
sg37
S'England'
p134
sg39
I25
sg32
F0
sg31
F1
sS's'
F0
sg40
S'Cape Town'
p135
sg42
g43
((I2007
I9
I13
I0
I0
I0
I3
I256
I-1
t(dtRp136
sa(dp137
g36
I1
sS'c'
F1
sg29
F1
sg37
S'Australia'
p138
sg39
I23
sg32
F0
sg31
F2
sS's'
F1
sg40
S'Cape Town'
p139
sg42
g43
((I2007
I9
I12
I0
I0
I0
I2
I255
I-1
t(dtRp140
sa(dp141
g36
I1
sS'c'
F0
sg29
F0
sg37
S'Bangladesh'
p142
sg39
I9
sg32
F0
sg31
F0
sS's'
F0
sg40
S'Khulna'
p143
sg42
g43
((I2006
I11
I28
I0
I0
I0
I1
I332
I-1
t(dtRp144
satp145
sS'bowlingStats'
p146
((dp147
S'a'
F17
sS'b'
F30
sS'e'
F3.3999999999999999
sS'i'
F2
sS'sr'
p148
F30
sS'5w'
p149
F0
sS'm'
F26
sS'maid'
p150
F0
sS'r'
F17
sS'w'
F1
sS'4w'
p151
F0
sS'bbir'
p152
F16
sS'bbiw'
p153
F1
sg33
F2014
sg30
F2006
s(lp154
(dp155
g36
I1
sS'b'
F24
sS'e'
F4
sg39
I189
sS'pos'
p156
I4
sg150
F0
sS'r'
F16
sg40
S'Kimberley'
p157
sS'w'
F1
sg42
g43
((I2010
I10
I10
I0
I0
I0
I6
I283
I-1
t(dtRp158
sg37
S'South Africa'
p159
sa(dp160
g36
I2
sS'b'
F6
sS'e'
F1
sg39
I150
sg156
I6
sg150
F0
sS'r'
F1
sg40
S'Port of Spain'
p161
sS'w'
F0
sg42
g43
((I2010
I2
I28
I0
I0
I0
I6
I59
I-1
t(dtRp162
sg37
S'West Indies'
p163
satp164
sS'battingStats'
p165
((dp166
S'a'
F28.285714285714285
sS'0s'
p167
F4
sS'b'
F480
sS'no'
p168
F5
sg30
F2006
sS'hs'
p169
F75
sS'm'
F26
sS'4s'
p170
F52
sg33
F2014
sS'i'
F26
sS'6s'
p171
F17
sg148
F123.75
sS'r'
F594
sS'100s'
p172
F0
sS'50s'
p173
F5
s(lp174
(dp175
g36
I2
sS'b'
F7
sg37
S'U.A.E.'
p176
sg148
F214.28571428571428
sg39
I376
sS'dismiss'
p177
S'caught'
p178
sg170
F2
sg156
I3
sg171
F1
sg40
S'Sylhet'
p179
sg42
g43
((I2014
I3
I21
I0
I0
I0
I4
I80
I-1
t(dtRp180
sS'r'
F15
sS'minutes'
p181
F5
sa(dp182
g36
I2
sS'b'
F39
sg37
S'Netherlands'
p183
sg148
F125.64102564102564
sg39
I372
sg177
S'caught'
p184
sg170
F2
sg156
I3
sg171
F1
sg40
S'Sylhet'
p185
sg42
g43
((I2014
I3
I19
I0
I0
I0
I2
I78
I-1
t(dtRp186
sS'r'
F49
sg181
F57
sa(dp187
g36
I1
sS'b'
F46
sg37
S'Ireland'
p188
sg148
F128.2608695652174
sg39
I368
sg177
S'caught'
p189
sg170
F6
sg156
I3
sg171
F2
sg40
S'Sylhet'
p190
sg42
g43
((I2014
I3
I17
I0
I0
I0
I0
I76
I-1
t(dtRp191
sS'r'
F59
sg181
F57
sa(dp192
g36
I2
sS'b'
F4
sg37
S'Pakistan'
p193
sg148
F75
sg39
I327
sg177
S'caught'
p194
sg170
F0
sg156
I3
sg171
F0
sg40
S'Harare'
p195
sg42
g43
((I2013
I8
I24
I0
I0
I0
I5
I236
I-1
t(dtRp196
sS'r'
F3
sg181
F6
sa(dp197
g36
I2
sS'b'
F30
sg37
S'Pakistan'
p198
sg168
I01
sg148
F106.66666666666667
sg39
I326
sg177
S'not out'
p199
sg170
F3
sg156
I3
sg171
F0
sg40
S'Harare'
p200
sg42
g43
((I2013
I8
I23
I0
I0
I0
I4
I235
I-1
t(dtRp201
sS'r'
F32
sg181
F49
sa(dp202
g36
I2
sS'b'
F10
sg37
S'Bangladesh'
p203
sg148
F150
sg39
I316
sg177
S'caught'
p204
sg170
F3
sg156
I3
sg171
F0
sg40
S'Bulawayo'
p205
sg42
g43
((I2013
I5
I12
I0
I0
I0
I6
I132
I-1
t(dtRp206
sS'r'
F15
sg181
F12
sa(dp207
g36
I1
sS'b'
F25
sg37
S'Bangladesh'
p208
sg148
F160
sg39
I315
sg177
S'caught'
p209
sg170
F6
sg156
I3
sg171
F1
sg40
S'Bulawayo'
p210
sg42
g43
((I2013
I5
I11
I0
I0
I0
I5
I131
I-1
t(dtRp211
sS'r'
F40
sg181
F30
sa(dp212
g36
I2
sS'b'
F5
sg37
S'West Indies'
p213
sg148
F80
sg39
I308
sg177
S'caught'
p214
sg170
F0
sg156
I4
sg171
F0
sg40
S'North Sound'
p215
sg42
g43
((I2013
I3
I3
I0
I0
I0
I6
I62
I-1
t(dtRp216
sS'r'
F4
sg181
F7
sa(dp217
g36
I1
sS'b'
F3
sg37
S'West Indies'
p218
sg148
F0
sg39
I305
sg177
S'caught'
p219
sg170
F0
sg156
I3
sg171
F0
sg40
S'North Sound'
p220
sg42
g43
((I2013
I3
I2
I0
I0
I0
I5
I61
I-1
t(dtRp221
sS'r'
F0
sg181
F2
sa(dp222
g36
I1
sS'b'
F4
sg37
S'South Africa'
p223
sg148
F100
sg39
I266
sg177
S'caught'
p224
sg170
F0
sg156
I3
sg171
F0
sg40
S'Hambantota'
p225
sg42
g43
((I2012
I9
I20
I0
I0
I0
I3
I264
I-1
t(dtRp226
sS'r'
F4
sg181
F7
sa(dp227
g36
I2
sS'b'
F1
sg37
S'Sri Lanka'
p228
sg148
F0
sg39
I263
sg177
S'stumped'
p229
sg170
F0
sg156
I3
sg171
F0
sg40
S'Hambantota'
p230
sg42
g43
((I2012
I9
I18
I0
I0
I0
I1
I262
I-1
t(dtRp231
sS'r'
F0
sg181
F3
sa(dp232
g36
I1
sS'b'
F43
sg37
S'New Zealand'
p233
sg168
I01
sg148
F174.41860465116278
sg39
I220
sg177
S'not out'
p234
sg170
F6
sg156
I3
sg171
F3
sg40
S'Hamilton'
p235
sg42
g43
((I2012
I2
I14
I0
I0
I0
I1
I45
I-1
t(dtRp236
sS'r'
F75
sg181
F52
sa(dp237
g36
I1
sS'b'
F6
sg37
S'New Zealand'
p238
sg148
F50
sg39
I219
sg177
S'bowled'
p239
sg170
F0
sg156
I1
sg171
F0
sg40
S'Auckland'
p240
sg42
g43
((I2012
I2
I11
I0
I0
I0
I5
I42
I-1
t(dtRp241
sS'r'
F3
sg181
F7
sa(dp242
g36
I2
sS'b'
F5
sg37
S'New Zealand'
p243
sg148
F20
sg39
I213
sg177
S'bowled'
p244
sg170
F0
sg156
I3
sg171
F0
sg40
S'Harare'
p245
sg42
g43
((I2011
I10
I17
I0
I0
I0
I0
I290
I-1
t(dtRp246
sS'r'
F1
sg181
F5
sa(dp247
g36
I1
sS'b'
F46
sg37
S'New Zealand'
p248
sg168
I01
sg148
F108.69565217391305
sg39
I211
sg177
S'not out'
p249
sg170
F5
sg156
I3
sg171
F0
sg40
S'Harare'
p250
sg42
g43
((I2011
I10
I15
I0
I0
I0
I5
I288
I-1
t(dtRp251
sS'r'
F50
sg181
F73
sa(dp252
g36
I2
sS'b'
F11
sg37
S'Pakistan'
p253
sg148
F90.909090909090907
sg39
I206
sg177
S'caught'
p254
sg170
F1
sg156
I4
sg171
F0
sg40
S'Harare'
p255
sg42
g43
((I2011
I9
I18
I0
I0
I0
I6
I261
I-1
t(dtRp256
sS'r'
F10
sg181
F17
sa(dp257
g36
I2
sS'b'
F7
sg37
S'Pakistan'
p258
sg148
F142.85714285714286
sg39
I205
sg177
S'caught'
p259
sg170
F0
sg156
I4
sg171
F1
sg40
S'Harare'
p260
sg42
g43
((I2011
I9
I16
I0
I0
I0
I4
I259
I-1
t(dtRp261
sS'r'
F10
sg181
F12
sa(dp262
g36
I2
sS'b'
F39
sg37
S'South Africa'
p263
sg148
F151.28205128205127
sg39
I189
sg177
S'caught'
p264
sg170
F4
sg156
I2
sg171
F3
sg40
S'Kimberley'
p265
sg42
g43
((I2010
I10
I10
I0
I0
I0
I6
I283
I-1
t(dtRp266
sS'r'
F59
sg181
F66
sa(dp267
g36
I1
sS'b'
F5
sg37
S'South Africa'
p268
sg148
F0
sg39
I188
sg177
S'lbw'
p269
sg170
F0
sg156
I2
sg171
F0
sg40
S'Bloemfontein'
p270
sg42
g43
((I2010
I10
I8
I0
I0
I0
I4
I281
I-1
t(dtRp271
sS'r'
F0
sg181
F19
sa(dp272
g36
I1
sS'b'
F33
sg37
S'India'
p273
sg148
F81.818181818181813
sg39
I183
sg177
S'caught'
p274
sg170
F3
sg156
I2
sg171
F0
sg40
S'Harare'
p275
sg42
g43
((I2010
I6
I13
I0
I0
I0
I6
I164
I-1
t(dtRp276
sS'r'
F27
sg181
F48
sa(dp277
g36
I1
sS'b'
F9
sg37
S'India'
p278
sg148
F166.66666666666666
sg39
I182
sg177
S'lbw'
p279
sg170
F2
sg156
I2
sg171
F1
sg40
S'Harare'
p280
sg42
g43
((I2010
I6
I12
I0
I0
I0
I5
I163
I-1
t(dtRp281
sS'r'
F15
sg181
F14
sa(dp282
g36
I2
sS'b'
F11
sg37
S'Sri Lanka'
p283
sg168
I01
sg148
F100
sg39
I157
sg177
S'not out'
p284
sg170
F0
sg156
I3
sg171
F0
sg40
S'Providence'
p285
sg42
g43
((I2010
I5
I3
I0
I0
I0
I0
I123
I-1
t(dtRp286
sS'r'
F11
sg181
F7
sa(dp287
g36
I1
sS'b'
F3
sg37
S'West Indies'
p288
sg148
F0
sg39
I150
sg177
S'bowled'
p289
sg170
F0
sg156
I5
sg171
F0
sg40
S'Port of Spain'
p290
sg42
g43
((I2010
I2
I28
I0
I0
I0
I6
I59
I-1
t(dtRp291
sS'r'
F0
sg181
F7
sa(dp292
g36
I2
sS'b'
F39
sg37
S'England'
p293
sg148
F120.51282051282051
sg39
I25
sg177
S'bowled'
p294
sg170
F4
sg156
I2
sg171
F2
sg40
S'Cape Town'
p295
sg42
g43
((I2007
I9
I13
I0
I0
I0
I3
I256
I-1
t(dtRp296
sS'r'
F47
sg181
F43
sa(dp297
g36
I2
sS'b'
F45
sg37
S'Australia'
p298
sg168
I01
sg148
F133.33333333333334
sg39
I23
sg177
S'not out'
p299
sg170
F4
sg156
I2
sg171
F2
sg40
S'Cape Town'
p300
sg42
g43
((I2007
I9
I12
I0
I0
I0
I2
I255
I-1
t(dtRp301
sS'r'
F60
sg181
F80
sa(dp302
g36
I2
sS'b'
F4
sg37
S'Bangladesh'
p303
sg148
F125
sg39
I9
sg177
S'bowled'
p304
sg170
F1
sg156
I1
sg171
F0
sg40
S'Khulna'
p305
sg42
g43
((I2006
I11
I28
I0
I0
I0
I1
I332
I-1
t(dtRp306
sS'r'
F5
sg181
F12
satp307
ssS'all'
p308
(dp309
g27
(dp310
S'c'
F40
sg29
F0
sS'i'
F96
sS'm'
F96
sS's'
F10
sg31
F50
sg32
F40
ssg146
(dp311
S'a'
F19
sS'b'
F150
sS'e'
F6.0800000000000001
sS'i'
F8
sg148
F18.75
sg149
F0
sS'm'
F96
sg150
F0
sS'r'
F152
sS'w'
F8
sg151
F0
sg152
F38
sg153
F3
ssg165
(dp312
S'a'
F29.487804878048781
sg167
F-1
sS'b'
F1976
sg168
F13
sS'i'
F95
sg169
F101
sS'm'
F96
sg170
F213
sg171
F69
sg148
F122.36842105263158
sS'r'
F2418
sg172
F1
sg173
F20
ssssb.