(iplayer
Player
p1
(dp2
S'is_batsman'
p3
I01
sS'name'
p4
S'Brad Hodge'
p5
sS'dob'
p6
S'1974/01/29'
p7
sS'price'
p8
S'1000000'
p9
sS'is_allrounder'
p10
I00
sS'espnid'
p11
S'5674'
p12
sS'is_overseas'
p13
I01
sS'team'
p14
S'RR'
p15
sS'nationality'
p16
S'Australian'
p17
sS'is_bowler'
p18
I00
sS'is_keeper'
p19
I00
sS'id'
p20
S'229'
p21
sS'is_uncapped'
p22
I00
sS'tournamentStats'
p23
(dp24
S'international'
p25
(dp26
S'fieldingStats'
p27
((dp28
S'c'
F5
sS'ctw'
p29
F0
sS'span_s'
p30
F2007
sS'm'
F15
sS's'
F0
sS'dismissals'
p31
F5
sS'i'
F15
sS'ctf'
p32
F5
sS'span_f'
p33
F2014
s(lp34
(dp35
S'inning'
p36
I1
sS'c'
F0
sg29
F0
sS'opp'
p37
S'India'
p38
sS't20i_num'
p39
I393
sg32
F0
sg31
F0
sS's'
F0
sS'place'
p40
S'Dhaka'
p41
sS'date'
p42
ctime
struct_time
p43
((I2014
I3
I30
I0
I0
I0
I6
I89
I-1
t(dtRp44
sa(dp45
g36
I2
sS'c'
F0
sg29
F0
sg37
S'West Indies'
p46
sg39
I388
sg32
F0
sg31
F0
sS's'
F0
sg40
S'Dhaka'
p47
sg42
g43
((I2014
I3
I28
I0
I0
I0
I4
I87
I-1
t(dtRp48
sa(dp49
g36
I1
sS'c'
F0
sg29
F0
sg37
S'Pakistan'
p50
sg39
I381
sg32
F0
sg31
F0
sS's'
F0
sg40
S'Dhaka'
p51
sg42
g43
((I2014
I3
I23
I0
I0
I0
I6
I82
I-1
t(dtRp52
sa(dp53
g36
I1
sS'c'
F1
sg29
F0
sg37
S'South Africa'
p54
sg39
I365
sg32
F1
sg31
F1
sS's'
F0
sg40
S'Centurion'
p55
sg42
g43
((I2014
I3
I14
I0
I0
I0
I4
I73
I-1
t(dtRp56
sa(dp57
g36
I1
sS'c'
F0
sg29
F0
sg37
S'South Africa'
p58
sg39
I363
sg32
F0
sg31
F0
sS's'
F0
sg40
S'Durban'
p59
sg42
g43
((I2014
I3
I12
I0
I0
I0
I2
I71
I-1
t(dtRp60
sa(dp61
g36
I2
sS'c'
F0
sg29
F0
sg37
S'England'
p62
sg39
I356
sg32
F0
sg31
F0
sS's'
F0
sg40
S'Sydney'
p63
sg42
g43
((I2014
I2
I2
I0
I0
I0
I6
I33
I-1
t(dtRp64
sa(dp65
g36
I1
sS'c'
F1
sg29
F0
sg37
S'England'
p66
sg39
I355
sg32
F1
sg31
F1
sS's'
F0
sg40
S'Melbourne'
p67
sg42
g43
((I2014
I1
I31
I0
I0
I0
I4
I31
I-1
t(dtRp68
sa(dp69
g36
I1
sS'c'
F1
sg29
F0
sg37
S'India'
p70
sg39
I52
sg32
F1
sg31
F1
sS's'
F0
sg40
S'Melbourne'
p71
sg42
g43
((I2008
I2
I1
I0
I0
I0
I4
I32
I-1
t(dtRp72
sa(dp73
g36
I2
sS'c'
F0
sg29
F0
sg37
S'India'
p74
sg39
I47
sg32
F0
sg31
F0
sS's'
F0
sg40
S'Mumbai (BS)'
p75
sg42
g43
((I2007
I10
I20
I0
I0
I0
I5
I293
I-1
t(dtRp76
sa(dp77
g36
I1
sS'c'
F1
sg29
F0
sg37
S'India'
p78
sg39
I45
sg32
F1
sg31
F1
sS's'
F0
sg40
S'Durban'
p79
sg42
g43
((I2007
I9
I22
I0
I0
I0
I5
I265
I-1
t(dtRp80
sa(dp81
g36
I1
sS'c'
F0
sg29
F0
sg37
S'Sri Lanka'
p82
sg39
I41
sg32
F0
sg31
F0
sS's'
F0
sg40
S'Cape Town'
p83
sg42
g43
((I2007
I9
I20
I0
I0
I0
I3
I263
I-1
t(dtRp84
sa(dp85
g36
I2
sS'c'
F0
sg29
F0
sg37
S'Pakistan'
p86
sg39
I37
sg32
F0
sg31
F0
sS's'
F0
sg40
S'Johannesburg'
p87
sg42
g43
((I2007
I9
I18
I0
I0
I0
I1
I261
I-1
t(dtRp88
sa(dp89
g36
I1
sS'c'
F1
sg29
F0
sg37
S'Bangladesh'
p90
sg39
I33
sg32
F1
sg31
F1
sS's'
F0
sg40
S'Cape Town'
p91
sg42
g43
((I2007
I9
I16
I0
I0
I0
I6
I259
I-1
t(dtRp92
sa(dp93
g36
I1
sS'c'
F0
sg29
F0
sg37
S'England'
p94
sg39
I28
sg32
F0
sg31
F0
sS's'
F0
sg40
S'Cape Town'
p95
sg42
g43
((I2007
I9
I14
I0
I0
I0
I4
I257
I-1
t(dtRp96
sa(dp97
g36
I2
sS'c'
F0
sg29
F0
sg37
S'Zimbabwe'
p98
sg39
I23
sg32
F0
sg31
F0
sS's'
F0
sg40
S'Cape Town'
p99
sg42
g43
((I2007
I9
I12
I0
I0
I0
I2
I255
I-1
t(dtRp100
satp101
sS'bowlingStats'
p102
((dp103
S'a'
F43
sS'b'
F30
sS'e'
F8.5999999999999996
sS'i'
F3
sS'sr'
p104
F30
sS'5w'
p105
F0
sS'm'
F15
sS'maid'
p106
F0
sS'r'
F43
sS'w'
F1
sS'4w'
p107
F0
sS'bbir'
p108
F13
sS'bbiw'
p109
F1
sg33
F2014
sg30
F2007
s(lp110
(dp111
g36
I1
sS'b'
F12
sS'e'
F6.5
sg39
I393
sS'pos'
p112
I1
sg106
F0
sS'r'
F13
sg40
S'Dhaka'
p113
sS'w'
F1
sg42
g43
((I2014
I3
I30
I0
I0
I0
I6
I89
I-1
t(dtRp114
sg37
S'India'
p115
sa(dp116
g36
I1
sS'b'
F6
sS'e'
F10
sg39
I355
sg112
I1
sg106
F0
sS'r'
F10
sg40
S'Melbourne'
p117
sS'w'
F0
sg42
g43
((I2014
I1
I31
I0
I0
I0
I4
I31
I-1
t(dtRp118
sg37
S'England'
p119
sa(dp120
g36
I2
sS'b'
F12
sS'e'
F10
sg39
I23
sg112
I6
sg106
F0
sS'r'
F20
sg40
S'Cape Town'
p121
sS'w'
F0
sg42
g43
((I2007
I9
I12
I0
I0
I0
I2
I255
I-1
t(dtRp122
sg37
S'Zimbabwe'
p123
satp124
sS'battingStats'
p125
((dp126
S'a'
F26.142857142857142
sS'0s'
p127
F0
sS'b'
F144
sS'no'
p128
F4
sg30
F2007
sS'hs'
p129
F36
sS'm'
F15
sS'4s'
p130
F9
sg33
F2014
sS'i'
F11
sS'6s'
p131
F7
sg104
F127.08333333333333
sS'r'
F183
sS'100s'
p132
F0
sS'50s'
p133
F0
s(lp134
(dp135
g36
I2
sS'b'
F18
sg37
S'India'
p136
sg104
F72.222222222222229
sg39
I393
sS'dismiss'
p137
S'caught'
p138
sg130
F0
sg112
I7
sg131
F0
sg40
S'Dhaka'
p139
sg42
g43
((I2014
I3
I30
I0
I0
I0
I6
I89
I-1
t(dtRp140
sS'r'
F13
sS'minutes'
p141
F19
sa(dp142
g36
I1
sS'b'
F26
sg37
S'West Indies'
p143
sg104
F134.61538461538461
sg39
I388
sg137
S'bowled'
p144
sg130
F2
sg112
I6
sg131
F1
sg40
S'Dhaka'
p145
sg42
g43
((I2014
I3
I28
I0
I0
I0
I4
I87
I-1
t(dtRp146
sS'r'
F35
sg141
F39
sa(dp147
g36
I2
sS'b'
F3
sg37
S'Pakistan'
p148
sg104
F66.666666666666671
sg39
I381
sg137
S'caught'
p149
sg130
F0
sg112
I6
sg131
F0
sg40
S'Dhaka'
p150
sg42
g43
((I2014
I3
I23
I0
I0
I0
I6
I82
I-1
t(dtRp151
sS'r'
F2
sg141
F6
sa(dp152
g36
I2
sS'b'
F5
sg37
S'South Africa'
p153
sg128
I01
sg104
F220
sg39
I365
sg137
S'not out'
p154
sg130
F0
sg112
I6
sg131
F1
sg40
S'Centurion'
p155
sg42
g43
((I2014
I3
I14
I0
I0
I0
I4
I73
I-1
t(dtRp156
sS'r'
F11
sg141
F7
sa(dp157
g36
I2
sS'b'
F8
sg37
S'South Africa'
p158
sg128
I01
sg104
F262.5
sg39
I363
sg137
S'not out'
p159
sg130
F1
sg112
I6
sg131
F2
sg40
S'Durban'
p160
sg42
g43
((I2014
I3
I12
I0
I0
I0
I2
I71
I-1
t(dtRp161
sS'r'
F21
sg141
F12
sa(dp162
g36
I1
sS'b'
F7
sg37
S'England'
p163
sg104
F100
sg39
I356
sg137
S'caught'
p164
sg130
F1
sg112
I6
sg131
F0
sg40
S'Sydney'
p165
sg42
g43
((I2014
I2
I2
I0
I0
I0
I6
I33
I-1
t(dtRp166
sS'r'
F7
sg141
F7
sa(dp167
g36
I2
sS'b'
F10
sg37
S'India'
p168
sg128
I01
sg104
F100
sg39
I52
sg137
S'not out'
p169
sg130
F0
sg112
I3
sg131
F0
sg40
S'Melbourne'
p170
sg42
g43
((I2008
I2
I1
I0
I0
I0
I4
I32
I-1
t(dtRp171
sS'r'
F10
sg141
F15
sa(dp172
g36
I1
sS'b'
F6
sg37
S'India'
p173
sg104
F33.333333333333336
sg39
I47
sg137
S'bowled'
p174
sg130
F0
sg112
I5
sg131
F0
sg40
S'Mumbai (BS)'
p175
sg42
g43
((I2007
I10
I20
I0
I0
I0
I5
I293
I-1
t(dtRp176
sS'r'
F2
sg141
F7
sa(dp177
g36
I2
sS'b'
F10
sg37
S'India'
p178
sg104
F110
sg39
I45
sg137
S'caught'
p179
sg130
F0
sg112
I3
sg131
F1
sg40
S'Durban'
p180
sg42
g43
((I2007
I9
I22
I0
I0
I0
I5
I265
I-1
t(dtRp181
sS'r'
F11
sg141
F15
sa(dp182
g36
I1
sS'b'
F29
sg37
S'Pakistan'
p183
sg104
F124.13793103448276
sg39
I37
sg137
S'caught'
p184
sg130
F3
sg112
I6
sg131
F0
sg40
S'Johannesburg'
p185
sg42
g43
((I2007
I9
I18
I0
I0
I0
I1
I261
I-1
t(dtRp186
sS'r'
F36
sg141
F36
sa(dp187
g36
I1
sS'b'
F22
sg37
S'Zimbabwe'
p188
sg128
I01
sg104
F159.09090909090909
sg39
I23
sg137
S'not out'
p189
sg130
F2
sg112
I6
sg131
F2
sg40
S'Cape Town'
p190
sg42
g43
((I2007
I9
I12
I0
I0
I0
I2
I255
I-1
t(dtRp191
sS'r'
F35
sg141
F36
satp192
ssS'all'
p193
(dp194
g27
(dp195
S'c'
F84
sg29
F0
sS'i'
F217
sS'm'
F217
sS's'
F0
sg31
F84
sg32
F84
ssg102
(dp196
S'a'
F22.142857142857142
sS'b'
F1080
sS'e'
F7.75
sS'i'
F81
sg104
F17.142857142857142
sg105
F0
sS'm'
F217
sg106
F0
sS'r'
F1395
sS'w'
F63
sg107
F3
sg108
F13
sg109
F4
ssg125
(dp197
S'a'
F36.711656441717793
sg127
F-1
sS'b'
F4583
sg128
F41
sS'i'
F204
sg129
F106
sS'm'
F217
sg130
F611
sg131
F175
sg104
F130.5694959633428
sS'r'
F5984
sg132
F2
sg133
F41
ssssb.