(iplayer
Player
p1
(dp2
S'is_batsman'
p3
I00
sS'name'
p4
S'Albie Morkel'
p5
sS'dob'
p6
S'1981/06/10'
p7
sS'price'
p8
S'950000'
p9
sS'is_allrounder'
p10
I01
sS'espnid'
p11
S'46248'
p12
sS'is_overseas'
p13
I01
sS'team'
p14
S'RCB'
p15
sS'nationality'
p16
S'South African'
p17
sS'is_bowler'
p18
I00
sS'is_keeper'
p19
I00
sS'id'
p20
S'26'
p21
sS'is_uncapped'
p22
I00
sS'tournamentStats'
p23
(dp24
S'international'
p25
(dp26
S'fieldingStats'
p27
((dp28
S'c'
F17
sS'ctw'
p29
F0
sS'span_s'
p30
F2005
sS'm'
F49
sS's'
F0
sS'dismissals'
p31
F17
sS'i'
F49
sS'ctf'
p32
F17
sS'span_f'
p33
F2014
s(lp34
(dp35
S'inning'
p36
I2
sS'c'
F0
sg29
F0
sS'opp'
p37
S'India'
p38
sS't20i_num'
p39
I399
sg32
F0
sg31
F0
sS's'
F0
sS'place'
p40
S'Dhaka'
p41
sS'date'
p42
ctime
struct_time
p43
((I2014
I4
I4
I0
I0
I0
I4
I94
I-1
t(dtRp44
sa(dp45
g36
I2
sS'c'
F1
sg29
F0
sg37
S'England'
p46
sg39
I391
sg32
F1
sg31
F1
sS's'
F0
sg40
S'Chittagong'
p47
sg42
g43
((I2014
I3
I29
I0
I0
I0
I5
I88
I-1
t(dtRp48
sa(dp49
g36
I2
sS'c'
F0
sg29
F0
sg37
S'Netherlands'
p50
sg39
I386
sg32
F0
sg31
F0
sS's'
F0
sg40
S'Chittagong'
p51
sg42
g43
((I2014
I3
I27
I0
I0
I0
I3
I86
I-1
t(dtRp52
sa(dp53
g36
I2
sS'c'
F0
sg29
F0
sg37
S'New Zealand'
p54
sg39
I383
sg32
F0
sg31
F0
sS's'
F0
sg40
S'Chittagong'
p55
sg42
g43
((I2014
I3
I24
I0
I0
I0
I0
I83
I-1
t(dtRp56
sa(dp57
g36
I1
sS'c'
F0
sg29
F0
sg37
S'Sri Lanka'
p58
sg39
I379
sg32
F0
sg31
F0
sS's'
F0
sg40
S'Chittagong'
p59
sg42
g43
((I2014
I3
I22
I0
I0
I0
I5
I81
I-1
t(dtRp60
sa(dp61
g36
I2
sS'c'
F0
sg29
F0
sg37
S'Australia'
p62
sg39
I365
sg32
F0
sg31
F0
sS's'
F0
sg40
S'Centurion'
p63
sg42
g43
((I2014
I3
I14
I0
I0
I0
I4
I73
I-1
t(dtRp64
sa(dp65
g36
I2
sS'c'
F0
sg29
F0
sg37
S'Australia'
p66
sg39
I363
sg32
F0
sg31
F0
sS's'
F0
sg40
S'Durban'
p67
sg42
g43
((I2014
I3
I12
I0
I0
I0
I2
I71
I-1
t(dtRp68
sa(dp69
g36
I1
sS'c'
F0
sg29
F0
sg37
S'India'
p70
sg39
I286
sg32
F0
sg31
F0
sS's'
F0
sg40
S'Colombo (RPS)'
p71
sg42
g43
((I2012
I10
I2
I0
I0
I0
I1
I276
I-1
t(dtRp72
sa(dp73
g36
I2
sS'c'
F1
sg29
F0
sg37
S'Pakistan'
p74
sg39
I277
sg32
F1
sg31
F1
sS's'
F0
sg40
S'Colombo (RPS)'
p75
sg42
g43
((I2012
I9
I28
I0
I0
I0
I4
I272
I-1
t(dtRp76
sa(dp77
g36
I2
sS'c'
F0
sg29
F0
sg37
S'Sri Lanka'
p78
sg39
I269
sg32
F0
sg31
F0
sS's'
F0
sg40
S'Hambantota'
p79
sg42
g43
((I2012
I9
I22
I0
I0
I0
I5
I266
I-1
t(dtRp80
sa(dp81
g36
I1
sS'c'
F0
sg29
F0
sg37
S'Zimbabwe'
p82
sg39
I266
sg32
F0
sg31
F0
sS's'
F0
sg40
S'Hambantota'
p83
sg42
g43
((I2012
I9
I20
I0
I0
I0
I3
I264
I-1
t(dtRp84
sa(dp85
g36
I1
sS'c'
F0
sg29
F0
sg37
S'England'
p86
sg39
I262
sg32
F0
sg31
F0
sS's'
F0
sg40
S'Birmingham'
p87
sg42
g43
((I2012
I9
I12
I0
I0
I0
I2
I256
I-1
t(dtRp88
sa(dp89
g36
I2
sS'c'
F0
sg29
F0
sg37
S'England'
p90
sg39
I260
sg32
F0
sg31
F0
sS's'
F0
sg40
S'Manchester'
p91
sg42
g43
((I2012
I9
I10
I0
I0
I0
I0
I254
I-1
t(dtRp92
sa(dp93
g36
I1
sS'c'
F0
sg29
F0
sg37
S'England'
p94
sg39
I258
sg32
F0
sg31
F0
sS's'
F0
sg40
S'Chester-le-Street'
p95
sg42
g43
((I2012
I9
I8
I0
I0
I0
I5
I252
I-1
t(dtRp96
sa(dp97
g36
I2
sS'c'
F0
sg29
F0
sg37
S'India'
p98
sg39
I242
sg32
F0
sg31
F0
sS's'
F0
sg40
S'Johannesburg'
p99
sg42
g43
((I2012
I3
I30
I0
I0
I0
I4
I90
I-1
t(dtRp100
sa(dp101
g36
I2
sS'c'
F1
sg29
F0
sg37
S'New Zealand'
p102
sg39
I223
sg32
F1
sg31
F1
sS's'
F0
sg40
S'Auckland'
p103
sg42
g43
((I2012
I2
I22
I0
I0
I0
I2
I53
I-1
t(dtRp104
sa(dp105
g36
I1
sS'c'
F1
sg29
F0
sg37
S'New Zealand'
p106
sg39
I222
sg32
F1
sg31
F1
sS's'
F0
sg40
S'Hamilton'
p107
sg42
g43
((I2012
I2
I19
I0
I0
I0
I6
I50
I-1
t(dtRp108
sa(dp109
g36
I2
sS'c'
F0
sg29
F0
sg37
S'New Zealand'
p110
sg39
I221
sg32
F0
sg31
F0
sS's'
F0
sg40
S'Wellington'
p111
sg42
g43
((I2012
I2
I17
I0
I0
I0
I4
I48
I-1
t(dtRp112
sa(dp113
g36
I1
sS'c'
F1
sg29
F0
sg37
S'Pakistan'
p114
sg39
I191
sg32
F1
sg31
F1
sS's'
F0
sg40
S'Abu Dhabi'
p115
sg42
g43
((I2010
I10
I27
I0
I0
I0
I2
I300
I-1
t(dtRp116
sa(dp117
g36
I1
sS'c'
F0
sg29
F0
sg37
S'Pakistan'
p118
sg39
I190
sg32
F0
sg31
F0
sS's'
F0
sg40
S'Abu Dhabi'
p119
sg42
g43
((I2010
I10
I26
I0
I0
I0
I1
I299
I-1
t(dtRp120
sa(dp121
g36
I1
sS'c'
F0
sg29
F0
sg37
S'Pakistan'
p122
sg39
I171
sg32
F0
sg31
F0
sS's'
F0
sg40
S'Gros Islet'
p123
sg42
g43
((I2010
I5
I10
I0
I0
I0
I0
I130
I-1
t(dtRp124
sa(dp125
g36
I1
sS'c'
F0
sg29
F0
sg37
S'England'
p126
sg39
I168
sg32
F0
sg31
F0
sS's'
F0
sg40
S'Bridgetown'
p127
sg42
g43
((I2010
I5
I8
I0
I0
I0
I5
I128
I-1
t(dtRp128
sa(dp129
g36
I2
sS'c'
F1
sg29
F0
sg37
S'New Zealand'
p130
sg39
I164
sg32
F1
sg31
F1
sS's'
F0
sg40
S'Bridgetown'
p131
sg42
g43
((I2010
I5
I6
I0
I0
I0
I3
I126
I-1
t(dtRp132
sa(dp133
g36
I2
sS'c'
F0
sg29
F0
sg37
S'Afghanistan'
p134
sg39
I162
sg32
F0
sg31
F0
sS's'
F0
sg40
S'Bridgetown'
p135
sg42
g43
((I2010
I5
I5
I0
I0
I0
I2
I125
I-1
t(dtRp136
sa(dp137
g36
I1
sS'c'
F0
sg29
F0
sg37
S'India'
p138
sg39
I155
sg32
F0
sg31
F0
sS's'
F0
sg40
S'Gros Islet'
p139
sg42
g43
((I2010
I5
I2
I0
I0
I0
I6
I122
I-1
t(dtRp140
sa(dp141
g36
I2
sS'c'
F0
sg29
F0
sg37
S'England'
p142
sg39
I125
sg32
F0
sg31
F0
sS's'
F0
sg40
S'Centurion'
p143
sg42
g43
((I2009
I11
I15
I0
I0
I0
I6
I319
I-1
t(dtRp144
sa(dp145
g36
I1
sS'c'
F1
sg29
F0
sg37
S'England'
p146
sg39
I124
sg32
F1
sg31
F1
sS's'
F0
sg40
S'Johannesburg'
p147
sg42
g43
((I2009
I11
I13
I0
I0
I0
I4
I317
I-1
t(dtRp148
sa(dp149
g36
I1
sS'c'
F1
sg29
F0
sg37
S'Pakistan'
p150
sg39
I114
sg32
F1
sg31
F1
sS's'
F0
sg40
S'Nottingham'
p151
sg42
g43
((I2009
I6
I18
I0
I0
I0
I3
I169
I-1
t(dtRp152
sa(dp153
g36
I2
sS'c'
F0
sg29
F0
sg37
S'India'
p154
sg39
I113
sg32
F0
sg31
F0
sS's'
F0
sg40
S'Nottingham'
p155
sg42
g43
((I2009
I6
I16
I0
I0
I0
I1
I167
I-1
t(dtRp156
sa(dp157
g36
I2
sS'c'
F0
sg29
F0
sg37
S'West Indies'
p158
sg39
I106
sg32
F0
sg31
F0
sS's'
F0
sg40
S'The Oval'
p159
sg42
g43
((I2009
I6
I13
I0
I0
I0
I5
I164
I-1
t(dtRp160
sa(dp161
g36
I1
sS'c'
F2
sg29
F0
sg37
S'England'
p162
sg39
I103
sg32
F2
sg31
F2
sS's'
F0
sg40
S'Nottingham'
p163
sg42
g43
((I2009
I6
I11
I0
I0
I0
I3
I162
I-1
t(dtRp164
sa(dp165
g36
I2
sS'c'
F0
sg29
F0
sg37
S'New Zealand'
p166
sg39
I99
sg32
F0
sg31
F0
sS's'
F0
sg40
S"Lord's"
p167
sg42
g43
((I2009
I6
I9
I0
I0
I0
I1
I160
I-1
t(dtRp168
sa(dp169
g36
I2
sS'c'
F0
sg29
F0
sg37
S'Scotland'
p170
sg39
I94
sg32
F0
sg31
F0
sS's'
F0
sg40
S'The Oval'
p171
sg42
g43
((I2009
I6
I7
I0
I0
I0
I6
I158
I-1
t(dtRp172
sa(dp173
g36
I2
sS'c'
F1
sg29
F0
sg37
S'Australia'
p174
sg39
I88
sg32
F1
sg31
F1
sS's'
F0
sg40
S'Centurion'
p175
sg42
g43
((I2009
I3
I29
I0
I0
I0
I6
I88
I-1
t(dtRp176
sa(dp177
g36
I1
sS'c'
F1
sg29
F0
sg37
S'Australia'
p178
sg39
I87
sg32
F1
sg31
F1
sS's'
F0
sg40
S'Johannesburg'
p179
sg42
g43
((I2009
I3
I27
I0
I0
I0
I4
I86
I-1
t(dtRp180
sa(dp181
g36
I2
sS'c'
F0
sg29
F0
sg37
S'Australia'
p182
sg39
I81
sg32
F0
sg31
F0
sS's'
F0
sg40
S'Brisbane'
p183
sg42
g43
((I2009
I1
I13
I0
I0
I0
I1
I13
I-1
t(dtRp184
sa(dp185
g36
I1
sS'c'
F1
sg29
F0
sg37
S'Australia'
p186
sg39
I80
sg32
F1
sg31
F1
sS's'
F0
sg40
S'Melbourne'
p187
sg42
g43
((I2009
I1
I11
I0
I0
I0
I6
I11
I-1
t(dtRp188
sa(dp189
g36
I2
sS'c'
F0
sg29
F0
sg37
S'Bangladesh'
p190
sg39
I77
sg32
F0
sg31
F0
sS's'
F0
sg40
S'Johannesburg'
p191
sg42
g43
((I2008
I11
I5
I0
I0
I0
I2
I310
I-1
t(dtRp192
sa(dp193
g36
I1
sS'c'
F0
sg29
F0
sg37
S'West Indies'
p194
sg39
I51
sg32
F0
sg31
F0
sS's'
F0
sg40
S'Johannesburg'
p195
sg42
g43
((I2008
I1
I18
I0
I0
I0
I4
I18
I-1
t(dtRp196
sa(dp197
g36
I2
sS'c'
F0
sg29
F0
sg37
S'West Indies'
p198
sg39
I50
sg32
F0
sg31
F0
sS's'
F0
sg40
S'Port Elizabeth'
p199
sg42
g43
((I2007
I12
I16
I0
I0
I0
I6
I350
I-1
t(dtRp200
sa(dp201
g36
I1
sS'c'
F1
sg29
F0
sg37
S'New Zealand'
p202
sg39
I48
sg32
F1
sg31
F1
sS's'
F0
sg40
S'Johannesburg'
p203
sg42
g43
((I2007
I11
I23
I0
I0
I0
I4
I327
I-1
t(dtRp204
sa(dp205
g36
I1
sS'c'
F1
sg29
F0
sg37
S'India'
p206
sg39
I43
sg32
F1
sg31
F1
sS's'
F0
sg40
S'Durban'
p207
sg42
g43
((I2007
I9
I20
I0
I0
I0
I3
I263
I-1
t(dtRp208
sa(dp209
g36
I1
sS'c'
F1
sg29
F0
sg37
S'New Zealand'
p210
sg39
I39
sg32
F1
sg31
F1
sS's'
F0
sg40
S'Durban'
p211
sg42
g43
((I2007
I9
I19
I0
I0
I0
I2
I262
I-1
t(dtRp212
sa(dp213
g36
I2
sS'c'
F0
sg29
F0
sg37
S'England'
p214
sg39
I34
sg32
F0
sg31
F0
sS's'
F0
sg40
S'Cape Town'
p215
sg42
g43
((I2007
I9
I16
I0
I0
I0
I6
I259
I-1
t(dtRp216
sa(dp217
g36
I1
sS'c'
F0
sg29
F0
sg37
S'Bangladesh'
p218
sg39
I31
sg32
F0
sg31
F0
sS's'
F0
sg40
S'Cape Town'
p219
sg42
g43
((I2007
I9
I15
I0
I0
I0
I5
I258
I-1
t(dtRp220
sa(dp221
g36
I1
sS'c'
F0
sg29
F0
sg37
S'West Indies'
p222
sg39
I20
sg32
F0
sg31
F0
sS's'
F0
sg40
S'Johannesburg'
p223
sg42
g43
((I2007
I9
I11
I0
I0
I0
I1
I254
I-1
t(dtRp224
sa(dp225
g36
I1
sS'c'
F0
sg29
F0
sg37
S'Pakistan'
p226
sg39
I14
sg32
F0
sg31
F0
sS's'
F0
sg40
S'Johannesburg'
p227
sg42
g43
((I2007
I2
I2
I0
I0
I0
I4
I33
I-1
t(dtRp228
sa(dp229
g36
I2
sS'c'
F0
sg29
F0
sg37
S'India'
p230
sg39
I10
sg32
F0
sg31
F0
sS's'
F0
sg40
S'Johannesburg'
p231
sg42
g43
((I2006
I12
I1
I0
I0
I0
I4
I335
I-1
t(dtRp232
sa(dp233
g36
I2
sS'c'
F1
sg29
F0
sg37
S'New Zealand'
p234
sg39
I3
sg32
F1
sg31
F1
sS's'
F0
sg40
S'Johannesburg'
p235
sg42
g43
((I2005
I10
I21
I0
I0
I0
I4
I294
I-1
t(dtRp236
satp237
sS'bowlingStats'
p238
((dp239
S'a'
F37.043478260869563
sS'b'
F623
sS'e'
F8.2054574638844304
sS'i'
F45
sS'sr'
p240
F27.086956521739129
sS'5w'
p241
F0
sS'm'
F49
sS'maid'
p242
F2
sS'r'
F852
sS'w'
F23
sS'4w'
p243
F0
sS'bbir'
p244
F12
sS'bbiw'
p245
F2
sg33
F2014
sg30
F2005
s(lp246
(dp247
g36
I2
sS'b'
F12
sS'e'
F8.5
sg39
I399
sS'pos'
p248
I2
sg242
F0
sS'r'
F17
sg40
S'Dhaka'
p249
sS'w'
F0
sg42
g43
((I2014
I4
I4
I0
I0
I0
I4
I94
I-1
t(dtRp250
sg37
S'India'
p251
sa(dp252
g36
I2
sS'b'
F12
sS'e'
F9.5
sg39
I391
sg248
I2
sg242
F0
sS'r'
F19
sg40
S'Chittagong'
p253
sS'w'
F0
sg42
g43
((I2014
I3
I29
I0
I0
I0
I5
I88
I-1
t(dtRp254
sg37
S'England'
p255
sa(dp256
g36
I2
sS'b'
F12
sS'e'
F9.5
sg39
I386
sg248
I1
sg242
F0
sS'r'
F19
sg40
S'Chittagong'
p257
sS'w'
F0
sg42
g43
((I2014
I3
I27
I0
I0
I0
I3
I86
I-1
t(dtRp258
sg37
S'Netherlands'
p259
sa(dp260
g36
I2
sS'b'
F12
sS'e'
F6.5
sg39
I383
sg248
I5
sg242
F0
sS'r'
F13
sg40
S'Chittagong'
p261
sS'w'
F1
sg42
g43
((I2014
I3
I24
I0
I0
I0
I0
I83
I-1
t(dtRp262
sg37
S'New Zealand'
p263
sa(dp264
g36
I1
sS'b'
F12
sS'e'
F12
sg39
I379
sg248
I5
sg242
F0
sS'r'
F24
sg40
S'Chittagong'
p265
sS'w'
F0
sg42
g43
((I2014
I3
I22
I0
I0
I0
I5
I81
I-1
t(dtRp266
sg37
S'Sri Lanka'
p267
sa(dp268
g36
I2
sS'b'
F12
sS'e'
F13
sg39
I365
sg248
I6
sg242
F0
sS'r'
F26
sg40
S'Centurion'
p269
sS'w'
F0
sg42
g43
((I2014
I3
I14
I0
I0
I0
I4
I73
I-1
t(dtRp270
sg37
S'Australia'
p271
sa(dp272
g36
I2
sS'b'
F12
sS'e'
F13
sg39
I277
sg248
I4
sg242
F0
sS'r'
F26
sg40
S'Colombo (RPS)'
p273
sS'w'
F0
sg42
g43
((I2012
I9
I28
I0
I0
I0
I4
I272
I-1
t(dtRp274
sg37
S'Pakistan'
p275
sa(dp276
g36
I2
sS'b'
F6
sS'e'
F8
sg39
I269
sg248
I5
sg242
F0
sS'r'
F8
sg40
S'Hambantota'
p277
sS'w'
F1
sg42
g43
((I2012
I9
I22
I0
I0
I0
I5
I266
I-1
t(dtRp278
sg37
S'Sri Lanka'
p279
sa(dp280
g36
I1
sS'b'
F24
sS'e'
F6.5
sg39
I266
sg248
I3
sg242
F0
sS'r'
F26
sg40
S'Hambantota'
p281
sS'w'
F1
sg42
g43
((I2012
I9
I20
I0
I0
I0
I3
I264
I-1
t(dtRp282
sg37
S'Zimbabwe'
p283
sa(dp284
g36
I1
sS'b'
F6
sS'e'
F5
sg39
I262
sg248
I3
sg242
F0
sS'r'
F5
sg40
S'Birmingham'
p285
sS'w'
F0
sg42
g43
((I2012
I9
I12
I0
I0
I0
I2
I256
I-1
t(dtRp286
sg37
S'England'
p287
sa(dp288
g36
I2
sS'b'
F1
sS'e'
F0
sg39
I260
sg248
I4
sg242
F0
sS'r'
F0
sg40
S'Manchester'
p289
sS'w'
F1
sg42
g43
((I2012
I9
I10
I0
I0
I0
I0
I254
I-1
t(dtRp290
sg37
S'England'
p291
sa(dp292
g36
I1
sS'b'
F18
sS'e'
F4
sg39
I258
sg248
I4
sg242
F0
sS'r'
F12
sg40
S'Chester-le-Street'
p293
sS'w'
F1
sg42
g43
((I2012
I9
I8
I0
I0
I0
I5
I252
I-1
t(dtRp294
sg37
S'England'
p295
sa(dp296
g36
I2
sS'b'
F6
sS'e'
F16
sg39
I242
sg248
I2
sg242
F0
sS'r'
F16
sg40
S'Johannesburg'
p297
sS'w'
F0
sg42
g43
((I2012
I3
I30
I0
I0
I0
I4
I90
I-1
t(dtRp298
sg37
S'India'
p299
sa(dp300
g36
I2
sS'b'
F6
sS'e'
F13
sg39
I223
sg248
I3
sg242
F0
sS'r'
F13
sg40
S'Auckland'
p301
sS'w'
F0
sg42
g43
((I2012
I2
I22
I0
I0
I0
I2
I53
I-1
t(dtRp302
sg37
S'New Zealand'
p303
sa(dp304
g36
I2
sS'b'
F18
sS'e'
F6.666666666666667
sg39
I221
sg248
I1
sg242
F0
sS'r'
F20
sg40
S'Wellington'
p305
sS'w'
F0
sg42
g43
((I2012
I2
I17
I0
I0
I0
I4
I48
I-1
t(dtRp306
sg37
S'New Zealand'
p307
sa(dp308
g36
I1
sS'b'
F24
sS'e'
F7.75
sg39
I191
sg248
I1
sg242
F0
sS'r'
F31
sg40
S'Abu Dhabi'
p309
sS'w'
F1
sg42
g43
((I2010
I10
I27
I0
I0
I0
I2
I300
I-1
t(dtRp310
sg37
S'Pakistan'
p311
sa(dp312
g36
I1
sS'b'
F24
sS'e'
F7
sg39
I190
sg248
I1
sg242
F0
sS'r'
F28
sg40
S'Abu Dhabi'
p313
sS'w'
F1
sg42
g43
((I2010
I10
I26
I0
I0
I0
I1
I299
I-1
t(dtRp314
sg37
S'Pakistan'
p315
sa(dp316
g36
I1
sS'b'
F24
sS'e'
F7
sg39
I171
sg248
I1
sg242
F0
sS'r'
F28
sg40
S'Gros Islet'
p317
sS'w'
F0
sg42
g43
((I2010
I5
I10
I0
I0
I0
I0
I130
I-1
t(dtRp318
sg37
S'Pakistan'
p319
sa(dp320
g36
I2
sS'b'
F6
sS'e'
F13
sg39
I164
sg248
I6
sg242
F0
sS'r'
F13
sg40
S'Bridgetown'
p321
sS'w'
F0
sg42
g43
((I2010
I5
I6
I0
I0
I0
I3
I126
I-1
t(dtRp322
sg37
S'New Zealand'
p323
sa(dp324
g36
I2
sS'b'
F12
sS'e'
F10
sg39
I162
sg248
I5
sg242
F0
sS'r'
F20
sg40
S'Bridgetown'
p325
sS'w'
F0
sg42
g43
((I2010
I5
I5
I0
I0
I0
I2
I125
I-1
t(dtRp326
sg37
S'Afghanistan'
p327
sa(dp328
g36
I1
sS'b'
F18
sS'e'
F13
sg39
I155
sg248
I4
sg242
F0
sS'r'
F39
sg40
S'Gros Islet'
p329
sS'w'
F1
sg42
g43
((I2010
I5
I2
I0
I0
I0
I6
I122
I-1
t(dtRp330
sg37
S'India'
p331
sa(dp332
g36
I2
sS'b'
F24
sS'e'
F8.75
sg39
I125
sg248
I5
sg242
F0
sS'r'
F35
sg40
S'Centurion'
p333
sS'w'
F2
sg42
g43
((I2009
I11
I15
I0
I0
I0
I6
I319
I-1
t(dtRp334
sg37
S'England'
p335
sa(dp336
g36
I1
sS'b'
F12
sS'e'
F16
sg39
I124
sg248
I4
sg242
F0
sS'r'
F32
sg40
S'Johannesburg'
p337
sS'w'
F0
sg42
g43
((I2009
I11
I13
I0
I0
I0
I4
I317
I-1
t(dtRp338
sg37
S'England'
p339
sa(dp340
g36
I1
sS'b'
F12
sS'e'
F6.5
sg39
I114
sg248
I4
sg242
F0
sS'r'
F13
sg40
S'Nottingham'
p341
sS'w'
F0
sg42
g43
((I2009
I6
I18
I0
I0
I0
I3
I169
I-1
t(dtRp342
sg37
S'Pakistan'
p343
sa(dp344
g36
I2
sS'b'
F6
sS'e'
F12
sg39
I113
sg248
I4
sg242
F0
sS'r'
F12
sg40
S'Nottingham'
p345
sS'w'
F0
sg42
g43
((I2009
I6
I16
I0
I0
I0
I1
I167
I-1
t(dtRp346
sg37
S'India'
p347
sa(dp348
g36
I2
sS'b'
F12
sS'e'
F10.5
sg39
I106
sg248
I4
sg242
F0
sS'r'
F21
sg40
S'The Oval'
p349
sS'w'
F0
sg42
g43
((I2009
I6
I13
I0
I0
I0
I5
I164
I-1
t(dtRp350
sg37
S'West Indies'
p351
sa(dp352
g36
I1
sS'b'
F6
sS'e'
F0
sg39
I103
sg248
I4
sg242
F1
sS'r'
F0
sg40
S'Nottingham'
p353
sS'w'
F1
sg42
g43
((I2009
I6
I11
I0
I0
I0
I3
I162
I-1
t(dtRp354
sg37
S'England'
p355
sa(dp356
g36
I2
sS'b'
F12
sS'e'
F7
sg39
I99
sg248
I5
sg242
F0
sS'r'
F14
sg40
S"Lord's"
p357
sS'w'
F0
sg42
g43
((I2009
I6
I9
I0
I0
I0
I1
I160
I-1
t(dtRp358
sg37
S'New Zealand'
p359
sa(dp360
g36
I2
sS'b'
F10
sS'e'
F9
sg39
I94
sg248
I6
sg242
F0
sS'r'
F15
sg40
S'The Oval'
p361
sS'w'
F2
sg42
g43
((I2009
I6
I7
I0
I0
I0
I6
I158
I-1
t(dtRp362
sg37
S'Scotland'
p363
sa(dp364
g36
I2
sS'b'
F18
sS'e'
F8
sg39
I88
sg248
I3
sg242
F0
sS'r'
F24
sg40
S'Centurion'
p365
sS'w'
F1
sg42
g43
((I2009
I3
I29
I0
I0
I0
I6
I88
I-1
t(dtRp366
sg37
S'Australia'
p367
sa(dp368
g36
I1
sS'b'
F24
sS'e'
F9
sg39
I87
sg248
I3
sg242
F0
sS'r'
F36
sg40
S'Johannesburg'
p369
sS'w'
F1
sg42
g43
((I2009
I3
I27
I0
I0
I0
I4
I86
I-1
t(dtRp370
sg37
S'Australia'
p371
sa(dp372
g36
I2
sS'b'
F18
sS'e'
F12
sg39
I81
sg248
I5
sg242
F0
sS'r'
F36
sg40
S'Brisbane'
p373
sS'w'
F0
sg42
g43
((I2009
I1
I13
I0
I0
I0
I1
I13
I-1
t(dtRp374
sg37
S'Australia'
p375
sa(dp376
g36
I1
sS'b'
F24
sS'e'
F7.5
sg39
I80
sg248
I6
sg242
F0
sS'r'
F30
sg40
S'Melbourne'
p377
sS'w'
F2
sg42
g43
((I2009
I1
I11
I0
I0
I0
I6
I11
I-1
t(dtRp378
sg37
S'Australia'
p379
sa(dp380
g36
I2
sS'b'
F12
sS'e'
F9
sg39
I77
sg248
I6
sg242
F0
sS'r'
F18
sg40
S'Johannesburg'
p381
sS'w'
F0
sg42
g43
((I2008
I11
I5
I0
I0
I0
I2
I310
I-1
t(dtRp382
sg37
S'Bangladesh'
p383
sa(dp384
g36
I1
sS'b'
F18
sS'e'
F3.6666666666666665
sg39
I51
sg248
I3
sg242
F0
sS'r'
F11
sg40
S'Johannesburg'
p385
sS'w'
F0
sg42
g43
((I2008
I1
I18
I0
I0
I0
I4
I18
I-1
t(dtRp386
sg37
S'West Indies'
p387
sa(dp388
g36
I2
sS'b'
F6
sS'e'
F5
sg39
I50
sg248
I4
sg242
F0
sS'r'
F5
sg40
S'Port Elizabeth'
p389
sS'w'
F0
sg42
g43
((I2007
I12
I16
I0
I0
I0
I6
I350
I-1
t(dtRp390
sg37
S'West Indies'
p391
sa(dp392
g36
I1
sS'b'
F24
sS'e'
F7.25
sg39
I48
sg248
I4
sg242
F0
sS'r'
F29
sg40
S'Johannesburg'
p393
sS'w'
F2
sg42
g43
((I2007
I11
I23
I0
I0
I0
I4
I327
I-1
t(dtRp394
sg37
S'New Zealand'
p395
sa(dp396
g36
I1
sS'b'
F12
sS'e'
F6.5
sg39
I43
sg248
I6
sg242
F0
sS'r'
F13
sg40
S'Durban'
p397
sS'w'
F0
sg42
g43
((I2007
I9
I20
I0
I0
I0
I3
I263
I-1
t(dtRp398
sg37
S'India'
p399
sa(dp400
g36
I1
sS'b'
F18
sS'e'
F10
sg39
I39
sg248
I5
sg242
F0
sS'r'
F30
sg40
S'Durban'
p401
sS'w'
F1
sg42
g43
((I2007
I9
I19
I0
I0
I0
I2
I262
I-1
t(dtRp402
sg37
S'New Zealand'
p403
sa(dp404
g36
I2
sS'b'
F12
sS'e'
F6
sg39
I34
sg248
I6
sg242
F0
sS'r'
F12
sg40
S'Cape Town'
p405
sS'w'
F2
sg42
g43
((I2007
I9
I16
I0
I0
I0
I6
I259
I-1
t(dtRp406
sg37
S'England'
p407
sa(dp408
g36
I1
sS'b'
F12
sS'e'
F3
sg39
I31
sg248
I6
sg242
F0
sS'r'
F6
sg40
S'Cape Town'
p409
sS'w'
F0
sg42
g43
((I2007
I9
I15
I0
I0
I0
I5
I258
I-1
t(dtRp410
sg37
S'Bangladesh'
p411
sa(dp412
g36
I1
sS'b'
F6
sS'e'
F16
sg39
I20
sg248
I6
sg242
F0
sS'r'
F16
sg40
S'Johannesburg'
p413
sS'w'
F0
sg42
g43
((I2007
I9
I11
I0
I0
I0
I1
I254
I-1
t(dtRp414
sg37
S'West Indies'
p415
sa(dp416
g36
I1
sS'b'
F24
sS'e'
F4
sg39
I14
sg248
I5
sg242
F1
sS'r'
F16
sg40
S'Johannesburg'
p417
sS'w'
F1
sg42
g43
((I2007
I2
I2
I0
I0
I0
I4
I33
I-1
t(dtRp418
sg37
S'Pakistan'
p419
sa(dp420
g36
I2
sS'b'
F12
sS'e'
F6
sg39
I10
sg248
I5
sg242
F0
sS'r'
F12
sg40
S'Johannesburg'
p421
sS'w'
F0
sg42
g43
((I2006
I12
I1
I0
I0
I0
I4
I335
I-1
t(dtRp422
sg37
S'India'
p423
sa(dp424
g36
I2
sS'b'
F12
sS'e'
F6.5
sg39
I3
sg248
I6
sg242
F0
sS'r'
F13
sg40
S'Johannesburg'
p425
sS'w'
F0
sg42
g43
((I2005
I10
I21
I0
I0
I0
I4
I294
I-1
t(dtRp426
sg37
S'New Zealand'
p427
satp428
sS'battingStats'
p429
((dp430
S'a'
F21.185185185185187
sS'0s'
p431
F1
sS'b'
F402
sS'no'
p432
F11
sg30
F2005
sS'hs'
p433
F43
sS'm'
F49
sS'4s'
p434
F29
sg33
F2014
sS'i'
F38
sS'6s'
p435
F39
sg240
F142.28855721393035
sS'r'
F572
sS'100s'
p436
F0
sS'50s'
p437
F0
s(lp438
(dp439
g36
I1
sS'b'
F3
sg37
S'England'
p440
sg240
F100
sg39
I391
sS'dismiss'
p441
S'bowled'
p442
sg434
F0
sg248
I6
sg435
F0
sg40
S'Chittagong'
p443
sg42
g43
((I2014
I3
I29
I0
I0
I0
I5
I88
I-1
t(dtRp444
sS'r'
F3
sS'minutes'
p445
F8
sa(dp446
g36
I1
sS'b'
F11
sg37
S'Netherlands'
p447
sg240
F45.454545454545453
sg39
I386
sg441
S'caught'
p448
sg434
F0
sg248
I5
sg435
F0
sg40
S'Chittagong'
p449
sg42
g43
((I2014
I3
I27
I0
I0
I0
I3
I86
I-1
t(dtRp450
sS'r'
F5
sg445
F18
sa(dp451
g36
I1
sS'b'
F8
sg37
S'New Zealand'
p452
sg240
F162.5
sg39
I383
sg441
S'bowled'
p453
sg434
F0
sg248
I7
sg435
F1
sg40
S'Chittagong'
p454
sg42
g43
((I2014
I3
I24
I0
I0
I0
I0
I83
I-1
t(dtRp455
sS'r'
F13
sg445
F11
sa(dp456
g36
I2
sS'b'
F4
sg37
S'Sri Lanka'
p457
sg240
F300
sg39
I379
sg441
S'caught'
p458
sg434
F0
sg248
I6
sg435
F2
sg40
S'Chittagong'
p459
sg42
g43
((I2014
I3
I22
I0
I0
I0
I5
I81
I-1
t(dtRp460
sS'r'
F12
sg445
F5
sa(dp461
g36
I1
sS'b'
F11
sg37
S'Australia'
p462
sg240
F163.63636363636363
sg39
I365
sg441
S'bowled'
p463
sg434
F0
sg248
I7
sg435
F2
sg40
S'Centurion'
p464
sg42
g43
((I2014
I3
I14
I0
I0
I0
I4
I73
I-1
t(dtRp465
sS'r'
F18
sg445
F17
sa(dp466
g36
I2
sS'b'
F6
sg37
S'India'
p467
sg240
F166.66666666666666
sg39
I286
sg441
S'bowled'
p468
sg434
F0
sg248
I8
sg435
F1
sg40
S'Colombo (RPS)'
p469
sg42
g43
((I2012
I10
I2
I0
I0
I0
I1
I276
I-1
t(dtRp470
sS'r'
F10
sg445
F12
sa(dp471
g36
I1
sS'b'
F6
sg37
S'Pakistan'
p472
sg432
I01
sg240
F150
sg39
I277
sg441
S'not out'
p473
sg434
F1
sg248
I7
sg435
F0
sg40
S'Colombo (RPS)'
p474
sg42
g43
((I2012
I9
I28
I0
I0
I0
I4
I272
I-1
t(dtRp475
sS'r'
F9
sg445
F14
sa(dp476
g36
I1
sS'b'
F0
sg37
S'Sri Lanka'
p477
sg432
I01
sg240
F0
sg39
I269
sg441
S'not out'
p478
sg434
F0
sg248
I6
sg435
F0
sg40
S'Hambantota'
p479
sg42
g43
((I2012
I9
I22
I0
I0
I0
I5
I266
I-1
t(dtRp480
sS'r'
F0
sg445
F2
sa(dp481
g36
I2
sS'b'
F14
sg37
S'England'
p482
sg432
I01
sg240
F121.42857142857143
sg39
I262
sg441
S'not out'
p483
sg434
F0
sg248
I5
sg435
F1
sg40
S'Birmingham'
p484
sg42
g43
((I2012
I9
I12
I0
I0
I0
I2
I256
I-1
t(dtRp485
sS'r'
F17
sg445
F24
sa(dp486
g36
I1
sS'b'
F5
sg37
S'England'
p487
sg240
F60
sg39
I260
sg441
S'caught'
p488
sg434
F0
sg248
I4
sg435
F0
sg40
S'Manchester'
p489
sg42
g43
((I2012
I9
I10
I0
I0
I0
I0
I254
I-1
t(dtRp490
sS'r'
F3
sg445
F9
sa(dp491
g36
I1
sS'b'
F3
sg37
S'India'
p492
sg432
I01
sg240
F533.33333333333337
sg39
I242
sg441
S'not out'
p493
sg434
F1
sg248
I6
sg435
F2
sg40
S'Johannesburg'
p494
sg42
g43
((I2012
I3
I30
I0
I0
I0
I4
I90
I-1
t(dtRp495
sS'r'
F16
sg445
F3
sa(dp496
g36
I1
sS'b'
F9
sg37
S'New Zealand'
p497
sg240
F111.11111111111111
sg39
I223
sg441
S'caught'
p498
sg434
F0
sg248
I3
sg435
F1
sg40
S'Auckland'
p499
sg42
g43
((I2012
I2
I22
I0
I0
I0
I2
I53
I-1
t(dtRp500
sS'r'
F10
sg445
F11
sa(dp501
g36
I1
sS'b'
F12
sg37
S'New Zealand'
p502
sg432
I01
sg240
F108.33333333333333
sg39
I221
sg441
S'not out'
p503
sg434
F1
sg248
I7
sg435
F0
sg40
S'Wellington'
p504
sg42
g43
((I2012
I2
I17
I0
I0
I0
I4
I48
I-1
t(dtRp505
sS'r'
F13
sg445
F24
sa(dp506
g36
I2
sS'b'
F7
sg37
S'Pakistan'
p507
sg432
I01
sg240
F100
sg39
I171
sg441
S'not out'
p508
sg434
F0
sg248
I7
sg435
F0
sg40
S'Gros Islet'
p509
sg42
g43
((I2010
I5
I10
I0
I0
I0
I0
I130
I-1
t(dtRp510
sS'r'
F7
sg445
F19
sa(dp511
g36
I2
sS'b'
F2
sg37
S'England'
p512
sg240
F0
sg39
I168
sg441
S'bowled'
p513
sg434
F0
sg248
I5
sg435
F0
sg40
S'Bridgetown'
p514
sg42
g43
((I2010
I5
I8
I0
I0
I0
I5
I128
I-1
t(dtRp515
sS'r'
F0
sg445
F1
sa(dp516
g36
I1
sS'b'
F18
sg37
S'New Zealand'
p517
sg240
F222.22222222222223
sg39
I164
sg441
S'run out'
p518
sg434
F0
sg248
I5
sg435
F5
sg40
S'Bridgetown'
p519
sg42
g43
((I2010
I5
I6
I0
I0
I0
I3
I126
I-1
t(dtRp520
sS'r'
F40
sg445
F23
sa(dp521
g36
I1
sS'b'
F17
sg37
S'Afghanistan'
p522
sg240
F135.29411764705881
sg39
I162
sg441
S'caught'
p523
sg434
F2
sg248
I7
sg435
F1
sg40
S'Bridgetown'
p524
sg42
g43
((I2010
I5
I5
I0
I0
I0
I2
I125
I-1
t(dtRp525
sS'r'
F23
sg445
F20
sa(dp526
g36
I2
sS'b'
F7
sg37
S'India'
p527
sg240
F171.42857142857142
sg39
I155
sg441
S'caught'
p528
sg434
F0
sg248
I5
sg435
F1
sg40
S'Gros Islet'
p529
sg42
g43
((I2010
I5
I2
I0
I0
I0
I6
I122
I-1
t(dtRp530
sS'r'
F12
sg445
F7
sa(dp531
g36
I1
sS'b'
F6
sg37
S'England'
p532
sg240
F233.33333333333334
sg39
I125
sg441
S'caught'
p533
sg434
F2
sg248
I3
sg435
F1
sg40
S'Centurion'
p534
sg42
g43
((I2009
I11
I15
I0
I0
I0
I6
I319
I-1
t(dtRp535
sS'r'
F14
sg445
F6
sa(dp536
g36
I2
sS'b'
F9
sg37
S'England'
p537
sg432
I01
sg240
F100
sg39
I124
sg441
S'not out'
p538
sg434
F0
sg248
I5
sg435
F1
sg40
S'Johannesburg'
p539
sg42
g43
((I2009
I11
I13
I0
I0
I0
I4
I317
I-1
t(dtRp540
sS'r'
F9
sg445
F13
sa(dp541
g36
I2
sS'b'
F4
sg37
S'Pakistan'
p542
sg240
F50
sg39
I114
sg441
S'run out'
p543
sg434
F0
sg248
I6
sg435
F0
sg40
S'Nottingham'
p544
sg42
g43
((I2009
I6
I18
I0
I0
I0
I3
I169
I-1
t(dtRp545
sS'r'
F2
sg445
F13
sa(dp546
g36
I1
sS'b'
F8
sg37
S'India'
p547
sg432
I01
sg240
F100
sg39
I113
sg441
S'not out'
p548
sg434
F1
sg248
I6
sg435
F0
sg40
S'Nottingham'
p549
sg42
g43
((I2009
I6
I16
I0
I0
I0
I1
I167
I-1
t(dtRp550
sS'r'
F8
sg445
F13
sa(dp551
g36
I1
sS'b'
F8
sg37
S'West Indies'
p552
sg240
F125
sg39
I106
sg441
S'bowled'
p553
sg434
F2
sg248
I5
sg435
F0
sg40
S'The Oval'
p554
sg42
g43
((I2009
I6
I13
I0
I0
I0
I5
I164
I-1
t(dtRp555
sS'r'
F10
sg445
F10
sa(dp556
g36
I1
sS'b'
F10
sg37
S'New Zealand'
p557
sg432
I01
sg240
F100
sg39
I99
sg441
S'not out'
p558
sg434
F0
sg248
I8
sg435
F0
sg40
S"Lord's"
p559
sg42
g43
((I2009
I6
I9
I0
I0
I0
I1
I160
I-1
t(dtRp560
sS'r'
F10
sg445
F13
sa(dp561
g36
I1
sS'b'
F11
sg37
S'Scotland'
p562
sg240
F218.18181818181819
sg39
I94
sg441
S'caught'
p563
sg434
F1
sg248
I5
sg435
F2
sg40
S'The Oval'
p564
sg42
g43
((I2009
I6
I7
I0
I0
I0
I6
I158
I-1
t(dtRp565
sS'r'
F24
sg445
F14
sa(dp566
g36
I1
sS'b'
F10
sg37
S'Australia'
p567
sg432
I01
sg240
F140
sg39
I88
sg441
S'not out'
p568
sg434
F1
sg248
I6
sg435
F1
sg40
S'Centurion'
p569
sg42
g43
((I2009
I3
I29
I0
I0
I0
I6
I88
I-1
t(dtRp570
sS'r'
F14
sg445
F24
sa(dp571
g36
I2
sS'b'
F19
sg37
S'Australia'
p572
sg240
F194.73684210526315
sg39
I87
sg441
S'caught'
p573
sg434
F4
sg248
I7
sg435
F2
sg40
S'Johannesburg'
p574
sg42
g43
((I2009
I3
I27
I0
I0
I0
I4
I86
I-1
t(dtRp575
sS'r'
F37
sg445
F27
sa(dp576
g36
I1
sS'b'
F13
sg37
S'Australia'
p577
sg240
F146.15384615384616
sg39
I81
sg441
S'caught'
p578
sg434
F1
sg248
I6
sg435
F1
sg40
S'Brisbane'
p579
sg42
g43
((I2009
I1
I13
I0
I0
I0
I1
I13
I-1
t(dtRp580
sS'r'
F19
sg445
F15
sa(dp581
g36
I2
sS'b'
F8
sg37
S'Australia'
p582
sg240
F150
sg39
I80
sg441
S'caught'
p583
sg434
F1
sg248
I7
sg435
F0
sg40
S'Melbourne'
p584
sg42
g43
((I2009
I1
I11
I0
I0
I0
I6
I11
I-1
t(dtRp585
sS'r'
F12
sg445
F15
sa(dp586
g36
I1
sS'b'
F6
sg37
S'Bangladesh'
p587
sg240
F100
sg39
I77
sg441
S'bowled'
p588
sg434
F0
sg248
I6
sg435
F0
sg40
S'Johannesburg'
p589
sg42
g43
((I2008
I11
I5
I0
I0
I0
I2
I310
I-1
t(dtRp590
sS'r'
F6
sg445
F9
sa(dp591
g36
I2
sS'b'
F16
sg37
S'West Indies'
p592
sg432
I01
sg240
F175
sg39
I51
sg441
S'not out'
p593
sg434
F2
sg248
I8
sg435
F2
sg40
S'Johannesburg'
p594
sg42
g43
((I2008
I1
I18
I0
I0
I0
I4
I18
I-1
t(dtRp595
sS'r'
F28
sg445
F26
sa(dp596
g36
I1
sS'b'
F4
sg37
S'West Indies'
p597
sg240
F25
sg39
I50
sg441
S'run out'
p598
sg434
F0
sg248
I7
sg435
F0
sg40
S'Port Elizabeth'
p599
sg42
g43
((I2007
I12
I16
I0
I0
I0
I6
I350
I-1
t(dtRp600
sS'r'
F1
sg445
F7
sa(dp601
g36
I2
sS'b'
F11
sg37
S'New Zealand'
p602
sg240
F81.818181818181813
sg39
I48
sg441
S'caught'
p603
sg434
F0
sg248
I7
sg435
F1
sg40
S'Johannesburg'
p604
sg42
g43
((I2007
I11
I23
I0
I0
I0
I4
I327
I-1
t(dtRp605
sS'r'
F9
sg445
F12
sa(dp606
g36
I2
sS'b'
F37
sg37
S'India'
p607
sg240
F97.297297297297291
sg39
I43
sg441
S'bowled'
p608
sg434
F2
sg248
I7
sg435
F1
sg40
S'Durban'
p609
sg42
g43
((I2007
I9
I20
I0
I0
I0
I3
I263
I-1
t(dtRp610
sS'r'
F36
sg445
F60
sa(dp611
g36
I1
sS'b'
F20
sg37
S'England'
p612
sg240
F215
sg39
I34
sg441
S'caught'
p613
sg434
F3
sg248
I7
sg435
F4
sg40
S'Cape Town'
p614
sg42
g43
((I2007
I9
I16
I0
I0
I0
I6
I259
I-1
t(dtRp615
sS'r'
F43
sg445
F27
sa(dp616
g36
I2
sS'b'
F29
sg37
S'Bangladesh'
p617
sg240
F141.37931034482759
sg39
I31
sg441
S'caught'
p618
sg434
F3
sg248
I3
sg435
F2
sg40
S'Cape Town'
p619
sg42
g43
((I2007
I9
I15
I0
I0
I0
I5
I258
I-1
t(dtRp620
sS'r'
F41
sg445
F28
sa(dp621
g36
I1
sS'b'
F18
sg37
S'India'
p622
sg240
F150
sg39
I10
sg441
S'caught'
p623
sg434
F1
sg248
I6
sg435
F3
sg40
S'Johannesburg'
p624
sg42
g43
((I2006
I12
I1
I0
I0
I0
I4
I335
I-1
t(dtRp625
sS'r'
F27
sg445
F32
sa(dp626
g36
I1
sS'b'
F12
sg37
S'New Zealand'
p627
sg240
F91.666666666666671
sg39
I3
sg441
S'caught'
p628
sg434
F0
sg248
I8
sg435
F1
sg40
S'Johannesburg'
p629
sg42
g43
((I2005
I10
I21
I0
I0
I0
I4
I294
I-1
t(dtRp630
sS'r'
F11
sg445
F16
satp631
ssS'all'
p632
(dp633
g27
(dp634
S'c'
F51
sg29
F0
sS'i'
F260
sS'm'
F260
sS's'
F0
sg31
F51
sg32
F51
ssg238
(dp635
S'a'
F27.093137254901961
sS'b'
F4271
sS'e'
F7.7644579723718099
sS'i'
F236
sg240
F20.936274509803923
sg241
F0
sS'm'
F260
sg242
F0
sS'r'
F5527
sS'w'
F204
sg243
F3
sg244
F25
sg245
F4
ssg429
(dp636
S'a'
F24.925925925925927
sg431
F-1
sS'b'
F2432
sg432
F74
sS'i'
F209
sg433
F71
sS'm'
F260
sg434
F213
sg435
F195
sg240
F138.36348684210526
sS'r'
F3365
sg436
F0
sg437
F8
ssssb.