(iplayer
Player
p1
(dp2
S'is_batsman'
p3
I00
sS'name'
p4
S'Jimmy Neesham'
p5
sS'dob'
p6
S'1990/09/17'
p7
sS'price'
p8
S'950000'
p9
sS'is_allrounder'
p10
I01
sS'espnid'
p11
S'355269'
p12
sS'is_overseas'
p13
I01
sS'team'
p14
S'DD'
p15
sS'nationality'
p16
S'New Zealander'
p17
sS'is_bowler'
p18
I00
sS'is_keeper'
p19
I00
sS'id'
p20
S'971'
p21
sS'is_uncapped'
p22
I00
sS'tournamentStats'
p23
(dp24
S'international'
p25
(dp26
S'fieldingStats'
p27
((dp28
S'c'
F3
sS'ctw'
p29
F0
sS'i'
F7
sS'm'
F7
sS's'
F0
sS'dismissals'
p30
F3
sS'ctf'
p31
F3
s(lp32
(dp33
S'inning'
p34
I1
sS'c'
F0
sg29
F0
sS'opp'
p35
S'Sri Lanka'
p36
sS't20i_num'
p37
I395
sg31
F0
sg30
F0
sS's'
F0
sS'place'
p38
S'Chittagong'
p39
sS'date'
p40
ctime
struct_time
p41
((I2014
I3
I31
I0
I0
I0
I0
I90
I-1
t(dtRp42
sa(dp43
g34
I1
sS'c'
F0
sg29
F0
sg35
S'Netherlands'
p44
sg37
I390
sg31
F0
sg30
F0
sS's'
F0
sg38
S'Chittagong'
p45
sg40
g41
((I2014
I3
I29
I0
I0
I0
I5
I88
I-1
t(dtRp46
sa(dp47
g34
I1
sS'c'
F1
sg29
F0
sg35
S'West Indies'
p48
sg37
I353
sg31
F1
sg30
F1
sS's'
F0
sg38
S'Wellington'
p49
sg40
g41
((I2014
I1
I15
I0
I0
I0
I2
I15
I-1
t(dtRp50
sa(dp51
g34
I2
sS'c'
F0
sg29
F0
sg35
S'West Indies'
p52
sg37
I352
sg31
F0
sg30
F0
sS's'
F0
sg38
S'Auckland'
p53
sg40
g41
((I2014
I1
I11
I0
I0
I0
I5
I11
I-1
t(dtRp54
sa(dp55
g34
I1
sS'c'
F0
sg29
F0
sg35
S'South Africa'
p56
sg37
I297
sg31
F0
sg30
F0
sS's'
F0
sg38
S'Port Elizabeth'
p57
sg40
g41
((I2012
I12
I26
I0
I0
I0
I2
I361
I-1
t(dtRp58
sa(dp59
g34
I1
sS'c'
F2
sg29
F0
sg35
S'South Africa'
p60
sg37
I295
sg31
F2
sg30
F2
sS's'
F0
sg38
S'East London'
p61
sg40
g41
((I2012
I12
I23
I0
I0
I0
I6
I358
I-1
t(dtRp62
sa(dp63
g34
I2
sS'c'
F0
sg29
F0
sg35
S'South Africa'
p64
sg37
I293
sg31
F0
sg30
F0
sS's'
F0
sg38
S'Durban'
p65
sg40
g41
((I2012
I12
I21
I0
I0
I0
I4
I356
I-1
t(dtRp66
satp67
sS'bowlingStats'
p68
((dp69
S'a'
F20.5
sS'b'
F93
sS'e'
F7.935483870967742
sS'i'
F6
sS'sr'
p70
F15.5
sS'5w'
p71
F0
sS'm'
F7
sS'maid'
p72
F0
sS'r'
F123
sS'w'
F6
sS'4w'
p73
F0
sS'bbir'
p74
F16
sS'bbiw'
p75
F3
s(lp76
(dp77
g34
I1
sS'b'
F14
sS'e'
F9.4285714285714288
sg37
I395
sS'pos'
p78
I5
sg72
F0
sS'r'
F22
sg38
S'Chittagong'
p79
sS'w'
F3
sg40
g41
((I2014
I3
I31
I0
I0
I0
I0
I90
I-1
t(dtRp80
sg35
S'Sri Lanka'
p81
sa(dp82
g34
I1
sS'b'
F12
sS'e'
F4.5
sg37
I390
sg78
I7
sg72
F0
sS'r'
F9
sg38
S'Chittagong'
p83
sS'w'
F0
sg40
g41
((I2014
I3
I29
I0
I0
I0
I5
I88
I-1
t(dtRp84
sg35
S'Netherlands'
p85
sa(dp86
g34
I1
sS'b'
F24
sS'e'
F9.75
sg37
I353
sg78
I3
sg72
F0
sS'r'
F39
sg38
S'Wellington'
p87
sS'w'
F0
sg40
g41
((I2014
I1
I15
I0
I0
I0
I2
I15
I-1
t(dtRp88
sg35
S'West Indies'
p89
sa(dp90
g34
I2
sS'b'
F24
sS'e'
F4
sg37
I352
sg78
I3
sg72
F0
sS'r'
F16
sg38
S'Auckland'
p91
sS'w'
F3
sg40
g41
((I2014
I1
I11
I0
I0
I0
I5
I11
I-1
t(dtRp92
sg35
S'West Indies'
p93
sa(dp94
g34
I1
sS'b'
F18
sS'e'
F11.666666666666666
sg37
I297
sg78
I6
sg72
F0
sS'r'
F35
sg38
S'Port Elizabeth'
p95
sS'w'
F0
sg40
g41
((I2012
I12
I26
I0
I0
I0
I2
I361
I-1
t(dtRp96
sg35
S'South Africa'
p97
sa(dp98
g34
I2
sS'b'
F1
sS'e'
F12
sg37
I293
sg78
I7
sg72
F0
sS'r'
F2
sg38
S'Durban'
p99
sS'w'
F0
sg40
g41
((I2012
I12
I21
I0
I0
I0
I4
I356
I-1
t(dtRp100
sg35
S'South Africa'
p101
satp102
sS'battingStats'
p103
((dp104
S'a'
F14.333333333333334
sS'0s'
p105
F1
sS'b'
F31
sS'no'
p106
F2
sS'i'
F5
sS'hs'
p107
F14
sS'm'
F7
sS'4s'
p108
F6
sS'6s'
p109
F1
sg70
F138.70967741935485
sS'r'
F43
sS'100s'
p110
F0
sS'50s'
p111
F0
s(lp112
(dp113
g34
I2
sS'b'
F1
sg35
S'Sri Lanka'
p114
sg70
F0
sg37
I395
sS'dismiss'
p115
S'bowled'
p116
sg108
F0
sg78
I5
sg109
F0
sg38
S'Chittagong'
p117
sg40
g41
((I2014
I3
I31
I0
I0
I0
I0
I90
I-1
t(dtRp118
sS'r'
F0
sS'minutes'
p119
F1
sa(dp120
g34
I2
sS'b'
F7
sg35
S'Netherlands'
p121
sg106
I01
sg70
F100
sg37
I390
sg115
S'not out'
p122
sg108
F0
sg78
I6
sg109
F0
sg38
S'Chittagong'
p123
sg40
g41
((I2014
I3
I29
I0
I0
I0
I5
I88
I-1
t(dtRp124
sS'r'
F7
sg119
F9
sa(dp125
g34
I2
sS'b'
F6
sg35
S'West Indies'
p126
sg106
I01
sg70
F233.33333333333334
sg37
I353
sg115
S'not out'
p127
sg108
F2
sg78
I8
sg109
F1
sg38
S'Wellington'
p128
sg40
g41
((I2014
I1
I15
I0
I0
I0
I2
I15
I-1
t(dtRp129
sS'r'
F14
sg119
F6
sa(dp130
g34
I2
sS'b'
F10
sg35
S'South Africa'
p131
sg70
F120
sg37
I297
sg115
S'caught'
p132
sg108
F2
sg78
I6
sg109
F0
sg38
S'Port Elizabeth'
p133
sg40
g41
((I2012
I12
I26
I0
I0
I0
I2
I361
I-1
t(dtRp134
sS'r'
F12
sg119
F15
sa(dp135
g34
I1
sS'b'
F7
sg35
S'South Africa'
p136
sg70
F142.85714285714286
sg37
I293
sg115
S'bowled'
p137
sg108
F2
sg78
I8
sg109
F0
sg38
S'Durban'
p138
sg40
g41
((I2012
I12
I21
I0
I0
I0
I4
I356
I-1
t(dtRp139
sS'r'
F10
sg119
F8
satp140
ssS'all'
p141
(dp142
g27
(dp143
S'c'
F8
sg29
F0
sS'i'
F31
sS'm'
F31
sS's'
F0
sg30
F8
sg31
F8
ssg68
(dp144
S'a'
F23.53846153846154
sS'b'
F447
sS'e'
F8.2147651006711406
sS'i'
F27
sg70
F17.192307692307693
sg71
F0
sS'm'
F31
sg72
F0
sS'r'
F612
sS'w'
F26
sg73
F0
sg74
F16
sg75
F3
ssg103
(dp145
S'a'
F34.769230769230766
sg105
F-1
sS'b'
F283
sg106
F10
sS'i'
F23
sg107
F59
sS'm'
F31
sg108
F36
sg109
F23
sg70
F159.71731448763251
sS'r'
F452
sg110
F0
sg111
F2
ssssb.