(iplayer
Player
p1
(dp2
S'is_batsman'
p3
I00
sS'name'
p4
S'Harbhajan Singh'
p5
sS'dob'
p6
S'1980/07/03'
p7
sS'price'
p8
S'950000'
p9
sS'is_allrounder'
p10
I01
sS'espnid'
p11
S'29264'
p12
sS'is_overseas'
p13
I00
sS'team'
p14
S'MI'
p15
sS'nationality'
p16
S'Indian'
p17
sS'is_bowler'
p18
I01
sS'is_keeper'
p19
I00
sS'id'
p20
S'103'
p21
sS'is_uncapped'
p22
I00
sS'tournamentStats'
p23
(dp24
S'international'
p25
(dp26
S'fieldingStats'
p27
((dp28
S'c'
F6
sS'ctw'
p29
F0
sS'span_s'
p30
F2006
sS'm'
F25
sS's'
F0
sS'dismissals'
p31
F6
sS'i'
F24
sS'ctf'
p32
F6
sS'span_f'
p33
F2012
s(lp34
(dp35
S'inning'
p36
I2
sS'c'
F0
sg29
F0
sS'opp'
p37
S'Australia'
p38
sS't20i_num'
p39
I278
sg32
F0
sg31
F0
sS's'
F0
sS'place'
p40
S'Colombo (RPS)'
p41
sS'date'
p42
ctime
struct_time
p43
((I2012
I9
I28
I0
I0
I0
I4
I272
I-1
t(dtRp44
sa(dp45
g36
I2
sS'c'
F0
sg29
F0
sg37
S'England'
p46
sg39
I272
sg32
F0
sg31
F0
sS's'
F0
sg40
S'Colombo (RPS)'
p47
sg42
g43
((I2012
I9
I23
I0
I0
I0
I6
I267
I-1
t(dtRp48
sa(dp49
g36
I2
sS'c'
F0
sg29
F0
sg37
S'West Indies'
p50
sg39
I200
sg32
F0
sg31
F0
sS's'
F0
sg40
S'Port of Spain'
p51
sg42
g43
((I2011
I6
I4
I0
I0
I0
I5
I155
I-1
t(dtRp52
sa(dp53
g36
I2
sS'c'
F0
sg29
F0
sg37
S'Sri Lanka'
p54
sg39
I173
sg32
F0
sg31
F0
sS's'
F0
sg40
S'Gros Islet'
p55
sg42
g43
((I2010
I5
I11
I0
I0
I0
I1
I131
I-1
t(dtRp56
sa(dp57
g36
I1
sS'c'
F0
sg29
F0
sg37
S'West Indies'
p58
sg39
I169
sg32
F0
sg31
F0
sS's'
F0
sg40
S'Bridgetown'
p59
sg42
g43
((I2010
I5
I9
I0
I0
I0
I6
I129
I-1
t(dtRp60
sa(dp61
g36
I1
sS'c'
F0
sg29
F0
sg37
S'Australia'
p62
sg39
I165
sg32
F0
sg31
F0
sS's'
F0
sg40
S'Bridgetown'
p63
sg42
g43
((I2010
I5
I7
I0
I0
I0
I4
I127
I-1
t(dtRp64
sa(dp65
g36
I2
sS'c'
F1
sg29
F0
sg37
S'South Africa'
p66
sg39
I155
sg32
F1
sg31
F1
sS's'
F0
sg40
S'Gros Islet'
p67
sg42
g43
((I2010
I5
I2
I0
I0
I0
I6
I122
I-1
t(dtRp68
sa(dp69
g36
I1
sS'c'
F0
sg29
F0
sg37
S'Afghanistan'
p70
sg39
I153
sg32
F0
sg31
F0
sS's'
F0
sg40
S'Gros Islet'
p71
sg42
g43
((I2010
I5
I1
I0
I0
I0
I5
I121
I-1
t(dtRp72
sa(dp73
g36
I1
sS'c'
F0
sg29
F0
sg37
S'South Africa'
p74
sg39
I113
sg32
F0
sg31
F0
sS's'
F0
sg40
S'Nottingham'
p75
sg42
g43
((I2009
I6
I16
I0
I0
I0
I1
I167
I-1
t(dtRp76
sa(dp77
g36
I1
sS'c'
F1
sg29
F0
sg37
S'England'
p78
sg39
I109
sg32
F1
sg31
F1
sS's'
F0
sg40
S"Lord's"
p79
sg42
g43
((I2009
I6
I14
I0
I0
I0
I6
I165
I-1
t(dtRp80
sa(dp81
g36
I2
sS'c'
F0
sg29
F0
sg37
S'West Indies'
p82
sg39
I105
sg32
F0
sg31
F0
sS's'
F0
sg40
S"Lord's"
p83
sg42
g43
((I2009
I6
I12
I0
I0
I0
I4
I163
I-1
t(dtRp84
sa(dp85
g36
I1
sS'c'
F0
sg29
F0
sg37
S'Ireland'
p86
sg39
I101
sg32
F0
sg31
F0
sS's'
F0
sg40
S'Nottingham'
p87
sg42
g43
((I2009
I6
I10
I0
I0
I0
I2
I161
I-1
t(dtRp88
sa(dp89
g36
I2
sS'c'
F1
sg29
F0
sg37
S'Bangladesh'
p90
sg39
I93
sg32
F1
sg31
F1
sS's'
F0
sg40
S'Nottingham'
p91
sg42
g43
((I2009
I6
I6
I0
I0
I0
I5
I157
I-1
t(dtRp92
sa(dp93
g36
I2
sS'c'
F0
sg29
F0
sg37
S'New Zealand'
p94
sg39
I85
sg32
F0
sg31
F0
sS's'
F0
sg40
S'Wellington'
p95
sg42
g43
((I2009
I2
I27
I0
I0
I0
I4
I58
I-1
t(dtRp96
sa(dp97
g36
I2
sS'c'
F0
sg29
F0
sg37
S'New Zealand'
p98
sg39
I84
sg32
F0
sg31
F0
sS's'
F0
sg40
S'Christchurch'
p99
sg42
g43
((I2009
I2
I25
I0
I0
I0
I2
I56
I-1
t(dtRp100
sa(dp101
g36
I2
sS'c'
F0
sg29
F0
sg37
S'Australia'
p102
sg39
I52
sg32
F0
sg31
F0
sS's'
F0
sg40
S'Melbourne'
p103
sg42
g43
((I2008
I2
I1
I0
I0
I0
I4
I32
I-1
t(dtRp104
sa(dp105
g36
I1
sS'c'
F0
sg29
F0
sg37
S'Australia'
p106
sg39
I47
sg32
F0
sg31
F0
sS's'
F0
sg40
S'Mumbai (BS)'
p107
sg42
g43
((I2007
I10
I20
I0
I0
I0
I5
I293
I-1
t(dtRp108
sa(dp109
g36
I2
sS'c'
F0
sg29
F0
sg37
S'Pakistan'
p110
sg39
I46
sg32
F0
sg31
F0
sS's'
F0
sg40
S'Johannesburg'
p111
sg42
g43
((I2007
I9
I24
I0
I0
I0
I0
I267
I-1
t(dtRp112
sa(dp113
g36
I2
sS'c'
F0
sg29
F0
sg37
S'Australia'
p114
sg39
I45
sg32
F0
sg31
F0
sS's'
F0
sg40
S'Durban'
p115
sg42
g43
((I2007
I9
I22
I0
I0
I0
I5
I265
I-1
t(dtRp116
sa(dp117
g36
I2
sS'c'
F0
sg29
F0
sg37
S'South Africa'
p118
sg39
I43
sg32
F0
sg31
F0
sS's'
F0
sg40
S'Durban'
p119
sg42
g43
((I2007
I9
I20
I0
I0
I0
I3
I263
I-1
t(dtRp120
sa(dp121
g36
I2
sS'c'
F2
sg29
F0
sg37
S'England'
p122
sg39
I40
sg32
F2
sg31
F2
sS's'
F0
sg40
S'Durban'
p123
sg42
g43
((I2007
I9
I19
I0
I0
I0
I2
I262
I-1
t(dtRp124
sa(dp125
g36
I1
sS'c'
F0
sg29
F0
sg37
S'New Zealand'
p126
sg39
I32
sg32
F0
sg31
F0
sS's'
F0
sg40
S'Johannesburg'
p127
sg42
g43
((I2007
I9
I16
I0
I0
I0
I6
I259
I-1
t(dtRp128
sa(dp129
g36
I2
sS'c'
F1
sg29
F0
sg37
S'Pakistan'
p130
sg39
I29
sg32
F1
sg31
F1
sS's'
F0
sg40
S'Durban'
p131
sg42
g43
((I2007
I9
I14
I0
I0
I0
I4
I257
I-1
t(dtRp132
sa(dp133
g36
I1
sS'c'
F0
sg29
F0
sg37
S'South Africa'
p134
sg39
I10
sg32
F0
sg31
F0
sS's'
F0
sg40
S'Johannesburg'
p135
sg42
g43
((I2006
I12
I1
I0
I0
I0
I4
I335
I-1
t(dtRp136
satp137
sS'bowlingStats'
p138
((dp139
S'a'
F26.045454545454547
sS'b'
F540
sS'e'
F6.3666666666666663
sS'i'
F24
sS'sr'
p140
F24.545454545454547
sS'5w'
p141
F0
sS'm'
F25
sS'maid'
p142
F4
sS'r'
F573
sS'w'
F22
sS'4w'
p143
F1
sS'bbir'
p144
F12
sS'bbiw'
p145
F4
sg33
F2012
sg30
F2006
s(lp146
(dp147
g36
I2
sS'b'
F12
sS'e'
F10
sg39
I278
sS'pos'
p148
I3
sg142
F0
sS'r'
F20
sg40
S'Colombo (RPS)'
p149
sS'w'
F0
sg42
g43
((I2012
I9
I28
I0
I0
I0
I4
I272
I-1
t(dtRp150
sg37
S'Australia'
p151
sa(dp152
g36
I2
sS'b'
F24
sS'e'
F3
sg39
I272
sg148
I4
sg142
F2
sS'r'
F12
sg40
S'Colombo (RPS)'
p153
sS'w'
F4
sg42
g43
((I2012
I9
I23
I0
I0
I0
I6
I267
I-1
t(dtRp154
sg37
S'England'
p155
sa(dp156
g36
I2
sS'b'
F24
sS'e'
F6.25
sg39
I200
sg148
I2
sg142
F0
sS'r'
F25
sg40
S'Port of Spain'
p157
sS'w'
F2
sg42
g43
((I2011
I6
I4
I0
I0
I0
I5
I155
I-1
t(dtRp158
sg37
S'West Indies'
p159
sa(dp160
g36
I2
sS'b'
F24
sS'e'
F8.75
sg39
I173
sg148
I3
sg142
F0
sS'r'
F35
sg40
S'Gros Islet'
p161
sS'w'
F0
sg42
g43
((I2010
I5
I11
I0
I0
I0
I1
I131
I-1
t(dtRp162
sg37
S'Sri Lanka'
p163
sa(dp164
g36
I1
sS'b'
F24
sS'e'
F4
sg39
I169
sg148
I1
sg142
F0
sS'r'
F16
sg40
S'Bridgetown'
p165
sS'w'
F0
sg42
g43
((I2010
I5
I9
I0
I0
I0
I6
I129
I-1
t(dtRp166
sg37
S'West Indies'
p167
sa(dp168
g36
I1
sS'b'
F24
sS'e'
F3.75
sg39
I165
sg148
I1
sg142
F1
sS'r'
F15
sg40
S'Bridgetown'
p169
sS'w'
F0
sg42
g43
((I2010
I5
I7
I0
I0
I0
I4
I127
I-1
t(dtRp170
sg37
S'Australia'
p171
sa(dp172
g36
I2
sS'b'
F24
sS'e'
F8.25
sg39
I155
sg148
I1
sg142
F0
sS'r'
F33
sg40
S'Gros Islet'
p173
sS'w'
F0
sg42
g43
((I2010
I5
I2
I0
I0
I0
I6
I122
I-1
t(dtRp174
sg37
S'South Africa'
p175
sa(dp176
g36
I1
sS'b'
F24
sS'e'
F6
sg39
I153
sg148
I6
sg142
F0
sS'r'
F24
sg40
S'Gros Islet'
p177
sS'w'
F0
sg42
g43
((I2010
I5
I1
I0
I0
I0
I5
I121
I-1
t(dtRp178
sg37
S'Afghanistan'
p179
sa(dp180
g36
I1
sS'b'
F24
sS'e'
F5
sg39
I113
sg148
I7
sg142
F0
sS'r'
F20
sg40
S'Nottingham'
p181
sS'w'
F1
sg42
g43
((I2009
I6
I16
I0
I0
I0
I1
I167
I-1
t(dtRp182
sg37
S'South Africa'
p183
sa(dp184
g36
I1
sS'b'
F24
sS'e'
F7.5
sg39
I109
sg148
I5
sg142
F0
sS'r'
F30
sg40
S"Lord's"
p185
sS'w'
F3
sg42
g43
((I2009
I6
I14
I0
I0
I0
I6
I165
I-1
t(dtRp186
sg37
S'England'
p187
sa(dp188
g36
I2
sS'b'
F24
sS'e'
F7.75
sg39
I105
sg148
I4
sg142
F1
sS'r'
F31
sg40
S"Lord's"
p189
sS'w'
F0
sg42
g43
((I2009
I6
I12
I0
I0
I0
I4
I163
I-1
t(dtRp190
sg37
S'West Indies'
p191
sa(dp192
g36
I1
sS'b'
F24
sS'e'
F6.25
sg39
I101
sg148
I6
sg142
F0
sS'r'
F25
sg40
S'Nottingham'
p193
sS'w'
F1
sg42
g43
((I2009
I6
I10
I0
I0
I0
I2
I161
I-1
t(dtRp194
sg37
S'Ireland'
p195
sa(dp196
g36
I2
sS'b'
F24
sS'e'
F6.25
sg39
I93
sg148
I5
sg142
F0
sS'r'
F25
sg40
S'Nottingham'
p197
sS'w'
F0
sg42
g43
((I2009
I6
I6
I0
I0
I0
I5
I157
I-1
t(dtRp198
sg37
S'Bangladesh'
p199
sa(dp200
g36
I2
sS'b'
F24
sS'e'
F3.75
sg39
I85
sg148
I4
sg142
F0
sS'r'
F15
sg40
S'Wellington'
p201
sS'w'
F1
sg42
g43
((I2009
I2
I27
I0
I0
I0
I4
I58
I-1
t(dtRp202
sg37
S'New Zealand'
p203
sa(dp204
g36
I2
sS'b'
F24
sS'e'
F4.75
sg39
I84
sg148
I4
sg142
F0
sS'r'
F19
sg40
S'Christchurch'
p205
sS'w'
F1
sg42
g43
((I2009
I2
I25
I0
I0
I0
I2
I56
I-1
t(dtRp206
sg37
S'New Zealand'
p207
sa(dp208
g36
I2
sS'b'
F12
sS'e'
F3.5
sg39
I52
sg148
I5
sg142
F0
sS'r'
F7
sg40
S'Melbourne'
p209
sS'w'
F0
sg42
g43
((I2008
I2
I1
I0
I0
I0
I4
I32
I-1
t(dtRp210
sg37
S'Australia'
p211
sa(dp212
g36
I1
sS'b'
F24
sS'e'
F4.25
sg39
I47
sg148
I4
sg142
F0
sS'r'
F17
sg40
S'Mumbai (BS)'
p213
sS'w'
F1
sg42
g43
((I2007
I10
I20
I0
I0
I0
I5
I293
I-1
t(dtRp214
sg37
S'Australia'
p215
sa(dp216
g36
I2
sS'b'
F18
sS'e'
F12
sg39
I46
sg148
I6
sg142
F0
sS'r'
F36
sg40
S'Johannesburg'
p217
sS'w'
F0
sg42
g43
((I2007
I9
I24
I0
I0
I0
I0
I267
I-1
t(dtRp218
sg37
S'Pakistan'
p219
sa(dp220
g36
I2
sS'b'
F24
sS'e'
F6
sg39
I45
sg148
I5
sg142
F0
sS'r'
F24
sg40
S'Durban'
p221
sS'w'
F1
sg42
g43
((I2007
I9
I22
I0
I0
I0
I5
I265
I-1
t(dtRp222
sg37
S'Australia'
p223
sa(dp224
g36
I2
sS'b'
F24
sS'e'
F7.75
sg39
I43
sg148
I5
sg142
F0
sS'r'
F31
sg40
S'Durban'
p225
sS'w'
F2
sg42
g43
((I2007
I9
I20
I0
I0
I0
I3
I263
I-1
t(dtRp226
sg37
S'South Africa'
p227
sa(dp228
g36
I2
sS'b'
F24
sS'e'
F8.75
sg39
I40
sg148
I5
sg142
F0
sS'r'
F35
sg40
S'Durban'
p229
sS'w'
F1
sg42
g43
((I2007
I9
I19
I0
I0
I0
I2
I262
I-1
t(dtRp230
sg37
S'England'
p231
sa(dp232
g36
I1
sS'b'
F24
sS'e'
F6
sg39
I32
sg148
I5
sg142
F0
sS'r'
F24
sg40
S'Johannesburg'
p233
sS'w'
F2
sg42
g43
((I2007
I9
I16
I0
I0
I0
I6
I259
I-1
t(dtRp234
sg37
S'New Zealand'
p235
sa(dp236
g36
I2
sS'b'
F24
sS'e'
F8
sg39
I29
sg148
I5
sg142
F0
sS'r'
F32
sg40
S'Durban'
p237
sS'w'
F1
sg42
g43
((I2007
I9
I14
I0
I0
I0
I4
I257
I-1
t(dtRp238
sg37
S'Pakistan'
p239
sa(dp240
g36
I1
sS'b'
F18
sS'e'
F7.333333333333333
sg39
I10
sg148
I6
sg142
F0
sS'r'
F22
sg40
S'Johannesburg'
p241
sS'w'
F1
sg42
g43
((I2006
I12
I1
I0
I0
I0
I4
I335
I-1
t(dtRp242
sg37
S'South Africa'
p243
satp244
sS'battingStats'
p245
((dp246
S'a'
F14.285714285714286
sS'0s'
p247
F0
sS'b'
F83
sS'no'
p248
F4
sg30
F2006
sS'hs'
p249
F21
sS'm'
F25
sS'4s'
p250
F10
sg33
F2012
sS'i'
F11
sS'6s'
p251
F4
sg140
F120.48192771084338
sS'r'
F100
sS'100s'
p252
F0
sS'50s'
p253
F0
s(lp254
(dp255
g36
I1
sS'b'
F1
sg37
S'Australia'
p256
sg248
I01
sg140
F100
sg39
I278
sS'dismiss'
p257
S'not out'
p258
sg250
F0
sg148
I9
sg251
F0
sg40
S'Colombo (RPS)'
p259
sg42
g43
((I2012
I9
I28
I0
I0
I0
I4
I272
I-1
t(dtRp260
sS'r'
F1
sS'minutes'
p261
F2
sa(dp262
g36
I1
sS'b'
F7
sg37
S'West Indies'
p263
sg248
I01
sg140
F214.28571428571428
sg39
I200
sg257
S'not out'
p264
sg250
F1
sg148
I8
sg251
F1
sg40
S'Port of Spain'
p265
sg42
g43
((I2011
I6
I4
I0
I0
I0
I5
I155
I-1
t(dtRp266
sS'r'
F15
sg261
F5
sa(dp267
g36
I2
sS'b'
F10
sg37
S'West Indies'
p268
sg140
F140
sg39
I169
sg257
S'caught'
p269
sg250
F1
sg148
I8
sg251
F1
sg40
S'Bridgetown'
p270
sg42
g43
((I2010
I5
I9
I0
I0
I0
I6
I129
I-1
t(dtRp271
sS'r'
F14
sg261
F18
sa(dp272
g36
I2
sS'b'
F11
sg37
S'Australia'
p273
sg140
F118.18181818181819
sg39
I165
sg257
S'caught'
p274
sg250
F1
sg148
I9
sg251
F1
sg40
S'Bridgetown'
p275
sg42
g43
((I2010
I5
I7
I0
I0
I0
I4
I127
I-1
t(dtRp276
sS'r'
F13
sg261
F15
sa(dp277
g36
I1
sS'b'
F0
sg37
S'South Africa'
p278
sg248
I01
sg140
F0
sg39
I155
sg257
S'not out'
p279
sg250
F0
sg148
I7
sg251
F0
sg40
S'Gros Islet'
p280
sg42
g43
((I2010
I5
I2
I0
I0
I0
I6
I122
I-1
t(dtRp281
sS'r'
F0
sg261
F1
sa(dp282
g36
I2
sS'b'
F15
sg37
S'South Africa'
p283
sg140
F93.333333333333329
sg39
I113
sg257
S'caught'
p284
sg250
F1
sg148
I7
sg251
F1
sg40
S'Nottingham'
p285
sg42
g43
((I2009
I6
I16
I0
I0
I0
I1
I167
I-1
t(dtRp286
sS'r'
F14
sg261
F18
sa(dp287
g36
I1
sS'b'
F4
sg37
S'West Indies'
p288
sg248
I01
sg140
F325
sg39
I105
sg257
S'not out'
p289
sg250
F3
sg148
I8
sg251
F0
sg40
S"Lord's"
p290
sg42
g43
((I2009
I6
I12
I0
I0
I0
I4
I163
I-1
t(dtRp291
sS'r'
F13
sg261
F3
sa(dp292
g36
I1
sS'b'
F22
sg37
S'New Zealand'
p293
sg140
F95.454545454545453
sg39
I84
sg257
S'bowled'
p294
sg250
F2
sg148
I9
sg251
F0
sg40
S'Christchurch'
p295
sg42
g43
((I2009
I2
I25
I0
I0
I0
I2
I56
I-1
t(dtRp296
sS'r'
F21
sg261
F25
sa(dp297
g36
I1
sS'b'
F3
sg37
S'Australia'
p298
sg140
F33.333333333333336
sg39
I52
sg257
S'caught'
p299
sg250
F0
sg148
I9
sg251
F0
sg40
S'Melbourne'
p300
sg42
g43
((I2008
I2
I1
I0
I0
I0
I4
I32
I-1
t(dtRp301
sS'r'
F1
sg261
F5
sa(dp302
g36
I2
sS'b'
F6
sg37
S'New Zealand'
p303
sg140
F116.66666666666667
sg39
I32
sg257
S'caught'
p304
sg250
F1
sg148
I9
sg251
F0
sg40
S'Johannesburg'
p305
sg42
g43
((I2007
I9
I16
I0
I0
I0
I6
I259
I-1
t(dtRp306
sS'r'
F7
sg261
F7
sa(dp307
g36
I1
sS'b'
F4
sg37
S'Pakistan'
p308
sg140
F25
sg39
I29
sg257
S'bowled'
p309
sg250
F0
sg148
I8
sg251
F0
sg40
S'Durban'
p310
sg42
g43
((I2007
I9
I14
I0
I0
I0
I4
I257
I-1
t(dtRp311
sS'r'
F1
sg261
F4
satp312
ssS'all'
p313
(dp314
g27
(dp315
S'c'
F45
sg29
F0
sS'i'
F150
sS'm'
F150
sS's'
F0
sg31
F45
sg32
F45
ssg138
(dp316
S'a'
F25.363636363636363
sS'b'
F3024
sS'e'
F6.6428571428571432
sS'i'
F141
sg140
F22.90909090909091
sg141
F1
sS'm'
F150
sg142
F0
sS'r'
F3348
sS'w'
F132
sg143
F3
sg144
F18
sg145
F5
ssg245
(dp317
S'a'
F17.807017543859651
sg247
F-1
sS'b'
F709
sg248
F34
sS'i'
F91
sg249
F78
sS'm'
F150
sg250
F100
sg251
F49
sg140
F143.15937940761637
sS'r'
F1015
sg252
F0
sg253
F1
ssssb.