(iplayer
Player
p1
(dp2
S'is_batsman'
p3
I00
sS'name'
p4
S'Ashok Dinda'
p5
sS'dob'
p6
S'1984/03/25'
p7
sS'price'
p8
S'850000'
p9
sS'is_allrounder'
p10
I00
sS'espnid'
p11
S'227712'
p12
sS'is_overseas'
p13
I00
sS'team'
p14
S'RCB'
p15
sS'nationality'
p16
S'Indian'
p17
sS'is_bowler'
p18
I01
sS'is_keeper'
p19
I00
sS'id'
p20
S'48'
p21
sS'is_uncapped'
p22
I00
sS'tournamentStats'
p23
(dp24
S'international'
p25
(dp26
S'fieldingStats'
p27
((dp28
S'c'
F1
sS'ctw'
p29
F0
sS'span_s'
p30
F2009
sS'm'
F9
sS's'
F0
sS'dismissals'
p31
F1
sS'i'
F9
sS'ctf'
p32
F1
sS'span_f'
p33
F2012
s(lp34
(dp35
S'inning'
p36
I2
sS'c'
F0
sg29
F0
sS'opp'
p37
S'Pakistan'
p38
sS't20i_num'
p39
I298
sg32
F0
sg31
F0
sS's'
F0
sS'place'
p40
S'Ahmedabad'
p41
sS'date'
p42
ctime
struct_time
p43
((I2012
I12
I28
I0
I0
I0
I4
I363
I-1
t(dtRp44
sa(dp45
g36
I2
sS'c'
F0
sg29
F0
sg37
S'Pakistan'
p46
sg39
I296
sg32
F0
sg31
F0
sS's'
F0
sg40
S'Bangalore'
p47
sg42
g43
((I2012
I12
I25
I0
I0
I0
I1
I360
I-1
t(dtRp48
sa(dp49
g36
I2
sS'c'
F1
sg29
F0
sg37
S'England'
p50
sg39
I294
sg32
F1
sg31
F1
sS's'
F0
sg40
S'Mumbai'
p51
sg42
g43
((I2012
I12
I22
I0
I0
I0
I5
I357
I-1
t(dtRp52
sa(dp53
g36
I1
sS'c'
F0
sg29
F0
sg37
S'England'
p54
sg39
I292
sg32
F0
sg31
F0
sS's'
F0
sg40
S'Pune'
p55
sg42
g43
((I2012
I12
I20
I0
I0
I0
I3
I355
I-1
t(dtRp56
sa(dp57
g36
I2
sS'c'
F0
sg29
F0
sg37
S'England'
p58
sg39
I272
sg32
F0
sg31
F0
sS's'
F0
sg40
S'Colombo (RPS)'
p59
sg42
g43
((I2012
I9
I23
I0
I0
I0
I6
I267
I-1
t(dtRp60
sa(dp61
g36
I2
sS'c'
F0
sg29
F0
sg37
S'Sri Lanka'
p62
sg39
I255
sg32
F0
sg31
F0
sS's'
F0
sg40
S'Pallekele'
p63
sg42
g43
((I2012
I8
I7
I0
I0
I0
I1
I220
I-1
t(dtRp64
sa(dp65
g36
I1
sS'c'
F0
sg29
F0
sg37
S'Zimbabwe'
p66
sg39
I183
sg32
F0
sg31
F0
sS's'
F0
sg40
S'Harare'
p67
sg42
g43
((I2010
I6
I13
I0
I0
I0
I6
I164
I-1
t(dtRp68
sa(dp69
g36
I1
sS'c'
F0
sg29
F0
sg37
S'Zimbabwe'
p70
sg39
I182
sg32
F0
sg31
F0
sS's'
F0
sg40
S'Harare'
p71
sg42
g43
((I2010
I6
I12
I0
I0
I0
I5
I163
I-1
t(dtRp72
sa(dp73
g36
I1
sS'c'
F0
sg29
F0
sg37
S'Sri Lanka'
p74
sg39
I126
sg32
F0
sg31
F0
sS's'
F0
sg40
S'Nagpur'
p75
sg42
g43
((I2009
I12
I9
I0
I0
I0
I2
I343
I-1
t(dtRp76
satp77
sS'bowlingStats'
p78
((dp79
S'a'
F14.411764705882353
sS'b'
F180
sS'e'
F8.1666666666666661
sS'i'
F9
sS'sr'
p80
F10.588235294117647
sS'5w'
p81
F0
sS'm'
F9
sS'maid'
p82
F1
sS'r'
F245
sS'w'
F17
sS'4w'
p83
F1
sS'bbir'
p84
F19
sS'bbiw'
p85
F4
sg33
F2012
sg30
F2009
s(lp86
(dp87
g36
I2
sS'b'
F24
sS'e'
F9
sg39
I298
sS'pos'
p88
I3
sg82
F0
sS'r'
F36
sg40
S'Ahmedabad'
p89
sS'w'
F3
sg42
g43
((I2012
I12
I28
I0
I0
I0
I4
I363
I-1
t(dtRp90
sg37
S'Pakistan'
p91
sa(dp92
g36
I2
sS'b'
F24
sS'e'
F6.5
sg39
I296
sg88
I2
sg82
F0
sS'r'
F26
sg40
S'Bangalore'
p93
sS'w'
F1
sg42
g43
((I2012
I12
I25
I0
I0
I0
I1
I360
I-1
t(dtRp94
sg37
S'Pakistan'
p95
sa(dp96
g36
I2
sS'b'
F24
sS'e'
F11
sg39
I294
sg88
I1
sg82
F0
sS'r'
F44
sg40
S'Mumbai'
p97
sS'w'
F1
sg42
g43
((I2012
I12
I22
I0
I0
I0
I5
I357
I-1
t(dtRp98
sg37
S'England'
p99
sa(dp100
g36
I1
sS'b'
F18
sS'e'
F6
sg39
I292
sg88
I1
sg82
F0
sS'r'
F18
sg40
S'Pune'
p101
sS'w'
F2
sg42
g43
((I2012
I12
I20
I0
I0
I0
I3
I355
I-1
t(dtRp102
sg37
S'England'
p103
sa(dp104
g36
I2
sS'b'
F12
sS'e'
F13
sg39
I272
sg88
I3
sg82
F0
sS'r'
F26
sg40
S'Colombo (RPS)'
p105
sS'w'
F1
sg42
g43
((I2012
I9
I23
I0
I0
I0
I6
I267
I-1
t(dtRp106
sg37
S'England'
p107
sa(dp108
g36
I2
sS'b'
F18
sS'e'
F6.333333333333333
sg39
I255
sg88
I3
sg82
F1
sS'r'
F19
sg40
S'Pallekele'
p109
sS'w'
F4
sg42
g43
((I2012
I8
I7
I0
I0
I0
I1
I220
I-1
t(dtRp110
sg37
S'Sri Lanka'
p111
sa(dp112
g36
I1
sS'b'
F24
sS'e'
F3.75
sg39
I183
sg88
I1
sg82
F0
sS'r'
F15
sg40
S'Harare'
p113
sS'w'
F2
sg42
g43
((I2010
I6
I13
I0
I0
I0
I6
I164
I-1
t(dtRp114
sg37
S'Zimbabwe'
p115
sa(dp116
g36
I1
sS'b'
F18
sS'e'
F9
sg39
I182
sg88
I2
sg82
F0
sS'r'
F27
sg40
S'Harare'
p117
sS'w'
F2
sg42
g43
((I2010
I6
I12
I0
I0
I0
I5
I163
I-1
t(dtRp118
sg37
S'Zimbabwe'
p119
sa(dp120
g36
I1
sS'b'
F18
sS'e'
F11.333333333333334
sg39
I126
sg88
I3
sg82
F0
sS'r'
F34
sg40
S'Nagpur'
p121
sS'w'
F1
sg42
g43
((I2009
I12
I9
I0
I0
I0
I2
I343
I-1
t(dtRp122
sg37
S'Sri Lanka'
p123
satp124
sS'battingStats'
p125
((dp126
S'a'
F22
sS'0s'
p127
F0
sS'b'
F24
sS'no'
p128
F1
sg30
F2009
sS'hs'
p129
F19
sS'm'
F9
sS'4s'
p130
F1
sg33
F2012
sS'i'
F2
sS'6s'
p131
F0
sg80
F91.666666666666671
sS'r'
F22
sS'100s'
p132
F0
sS'50s'
p133
F0
s(lp134
(dp135
g36
I1
sS'b'
F4
sg37
S'Pakistan'
p136
sg128
I01
sg80
F75
sg39
I296
sS'dismiss'
p137
S'not out'
p138
sg130
F0
sg88
I11
sg131
F0
sg40
S'Bangalore'
p139
sg42
g43
((I2012
I12
I25
I0
I0
I0
I1
I360
I-1
t(dtRp140
sS'r'
F3
sS'minutes'
p141
F8
sa(dp142
g36
I2
sS'b'
F20
sg37
S'Sri Lanka'
p143
sg80
F95
sg39
I126
sg137
S'bowled'
p144
sg130
F1
sg88
I8
sg131
F0
sg40
S'Nagpur'
p145
sg42
g43
((I2009
I12
I9
I0
I0
I0
I2
I343
I-1
t(dtRp146
sS'r'
F19
sg141
F-1
satp147
ssS'all'
p148
(dp149
g27
(dp150
S'c'
F14
sg29
F0
sS'i'
F86
sS'm'
F86
sS's'
F0
sg31
F14
sg32
F14
ssg78
(dp151
S'a'
F21.773195876288661
sS'b'
F1706
sS'e'
F7.4279015240328254
sS'i'
F83
sg80
F17.587628865979383
sg81
F0
sS'm'
F86
sg82
F0
sS'r'
F2112
sS'w'
F97
sg83
F3
sg84
F13
sg85
F4
ssg125
(dp152
S'a'
F3.5454545454545454
sg127
F-1
sS'b'
F58
sg128
F8
sS'i'
F19
sg129
F19
sS'm'
F86
sg130
F2
sg131
F0
sg80
F67.241379310344826
sS'r'
F39
sg132
F0
sg133
F0
ssssb.