(iplayer
Player
p1
(dp2
S'is_batsman'
p3
I01
sS'name'
p4
S'Steve Smith'
p5
sS'dob'
p6
S'1989/06/02'
p7
sS'price'
p8
S'950000'
p9
sS'is_allrounder'
p10
I01
sS'espnid'
p11
S'267192'
p12
sS'is_overseas'
p13
I01
sS'team'
p14
S'RR'
p15
sS'nationality'
p16
S'Australian'
p17
sS'is_bowler'
p18
I00
sS'is_keeper'
p19
I00
sS'id'
p20
S'271'
p21
sS'is_uncapped'
p22
I00
sS'tournamentStats'
p23
(dp24
S'international'
p25
(dp26
S'fieldingStats'
p27
((dp28
S'c'
F16
sS'ctw'
p29
F0
sS'span_s'
p30
F2010
sS'm'
F20
sS'ctf'
p31
F16
sS'dismissals'
p32
F16
sS'i'
F20
sS's'
F0
sS'span_f'
p33
F2011
s(lp34
(dp35
S'inning'
p36
I2
sS'c'
F0
sg29
F0
sS'opp'
p37
S'South Africa'
p38
sS't20i_num'
p39
I212
sS's'
F0
sg32
F0
sg31
F0
sS'place'
p40
S'Johannesburg'
p41
sS'date'
p42
ctime
struct_time
p43
((I2011
I10
I16
I0
I0
I0
I6
I289
I-1
t(dtRp44
sa(dp45
g36
I1
sS'c'
F0
sg29
F0
sg37
S'South Africa'
p46
sg39
I210
sS's'
F0
sg32
F0
sg31
F0
sg40
S'Cape Town'
p47
sg42
g43
((I2011
I10
I13
I0
I0
I0
I3
I286
I-1
t(dtRp48
sa(dp49
g36
I1
sS'c'
F2
sg29
F0
sg37
S'Sri Lanka'
p50
sg39
I203
sS's'
F0
sg32
F2
sg31
F2
sg40
S'Pallekele'
p51
sg42
g43
((I2011
I8
I8
I0
I0
I0
I0
I220
I-1
t(dtRp52
sa(dp53
g36
I1
sS'c'
F0
sg29
F0
sg37
S'Sri Lanka'
p54
sg39
I202
sS's'
F0
sg32
F0
sg31
F0
sg40
S'Pallekele'
p55
sg42
g43
((I2011
I8
I6
I0
I0
I0
I5
I218
I-1
t(dtRp56
sa(dp57
g36
I2
sS'c'
F1
sg29
F0
sg37
S'England'
p58
sg39
I198
sS's'
F0
sg32
F1
sg31
F1
sg40
S'Melbourne'
p59
sg42
g43
((I2011
I1
I14
I0
I0
I0
I4
I14
I-1
t(dtRp60
sa(dp61
g36
I2
sS'c'
F1
sg29
F0
sg37
S'England'
p62
sg39
I197
sS's'
F0
sg32
F1
sg31
F1
sg40
S'Adelaide'
p63
sg42
g43
((I2011
I1
I12
I0
I0
I0
I2
I12
I-1
t(dtRp64
sa(dp65
g36
I2
sS'c'
F0
sg29
F0
sg37
S'Sri Lanka'
p66
sg39
I192
sS's'
F0
sg32
F0
sg31
F0
sg40
S'Perth'
p67
sg42
g43
((I2010
I10
I31
I0
I0
I0
I6
I304
I-1
t(dtRp68
sa(dp69
g36
I1
sS'c'
F0
sg29
F0
sg37
S'Pakistan'
p70
sg39
I184
sS's'
F0
sg32
F0
sg31
F0
sg40
S'Birmingham'
p71
sg42
g43
((I2010
I7
I5
I0
I0
I0
I0
I186
I-1
t(dtRp72
sa(dp73
g36
I2
sS'c'
F0
sg29
F0
sg37
S'England'
p74
sg39
I177
sS's'
F0
sg32
F0
sg31
F0
sg40
S'Bridgetown'
p75
sg42
g43
((I2010
I5
I16
I0
I0
I0
I6
I136
I-1
t(dtRp76
sa(dp77
g36
I1
sS'c'
F0
sg29
F0
sg37
S'Pakistan'
p78
sg39
I176
sS's'
F0
sg32
F0
sg31
F0
sg40
S'Gros Islet'
p79
sg42
g43
((I2010
I5
I14
I0
I0
I0
I4
I134
I-1
t(dtRp80
sa(dp81
g36
I1
sS'c'
F1
sg29
F0
sg37
S'West Indies'
p82
sg39
I174
sS's'
F0
sg32
F1
sg31
F1
sg40
S'Gros Islet'
p83
sg42
g43
((I2010
I5
I11
I0
I0
I0
I1
I131
I-1
t(dtRp84
sa(dp85
g36
I2
sS'c'
F2
sg29
F0
sg37
S'Sri Lanka'
p86
sg39
I170
sS's'
F0
sg32
F2
sg31
F2
sg40
S'Bridgetown'
p87
sg42
g43
((I2010
I5
I9
I0
I0
I0
I6
I129
I-1
t(dtRp88
sa(dp89
g36
I2
sS'c'
F0
sg29
F0
sg37
S'India'
p90
sg39
I165
sS's'
F0
sg32
F0
sg31
F0
sg40
S'Bridgetown'
p91
sg42
g43
((I2010
I5
I7
I0
I0
I0
I4
I127
I-1
t(dtRp92
sa(dp93
g36
I2
sS'c'
F1
sg29
F0
sg37
S'Bangladesh'
p94
sg39
I161
sS's'
F0
sg32
F1
sg31
F1
sg40
S'Bridgetown'
p95
sg42
g43
((I2010
I5
I5
I0
I0
I0
I2
I125
I-1
t(dtRp96
sa(dp97
g36
I2
sS'c'
F2
sg29
F0
sg37
S'Pakistan'
p98
sg39
I156
sS's'
F0
sg32
F2
sg31
F2
sg40
S'Gros Islet'
p99
sg42
g43
((I2010
I5
I2
I0
I0
I0
I6
I122
I-1
t(dtRp100
sa(dp101
g36
I1
sS'c'
F1
sg29
F0
sg37
S'New Zealand'
p102
sg39
I149
sS's'
F0
sg32
F1
sg31
F1
sg40
S'Christchurch'
p103
sg42
g43
((I2010
I2
I28
I0
I0
I0
I6
I59
I-1
t(dtRp104
sa(dp105
g36
I1
sS'c'
F1
sg29
F0
sg37
S'New Zealand'
p106
sg39
I148
sS's'
F0
sg32
F1
sg31
F1
sg40
S'Wellington'
p107
sg42
g43
((I2010
I2
I26
I0
I0
I0
I4
I57
I-1
t(dtRp108
sa(dp109
g36
I1
sS'c'
F2
sg29
F0
sg37
S'West Indies'
p110
sg39
I147
sS's'
F0
sg32
F2
sg31
F2
sg40
S'Sydney'
p111
sg42
g43
((I2010
I2
I23
I0
I0
I0
I1
I54
I-1
t(dtRp112
sa(dp113
g36
I2
sS'c'
F2
sg29
F0
sg37
S'West Indies'
p114
sg39
I146
sS's'
F0
sg32
F2
sg31
F2
sg40
S'Hobart'
p115
sg42
g43
((I2010
I2
I21
I0
I0
I0
I6
I52
I-1
t(dtRp116
sa(dp117
g36
I2
sS'c'
F0
sg29
F0
sg37
S'Pakistan'
p118
sg39
I134
sS's'
F0
sg32
F0
sg31
F0
sg40
S'Melbourne'
p119
sg42
g43
((I2010
I2
I5
I0
I0
I0
I4
I36
I-1
t(dtRp120
satp121
sS'bowlingStats'
p122
((dp123
S'a'
F21.941176470588236
sS'b'
F285
sS'e'
F7.8526315789473689
sS'i'
F16
sS'sr'
p124
F16.764705882352942
sS'5w'
p125
F0
sS'm'
F20
sS'maid'
p126
F1
sS'r'
F373
sS'w'
F17
sS'4w'
p127
F0
sS'bbir'
p128
F20
sS'bbiw'
p129
F3
sg33
F2011
sg30
F2010
s(lp130
(dp131
g36
I1
sS'b'
F18
sS'e'
F9
sg39
I203
sS'pos'
p132
I4
sg126
F0
sS'r'
F27
sg40
S'Pallekele'
p133
sS'w'
F1
sg42
g43
((I2011
I8
I8
I0
I0
I0
I0
I220
I-1
t(dtRp134
sg37
S'Sri Lanka'
p135
sa(dp136
g36
I1
sS'b'
F12
sS'e'
F6.5
sg39
I202
sg132
I5
sg126
F0
sS'r'
F13
sg40
S'Pallekele'
p137
sS'w'
F0
sg42
g43
((I2011
I8
I6
I0
I0
I0
I5
I218
I-1
t(dtRp138
sg37
S'Sri Lanka'
p139
sa(dp140
g36
I2
sS'b'
F15
sS'e'
F13.199999999999999
sg39
I192
sg132
I5
sg126
F0
sS'r'
F33
sg40
S'Perth'
p141
sS'w'
F1
sg42
g43
((I2010
I10
I31
I0
I0
I0
I6
I304
I-1
t(dtRp142
sg37
S'Sri Lanka'
p143
sa(dp144
g36
I1
sS'b'
F24
sS'e'
F8.5
sg39
I184
sg132
I5
sg126
F0
sS'r'
F34
sg40
S'Birmingham'
p145
sS'w'
F1
sg42
g43
((I2010
I7
I5
I0
I0
I0
I0
I186
I-1
t(dtRp146
sg37
S'Pakistan'
p147
sa(dp148
g36
I2
sS'b'
F18
sS'e'
F7
sg39
I177
sg132
I4
sg126
F0
sS'r'
F21
sg40
S'Bridgetown'
p149
sS'w'
F1
sg42
g43
((I2010
I5
I16
I0
I0
I0
I6
I136
I-1
t(dtRp150
sg37
S'England'
p151
sa(dp152
g36
I1
sS'b'
F12
sS'e'
F11.5
sg39
I176
sg132
I5
sg126
F0
sS'r'
F23
sg40
S'Gros Islet'
p153
sS'w'
F1
sg42
g43
((I2010
I5
I14
I0
I0
I0
I4
I134
I-1
t(dtRp154
sg37
S'Pakistan'
p155
sa(dp156
g36
I1
sS'b'
F24
sS'e'
F5
sg39
I174
sg132
I5
sg126
F0
sS'r'
F20
sg40
S'Gros Islet'
p157
sS'w'
F3
sg42
g43
((I2010
I5
I11
I0
I0
I0
I1
I131
I-1
t(dtRp158
sg37
S'West Indies'
p159
sa(dp160
g36
I2
sS'b'
F24
sS'e'
F3
sg39
I170
sg132
I5
sg126
F1
sS'r'
F12
sg40
S'Bridgetown'
p161
sS'w'
F2
sg42
g43
((I2010
I5
I9
I0
I0
I0
I6
I129
I-1
t(dtRp162
sg37
S'Sri Lanka'
p163
sa(dp164
g36
I2
sS'b'
F24
sS'e'
F8.5
sg39
I165
sg132
I5
sg126
F0
sS'r'
F34
sg40
S'Bridgetown'
p165
sS'w'
F1
sg42
g43
((I2010
I5
I7
I0
I0
I0
I4
I127
I-1
t(dtRp166
sg37
S'India'
p167
sa(dp168
g36
I2
sS'b'
F24
sS'e'
F7.25
sg39
I161
sg132
I5
sg126
F0
sS'r'
F29
sg40
S'Bridgetown'
p169
sS'w'
F2
sg42
g43
((I2010
I5
I5
I0
I0
I0
I2
I125
I-1
t(dtRp170
sg37
S'Bangladesh'
p171
sa(dp172
g36
I2
sS'b'
F12
sS'e'
F12
sg39
I156
sg132
I7
sg126
F0
sS'r'
F24
sg40
S'Gros Islet'
p173
sS'w'
F1
sg42
g43
((I2010
I5
I2
I0
I0
I0
I6
I122
I-1
t(dtRp174
sg37
S'Pakistan'
p175
sa(dp176
g36
I1
sS'b'
F18
sS'e'
F8
sg39
I149
sg132
I5
sg126
F0
sS'r'
F24
sg40
S'Christchurch'
p177
sS'w'
F1
sg42
g43
((I2010
I2
I28
I0
I0
I0
I6
I59
I-1
t(dtRp178
sg37
S'New Zealand'
p179
sa(dp180
g36
I1
sS'b'
F12
sS'e'
F4.5
sg39
I148
sg132
I4
sg126
F0
sS'r'
F9
sg40
S'Wellington'
p181
sS'w'
F0
sg42
g43
((I2010
I2
I26
I0
I0
I0
I4
I57
I-1
t(dtRp182
sg37
S'New Zealand'
p183
sa(dp184
g36
I1
sS'b'
F6
sS'e'
F13
sg39
I147
sg132
I6
sg126
F0
sS'r'
F13
sg40
S'Sydney'
p185
sS'w'
F0
sg42
g43
((I2010
I2
I23
I0
I0
I0
I1
I54
I-1
t(dtRp186
sg37
S'West Indies'
p187
sa(dp188
g36
I2
sS'b'
F18
sS'e'
F7.666666666666667
sg39
I146
sg132
I5
sg126
F0
sS'r'
F23
sg40
S'Hobart'
p189
sS'w'
F0
sg42
g43
((I2010
I2
I21
I0
I0
I0
I6
I52
I-1
t(dtRp190
sg37
S'West Indies'
p191
sa(dp192
g36
I2
sS'b'
F24
sS'e'
F8.5
sg39
I134
sg132
I5
sg126
F0
sS'r'
F34
sg40
S'Melbourne'
p193
sS'w'
F2
sg42
g43
((I2010
I2
I5
I0
I0
I0
I4
I36
I-1
t(dtRp194
sg37
S'Pakistan'
p195
satp196
sS'battingStats'
p197
((dp198
S'a'
F15
sS'0s'
p199
F1
sS'b'
F152
sS'no'
p200
F4
sg30
F2010
sS'hs'
p201
F34
sS'm'
F20
sS'4s'
p202
F12
sS'50s'
p203
F0
sS'i'
F15
sS'6s'
p204
F3
sg124
F108.55263157894737
sS'r'
F165
sS'100s'
p205
F0
sg33
F2011
s(lp206
(dp207
g36
I1
sS'b'
F8
sg37
S'South Africa'
p208
sg124
F112.5
sg39
I212
sS'dismiss'
p209
S'caught'
p210
sg202
F0
sg132
I6
sg204
F0
sg40
S'Johannesburg'
p211
sg42
g43
((I2011
I10
I16
I0
I0
I0
I6
I289
I-1
t(dtRp212
sS'r'
F9
sS'minutes'
p213
F14
sa(dp214
g36
I2
sS'b'
F9
sg37
S'South Africa'
p215
sg200
I01
sg124
F88.888888888888886
sg39
I210
sg209
S'not out'
p216
sg202
F1
sg132
I6
sg204
F0
sg40
S'Cape Town'
p217
sg42
g43
((I2011
I10
I13
I0
I0
I0
I3
I286
I-1
t(dtRp218
sS'r'
F8
sg213
F17
sa(dp219
g36
I2
sS'b'
F19
sg37
S'Sri Lanka'
p220
sg124
F63.157894736842103
sg39
I203
sg209
S'bowled'
p221
sg202
F1
sg132
I6
sg204
F0
sg40
S'Pallekele'
p222
sg42
g43
((I2011
I8
I8
I0
I0
I0
I0
I220
I-1
t(dtRp223
sS'r'
F12
sg213
F21
sa(dp224
g36
I2
sS'b'
F17
sg37
S'Sri Lanka'
p225
sg124
F70.588235294117652
sg39
I202
sg209
S'stumped'
p226
sg202
F0
sg132
I6
sg204
F0
sg40
S'Pallekele'
p227
sg42
g43
((I2011
I8
I6
I0
I0
I0
I5
I218
I-1
t(dtRp228
sS'r'
F12
sg213
F11
sa(dp229
g36
I1
sS'b'
F18
sg37
S'England'
p230
sg124
F72.222222222222229
sg39
I198
sg209
S'caught'
p231
sg202
F0
sg132
I7
sg204
F0
sg40
S'Melbourne'
p232
sg42
g43
((I2011
I1
I14
I0
I0
I0
I4
I14
I-1
t(dtRp233
sS'r'
F13
sg213
F22
sa(dp234
g36
I1
sS'b'
F11
sg37
S'England'
p235
sg200
I01
sg124
F136.36363636363637
sg39
I197
sg209
S'not out'
p236
sg202
F1
sg132
I6
sg204
F0
sg40
S'Adelaide'
p237
sg42
g43
((I2011
I1
I12
I0
I0
I0
I2
I12
I-1
t(dtRp238
sS'r'
F15
sg213
F12
sa(dp239
g36
I1
sS'b'
F23
sg37
S'Sri Lanka'
p240
sg124
F147.82608695652175
sg39
I192
sg209
S'stumped'
p241
sg202
F3
sg132
I7
sg204
F1
sg40
S'Perth'
p242
sg42
g43
((I2010
I10
I31
I0
I0
I0
I6
I304
I-1
t(dtRp243
sS'r'
F34
sg213
F-1
sa(dp244
g36
I2
sS'b'
F8
sg37
S'Pakistan'
p245
sg124
F150
sg39
I184
sg209
S'bowled'
p246
sg202
F2
sg132
I7
sg204
F0
sg40
S'Birmingham'
p247
sg42
g43
((I2010
I7
I5
I0
I0
I0
I0
I186
I-1
t(dtRp248
sS'r'
F12
sg213
F8
sa(dp249
g36
I1
sS'b'
F2
sg37
S'England'
p250
sg200
I01
sg124
F50
sg39
I177
sg209
S'not out'
p251
sg202
F0
sg132
I8
sg204
F0
sg40
S'Bridgetown'
p252
sg42
g43
((I2010
I5
I16
I0
I0
I0
I6
I136
I-1
t(dtRp253
sS'r'
F1
sg213
F3
sa(dp254
g36
I2
sS'b'
F4
sg37
S'Pakistan'
p255
sg124
F125
sg39
I176
sg209
S'stumped'
p256
sg202
F1
sg132
I8
sg204
F0
sg40
S'Gros Islet'
p257
sg42
g43
((I2010
I5
I14
I0
I0
I0
I4
I134
I-1
t(dtRp258
sS'r'
F5
sg213
F2
sa(dp259
g36
I1
sS'b'
F1
sg37
S'India'
p260
sg200
I01
sg124
F100
sg39
I165
sg209
S'not out'
p261
sg202
F0
sg132
I7
sg204
F0
sg40
S'Bridgetown'
p262
sg42
g43
((I2010
I5
I7
I0
I0
I0
I4
I127
I-1
t(dtRp263
sS'r'
F1
sg213
F1
sa(dp264
g36
I1
sS'b'
F18
sg37
S'Bangladesh'
p265
sg124
F150
sg39
I161
sg209
S'run out'
p266
sg202
F1
sg132
I8
sg204
F2
sg40
S'Bridgetown'
p267
sg42
g43
((I2010
I5
I5
I0
I0
I0
I2
I125
I-1
t(dtRp268
sS'r'
F27
sg213
F29
sa(dp269
g36
I1
sS'b'
F1
sg37
S'Pakistan'
p270
sg124
F0
sg39
I156
sg209
S'run out'
p271
sg202
F0
sg132
I9
sg204
F0
sg40
S'Gros Islet'
p272
sg42
g43
((I2010
I5
I2
I0
I0
I0
I6
I122
I-1
t(dtRp273
sS'r'
F0
sg213
F1
sa(dp274
g36
I1
sS'b'
F5
sg37
S'West Indies'
p275
sg124
F160
sg39
I146
sg209
S'caught'
p276
sg202
F1
sg132
I9
sg204
F0
sg40
S'Hobart'
p277
sg42
g43
((I2010
I2
I21
I0
I0
I0
I6
I52
I-1
t(dtRp278
sS'r'
F8
sg213
F-1
sa(dp279
g36
I1
sS'b'
F8
sg37
S'Pakistan'
p280
sg124
F100
sg39
I134
sg209
S'bowled'
p281
sg202
F1
sg132
I8
sg204
F0
sg40
S'Melbourne'
p282
sg42
g43
((I2010
I2
I5
I0
I0
I0
I4
I36
I-1
t(dtRp283
sS'r'
F8
sg213
F10
satp284
ssS'all'
p285
(dp286
g27
(dp287
S'c'
F60
sg29
F0
sS'i'
F98
sS'm'
F98
sg31
F60
sg32
F60
sS's'
F0
ssg122
(dp288
S'a'
F19.372549019607842
sS'b'
F779
sS'e'
F7.6097560975609753
sS'i'
F47
sg124
F15.274509803921569
sg125
F0
sS'm'
F98
sg126
F0
sS'r'
F988
sS'w'
F51
sg127
F2
sg128
F13
sg129
F4
ssg197
(dp289
S'a'
F27.032258064516128
sg199
F-1
sS'b'
F1398
sg200
F23
sS'i'
F85
sg201
F65
sS'm'
F98
sg202
F132
sg204
F38
sg124
F119.88555078683834
sS'r'
F1676
sg205
F0
sg203
F4
ssssb.