(iplayer
Player
p1
(dp2
S'is_batsman'
p3
I00
sS'name'
p4
S'Glenn Maxwell'
p5
sS'dob'
p6
S'1988/10/14'
p7
sS'price'
p8
S'900000'
p9
sS'is_allrounder'
p10
I01
sS'espnid'
p11
S'325026'
p12
sS'is_overseas'
p13
I01
sS'team'
p14
S'KXIP'
p15
sS'nationality'
p16
S'Australian'
p17
sS'is_bowler'
p18
I00
sS'is_keeper'
p19
I00
sS'id'
p20
S'282'
p21
sS'is_uncapped'
p22
I00
sS'tournamentStats'
p23
(dp24
S'international'
p25
(dp26
S'fieldingStats'
p27
((dp28
S'c'
F11
sS'ctw'
p29
F0
sS'i'
F21
sS'm'
F21
sS's'
F0
sS'dismissals'
p30
F11
sS'ctf'
p31
F11
s(lp32
(dp33
S'inning'
p34
I1
sS'c'
F2
sg29
F0
sS'opp'
p35
S'Bangladesh'
p36
sS't20i_num'
p37
I396
sg31
F2
sg30
F2
sS's'
F0
sS'place'
p38
S'Dhaka'
p39
sS'date'
p40
ctime
struct_time
p41
((I2014
I4
I1
I0
I0
I0
I1
I91
I-1
t(dtRp42
sa(dp43
g34
I1
sS'c'
F1
sg29
F0
sg35
S'India'
p44
sg37
I393
sg31
F1
sg30
F1
sS's'
F0
sg38
S'Dhaka'
p45
sg40
g41
((I2014
I3
I30
I0
I0
I0
I6
I89
I-1
t(dtRp46
sa(dp47
g34
I2
sS'c'
F2
sg29
F0
sg35
S'West Indies'
p48
sg37
I388
sg31
F2
sg30
F2
sS's'
F0
sg38
S'Dhaka'
p49
sg40
g41
((I2014
I3
I28
I0
I0
I0
I4
I87
I-1
t(dtRp50
sa(dp51
g34
I1
sS'c'
F1
sg29
F0
sg35
S'Pakistan'
p52
sg37
I381
sg31
F1
sg30
F1
sS's'
F0
sg38
S'Dhaka'
p53
sg40
g41
((I2014
I3
I23
I0
I0
I0
I6
I82
I-1
t(dtRp54
sa(dp55
g34
I1
sS'c'
F0
sg29
F0
sg35
S'South Africa'
p56
sg37
I365
sg31
F0
sg30
F0
sS's'
F0
sg38
S'Centurion'
p57
sg40
g41
((I2014
I3
I14
I0
I0
I0
I4
I73
I-1
t(dtRp58
sa(dp59
g34
I1
sS'c'
F0
sg29
F0
sg35
S'South Africa'
p60
sg37
I363
sg31
F0
sg30
F0
sS's'
F0
sg38
S'Durban'
p61
sg40
g41
((I2014
I3
I12
I0
I0
I0
I2
I71
I-1
t(dtRp62
sa(dp63
g34
I2
sS'c'
F1
sg29
F0
sg35
S'England'
p64
sg37
I356
sg31
F1
sg30
F1
sS's'
F0
sg38
S'Sydney'
p65
sg40
g41
((I2014
I2
I2
I0
I0
I0
I6
I33
I-1
t(dtRp66
sa(dp67
g34
I1
sS'c'
F1
sg29
F0
sg35
S'England'
p68
sg37
I355
sg31
F1
sg30
F1
sS's'
F0
sg38
S'Melbourne'
p69
sg40
g41
((I2014
I1
I31
I0
I0
I0
I4
I31
I-1
t(dtRp70
sa(dp71
g34
I2
sS'c'
F0
sg29
F0
sg35
S'England'
p72
sg37
I354
sg31
F0
sg30
F0
sS's'
F0
sg38
S'Hobart'
p73
sg40
g41
((I2014
I1
I29
I0
I0
I0
I2
I29
I-1
t(dtRp74
sa(dp75
g34
I2
sS'c'
F0
sg29
F0
sg35
S'India'
p76
sg37
I331
sg31
F0
sg30
F0
sS's'
F0
sg38
S'Rajkot'
p77
sg40
g41
((I2013
I10
I10
I0
I0
I0
I3
I283
I-1
t(dtRp78
sa(dp79
g34
I1
sS'c'
F0
sg29
F0
sg35
S'England'
p80
sg37
I329
sg31
F0
sg30
F0
sS's'
F0
sg38
S'Chester-le-Street'
p81
sg40
g41
((I2013
I8
I31
I0
I0
I0
I5
I243
I-1
t(dtRp82
sa(dp83
g34
I2
sS'c'
F1
sg29
F0
sg35
S'England'
p84
sg37
I328
sg31
F1
sg30
F1
sS's'
F0
sg38
S'Southampton'
p85
sg40
g41
((I2013
I8
I29
I0
I0
I0
I3
I241
I-1
t(dtRp86
sa(dp87
g34
I1
sS'c'
F0
sg29
F0
sg35
S'Sri Lanka'
p88
sg37
I300
sg31
F0
sg30
F0
sS's'
F0
sg38
S'Melbourne'
p89
sg40
g41
((I2013
I1
I28
I0
I0
I0
I0
I28
I-1
t(dtRp90
sa(dp91
g34
I2
sS'c'
F0
sg29
F0
sg35
S'Sri Lanka'
p92
sg37
I299
sg31
F0
sg30
F0
sS's'
F0
sg38
S'Sydney'
p93
sg40
g41
((I2013
I1
I26
I0
I0
I0
I5
I26
I-1
t(dtRp94
sa(dp95
g34
I1
sS'c'
F0
sg29
F0
sg35
S'Pakistan'
p96
sg37
I285
sg31
F0
sg30
F0
sS's'
F0
sg38
S'Colombo (RPS)'
p97
sg40
g41
((I2012
I10
I2
I0
I0
I0
I1
I276
I-1
t(dtRp98
sa(dp99
g34
I1
sS'c'
F0
sg29
F0
sg35
S'South Africa'
p100
sg37
I281
sg31
F0
sg30
F0
sS's'
F0
sg38
S'Colombo (RPS)'
p101
sg40
g41
((I2012
I9
I30
I0
I0
I0
I6
I274
I-1
t(dtRp102
sa(dp103
g34
I1
sS'c'
F2
sg29
F0
sg35
S'India'
p104
sg37
I278
sg31
F2
sg30
F2
sS's'
F0
sg38
S'Colombo (RPS)'
p105
sg40
g41
((I2012
I9
I28
I0
I0
I0
I4
I272
I-1
t(dtRp106
sa(dp107
g34
I1
sS'c'
F0
sg29
F0
sg35
S'West Indies'
p108
sg37
I270
sg31
F0
sg30
F0
sS's'
F0
sg38
S'Colombo (RPS)'
p109
sg40
g41
((I2012
I9
I22
I0
I0
I0
I5
I266
I-1
t(dtRp110
sa(dp111
g34
I1
sS'c'
F0
sg29
F0
sg35
S'Ireland'
p112
sg37
I264
sg31
F0
sg30
F0
sS's'
F0
sg38
S'Colombo (RPS)'
p113
sg40
g41
((I2012
I9
I19
I0
I0
I0
I2
I263
I-1
t(dtRp114
sa(dp115
g34
I2
sS'c'
F0
sg29
F0
sg35
S'Pakistan'
p116
sg37
I259
sg31
F0
sg30
F0
sS's'
F0
sg38
S'Dubai (DSC)'
p117
sg40
g41
((I2012
I9
I10
I0
I0
I0
I0
I254
I-1
t(dtRp118
sa(dp119
g34
I2
sS'c'
F0
sg29
F0
sg35
S'Pakistan'
p120
sg37
I256
sg31
F0
sg30
F0
sS's'
F0
sg38
S'Dubai (DSC)'
p121
sg40
g41
((I2012
I9
I5
I0
I0
I0
I2
I249
I-1
t(dtRp122
satp123
sS'bowlingStats'
p124
((dp125
S'a'
F29.09090909090909
sS'b'
F264
sS'e'
F7.2727272727272725
sS'i'
F17
sS'sr'
p126
F24
sS'5w'
p127
F0
sS'm'
F21
sS'maid'
p128
F0
sS'r'
F320
sS'w'
F11
sS'4w'
p129
F0
sS'bbir'
p130
F15
sS'bbiw'
p131
F2
s(lp132
(dp133
g34
I1
sS'b'
F18
sS'e'
F10.666666666666666
sg37
I396
sS'pos'
p134
I5
sg128
F0
sS'r'
F32
sg38
S'Dhaka'
p135
sS'w'
F0
sg40
g41
((I2014
I4
I1
I0
I0
I0
I1
I91
I-1
t(dtRp136
sg35
S'Bangladesh'
p137
sa(dp138
g34
I1
sS'b'
F24
sS'e'
F5
sg37
I393
sg134
I2
sg128
F0
sS'r'
F20
sg38
S'Dhaka'
p139
sS'w'
F1
sg40
g41
((I2014
I3
I30
I0
I0
I0
I6
I89
I-1
t(dtRp140
sg35
S'India'
p141
sa(dp142
g34
I2
sS'b'
F18
sS'e'
F9.3333333333333339
sg37
I388
sg134
I4
sg128
F0
sS'r'
F28
sg38
S'Dhaka'
p143
sS'w'
F0
sg40
g41
((I2014
I3
I28
I0
I0
I0
I4
I87
I-1
t(dtRp144
sg35
S'West Indies'
p145
sa(dp146
g34
I1
sS'b'
F24
sS'e'
F4.75
sg37
I365
sg134
I3
sg128
F0
sS'r'
F19
sg38
S'Centurion'
p147
sS'w'
F2
sg40
g41
((I2014
I3
I14
I0
I0
I0
I4
I73
I-1
t(dtRp148
sg35
S'South Africa'
p149
sa(dp150
g34
I2
sS'b'
F24
sS'e'
F7.75
sg37
I356
sg134
I3
sg128
F0
sS'r'
F31
sg38
S'Sydney'
p151
sS'w'
F2
sg40
g41
((I2014
I2
I2
I0
I0
I0
I6
I33
I-1
t(dtRp152
sg35
S'England'
p153
sa(dp154
g34
I1
sS'b'
F6
sS'e'
F7
sg37
I355
sg134
I5
sg128
F0
sS'r'
F7
sg38
S'Melbourne'
p155
sS'w'
F0
sg40
g41
((I2014
I1
I31
I0
I0
I0
I4
I31
I-1
t(dtRp156
sg35
S'England'
p157
sa(dp158
g34
I2
sS'b'
F18
sS'e'
F10
sg37
I354
sg134
I1
sg128
F0
sS'r'
F30
sg38
S'Hobart'
p159
sS'w'
F1
sg40
g41
((I2014
I1
I29
I0
I0
I0
I2
I29
I-1
t(dtRp160
sg35
S'England'
p161
sa(dp162
g34
I1
sS'b'
F12
sS'e'
F12.5
sg37
I329
sg134
I6
sg128
F0
sS'r'
F25
sg38
S'Chester-le-Street'
p163
sS'w'
F0
sg40
g41
((I2013
I8
I31
I0
I0
I0
I5
I243
I-1
t(dtRp164
sg35
S'England'
p165
sa(dp166
g34
I1
sS'b'
F24
sS'e'
F5.75
sg37
I300
sg134
I1
sg128
F0
sS'r'
F23
sg38
S'Melbourne'
p167
sS'w'
F1
sg40
g41
((I2013
I1
I28
I0
I0
I0
I0
I28
I-1
t(dtRp168
sg35
S'Sri Lanka'
p169
sa(dp170
g34
I2
sS'b'
F18
sS'e'
F5
sg37
I299
sg134
I5
sg128
F0
sS'r'
F15
sg38
S'Sydney'
p171
sS'w'
F2
sg40
g41
((I2013
I1
I26
I0
I0
I0
I5
I26
I-1
t(dtRp172
sg35
S'Sri Lanka'
p173
sa(dp174
g34
I1
sS'b'
F6
sS'e'
F6
sg37
I285
sg134
I5
sg128
F0
sS'r'
F6
sg38
S'Colombo (RPS)'
p175
sS'w'
F0
sg40
g41
((I2012
I10
I2
I0
I0
I0
I1
I276
I-1
t(dtRp176
sg35
S'Pakistan'
p177
sa(dp178
g34
I1
sS'b'
F6
sS'e'
F7
sg37
I281
sg134
I6
sg128
F0
sS'r'
F7
sg38
S'Colombo (RPS)'
p179
sS'w'
F0
sg40
g41
((I2012
I9
I30
I0
I0
I0
I6
I274
I-1
t(dtRp180
sg35
S'South Africa'
p181
sa(dp182
g34
I1
sS'b'
F12
sS'e'
F5.5
sg37
I278
sg134
I1
sg128
F0
sS'r'
F11
sg38
S'Colombo (RPS)'
p183
sS'w'
F0
sg40
g41
((I2012
I9
I28
I0
I0
I0
I4
I272
I-1
t(dtRp184
sg35
S'India'
p185
sa(dp186
g34
I1
sS'b'
F6
sS'e'
F17
sg37
I270
sg134
I6
sg128
F0
sS'r'
F17
sg38
S'Colombo (RPS)'
p187
sS'w'
F0
sg40
g41
((I2012
I9
I22
I0
I0
I0
I5
I266
I-1
t(dtRp188
sg35
S'West Indies'
p189
sa(dp190
g34
I1
sS'b'
F12
sS'e'
F6
sg37
I264
sg134
I4
sg128
F0
sS'r'
F12
sg38
S'Colombo (RPS)'
p191
sS'w'
F1
sg40
g41
((I2012
I9
I19
I0
I0
I0
I2
I263
I-1
t(dtRp192
sg35
S'Ireland'
p193
sa(dp194
g34
I2
sS'b'
F24
sS'e'
F3
sg37
I259
sg134
I5
sg128
F0
sS'r'
F12
sg38
S'Dubai (DSC)'
p195
sS'w'
F1
sg40
g41
((I2012
I9
I10
I0
I0
I0
I0
I254
I-1
t(dtRp196
sg35
S'Pakistan'
p197
sa(dp198
g34
I2
sS'b'
F12
sS'e'
F12.5
sg37
I256
sg134
I1
sg128
F0
sS'r'
F25
sg38
S'Dubai (DSC)'
p199
sS'w'
F0
sg40
g41
((I2012
I9
I5
I0
I0
I0
I2
I249
I-1
t(dtRp200
sg35
S'Pakistan'
p201
satp202
sS'battingStats'
p203
((dp204
S'a'
F20.199999999999999
sS'0s'
p205
F0
sS'b'
F183
sS'no'
p206
F2
sS'i'
F17
sS'hs'
p207
F74
sS'm'
F21
sS'4s'
p208
F24
sS'6s'
p209
F21
sg126
F165.57377049180329
sS'r'
F303
sS'100s'
p210
F0
sS'50s'
p211
F1
s(lp212
(dp213
g34
I2
sS'b'
F3
sg35
S'Bangladesh'
p214
sg126
F166.66666666666666
sg37
I396
sS'dismiss'
p215
S'bowled'
p216
sg208
F1
sg134
I4
sg209
F0
sg38
S'Dhaka'
p217
sg40
g41
((I2014
I4
I1
I0
I0
I0
I1
I91
I-1
t(dtRp218
sS'r'
F5
sS'minutes'
p219
F6
sa(dp220
g34
I2
sS'b'
F12
sg35
S'India'
p221
sg126
F191.66666666666666
sg37
I393
sg215
S'bowled'
p222
sg208
F0
sg134
I5
sg209
F3
sg38
S'Dhaka'
p223
sg40
g41
((I2014
I3
I30
I0
I0
I0
I6
I89
I-1
t(dtRp224
sS'r'
F23
sg219
F16
sa(dp225
g34
I1
sS'b'
F22
sg35
S'West Indies'
p226
sg126
F204.54545454545453
sg37
I388
sg215
S'caught'
p227
sg208
F5
sg134
I4
sg209
F3
sg38
S'Dhaka'
p228
sg40
g41
((I2014
I3
I28
I0
I0
I0
I4
I87
I-1
t(dtRp229
sS'r'
F45
sg219
F28
sa(dp230
g34
I2
sS'b'
F33
sg35
S'Pakistan'
p231
sg126
F224.24242424242425
sg37
I381
sg215
S'caught'
p232
sg208
F7
sg134
I4
sg209
F6
sg38
S'Dhaka'
p233
sg40
g41
((I2014
I3
I23
I0
I0
I0
I6
I82
I-1
t(dtRp234
sS'r'
F74
sg219
F48
sa(dp235
g34
I2
sS'b'
F12
sg35
S'South Africa'
p236
sg126
F141.66666666666666
sg37
I365
sg215
S'lbw'
p237
sg208
F2
sg134
I4
sg209
F0
sg38
S'Centurion'
p238
sg40
g41
((I2014
I3
I14
I0
I0
I0
I4
I73
I-1
t(dtRp239
sS'r'
F17
sg219
F20
sa(dp240
g34
I2
sS'b'
F3
sg35
S'South Africa'
p241
sg126
F33.333333333333336
sg37
I363
sg215
S'caught'
p242
sg208
F0
sg134
I4
sg209
F0
sg38
S'Durban'
p243
sg40
g41
((I2014
I3
I12
I0
I0
I0
I2
I71
I-1
t(dtRp244
sS'r'
F1
sg219
F7
sa(dp245
g34
I1
sS'b'
F7
sg35
S'England'
p246
sg126
F200
sg37
I356
sg215
S'caught'
p247
sg208
F0
sg134
I3
sg209
F2
sg38
S'Sydney'
p248
sg40
g41
((I2014
I2
I2
I0
I0
I0
I6
I33
I-1
t(dtRp249
sS'r'
F14
sg219
F7
sa(dp250
g34
I2
sS'b'
F5
sg35
S'England'
p251
sg126
F40
sg37
I355
sg215
S'caught'
p252
sg208
F0
sg134
I3
sg209
F0
sg38
S'Melbourne'
p253
sg40
g41
((I2014
I1
I31
I0
I0
I0
I4
I31
I-1
t(dtRp254
sS'r'
F2
sg219
F7
sa(dp255
g34
I1
sS'b'
F13
sg35
S'England'
p256
sg126
F153.84615384615384
sg37
I354
sg215
S'caught'
p257
sg208
F2
sg134
I3
sg209
F1
sg38
S'Hobart'
p258
sg40
g41
((I2014
I1
I29
I0
I0
I0
I2
I29
I-1
t(dtRp259
sS'r'
F20
sg219
F24
sa(dp260
g34
I1
sS'b'
F13
sg35
S'India'
p261
sg126
F207.69230769230768
sg37
I331
sg215
S'caught'
p262
sg208
F0
sg134
I5
sg209
F4
sg38
S'Rajkot'
p263
sg40
g41
((I2013
I10
I10
I0
I0
I0
I3
I283
I-1
t(dtRp264
sS'r'
F27
sg219
F12
sa(dp265
g34
I2
sS'b'
F16
sg35
S'England'
p266
sg126
F168.75
sg37
I329
sg215
S'caught'
p267
sg208
F2
sg134
I6
sg209
F1
sg38
S'Chester-le-Street'
p268
sg40
g41
((I2013
I8
I31
I0
I0
I0
I5
I243
I-1
t(dtRp269
sS'r'
F27
sg219
F17
sa(dp270
g34
I1
sS'b'
F3
sg35
S'England'
p271
sg126
F33.333333333333336
sg37
I328
sg215
S'bowled'
p272
sg208
F0
sg134
I5
sg209
F0
sg38
S'Southampton'
p273
sg40
g41
((I2013
I8
I29
I0
I0
I0
I3
I241
I-1
t(dtRp274
sS'r'
F1
sg219
F9
sa(dp275
g34
I2
sS'b'
F3
sg35
S'Sri Lanka'
p276
sg206
I01
sg126
F266.66666666666669
sg37
I300
sg215
S'not out'
p277
sg208
F2
sg134
I5
sg209
F0
sg38
S'Melbourne'
p278
sg40
g41
((I2013
I1
I28
I0
I0
I0
I0
I28
I-1
t(dtRp279
sS'r'
F8
sg219
F7
sa(dp280
g34
I2
sS'b'
F5
sg35
S'Pakistan'
p281
sg126
F80
sg37
I285
sg215
S'caught'
p282
sg208
F0
sg134
I6
sg209
F0
sg38
S'Colombo (RPS)'
p283
sg40
g41
((I2012
I10
I2
I0
I0
I0
I1
I276
I-1
t(dtRp284
sS'r'
F4
sg219
F6
sa(dp285
g34
I2
sS'b'
F6
sg35
S'India'
p286
sg206
I01
sg126
F66.666666666666671
sg37
I278
sg215
S'not out'
p287
sg208
F0
sg134
I3
sg209
F0
sg38
S'Colombo (RPS)'
p288
sg40
g41
((I2012
I9
I28
I0
I0
I0
I4
I272
I-1
t(dtRp289
sS'r'
F4
sg219
F4
sa(dp290
g34
I1
sS'b'
F20
sg35
S'Pakistan'
p291
sg126
F135
sg37
I259
sg215
S'caught'
p292
sg208
F3
sg134
I3
sg209
F1
sg38
S'Dubai (DSC)'
p293
sg40
g41
((I2012
I9
I10
I0
I0
I0
I0
I254
I-1
t(dtRp294
sS'r'
F27
sg219
F14
sa(dp295
g34
I1
sS'b'
F7
sg35
S'Pakistan'
p296
sg126
F57.142857142857146
sg37
I256
sg215
S'caught'
p297
sg208
F0
sg134
I8
sg209
F0
sg38
S'Dubai (DSC)'
p298
sg40
g41
((I2012
I9
I5
I0
I0
I0
I2
I249
I-1
t(dtRp299
sS'r'
F4
sg219
F8
satp300
ssS'all'
p301
(dp302
g27
(dp303
S'c'
F35
sg29
F0
sS'i'
F71
sS'm'
F71
sS's'
F0
sg30
F35
sg31
F35
ssg124
(dp304
S'a'
F31.920000000000002
sS'b'
F657
sS'e'
F7.2876712328767121
sS'i'
F49
sg126
F26.280000000000001
sg127
F0
sS'm'
F71
sg128
F0
sS'r'
F798
sS'w'
F25
sg129
F0
sg130
F26
sg131
F3
ssg203
(dp305
S'a'
F22.547169811320753
sg205
F-1
sS'b'
F772
sg206
F9
sS'i'
F62
sg207
F82
sS'm'
F71
sg208
F95
sg209
F70
sg126
F154.79274611398964
sS'r'
F1195
sg210
F0
sg211
F5
ssssb.