(iplayer
Player
p1
(dp2
S'is_batsman'
p3
I00
sS'name'
p4
S'MS Dhoni'
p5
sS'dob'
p6
S'1981/07/07'
p7
sS'price'
p8
S'1050000'
p9
sS'is_allrounder'
p10
I00
sS'espnid'
p11
S'28081'
p12
sS'is_overseas'
p13
I00
sS'team'
p14
S'CSK'
p15
sS'nationality'
p16
S'Indian'
p17
sS'is_bowler'
p18
I00
sS'is_keeper'
p19
I01
sS'id'
p20
S'1'
sS'is_uncapped'
p21
I00
sS'tournamentStats'
p22
(dp23
S'international'
p24
(dp25
S'fieldingStats'
p26
((dp27
S'c'
F25
sS'ctw'
p28
F25
sS'span_s'
p29
F2006
sS'm'
F49
sS's'
F11
sS'dismissals'
p30
F36
sS'i'
F48
sS'ctf'
p31
F0
sS'span_f'
p32
F2014
s(lp33
(dp34
S'inning'
p35
I2
sS'c'
F1
sg28
F1
sS'opp'
p36
S'Sri Lanka'
p37
sS't20i_num'
p38
I400
sg31
F0
sg30
F1
sS's'
F0
sS'place'
p39
S'Dhaka'
p40
sS'date'
p41
ctime
struct_time
p42
((I2014
I4
I6
I0
I0
I0
I6
I96
I-1
t(dtRp43
sa(dp44
g35
I1
sS'c'
F1
sg28
F1
sg36
S'South Africa'
p45
sg38
I399
sg31
F0
sg30
F1
sS's'
F0
sg39
S'Dhaka'
p46
sg41
g42
((I2014
I4
I4
I0
I0
I0
I4
I94
I-1
t(dtRp47
sa(dp48
g35
I2
sS'c'
F1
sg28
F1
sg36
S'Australia'
p49
sg38
I393
sg31
F0
sg30
F1
sS's'
F0
sg39
S'Dhaka'
p50
sg41
g42
((I2014
I3
I30
I0
I0
I0
I6
I89
I-1
t(dtRp51
sa(dp52
g35
I1
sS'c'
F0
sg28
F0
sg36
S'Bangladesh'
p53
sg38
I389
sg31
F0
sg30
F1
sS's'
F1
sg39
S'Dhaka'
p54
sg41
g42
((I2014
I3
I28
I0
I0
I0
I4
I87
I-1
t(dtRp55
sa(dp56
g35
I1
sS'c'
F0
sg28
F0
sg36
S'West Indies'
p57
sg38
I382
sg31
F0
sg30
F1
sS's'
F1
sg39
S'Dhaka'
p58
sg41
g42
((I2014
I3
I23
I0
I0
I0
I6
I82
I-1
t(dtRp59
sa(dp60
g35
I1
sS'c'
F0
sg28
F0
sg36
S'Pakistan'
p61
sg38
I378
sg31
F0
sg30
F1
sS's'
F1
sg39
S'Dhaka'
p62
sg41
g42
((I2014
I3
I21
I0
I0
I0
I4
I80
I-1
t(dtRp63
sa(dp64
g35
I1
sS'c'
F1
sg28
F1
sg36
S'Australia'
p65
sg38
I331
sg31
F0
sg30
F1
sS's'
F0
sg39
S'Rajkot'
p66
sg41
g42
((I2013
I10
I10
I0
I0
I0
I3
I283
I-1
t(dtRp67
sa(dp68
g35
I2
sS'c'
F0
sg28
F0
sg36
S'Pakistan'
p69
sg38
I298
sg31
F0
sg30
F1
sS's'
F1
sg39
S'Ahmedabad'
p70
sg41
g42
((I2012
I12
I28
I0
I0
I0
I4
I363
I-1
t(dtRp71
sa(dp72
g35
I2
sS'c'
F1
sg28
F1
sg36
S'Pakistan'
p73
sg38
I296
sg31
F0
sg30
F1
sS's'
F0
sg39
S'Bangalore'
p74
sg41
g42
((I2012
I12
I25
I0
I0
I0
I1
I360
I-1
t(dtRp75
sa(dp76
g35
I2
sS'c'
F0
sg28
F0
sg36
S'England'
p77
sg38
I294
sg31
F0
sg30
F1
sS's'
F1
sg39
S'Mumbai'
p78
sg41
g42
((I2012
I12
I22
I0
I0
I0
I5
I357
I-1
t(dtRp79
sa(dp80
g35
I1
sS'c'
F0
sg28
F0
sg36
S'England'
p81
sg38
I292
sg31
F0
sg30
F0
sS's'
F0
sg39
S'Pune'
p82
sg41
g42
((I2012
I12
I20
I0
I0
I0
I3
I355
I-1
t(dtRp83
sa(dp84
g35
I2
sS'c'
F0
sg28
F0
sg36
S'South Africa'
p85
sg38
I286
sg31
F0
sg30
F0
sS's'
F0
sg39
S'Colombo (RPS)'
p86
sg41
g42
((I2012
I10
I2
I0
I0
I0
I1
I276
I-1
t(dtRp87
sa(dp88
g35
I1
sS'c'
F4
sg28
F4
sg36
S'Pakistan'
p89
sg38
I282
sg31
F0
sg30
F4
sS's'
F0
sg39
S'Colombo (RPS)'
p90
sg41
g42
((I2012
I9
I30
I0
I0
I0
I6
I274
I-1
t(dtRp91
sa(dp92
g35
I2
sS'c'
F0
sg28
F0
sg36
S'Australia'
p93
sg38
I278
sg31
F0
sg30
F0
sS's'
F0
sg39
S'Colombo (RPS)'
p94
sg41
g42
((I2012
I9
I28
I0
I0
I0
I4
I272
I-1
t(dtRp95
sa(dp96
g35
I2
sS'c'
F0
sg28
F0
sg36
S'England'
p97
sg38
I272
sg31
F0
sg30
F1
sS's'
F1
sg39
S'Colombo (RPS)'
p98
sg41
g42
((I2012
I9
I23
I0
I0
I0
I6
I267
I-1
t(dtRp99
sa(dp100
g35
I2
sS'c'
F1
sg28
F1
sg36
S'Afghanistan'
p101
sg38
I265
sg31
F0
sg30
F1
sS's'
F0
sg39
S'Colombo (RPS)'
p102
sg41
g42
((I2012
I9
I19
I0
I0
I0
I2
I263
I-1
t(dtRp103
sa(dp104
g35
I1
sS'c'
F0
sg28
F0
sg36
S'New Zealand'
p105
sg38
I261
sg31
F0
sg30
F0
sS's'
F0
sg39
S'Chennai'
p106
sg41
g42
((I2012
I9
I11
I0
I0
I0
I1
I255
I-1
t(dtRp107
sa(dp108
g35
I2
sS'c'
F2
sg28
F2
sg36
S'Sri Lanka'
p109
sg38
I255
sg31
F0
sg30
F2
sS's'
F0
sg39
S'Pallekele'
p110
sg41
g42
((I2012
I8
I7
I0
I0
I0
I1
I220
I-1
t(dtRp111
sa(dp112
g35
I1
sS'c'
F0
sg28
F0
sg36
S'South Africa'
p113
sg38
I242
sg31
F0
sg30
F0
sS's'
F0
sg39
S'Johannesburg'
p114
sg41
g42
((I2012
I3
I30
I0
I0
I0
I4
I90
I-1
t(dtRp115
sa(dp116
g35
I1
sS'c'
F2
sg28
F2
sg36
S'Australia'
p117
sg38
I218
sg31
F0
sg30
F3
sS's'
F1
sg39
S'Melbourne'
p118
sg41
g42
((I2012
I2
I3
I0
I0
I0
I4
I34
I-1
t(dtRp119
sa(dp120
g35
I1
sS'c'
F0
sg28
F0
sg36
S'Australia'
p121
sg38
I217
sg31
F0
sg30
F0
sS's'
F0
sg39
S'Sydney'
p122
sg41
g42
((I2012
I2
I1
I0
I0
I0
I2
I32
I-1
t(dtRp123
sa(dp124
g35
I2
sS'c'
F0
sg28
F0
sg36
S'England'
p125
sg38
I214
sg31
F0
sg30
F0
sS's'
F0
sg39
S'Kolkata'
p126
sg41
g42
((I2011
I10
I29
I0
I0
I0
I5
I302
I-1
t(dtRp127
sa(dp128
g35
I2
sS'c'
F0
sg28
F0
sg36
S'England'
p129
sg38
I204
sg31
F0
sg30
F1
sS's'
F1
sg39
S'Manchester'
p130
sg41
g42
((I2011
I8
I31
I0
I0
I0
I2
I243
I-1
t(dtRp131
sa(dp132
g35
I2
sS'c'
F0
sg28
F0
sg36
S'South Africa'
p133
sg38
I196
sg31
F0
sg30
F0
sS's'
F0
sg39
S'Durban'
p134
sg41
g42
((I2011
I1
I9
I0
I0
I0
I6
I9
I-1
t(dtRp135
sa(dp136
g35
I2
sS'c'
F0
sg28
F0
sg36
S'Sri Lanka'
p137
sg38
I173
sg31
F0
sg30
F0
sS's'
F0
sg39
S'Gros Islet'
p138
sg41
g42
((I2010
I5
I11
I0
I0
I0
I1
I131
I-1
t(dtRp139
sa(dp140
g35
I1
sS'c'
F1
sg28
F1
sg36
S'West Indies'
p141
sg38
I169
sg31
F0
sg30
F1
sS's'
F0
sg39
S'Bridgetown'
p142
sg41
g42
((I2010
I5
I9
I0
I0
I0
I6
I129
I-1
t(dtRp143
sa(dp144
g35
I1
sS'c'
F1
sg28
F1
sg36
S'Australia'
p145
sg38
I165
sg31
F0
sg30
F2
sS's'
F1
sg39
S'Bridgetown'
p146
sg41
g42
((I2010
I5
I7
I0
I0
I0
I4
I127
I-1
t(dtRp147
sa(dp148
g35
I2
sS'c'
F0
sg28
F0
sg36
S'South Africa'
p149
sg38
I155
sg31
F0
sg30
F0
sS's'
F0
sg39
S'Gros Islet'
p150
sg41
g42
((I2010
I5
I2
I0
I0
I0
I6
I122
I-1
t(dtRp151
sa(dp152
g35
I1
sS'c'
F4
sg28
F4
sg36
S'Afghanistan'
p153
sg38
I153
sg31
F0
sg30
F4
sS's'
F0
sg39
S'Gros Islet'
p154
sg41
g42
((I2010
I5
I1
I0
I0
I0
I5
I121
I-1
t(dtRp155
sa(dp156
g35
I1
sS'c'
F0
sg28
F0
sg36
S'Sri Lanka'
p157
sg38
I127
sg31
F0
sg30
F0
sS's'
F0
sg39
S'Mohali'
p158
sg41
g42
((I2009
I12
I12
I0
I0
I0
I5
I346
I-1
t(dtRp159
sa(dp160
g35
I1
sS'c'
F0
sg28
F0
sg36
S'Sri Lanka'
p161
sg38
I126
sg31
F0
sg30
F0
sS's'
F0
sg39
S'Nagpur'
p162
sg41
g42
((I2009
I12
I9
I0
I0
I0
I2
I343
I-1
t(dtRp163
sa(dp164
g35
I1
sS'c'
F0
sg28
F0
sg36
S'South Africa'
p165
sg38
I113
sg31
F0
sg30
F1
sS's'
F1
sg39
S'Nottingham'
p166
sg41
g42
((I2009
I6
I16
I0
I0
I0
I1
I167
I-1
t(dtRp167
sa(dp168
g35
I1
sS'c'
F0
sg28
F0
sg36
S'England'
p169
sg38
I109
sg31
F0
sg30
F0
sS's'
F0
sg39
S"Lord's"
p170
sg41
g42
((I2009
I6
I14
I0
I0
I0
I6
I165
I-1
t(dtRp171
sa(dp172
g35
I2
sS'c'
F0
sg28
F0
sg36
S'West Indies'
p173
sg38
I105
sg31
F0
sg30
F0
sS's'
F0
sg39
S"Lord's"
p174
sg41
g42
((I2009
I6
I12
I0
I0
I0
I4
I163
I-1
t(dtRp175
sa(dp176
g35
I1
sS'c'
F1
sg28
F1
sg36
S'Ireland'
p177
sg38
I101
sg31
F0
sg30
F1
sS's'
F0
sg39
S'Nottingham'
p178
sg41
g42
((I2009
I6
I10
I0
I0
I0
I2
I161
I-1
t(dtRp179
sa(dp180
g35
I2
sS'c'
F1
sg28
F1
sg36
S'Bangladesh'
p181
sg38
I93
sg31
F0
sg30
F2
sS's'
F1
sg39
S'Nottingham'
p182
sg41
g42
((I2009
I6
I6
I0
I0
I0
I5
I157
I-1
t(dtRp183
sa(dp184
g35
I2
sS'c'
F1
sg28
F1
sg36
S'New Zealand'
p185
sg38
I85
sg31
F0
sg30
F1
sS's'
F0
sg39
S'Wellington'
p186
sg41
g42
((I2009
I2
I27
I0
I0
I0
I4
I58
I-1
t(dtRp187
sa(dp188
g35
I2
sS'c'
F0
sg28
F0
sg36
S'New Zealand'
p189
sg38
I84
sg31
F0
sg30
F0
sS's'
F0
sg39
S'Christchurch'
p190
sg41
g42
((I2009
I2
I25
I0
I0
I0
I2
I56
I-1
t(dtRp191
sa(dp192
g35
I1
sS'c'
F0
sg28
F0
sg36
S'Sri Lanka'
p193
sg38
I82
sg31
F0
sg30
F0
sS's'
F0
sg39
S'Colombo (RPS)'
p194
sg41
g42
((I2009
I2
I10
I0
I0
I0
I1
I41
I-1
t(dtRp195
sa(dp196
g35
I2
sS'c'
F0
sg28
F0
sg36
S'Australia'
p197
sg38
I52
sg31
F0
sg30
F0
sS's'
F0
sg39
S'Melbourne'
p198
sg41
g42
((I2008
I2
I1
I0
I0
I0
I4
I32
I-1
t(dtRp199
sa(dp200
g35
I1
sS'c'
F0
sg28
F0
sg36
S'Australia'
p201
sg38
I47
sg31
F0
sg30
F0
sS's'
F0
sg39
S'Mumbai (BS)'
p202
sg41
g42
((I2007
I10
I20
I0
I0
I0
I5
I293
I-1
t(dtRp203
sa(dp204
g35
I2
sS'c'
F0
sg28
F0
sg36
S'Pakistan'
p205
sg38
I46
sg31
F0
sg30
F0
sS's'
F0
sg39
S'Johannesburg'
p206
sg41
g42
((I2007
I9
I24
I0
I0
I0
I0
I267
I-1
t(dtRp207
sa(dp208
g35
I2
sS'c'
F0
sg28
F0
sg36
S'Australia'
p209
sg38
I45
sg31
F0
sg30
F0
sS's'
F0
sg39
S'Durban'
p210
sg41
g42
((I2007
I9
I22
I0
I0
I0
I5
I265
I-1
t(dtRp211
sa(dp212
g35
I2
sS'c'
F0
sg28
F0
sg36
S'South Africa'
p213
sg38
I43
sg31
F0
sg30
F0
sS's'
F0
sg39
S'Durban'
p214
sg41
g42
((I2007
I9
I20
I0
I0
I0
I3
I263
I-1
t(dtRp215
sa(dp216
g35
I2
sS'c'
F0
sg28
F0
sg36
S'England'
p217
sg38
I40
sg31
F0
sg30
F0
sS's'
F0
sg39
S'Durban'
p218
sg41
g42
((I2007
I9
I19
I0
I0
I0
I2
I262
I-1
t(dtRp219
sa(dp220
g35
I1
sS'c'
F0
sg28
F0
sg36
S'New Zealand'
p221
sg38
I32
sg31
F0
sg30
F0
sS's'
F0
sg39
S'Johannesburg'
p222
sg41
g42
((I2007
I9
I16
I0
I0
I0
I6
I259
I-1
t(dtRp223
sa(dp224
g35
I2
sS'c'
F1
sg28
F1
sg36
S'Pakistan'
p225
sg38
I29
sg31
F0
sg30
F1
sS's'
F0
sg39
S'Durban'
p226
sg41
g42
((I2007
I9
I14
I0
I0
I0
I4
I257
I-1
t(dtRp227
sa(dp228
g35
I1
sS'c'
F1
sg28
F1
sg36
S'South Africa'
p229
sg38
I10
sg31
F0
sg30
F1
sS's'
F0
sg39
S'Johannesburg'
p230
sg41
g42
((I2006
I12
I1
I0
I0
I0
I4
I335
I-1
t(dtRp231
satp232
sS'bowlingStats'
p233
((dp234
S'a'
F-1
sS'b'
F0
sS'e'
F-1
sS'i'
F0
sS'sr'
p235
F-1
sS'5w'
p236
F0
sS'm'
F49
sS'maid'
p237
F0
sS'r'
F0
sS'w'
F0
sS'4w'
p238
F0
sS'bbir'
p239
F-1
sS'bbiw'
p240
F-1
sg32
F2014
sg29
F2006
s(ltp241
sS'battingStats'
p242
((dp243
S'a'
F32.880000000000003
sS'0s'
p244
F1
sS'b'
F712
sS'no'
p245
F19
sg29
F2006
sS'hs'
p246
F48
sS'm'
F49
sS'4s'
p247
F55
sg32
F2014
sS'i'
F44
sS'6s'
p248
F23
sg235
F115.44943820224719
sS'r'
F822
sS'100s'
p249
F0
sS'50s'
p250
F0
s(lp251
(dp252
g35
I1
sS'b'
F7
sg36
S'Sri Lanka'
p253
sg245
I01
sg235
F57.142857142857146
sg38
I400
sS'dismiss'
p254
S'not out'
p255
sg247
F0
sS'pos'
p256
I5
sg248
F0
sg39
S'Dhaka'
p257
sg41
g42
((I2014
I4
I6
I0
I0
I0
I6
I96
I-1
t(dtRp258
sS'r'
F4
sS'minutes'
p259
F10
sa(dp260
g35
I2
sS'b'
F1
sg36
S'South Africa'
p261
sg245
I01
sg235
F0
sg38
I399
sg254
S'not out'
p262
sg247
F0
sg256
I6
sg248
F0
sg39
S'Dhaka'
p263
sg41
g42
((I2014
I4
I4
I0
I0
I0
I4
I94
I-1
t(dtRp264
sS'r'
F0
sg259
F3
sa(dp265
g35
I1
sS'b'
F20
sg36
S'Australia'
p266
sg235
F120
sg38
I393
sg254
S'bowled'
p267
sg247
F1
sg256
I6
sg248
F1
sg39
S'Dhaka'
p268
sg41
g42
((I2014
I3
I30
I0
I0
I0
I6
I89
I-1
t(dtRp269
sS'r'
F24
sg259
F36
sa(dp270
g35
I2
sS'b'
F12
sg36
S'Bangladesh'
p271
sg245
I01
sg235
F183.33333333333334
sg38
I389
sg254
S'not out'
p272
sg247
F1
sg256
I4
sg248
F2
sg39
S'Dhaka'
p273
sg41
g42
((I2014
I3
I28
I0
I0
I0
I4
I87
I-1
t(dtRp274
sS'r'
F22
sg259
F16
sa(dp275
g35
I2
sS'b'
F21
sg36
S'Australia'
p276
sg245
I01
sg235
F114.28571428571429
sg38
I331
sg254
S'not out'
p277
sg247
F2
sg256
I6
sg248
F0
sg39
S'Rajkot'
p278
sg41
g42
((I2013
I10
I10
I0
I0
I0
I3
I283
I-1
t(dtRp279
sS'r'
F24
sg259
F44
sa(dp280
g35
I1
sS'b'
F23
sg36
S'Pakistan'
p281
sg235
F143.47826086956522
sg38
I298
sg254
S'bowled'
p282
sg247
F4
sg256
I5
sg248
F0
sg39
S'Ahmedabad'
p283
sg41
g42
((I2012
I12
I28
I0
I0
I0
I4
I363
I-1
t(dtRp284
sS'r'
F33
sg259
F39
sa(dp285
g35
I1
sS'b'
F2
sg36
S'Pakistan'
p286
sg235
F50
sg38
I296
sg254
S'bowled'
p287
sg247
F0
sg256
I5
sg248
F0
sg39
S'Bangalore'
p288
sg41
g42
((I2012
I12
I25
I0
I0
I0
I1
I360
I-1
t(dtRp289
sS'r'
F1
sg259
F7
sa(dp290
g35
I1
sS'b'
F18
sg36
S'England'
p291
sg235
F211.11111111111111
sg38
I294
sg254
S'caught'
p292
sg247
F3
sg256
I7
sg248
F2
sg39
S'Mumbai'
p293
sg41
g42
((I2012
I12
I22
I0
I0
I0
I5
I357
I-1
t(dtRp294
sS'r'
F38
sg259
F23
sa(dp295
g35
I2
sS'b'
F21
sg36
S'England'
p296
sg245
I01
sg235
F114.28571428571429
sg38
I292
sg254
S'not out'
p297
sg247
F2
sg256
I6
sg248
F0
sg39
S'Pune'
p298
sg41
g42
((I2012
I12
I20
I0
I0
I0
I3
I355
I-1
t(dtRp299
sS'r'
F24
sg259
F29
sa(dp300
g35
I1
sS'b'
F13
sg36
S'South Africa'
p301
sg245
I01
sg235
F176.92307692307693
sg38
I286
sg254
S'not out'
p302
sg247
F3
sg256
I7
sg248
F0
sg39
S'Colombo (RPS)'
p303
sg41
g42
((I2012
I10
I2
I0
I0
I0
I1
I276
I-1
t(dtRp304
sS'r'
F23
sg259
F20
sa(dp305
g35
I1
sS'b'
F21
sg36
S'Australia'
p306
sg235
F71.428571428571431
sg38
I278
sg254
S'caught'
p307
sg247
F2
sg256
I7
sg248
F0
sg39
S'Colombo (RPS)'
p308
sg41
g42
((I2012
I9
I28
I0
I0
I0
I4
I272
I-1
t(dtRp309
sS'r'
F15
sg259
F21
sa(dp310
g35
I1
sS'b'
F8
sg36
S'England'
p311
sg235
F112.5
sg38
I272
sg254
S'caught'
p312
sg247
F1
sg256
I5
sg248
F0
sg39
S'Colombo (RPS)'
p313
sg41
g42
((I2012
I9
I23
I0
I0
I0
I6
I267
I-1
t(dtRp314
sS'r'
F9
sg259
F23
sa(dp315
g35
I1
sS'b'
F9
sg36
S'Afghanistan'
p316
sg245
I01
sg235
F200
sg38
I265
sg254
S'not out'
p317
sg247
F2
sg256
I6
sg248
F1
sg39
S'Colombo (RPS)'
p318
sg41
g42
((I2012
I9
I19
I0
I0
I0
I2
I263
I-1
t(dtRp319
sS'r'
F18
sg259
F21
sa(dp320
g35
I2
sS'b'
F23
sg36
S'New Zealand'
p321
sg245
I01
sg235
F95.652173913043484
sg38
I261
sg254
S'not out'
p322
sg247
F2
sg256
I5
sg248
F0
sg39
S'Chennai'
p323
sg41
g42
((I2012
I9
I11
I0
I0
I0
I1
I255
I-1
t(dtRp324
sS'r'
F22
sg259
F31
sa(dp325
g35
I1
sS'b'
F14
sg36
S'Sri Lanka'
p326
sg245
I01
sg235
F114.28571428571429
sg38
I255
sg254
S'not out'
p327
sg247
F2
sg256
I5
sg248
F0
sg39
S'Pallekele'
p328
sg41
g42
((I2012
I8
I7
I0
I0
I0
I1
I220
I-1
t(dtRp329
sS'r'
F16
sg259
F13
sa(dp330
g35
I2
sS'b'
F18
sg36
S'Australia'
p331
sg245
I01
sg235
F116.66666666666667
sg38
I218
sg254
S'not out'
p332
sg247
F2
sg256
I4
sg248
F0
sg39
S'Melbourne'
p333
sg41
g42
((I2012
I2
I3
I0
I0
I0
I4
I34
I-1
t(dtRp334
sS'r'
F21
sg259
F26
sa(dp335
g35
I2
sS'b'
F43
sg36
S'Australia'
p336
sg245
I01
sg235
F111.62790697674419
sg38
I217
sg254
S'not out'
p337
sg247
F1
sg256
I6
sg248
F3
sg39
S'Sydney'
p338
sg41
g42
((I2012
I2
I1
I0
I0
I0
I2
I32
I-1
t(dtRp339
sS'r'
F48
sg259
F55
sa(dp340
g35
I1
sS'b'
F26
sg36
S'England'
p341
sg235
F80.769230769230774
sg38
I214
sg254
S'run out'
p342
sg247
F0
sg256
I6
sg248
F1
sg39
S'Kolkata'
p343
sg41
g42
((I2011
I10
I29
I0
I0
I0
I5
I302
I-1
t(dtRp344
sS'r'
F21
sg259
F44
sa(dp345
g35
I1
sS'b'
F8
sg36
S'England'
p346
sg235
F100
sg38
I204
sg254
S'caught'
p347
sg247
F1
sg256
I7
sg248
F0
sg39
S'Manchester'
p348
sg41
g42
((I2011
I8
I31
I0
I0
I0
I2
I243
I-1
t(dtRp349
sS'r'
F8
sg259
F15
sa(dp350
g35
I1
sS'b'
F11
sg36
S'South Africa'
p351
sg245
I01
sg235
F90.909090909090907
sg38
I196
sg254
S'not out'
p352
sg247
F0
sg256
I7
sg248
F0
sg39
S'Durban'
p353
sg41
g42
((I2011
I1
I9
I0
I0
I0
I6
I9
I-1
t(dtRp354
sS'r'
F10
sg259
F19
sa(dp355
g35
I1
sS'b'
F19
sg36
S'Sri Lanka'
p356
sg245
I01
sg235
F121.05263157894737
sg38
I173
sg254
S'not out'
p357
sg247
F0
sg256
I4
sg248
F1
sg39
S'Gros Islet'
p358
sg41
g42
((I2010
I5
I11
I0
I0
I0
I1
I131
I-1
t(dtRp359
sS'r'
F23
sg259
F43
sa(dp360
g35
I2
sS'b'
F18
sg36
S'West Indies'
p361
sg235
F161.11111111111111
sg38
I169
sg254
S'run out'
p362
sg247
F2
sg256
I6
sg248
F2
sg39
S'Bridgetown'
p363
sg41
g42
((I2010
I5
I9
I0
I0
I0
I6
I129
I-1
t(dtRp364
sS'r'
F29
sg259
F30
sa(dp365
g35
I2
sS'b'
F8
sg36
S'Australia'
p366
sg235
F25
sg38
I165
sg254
S'caught'
p367
sg247
F0
sg256
I6
sg248
F0
sg39
S'Bridgetown'
p368
sg41
g42
((I2010
I5
I7
I0
I0
I0
I4
I127
I-1
t(dtRp369
sS'r'
F2
sg259
F10
sa(dp370
g35
I1
sS'b'
F6
sg36
S'South Africa'
p371
sg245
I01
sg235
F266.66666666666669
sg38
I155
sg254
S'not out'
p372
sg247
F1
sg256
I6
sg248
F1
sg39
S'Gros Islet'
p373
sg41
g42
((I2010
I5
I2
I0
I0
I0
I6
I122
I-1
t(dtRp374
sS'r'
F16
sg259
F6
sa(dp375
g35
I2
sS'b'
F6
sg36
S'Afghanistan'
p376
sg245
I01
sg235
F250
sg38
I153
sg254
S'not out'
p377
sg247
F0
sg256
I5
sg248
F2
sg39
S'Gros Islet'
p378
sg41
g42
((I2010
I5
I1
I0
I0
I0
I5
I121
I-1
t(dtRp379
sS'r'
F15
sg259
F2
sa(dp380
g35
I2
sS'b'
F28
sg36
S'Sri Lanka'
p381
sg235
F164.28571428571428
sg38
I127
sg254
S'bowled'
p382
sg247
F3
sg256
I3
sg248
F2
sg39
S'Mohali'
p383
sg41
g42
((I2009
I12
I12
I0
I0
I0
I5
I346
I-1
t(dtRp384
sS'r'
F46
sg259
F55
sa(dp385
g35
I2
sS'b'
F12
sg36
S'Sri Lanka'
p386
sg235
F75
sg38
I126
sg254
S'caught'
p387
sg247
F0
sg256
I3
sg248
F0
sg39
S'Nagpur'
p388
sg41
g42
((I2009
I12
I9
I0
I0
I0
I2
I343
I-1
t(dtRp389
sS'r'
F9
sg259
F-1
sa(dp390
g35
I2
sS'b'
F12
sg36
S'South Africa'
p391
sg235
F41.666666666666664
sg38
I113
sg254
S'run out'
p392
sg247
F0
sg256
I5
sg248
F0
sg39
S'Nottingham'
p393
sg41
g42
((I2009
I6
I16
I0
I0
I0
I1
I167
I-1
t(dtRp394
sS'r'
F5
sg259
F11
sa(dp395
g35
I2
sS'b'
F20
sg36
S'England'
p396
sg245
I01
sg235
F150
sg38
I109
sg254
S'not out'
p397
sg247
F3
sg256
I6
sg248
F0
sg39
S"Lord's"
p398
sg41
g42
((I2009
I6
I14
I0
I0
I0
I6
I165
I-1
t(dtRp399
sS'r'
F30
sg259
F33
sa(dp400
g35
I1
sS'b'
F23
sg36
S'West Indies'
p401
sg235
F47.826086956521742
sg38
I105
sg254
S'caught'
p402
sg247
F0
sg256
I5
sg248
F0
sg39
S"Lord's"
p403
sg41
g42
((I2009
I6
I12
I0
I0
I0
I4
I163
I-1
t(dtRp404
sS'r'
F11
sg259
F24
sa(dp405
g35
I2
sS'b'
F13
sg36
S'Ireland'
p406
sg235
F107.69230769230769
sg38
I101
sg254
S'caught'
p407
sg247
F1
sg256
I3
sg248
F0
sg39
S'Nottingham'
p408
sg41
g42
((I2009
I6
I10
I0
I0
I0
I2
I161
I-1
t(dtRp409
sS'r'
F14
sg259
F9
sa(dp410
g35
I1
sS'b'
F21
sg36
S'Bangladesh'
p411
sg235
F123.80952380952381
sg38
I93
sg254
S'bowled'
p412
sg247
F0
sg256
I3
sg248
F1
sg39
S'Nottingham'
p413
sg41
g42
((I2009
I6
I6
I0
I0
I0
I5
I157
I-1
t(dtRp414
sS'r'
F26
sg259
F26
sa(dp415
g35
I1
sS'b'
F30
sg36
S'New Zealand'
p416
sg245
I01
sg235
F93.333333333333329
sg38
I85
sg254
S'not out'
p417
sg247
F2
sg256
I5
sg248
F0
sg39
S'Wellington'
p418
sg41
g42
((I2009
I2
I27
I0
I0
I0
I4
I58
I-1
t(dtRp419
sS'r'
F28
sg259
F57
sa(dp420
g35
I1
sS'b'
F6
sg36
S'New Zealand'
p421
sg235
F33.333333333333336
sg38
I84
sg254
S'bowled'
p422
sg247
F0
sg256
I6
sg248
F0
sg39
S'Christchurch'
p423
sg41
g42
((I2009
I2
I25
I0
I0
I0
I2
I56
I-1
t(dtRp424
sS'r'
F2
sg259
F5
sa(dp425
g35
I2
sS'b'
F17
sg36
S'Sri Lanka'
p426
sg235
F76.470588235294116
sg38
I82
sg254
S'bowled'
p427
sg247
F1
sg256
I5
sg248
F0
sg39
S'Colombo (RPS)'
p428
sg41
g42
((I2009
I2
I10
I0
I0
I0
I1
I41
I-1
t(dtRp429
sS'r'
F13
sg259
F17
sa(dp430
g35
I1
sS'b'
F27
sg36
S'Australia'
p431
sg235
F33.333333333333336
sg38
I52
sg254
S'caught'
p432
sg247
F0
sg256
I6
sg248
F0
sg39
S'Melbourne'
p433
sg41
g42
((I2008
I2
I1
I0
I0
I0
I4
I32
I-1
t(dtRp434
sS'r'
F9
sg259
F30
sa(dp435
g35
I2
sS'b'
F5
sg36
S'Australia'
p436
sg245
I01
sg235
F180
sg38
I47
sg254
S'not out'
p437
sg247
F0
sg256
I5
sg248
F1
sg39
S'Mumbai (BS)'
p438
sg41
g42
((I2007
I10
I20
I0
I0
I0
I5
I293
I-1
t(dtRp439
sS'r'
F9
sg259
F11
sa(dp440
g35
I1
sS'b'
F10
sg36
S'Pakistan'
p441
sg235
F60
sg38
I46
sg254
S'bowled'
p442
sg247
F0
sg256
I5
sg248
F0
sg39
S'Johannesburg'
p443
sg41
g42
((I2007
I9
I24
I0
I0
I0
I0
I267
I-1
t(dtRp444
sS'r'
F6
sg259
F9
sa(dp445
g35
I1
sS'b'
F18
sg36
S'Australia'
p446
sg235
F200
sg38
I45
sg254
S'run out'
p447
sg247
F4
sg256
I5
sg248
F1
sg39
S'Durban'
p448
sg41
g42
((I2007
I9
I22
I0
I0
I0
I5
I265
I-1
t(dtRp449
sS'r'
F36
sg259
F21
sa(dp450
g35
I1
sS'b'
F33
sg36
S'South Africa'
p451
sg235
F136.36363636363637
sg38
I43
sg254
S'run out'
p452
sg247
F4
sg256
I6
sg248
F1
sg39
S'Durban'
p453
sg41
g42
((I2007
I9
I20
I0
I0
I0
I3
I263
I-1
t(dtRp454
sS'r'
F45
sg259
F39
sa(dp455
g35
I1
sS'b'
F8
sg36
S'England'
p456
sg245
I01
sg235
F125
sg38
I40
sg254
S'not out'
p457
sg247
F0
sg256
I4
sg248
F0
sg39
S'Durban'
p458
sg41
g42
((I2007
I9
I19
I0
I0
I0
I2
I262
I-1
t(dtRp459
sS'r'
F10
sg259
F22
sa(dp460
g35
I2
sS'b'
F20
sg36
S'New Zealand'
p461
sg235
F120
sg38
I32
sg254
S'run out'
p462
sg247
F2
sg256
I4
sg248
F0
sg39
S'Johannesburg'
p463
sg41
g42
((I2007
I9
I16
I0
I0
I0
I6
I259
I-1
t(dtRp464
sS'r'
F24
sg259
F31
sa(dp465
g35
I1
sS'b'
F31
sg36
S'Pakistan'
p466
sg235
F106.45161290322581
sg38
I29
sg254
S'caught'
p467
sg247
F3
sg256
I6
sg248
F1
sg39
S'Durban'
p468
sg41
g42
((I2007
I9
I14
I0
I0
I0
I4
I257
I-1
t(dtRp469
sS'r'
F33
sg259
F46
sa(dp470
g35
I2
sS'b'
F2
sg36
S'South Africa'
p471
sg235
F0
sg38
I10
sg254
S'bowled'
p472
sg247
F0
sg256
I4
sg248
F0
sg39
S'Johannesburg'
p473
sg41
g42
((I2006
I12
I1
I0
I0
I0
I4
I335
I-1
t(dtRp474
sS'r'
F0
sg259
F8
satp475
ssS'all'
p476
(dp477
g26
(dp478
S'c'
F85
sg28
F0
sS'i'
F169
sS'm'
F169
sS's'
F39
sg30
F124
sg31
F85
ssg233
(dp479
S'a'
F-1
sS'b'
F12
sS'e'
F12.5
sS'i'
F1
sg235
F-1
sg236
F0
sS'm'
F169
sg237
F0
sS'r'
F25
sS'w'
F0
sg238
F0
sg239
F-1
sg240
F-1
ssg242
(dp480
S'a'
F35.797979797979799
sg244
F-1
sS'b'
F2634
sg245
F52
sS'i'
F151
sg246
F73
sS'm'
F169
sg247
F258
sg248
F138
sg235
F134.54821564160972
sS'r'
F3544
sg249
F0
sg250
F15
ssssb.