(iplayer
Player
p1
(dp2
S'is_batsman'
p3
I00
sS'name'
p4
S'Dinesh Karthik'
p5
sS'dob'
p6
S'1985/06/01'
p7
sS'price'
p8
S'900000'
p9
sS'is_allrounder'
p10
I00
sS'espnid'
p11
S'30045'
p12
sS'is_overseas'
p13
I00
sS'team'
p14
S'DD'
p15
sS'nationality'
p16
S'Indian'
p17
sS'is_bowler'
p18
I00
sS'is_keeper'
p19
I01
sS'id'
p20
S'102'
p21
sS'is_uncapped'
p22
I00
sS'tournamentStats'
p23
(dp24
S'international'
p25
(dp26
S'fieldingStats'
p27
((dp28
S'c'
F5
sS'ctw'
p29
F0
sS'span_s'
p30
F2006
sS'm'
F9
sS's'
F2
sS'dismissals'
p31
F7
sS'i'
F8
sS'ctf'
p32
F5
sS'span_f'
p33
F2010
s(lp34
(dp35
S'inning'
p36
I2
sS'c'
F1
sg29
F0
sS'opp'
p37
S'Sri Lanka'
p38
sS't20i_num'
p39
I173
sg32
F1
sg31
F1
sS's'
F0
sS'place'
p40
S'Gros Islet'
p41
sS'date'
p42
ctime
struct_time
p43
((I2010
I5
I11
I0
I0
I0
I1
I131
I-1
t(dtRp44
sa(dp45
g36
I2
sS'c'
F0
sg29
F0
sg37
S'South Africa'
p46
sg39
I155
sg32
F0
sg31
F0
sS's'
F0
sg40
S'Gros Islet'
p47
sg42
g43
((I2010
I5
I2
I0
I0
I0
I6
I122
I-1
t(dtRp48
sa(dp49
g36
I1
sS'c'
F1
sg29
F0
sg37
S'Sri Lanka'
p50
sg39
I127
sg32
F1
sg31
F1
sS's'
F0
sg40
S'Mohali'
p51
sg42
g43
((I2009
I12
I12
I0
I0
I0
I5
I346
I-1
t(dtRp52
sa(dp53
g36
I2
sS'c'
F0
sg29
F0
sg37
S'Australia'
p54
sg39
I52
sg32
F0
sg31
F0
sS's'
F0
sg40
S'Melbourne'
p55
sg42
g43
((I2008
I2
I1
I0
I0
I0
I4
I32
I-1
t(dtRp56
sa(dp57
g36
I2
sS'c'
F1
sg29
F0
sg37
S'South Africa'
p58
sg39
I43
sg32
F1
sg31
F3
sS's'
F2
sg40
S'Durban'
p59
sg42
g43
((I2007
I9
I20
I0
I0
I0
I3
I263
I-1
t(dtRp60
sa(dp61
g36
I1
sS'c'
F1
sg29
F0
sg37
S'New Zealand'
p62
sg39
I32
sg32
F1
sg31
F1
sS's'
F0
sg40
S'Johannesburg'
p63
sg42
g43
((I2007
I9
I16
I0
I0
I0
I6
I259
I-1
t(dtRp64
sa(dp65
g36
I2
sS'c'
F1
sg29
F0
sg37
S'Pakistan'
p66
sg39
I29
sg32
F1
sg31
F1
sS's'
F0
sg40
S'Durban'
p67
sg42
g43
((I2007
I9
I14
I0
I0
I0
I4
I257
I-1
t(dtRp68
sa(dp69
g36
I1
sS'c'
F0
sg29
F0
sg37
S'South Africa'
p70
sg39
I10
sg32
F0
sg31
F0
sS's'
F0
sg40
S'Johannesburg'
p71
sg42
g43
((I2006
I12
I1
I0
I0
I0
I4
I335
I-1
t(dtRp72
satp73
sS'bowlingStats'
p74
((dp75
S'a'
F-1
sS'b'
F0
sS'e'
F-1
sS'i'
F0
sS'sr'
p76
F-1
sS'5w'
p77
F0
sS'm'
F9
sS'maid'
p78
F0
sS'r'
F0
sS'w'
F0
sS'4w'
p79
F0
sS'bbir'
p80
F-1
sS'bbiw'
p81
F-1
sg33
F2010
sg30
F2006
s(ltp82
sS'battingStats'
p83
((dp84
S'a'
F16.666666666666668
sS'0s'
p85
F1
sS'b'
F88
sS'no'
p86
F2
sg30
F2006
sS'hs'
p87
F31
sS'm'
F9
sS'4s'
p88
F14
sg33
F2010
sS'i'
F8
sS'6s'
p89
F1
sg76
F113.63636363636364
sS'r'
F100
sS'100s'
p90
F0
sS'50s'
p91
F0
s(lp92
(dp93
g36
I1
sS'b'
F12
sg37
S'Sri Lanka'
p94
sg76
F108.33333333333333
sg39
I173
sS'dismiss'
p95
S'caught'
p96
sg88
F2
sS'pos'
p97
I1
sg89
F0
sg40
S'Gros Islet'
p98
sg42
g43
((I2010
I5
I11
I0
I0
I0
I1
I131
I-1
t(dtRp99
sS'r'
F13
sS'minutes'
p100
F20
sa(dp101
g36
I1
sS'b'
F17
sg37
S'South Africa'
p102
sg76
F94.117647058823536
sg39
I155
sg95
S'caught'
p103
sg88
F2
sg97
I1
sg89
F0
sg40
S'Gros Islet'
p104
sg42
g43
((I2010
I5
I2
I0
I0
I0
I6
I122
I-1
t(dtRp105
sS'r'
F16
sg100
F26
sa(dp106
g36
I2
sS'b'
F1
sg37
S'Sri Lanka'
p107
sg86
I01
sg76
F400
sg39
I127
sg95
S'not out'
p108
sg88
F1
sg97
I6
sg89
F0
sg40
S'Mohali'
p109
sg42
g43
((I2009
I12
I12
I0
I0
I0
I5
I346
I-1
t(dtRp110
sS'r'
F4
sg100
F2
sa(dp111
g36
I1
sS'b'
F8
sg37
S'Australia'
p112
sg76
F100
sg39
I52
sg95
S'bowled'
p113
sg88
F1
sg97
I3
sg89
F0
sg40
S'Melbourne'
p114
sg42
g43
((I2008
I2
I1
I0
I0
I0
I4
I32
I-1
t(dtRp115
sS'r'
F8
sg100
F9
sa(dp116
g36
I1
sS'b'
F1
sg37
S'South Africa'
p117
sg76
F0
sg39
I43
sg95
S'caught'
p118
sg88
F0
sg97
I3
sg89
F0
sg40
S'Durban'
p119
sg42
g43
((I2007
I9
I20
I0
I0
I0
I3
I263
I-1
t(dtRp120
sS'r'
F0
sg100
F1
sa(dp121
g36
I2
sS'b'
F12
sg37
S'New Zealand'
p122
sg76
F141.66666666666666
sg39
I32
sg95
S'caught'
p123
sg88
F3
sg97
I6
sg89
F0
sg40
S'Johannesburg'
p124
sg42
g43
((I2007
I9
I16
I0
I0
I0
I6
I259
I-1
t(dtRp125
sS'r'
F17
sg100
F18
sa(dp126
g36
I1
sS'b'
F9
sg37
S'Pakistan'
p127
sg76
F122.22222222222223
sg39
I29
sg95
S'bowled'
p128
sg88
F2
sg97
I5
sg89
F0
sg40
S'Durban'
p129
sg42
g43
((I2007
I9
I14
I0
I0
I0
I4
I257
I-1
t(dtRp130
sS'r'
F11
sg100
F12
sa(dp131
g36
I2
sS'b'
F28
sg37
S'South Africa'
p132
sg86
I01
sg76
F110.71428571428571
sg39
I10
sg95
S'not out'
p133
sg88
F3
sg97
I5
sg89
F1
sg40
S'Johannesburg'
p134
sg42
g43
((I2006
I12
I1
I0
I0
I0
I4
I335
I-1
t(dtRp135
sS'r'
F31
sg100
F44
satp136
ssS'all'
p137
(dp138
g27
(dp139
S'c'
F83
sg29
F0
sS'i'
F147
sS'm'
F147
sS's'
F33
sg31
F116
sg32
F83
ssg74
(dp140
S'a'
F10
sS'b'
F12
sS'e'
F5
sS'i'
F1
sg76
F12
sg77
F0
sS'm'
F147
sg78
F0
sS'r'
F10
sS'w'
F1
sg79
F0
sg80
F10
sg81
F1
ssg83
(dp141
S'a'
F25.490909090909092
sg85
F-1
sS'b'
F2174
sg86
F20
sS'i'
F130
sg87
F90
sS'm'
F147
sg88
F280
sg89
F79
sg76
F128.97884084636615
sS'r'
F2804
sg90
F0
sg91
F12
ssssb.