(iplayer
Player
p1
(dp2
S'is_batsman'
p3
I01
sS'name'
p4
S'George Bailey'
p5
sS'dob'
p6
S'1982/09/07'
p7
sS'price'
p8
S'900000'
p9
sS'is_allrounder'
p10
I00
sS'espnid'
p11
S'4451'
p12
sS'is_overseas'
p13
I01
sS'team'
p14
S'KXIP'
p15
sS'nationality'
p16
S'Australian'
p17
sS'is_bowler'
p18
I00
sS'is_keeper'
p19
I00
sS'id'
p20
S'19'
p21
sS'is_uncapped'
p22
I00
sS'tournamentStats'
p23
(dp24
S'international'
p25
(dp26
S'fieldingStats'
p27
((dp28
S'c'
F9
sS'ctw'
p29
F0
sS'span_s'
p30
F2012
sS'm'
F28
sS'ctf'
p31
F9
sS'dismissals'
p32
F9
sS'i'
F28
sS's'
F0
sS'span_f'
p33
F2014
s(lp34
(dp35
S'inning'
p36
I1
sS'c'
F0
sg29
F0
sS'opp'
p37
S'Bangladesh'
p38
sS't20i_num'
p39
I396
sS's'
F0
sg32
F0
sg31
F0
sS'place'
p40
S'Dhaka'
p41
sS'date'
p42
ctime
struct_time
p43
((I2014
I4
I1
I0
I0
I0
I1
I91
I-1
t(dtRp44
sa(dp45
g36
I1
sS'c'
F0
sg29
F0
sg37
S'India'
p46
sg39
I393
sS's'
F0
sg32
F0
sg31
F0
sg40
S'Dhaka'
p47
sg42
g43
((I2014
I3
I30
I0
I0
I0
I6
I89
I-1
t(dtRp48
sa(dp49
g36
I2
sS'c'
F0
sg29
F0
sg37
S'West Indies'
p50
sg39
I388
sS's'
F0
sg32
F0
sg31
F0
sg40
S'Dhaka'
p51
sg42
g43
((I2014
I3
I28
I0
I0
I0
I4
I87
I-1
t(dtRp52
sa(dp53
g36
I1
sS'c'
F0
sg29
F0
sg37
S'Pakistan'
p54
sg39
I381
sS's'
F0
sg32
F0
sg31
F0
sg40
S'Dhaka'
p55
sg42
g43
((I2014
I3
I23
I0
I0
I0
I6
I82
I-1
t(dtRp56
sa(dp57
g36
I1
sS'c'
F1
sg29
F0
sg37
S'South Africa'
p58
sg39
I365
sS's'
F0
sg32
F1
sg31
F1
sg40
S'Centurion'
p59
sg42
g43
((I2014
I3
I14
I0
I0
I0
I4
I73
I-1
t(dtRp60
sa(dp61
g36
I1
sS'c'
F0
sg29
F0
sg37
S'South Africa'
p62
sg39
I363
sS's'
F0
sg32
F0
sg31
F0
sg40
S'Durban'
p63
sg42
g43
((I2014
I3
I12
I0
I0
I0
I2
I71
I-1
t(dtRp64
sa(dp65
g36
I2
sS'c'
F0
sg29
F0
sg37
S'England'
p66
sg39
I356
sS's'
F0
sg32
F0
sg31
F0
sg40
S'Sydney'
p67
sg42
g43
((I2014
I2
I2
I0
I0
I0
I6
I33
I-1
t(dtRp68
sa(dp69
g36
I1
sS'c'
F0
sg29
F0
sg37
S'England'
p70
sg39
I355
sS's'
F0
sg32
F0
sg31
F0
sg40
S'Melbourne'
p71
sg42
g43
((I2014
I1
I31
I0
I0
I0
I4
I31
I-1
t(dtRp72
sa(dp73
g36
I2
sS'c'
F0
sg29
F0
sg37
S'England'
p74
sg39
I354
sS's'
F0
sg32
F0
sg31
F0
sg40
S'Hobart'
p75
sg42
g43
((I2014
I1
I29
I0
I0
I0
I2
I29
I-1
t(dtRp76
sa(dp77
g36
I2
sS'c'
F0
sg29
F0
sg37
S'India'
p78
sg39
I331
sS's'
F0
sg32
F0
sg31
F0
sg40
S'Rajkot'
p79
sg42
g43
((I2013
I10
I10
I0
I0
I0
I3
I283
I-1
t(dtRp80
sa(dp81
g36
I1
sS'c'
F0
sg29
F0
sg37
S'England'
p82
sg39
I329
sS's'
F0
sg32
F0
sg31
F0
sg40
S'Chester-le-Street'
p83
sg42
g43
((I2013
I8
I31
I0
I0
I0
I5
I243
I-1
t(dtRp84
sa(dp85
g36
I2
sS'c'
F0
sg29
F0
sg37
S'England'
p86
sg39
I328
sS's'
F0
sg32
F0
sg31
F0
sg40
S'Southampton'
p87
sg42
g43
((I2013
I8
I29
I0
I0
I0
I3
I241
I-1
t(dtRp88
sa(dp89
g36
I1
sS'c'
F0
sg29
F0
sg37
S'West Indies'
p90
sg39
I303
sS's'
F0
sg32
F0
sg31
F0
sg40
S'Brisbane'
p91
sg42
g43
((I2013
I2
I13
I0
I0
I0
I2
I44
I-1
t(dtRp92
sa(dp93
g36
I1
sS'c'
F2
sg29
F0
sg37
S'Sri Lanka'
p94
sg39
I300
sS's'
F0
sg32
F2
sg31
F2
sg40
S'Melbourne'
p95
sg42
g43
((I2013
I1
I28
I0
I0
I0
I0
I28
I-1
t(dtRp96
sa(dp97
g36
I2
sS'c'
F0
sg29
F0
sg37
S'Sri Lanka'
p98
sg39
I299
sS's'
F0
sg32
F0
sg31
F0
sg40
S'Sydney'
p99
sg42
g43
((I2013
I1
I26
I0
I0
I0
I5
I26
I-1
t(dtRp100
sa(dp101
g36
I1
sS'c'
F1
sg29
F0
sg37
S'West Indies'
p102
sg39
I288
sS's'
F0
sg32
F1
sg31
F1
sg40
S'Colombo (RPS)'
p103
sg42
g43
((I2012
I10
I5
I0
I0
I0
I4
I279
I-1
t(dtRp104
sa(dp105
g36
I1
sS'c'
F1
sg29
F0
sg37
S'Pakistan'
p106
sg39
I285
sS's'
F0
sg32
F1
sg31
F1
sg40
S'Colombo (RPS)'
p107
sg42
g43
((I2012
I10
I2
I0
I0
I0
I1
I276
I-1
t(dtRp108
sa(dp109
g36
I1
sS'c'
F1
sg29
F0
sg37
S'South Africa'
p110
sg39
I281
sS's'
F0
sg32
F1
sg31
F1
sg40
S'Colombo (RPS)'
p111
sg42
g43
((I2012
I9
I30
I0
I0
I0
I6
I274
I-1
t(dtRp112
sa(dp113
g36
I1
sS'c'
F1
sg29
F0
sg37
S'India'
p114
sg39
I278
sS's'
F0
sg32
F1
sg31
F1
sg40
S'Colombo (RPS)'
p115
sg42
g43
((I2012
I9
I28
I0
I0
I0
I4
I272
I-1
t(dtRp116
sa(dp117
g36
I1
sS'c'
F0
sg29
F0
sg37
S'West Indies'
p118
sg39
I270
sS's'
F0
sg32
F0
sg31
F0
sg40
S'Colombo (RPS)'
p119
sg42
g43
((I2012
I9
I22
I0
I0
I0
I5
I266
I-1
t(dtRp120
sa(dp121
g36
I1
sS'c'
F0
sg29
F0
sg37
S'Ireland'
p122
sg39
I264
sS's'
F0
sg32
F0
sg31
F0
sg40
S'Colombo (RPS)'
p123
sg42
g43
((I2012
I9
I19
I0
I0
I0
I2
I263
I-1
t(dtRp124
sa(dp125
g36
I2
sS'c'
F1
sg29
F0
sg37
S'Pakistan'
p126
sg39
I259
sS's'
F0
sg32
F1
sg31
F1
sg40
S'Dubai (DSC)'
p127
sg42
g43
((I2012
I9
I10
I0
I0
I0
I0
I254
I-1
t(dtRp128
sa(dp129
g36
I1
sS'c'
F0
sg29
F0
sg37
S'Pakistan'
p130
sg39
I257
sS's'
F0
sg32
F0
sg31
F0
sg40
S'Dubai (DSC)'
p131
sg42
g43
((I2012
I9
I7
I0
I0
I0
I4
I251
I-1
t(dtRp132
sa(dp133
g36
I2
sS'c'
F0
sg29
F0
sg37
S'Pakistan'
p134
sg39
I256
sS's'
F0
sg32
F0
sg31
F0
sg40
S'Dubai (DSC)'
p135
sg42
g43
((I2012
I9
I5
I0
I0
I0
I2
I249
I-1
t(dtRp136
sa(dp137
g36
I1
sS'c'
F1
sg29
F0
sg37
S'West Indies'
p138
sg39
I243
sS's'
F0
sg32
F1
sg31
F1
sg40
S'Bridgetown'
p139
sg42
g43
((I2012
I3
I30
I0
I0
I0
I4
I90
I-1
t(dtRp140
sa(dp141
g36
I1
sS'c'
F0
sg29
F0
sg37
S'West Indies'
p142
sg39
I241
sS's'
F0
sg32
F0
sg31
F0
sg40
S'Gros Islet'
p143
sg42
g43
((I2012
I3
I27
I0
I0
I0
I1
I87
I-1
t(dtRp144
sa(dp145
g36
I2
sS'c'
F0
sg29
F0
sg37
S'India'
p146
sg39
I218
sS's'
F0
sg32
F0
sg31
F0
sg40
S'Melbourne'
p147
sg42
g43
((I2012
I2
I3
I0
I0
I0
I4
I34
I-1
t(dtRp148
sa(dp149
g36
I2
sS'c'
F0
sg29
F0
sg37
S'India'
p150
sg39
I217
sS's'
F0
sg32
F0
sg31
F0
sg40
S'Sydney'
p151
sg42
g43
((I2012
I2
I1
I0
I0
I0
I2
I32
I-1
t(dtRp152
satp153
sS'bowlingStats'
p154
((dp155
S'a'
F-1
sS'b'
F0
sS'e'
F-1
sS'i'
F0
sS'sr'
p156
F-1
sS'5w'
p157
F0
sS'm'
F28
sS'maid'
p158
F0
sS'r'
F0
sS'w'
F0
sS'4w'
p159
F0
sS'bbir'
p160
F-1
sS'bbiw'
p161
F-1
sg33
F2014
sg30
F2012
s(ltp162
sS'battingStats'
p163
((dp164
S'a'
F26.111111111111111
sS'0s'
p165
F1
sS'b'
F334
sS'no'
p166
F7
sg30
F2012
sS'hs'
p167
F63
sS'm'
F28
sS'4s'
p168
F37
sS'50s'
p169
F2
sS'i'
F25
sS'6s'
p170
F20
sg156
F140.71856287425149
sS'r'
F470
sS'100s'
p171
F0
sg33
F2014
s(lp172
(dp173
g36
I2
sS'b'
F7
sg37
S'Bangladesh'
p174
sg166
I01
sg156
F157.14285714285714
sg39
I396
sS'dismiss'
p175
S'not out'
p176
sg168
F1
sS'pos'
p177
I5
sg170
F1
sg40
S'Dhaka'
p178
sg42
g43
((I2014
I4
I1
I0
I0
I0
I1
I91
I-1
t(dtRp179
sS'r'
F11
sS'minutes'
p180
F5
sa(dp181
g36
I2
sS'b'
F10
sg37
S'India'
p182
sg156
F80
sg39
I393
sg175
S'caught'
p183
sg168
F0
sg177
I6
sg170
F1
sg40
S'Dhaka'
p184
sg42
g43
((I2014
I3
I30
I0
I0
I0
I6
I89
I-1
t(dtRp185
sS'r'
F8
sg180
F10
sa(dp186
g36
I1
sS'b'
F12
sg37
S'West Indies'
p187
sg156
F100
sg39
I388
sg175
S'caught'
p188
sg168
F0
sg177
I5
sg170
F1
sg40
S'Dhaka'
p189
sg42
g43
((I2014
I3
I28
I0
I0
I0
I4
I87
I-1
t(dtRp190
sS'r'
F12
sg180
F15
sa(dp191
g36
I2
sS'b'
F9
sg37
S'Pakistan'
p192
sg156
F44.444444444444443
sg39
I381
sg175
S'bowled'
p193
sg168
F0
sg177
I5
sg170
F0
sg40
S'Dhaka'
p194
sg42
g43
((I2014
I3
I23
I0
I0
I0
I6
I82
I-1
t(dtRp195
sS'r'
F4
sg180
F13
sa(dp196
g36
I2
sS'b'
F7
sg37
S'South Africa'
p197
sg166
I01
sg156
F171.42857142857142
sg39
I365
sg175
S'not out'
p198
sg168
F0
sg177
I5
sg170
F1
sg40
S'Centurion'
p199
sg42
g43
((I2014
I3
I14
I0
I0
I0
I4
I73
I-1
t(dtRp200
sS'r'
F12
sg180
F11
sa(dp201
g36
I2
sS'b'
F2
sg37
S'South Africa'
p202
sg156
F100
sg39
I363
sg175
S'run out'
p203
sg168
F0
sg177
I5
sg170
F0
sg40
S'Durban'
p204
sg42
g43
((I2014
I3
I12
I0
I0
I0
I2
I71
I-1
t(dtRp205
sS'r'
F2
sg180
F8
sa(dp206
g36
I1
sS'b'
F20
sg37
S'England'
p207
sg166
I01
sg156
F245
sg39
I356
sg175
S'not out'
p208
sg168
F4
sg177
I5
sg170
F3
sg40
S'Sydney'
p209
sg42
g43
((I2014
I2
I2
I0
I0
I0
I6
I33
I-1
t(dtRp210
sS'r'
F49
sg180
F30
sa(dp211
g36
I2
sS'b'
F28
sg37
S'England'
p212
sg166
I01
sg156
F214.28571428571428
sg39
I355
sg175
S'not out'
p213
sg168
F7
sg177
I4
sg170
F3
sg40
S'Melbourne'
p214
sg42
g43
((I2014
I1
I31
I0
I0
I0
I4
I31
I-1
t(dtRp215
sS'r'
F60
sg180
F33
sa(dp216
g36
I1
sS'b'
F14
sg37
S'England'
p217
sg156
F100
sg39
I354
sg175
S'caught'
p218
sg168
F1
sg177
I4
sg170
F0
sg40
S'Hobart'
p219
sg42
g43
((I2014
I1
I29
I0
I0
I0
I2
I29
I-1
t(dtRp220
sS'r'
F14
sg180
F29
sa(dp221
g36
I1
sS'b'
F3
sg37
S'India'
p222
sg156
F0
sg39
I331
sg175
S'caught'
p223
sg168
F0
sg177
I4
sg170
F0
sg40
S'Rajkot'
p224
sg42
g43
((I2013
I10
I10
I0
I0
I0
I3
I283
I-1
t(dtRp225
sS'r'
F0
sg180
F2
sa(dp226
g36
I2
sS'b'
F13
sg37
S'England'
p227
sg156
F176.92307692307693
sg39
I329
sg175
S'lbw'
p228
sg168
F1
sg177
I5
sg170
F1
sg40
S'Chester-le-Street'
p229
sg42
g43
((I2013
I8
I31
I0
I0
I0
I5
I243
I-1
t(dtRp230
sS'r'
F23
sg180
F16
sa(dp231
g36
I1
sS'b'
F2
sg37
S'England'
p232
sg156
F50
sg39
I328
sg175
S'lbw'
p233
sg168
F0
sg177
I6
sg170
F0
sg40
S'Southampton'
p234
sg42
g43
((I2013
I8
I29
I0
I0
I0
I3
I241
I-1
t(dtRp235
sS'r'
F1
sg180
F3
sa(dp236
g36
I2
sS'b'
F11
sg37
S'West Indies'
p237
sg156
F136.36363636363637
sg39
I303
sg175
S'caught'
p238
sg168
F2
sg177
I4
sg170
F0
sg40
S'Brisbane'
p239
sg42
g43
((I2013
I2
I13
I0
I0
I0
I2
I44
I-1
t(dtRp240
sS'r'
F15
sg180
F11
sa(dp241
g36
I2
sS'b'
F36
sg37
S'Sri Lanka'
p242
sg156
F125
sg39
I300
sg175
S'caught'
p243
sg168
F4
sg177
I4
sg170
F0
sg40
S'Melbourne'
p244
sg42
g43
((I2013
I1
I28
I0
I0
I0
I0
I28
I-1
t(dtRp245
sS'r'
F45
sg180
F48
sa(dp246
g36
I1
sS'b'
F9
sg37
S'Sri Lanka'
p247
sg156
F122.22222222222223
sg39
I299
sg175
S'caught'
p248
sg168
F0
sg177
I4
sg170
F1
sg40
S'Sydney'
p249
sg42
g43
((I2013
I1
I26
I0
I0
I0
I5
I26
I-1
t(dtRp250
sS'r'
F11
sg180
F9
sa(dp251
g36
I2
sS'b'
F29
sg37
S'West Indies'
p252
sg156
F217.24137931034483
sg39
I288
sg175
S'caught'
p253
sg168
F6
sg177
I5
sg170
F4
sg40
S'Colombo (RPS)'
p254
sg42
g43
((I2012
I10
I5
I0
I0
I0
I4
I279
I-1
t(dtRp255
sS'r'
F63
sg180
F41
sa(dp256
g36
I2
sS'b'
F12
sg37
S'Pakistan'
p257
sg156
F125
sg39
I285
sg175
S'lbw'
p258
sg168
F1
sg177
I4
sg170
F1
sg40
S'Colombo (RPS)'
p259
sg42
g43
((I2012
I10
I2
I0
I0
I0
I1
I276
I-1
t(dtRp260
sS'r'
F15
sg180
F18
sa(dp261
g36
I2
sS'b'
F8
sg37
S'Ireland'
p262
sg166
I01
sg156
F75
sg39
I264
sg175
S'not out'
p263
sg168
F1
sg177
I5
sg170
F0
sg40
S'Colombo (RPS)'
p264
sg42
g43
((I2012
I9
I19
I0
I0
I0
I2
I263
I-1
t(dtRp265
sS'r'
F6
sg180
F17
sa(dp266
g36
I1
sS'b'
F6
sg37
S'Pakistan'
p267
sg156
F50
sg39
I259
sg175
S'bowled'
p268
sg168
F0
sg177
I5
sg170
F0
sg40
S'Dubai (DSC)'
p269
sg42
g43
((I2012
I9
I10
I0
I0
I0
I0
I254
I-1
t(dtRp270
sS'r'
F3
sg180
F5
sa(dp271
g36
I2
sS'b'
F27
sg37
S'Pakistan'
p272
sg156
F155.55555555555554
sg39
I257
sg175
S'caught'
p273
sg168
F4
sg177
I5
sg170
F2
sg40
S'Dubai (DSC)'
p274
sg42
g43
((I2012
I9
I7
I0
I0
I0
I4
I251
I-1
t(dtRp275
sS'r'
F42
sg180
F46
sa(dp276
g36
I1
sS'b'
F19
sg37
S'Pakistan'
p277
sg156
F73.684210526315795
sg39
I256
sg175
S'caught'
p278
sg168
F0
sg177
I4
sg170
F0
sg40
S'Dubai (DSC)'
p279
sg42
g43
((I2012
I9
I5
I0
I0
I0
I2
I249
I-1
t(dtRp280
sS'r'
F14
sg180
F32
sa(dp281
g36
I2
sS'b'
F18
sg37
S'West Indies'
p282
sg156
F133.33333333333334
sg39
I243
sg175
S'caught'
p283
sg168
F2
sg177
I3
sg170
F1
sg40
S'Bridgetown'
p284
sg42
g43
((I2012
I3
I30
I0
I0
I0
I4
I90
I-1
t(dtRp285
sS'r'
F24
sg180
F29
sa(dp286
g36
I2
sS'b'
F17
sg37
S'West Indies'
p287
sg166
I01
sg156
F123.52941176470588
sg39
I241
sg175
S'not out'
p288
sg168
F2
sg177
I4
sg170
F0
sg40
S'Gros Islet'
p289
sg42
g43
((I2012
I3
I27
I0
I0
I0
I1
I87
I-1
t(dtRp290
sS'r'
F21
sg180
F-1
sa(dp291
g36
I1
sS'b'
F4
sg37
S'India'
p292
sg156
F75
sg39
I218
sg175
S'run out'
p293
sg168
F0
sg177
I5
sg170
F0
sg40
S'Melbourne'
p294
sg42
g43
((I2012
I2
I3
I0
I0
I0
I4
I34
I-1
t(dtRp295
sS'r'
F3
sg180
F3
sa(dp296
g36
I1
sS'b'
F11
sg37
S'India'
p297
sg166
I01
sg156
F109.09090909090909
sg39
I217
sg175
S'not out'
p298
sg168
F1
sg177
I5
sg170
F0
sg40
S'Sydney'
p299
sg42
g43
((I2012
I2
I1
I0
I0
I0
I2
I32
I-1
t(dtRp300
sS'r'
F12
sg180
F21
satp301
ssS'all'
p302
(dp303
g27
(dp304
S'c'
F30
sg29
F0
sS'i'
F78
sS'm'
F78
sg31
F30
sg32
F30
sS's'
F0
ssg154
(dp305
S'a'
F-1
sS'b'
F12
sS'e'
F12
sS'i'
F1
sg156
F-1
sg157
F0
sS'm'
F78
sg158
F0
sS'r'
F24
sS'w'
F0
sg159
F0
sg160
F-1
sg161
F-1
ssg163
(dp306
S'a'
F28.53846153846154
sg165
F-1
sS'b'
F1084
sg166
F15
sS'i'
F67
sg167
F63
sS'm'
F78
sg168
F124
sg170
F51
sg156
F136.90036900369003
sS'r'
F1484
sg171
F0
sg169
F8
ssssb.