(iplayer
Player
p1
(dp2
S'is_batsman'
p3
I01
sS'name'
p4
S'Kevin Pietersen'
p5
sS'dob'
p6
S'1980/06/27'
p7
sS'price'
p8
S'1050000'
p9
sS'is_allrounder'
p10
I00
sS'espnid'
p11
S'19296'
p12
sS'is_overseas'
p13
I01
sS'team'
p14
S'DD'
p15
sS'nationality'
p16
S'English'
p17
sS'is_bowler'
p18
I00
sS'is_keeper'
p19
I00
sS'id'
p20
S'172'
p21
sS'is_uncapped'
p22
I00
sS'tournamentStats'
p23
(dp24
S'international'
p25
(dp26
S'fieldingStats'
p27
((dp28
S'c'
F14
sS'ctw'
p29
F0
sS'span_s'
p30
F2005
sS'm'
F37
sS's'
F0
sS'dismissals'
p31
F14
sS'i'
F36
sS'ctf'
p32
F14
sS'span_f'
p33
F2013
s(lp34
(dp35
S'inning'
p36
I2
sS'c'
F0
sg29
F0
sS'opp'
p37
S'Pakistan'
p38
sS't20i_num'
p39
I229
sg32
F0
sg31
F0
sS's'
F0
sS'place'
p40
S'Abu Dhabi'
p41
sS'date'
p42
ctime
struct_time
p43
((I2012
I2
I27
I0
I0
I0
I0
I58
I-1
t(dtRp44
sa(dp45
g36
I2
sS'c'
F1
sg29
F0
sg37
S'Pakistan'
p46
sg39
I228
sg32
F1
sg31
F1
sS's'
F0
sg40
S'Dubai (DSC)'
p47
sg42
g43
((I2012
I2
I25
I0
I0
I0
I5
I56
I-1
t(dtRp48
sa(dp49
g36
I1
sS'c'
F0
sg29
F0
sg37
S'Pakistan'
p50
sg39
I226
sg32
F0
sg31
F0
sS's'
F0
sg40
S'Dubai (DSC)'
p51
sg42
g43
((I2012
I2
I23
I0
I0
I0
I3
I54
I-1
t(dtRp52
sa(dp53
g36
I1
sS'c'
F0
sg29
F0
sg37
S'India'
p54
sg39
I214
sg32
F0
sg31
F0
sS's'
F0
sg40
S'Kolkata'
p55
sg42
g43
((I2011
I10
I29
I0
I0
I0
I5
I302
I-1
t(dtRp56
sa(dp57
g36
I1
sS'c'
F0
sg29
F0
sg37
S'India'
p58
sg39
I204
sg32
F0
sg31
F0
sS's'
F0
sg40
S'Manchester'
p59
sg42
g43
((I2011
I8
I31
I0
I0
I0
I2
I243
I-1
t(dtRp60
sa(dp61
g36
I2
sS'c'
F1
sg29
F0
sg37
S'Sri Lanka'
p62
sg39
I201
sg32
F1
sg31
F1
sS's'
F0
sg40
S'Bristol'
p63
sg42
g43
((I2011
I6
I25
I0
I0
I0
I5
I176
I-1
t(dtRp64
sa(dp65
g36
I1
sS'c'
F1
sg29
F0
sg37
S'Australia'
p66
sg39
I198
sg32
F1
sg31
F1
sS's'
F0
sg40
S'Melbourne'
p67
sg42
g43
((I2011
I1
I14
I0
I0
I0
I4
I14
I-1
t(dtRp68
sa(dp69
g36
I1
sS'c'
F1
sg29
F0
sg37
S'Australia'
p70
sg39
I197
sg32
F1
sg31
F1
sS's'
F0
sg40
S'Adelaide'
p71
sg42
g43
((I2011
I1
I12
I0
I0
I0
I2
I12
I-1
t(dtRp72
sa(dp73
g36
I1
sS'c'
F0
sg29
F0
sg37
S'Australia'
p74
sg39
I177
sg32
F0
sg31
F0
sS's'
F0
sg40
S'Bridgetown'
p75
sg42
g43
((I2010
I5
I16
I0
I0
I0
I6
I136
I-1
t(dtRp76
sa(dp77
g36
I1
sS'c'
F1
sg29
F0
sg37
S'Sri Lanka'
p78
sg39
I175
sg32
F1
sg31
F1
sS's'
F0
sg40
S'Gros Islet'
p79
sg42
g43
((I2010
I5
I13
I0
I0
I0
I3
I133
I-1
t(dtRp80
sa(dp81
g36
I2
sS'c'
F1
sg29
F0
sg37
S'South Africa'
p82
sg39
I168
sg32
F1
sg31
F1
sS's'
F0
sg40
S'Bridgetown'
p83
sg42
g43
((I2010
I5
I8
I0
I0
I0
I5
I128
I-1
t(dtRp84
sa(dp85
g36
I1
sS'c'
F1
sg29
F0
sg37
S'Pakistan'
p86
sg39
I163
sg32
F1
sg31
F1
sS's'
F0
sg40
S'Bridgetown'
p87
sg42
g43
((I2010
I5
I6
I0
I0
I0
I3
I126
I-1
t(dtRp88
sa(dp89
g36
I2
sS'c'
F0
sg29
F0
sg37
S'Ireland'
p90
sg39
I160
sg32
F0
sg31
F0
sS's'
F0
sg40
S'Providence'
p91
sg42
g43
((I2010
I5
I4
I0
I0
I0
I1
I124
I-1
t(dtRp92
sa(dp93
g36
I2
sS'c'
F0
sg29
F0
sg37
S'West Indies'
p94
sg39
I158
sg32
F0
sg31
F0
sS's'
F0
sg40
S'Providence'
p95
sg42
g43
((I2010
I5
I3
I0
I0
I0
I0
I123
I-1
t(dtRp96
sa(dp97
g36
I2
sS'c'
F0
sg29
F0
sg37
S'Pakistan'
p98
sg39
I145
sg32
F0
sg31
F0
sS's'
F0
sg40
S'Dubai (DSC)'
p99
sg42
g43
((I2010
I2
I20
I0
I0
I0
I5
I51
I-1
t(dtRp100
sa(dp101
g36
I1
sS'c'
F0
sg29
F0
sg37
S'Pakistan'
p102
sg39
I144
sg32
F0
sg31
F0
sS's'
F0
sg40
S'Dubai (DSC)'
p103
sg42
g43
((I2010
I2
I19
I0
I0
I0
I4
I50
I-1
t(dtRp104
sa(dp105
g36
I1
sS'c'
F0
sg29
F0
sg37
S'South Africa'
p106
sg39
I125
sg32
F0
sg31
F0
sS's'
F0
sg40
S'Centurion'
p107
sg42
g43
((I2009
I11
I15
I0
I0
I0
I6
I319
I-1
t(dtRp108
sa(dp109
g36
I2
sS'c'
F0
sg29
F0
sg37
S'West Indies'
p110
sg39
I111
sg32
F0
sg31
F0
sS's'
F0
sg40
S'The Oval'
p111
sg42
g43
((I2009
I6
I15
I0
I0
I0
I0
I166
I-1
t(dtRp112
sa(dp113
g36
I2
sS'c'
F0
sg29
F0
sg37
S'India'
p114
sg39
I109
sg32
F0
sg31
F0
sS's'
F0
sg40
S"Lord's"
p115
sg42
g43
((I2009
I6
I14
I0
I0
I0
I6
I165
I-1
t(dtRp116
sa(dp117
g36
I2
sS'c'
F0
sg29
F0
sg37
S'South Africa'
p118
sg39
I103
sg32
F0
sg31
F0
sS's'
F0
sg40
S'Nottingham'
p119
sg42
g43
((I2009
I6
I11
I0
I0
I0
I3
I162
I-1
t(dtRp120
sa(dp121
g36
I2
sS'c'
F0
sg29
F0
sg37
S'Pakistan'
p122
sg39
I95
sg32
F0
sg31
F0
sS's'
F0
sg40
S'The Oval'
p123
sg42
g43
((I2009
I6
I7
I0
I0
I0
I6
I158
I-1
t(dtRp124
sa(dp125
g36
I2
sS'c'
F1
sg29
F0
sg37
S'West Indies'
p126
sg39
I86
sg32
F1
sg31
F1
sS's'
F0
sg40
S'Port of Spain'
p127
sg42
g43
((I2009
I3
I15
I0
I0
I0
I6
I74
I-1
t(dtRp128
sa(dp129
g36
I1
sS'c'
F0
sg29
F0
sg37
S'New Zealand'
p130
sg39
I56
sg32
F0
sg31
F0
sS's'
F0
sg40
S'Manchester'
p131
sg42
g43
((I2008
I6
I13
I0
I0
I0
I4
I165
I-1
t(dtRp132
sa(dp133
g36
I2
sS'c'
F0
sg29
F0
sg37
S'New Zealand'
p134
sg39
I54
sg32
F0
sg31
F0
sS's'
F0
sg40
S'Christchurch'
p135
sg42
g43
((I2008
I2
I7
I0
I0
I0
I3
I38
I-1
t(dtRp136
sa(dp137
g36
I2
sS'c'
F1
sg29
F0
sg37
S'New Zealand'
p138
sg39
I53
sg32
F1
sg31
F1
sS's'
F0
sg40
S'Auckland'
p139
sg42
g43
((I2008
I2
I5
I0
I0
I0
I1
I36
I-1
t(dtRp140
sa(dp141
g36
I1
sS'c'
F0
sg29
F0
sg37
S'India'
p142
sg39
I40
sg32
F0
sg31
F0
sS's'
F0
sg40
S'Durban'
p143
sg42
g43
((I2007
I9
I19
I0
I0
I0
I2
I262
I-1
t(dtRp144
sa(dp145
g36
I1
sS'c'
F0
sg29
F0
sg37
S'New Zealand'
p146
sg39
I36
sg32
F0
sg31
F0
sS's'
F0
sg40
S'Durban'
p147
sg42
g43
((I2007
I9
I18
I0
I0
I0
I1
I261
I-1
t(dtRp148
sa(dp149
g36
I1
sS'c'
F1
sg29
F0
sg37
S'South Africa'
p150
sg39
I34
sg32
F1
sg31
F1
sS's'
F0
sg40
S'Cape Town'
p151
sg42
g43
((I2007
I9
I16
I0
I0
I0
I6
I259
I-1
t(dtRp152
sa(dp153
g36
I2
sS'c'
F0
sg29
F0
sg37
S'Australia'
p154
sg39
I28
sg32
F0
sg31
F0
sS's'
F0
sg40
S'Cape Town'
p155
sg42
g43
((I2007
I9
I14
I0
I0
I0
I4
I257
I-1
t(dtRp156
sa(dp157
g36
I2
sS'c'
F0
sg29
F0
sg37
S'Zimbabwe'
p158
sg39
I25
sg32
F0
sg31
F0
sS's'
F0
sg40
S'Cape Town'
p159
sg42
g43
((I2007
I9
I13
I0
I0
I0
I3
I256
I-1
t(dtRp160
sa(dp161
g36
I1
sS'c'
F0
sg29
F0
sg37
S'West Indies'
p162
sg39
I16
sg32
F0
sg31
F0
sS's'
F0
sg40
S'The Oval'
p163
sg42
g43
((I2007
I6
I29
I0
I0
I0
I4
I180
I-1
t(dtRp164
sa(dp165
g36
I1
sS'c'
F0
sg29
F0
sg37
S'West Indies'
p166
sg39
I15
sg32
F0
sg31
F0
sS's'
F0
sg40
S'The Oval'
p167
sg42
g43
((I2007
I6
I28
I0
I0
I0
I3
I179
I-1
t(dtRp168
sa(dp169
g36
I1
sS'c'
F0
sg29
F0
sg37
S'Australia'
p170
sg39
I13
sg32
F0
sg31
F0
sS's'
F0
sg40
S'Sydney'
p171
sg42
g43
((I2007
I1
I9
I0
I0
I0
I1
I9
I-1
t(dtRp172
sa(dp173
g36
I2
sS'c'
F0
sg29
F0
sg37
S'Pakistan'
p174
sg39
I8
sg32
F0
sg31
F0
sS's'
F0
sg40
S'Bristol'
p175
sg42
g43
((I2006
I8
I28
I0
I0
I0
I0
I240
I-1
t(dtRp176
sa(dp177
g36
I1
sS'c'
F1
sg29
F0
sg37
S'Sri Lanka'
p178
sg39
I7
sg32
F1
sg31
F1
sS's'
F0
sg40
S'Southampton'
p179
sg42
g43
((I2006
I6
I15
I0
I0
I0
I3
I166
I-1
t(dtRp180
sa(dp181
g36
I2
sS'c'
F3
sg29
F0
sg37
S'Australia'
p182
sg39
I2
sg32
F3
sg31
F3
sS's'
F0
sg40
S'Southampton'
p183
sg42
g43
((I2005
I6
I13
I0
I0
I0
I0
I164
I-1
t(dtRp184
satp185
sS'bowlingStats'
p186
((dp187
S'a'
F53
sS'b'
F30
sS'e'
F10.6
sS'i'
F3
sS'sr'
p188
F30
sS'5w'
p189
F0
sS'm'
F37
sS'maid'
p190
F0
sS'r'
F53
sS'w'
F1
sS'4w'
p191
F0
sS'bbir'
p192
F27
sS'bbiw'
p193
F1
sg33
F2013
sg30
F2005
s(lp194
(dp195
g36
I1
sS'b'
F12
sS'e'
F8.5
sg39
I198
sS'pos'
p196
I6
sg190
F0
sS'r'
F17
sg40
S'Melbourne'
p197
sS'w'
F0
sg42
g43
((I2011
I1
I14
I0
I0
I0
I4
I14
I-1
t(dtRp198
sg37
S'Australia'
p199
sa(dp200
g36
I1
sS'b'
F12
sS'e'
F13.5
sg39
I125
sg196
I6
sg190
F0
sS'r'
F27
sg40
S'Centurion'
p201
sS'w'
F1
sg42
g43
((I2009
I11
I15
I0
I0
I0
I6
I319
I-1
t(dtRp202
sg37
S'South Africa'
p203
sa(dp204
g36
I2
sS'b'
F6
sS'e'
F9
sg39
I109
sg196
I4
sg190
F0
sS'r'
F9
sg40
S"Lord's"
p205
sS'w'
F0
sg42
g43
((I2009
I6
I14
I0
I0
I0
I6
I165
I-1
t(dtRp206
sg37
S'India'
p207
satp208
sS'battingStats'
p209
((dp210
S'a'
F37.935483870967744
sS'0s'
p211
F1
sS'b'
F831
sS'no'
p212
F5
sg30
F2005
sS'hs'
p213
F79
sS'm'
F37
sS'4s'
p214
F119
sg33
F2013
sS'i'
F36
sS'6s'
p215
F32
sg188
F141.51624548736461
sS'r'
F1176
sS'100s'
p216
F0
sS'50s'
p217
F7
s(lp218
(dp219
g36
I1
sS'b'
F52
sg37
S'Pakistan'
p220
sg212
I01
sg188
F119.23076923076923
sg39
I229
sS'dismiss'
p221
S'not out'
p222
sg214
F6
sg196
I1
sg215
F1
sg40
S'Abu Dhabi'
p223
sg42
g43
((I2012
I2
I27
I0
I0
I0
I0
I58
I-1
t(dtRp224
sS'r'
F62
sS'minutes'
p225
F91
sa(dp226
g36
I1
sS'b'
F13
sg37
S'Pakistan'
p227
sg188
F130.76923076923077
sg39
I228
sg221
S'caught'
p228
sg214
F3
sg196
I1
sg215
F0
sg40
S'Dubai (DSC)'
p229
sg42
g43
((I2012
I2
I25
I0
I0
I0
I5
I56
I-1
t(dtRp230
sS'r'
F17
sg225
F22
sa(dp231
g36
I2
sS'b'
F21
sg37
S'Pakistan'
p232
sg188
F157.14285714285714
sg39
I226
sg221
S'caught'
p233
sg214
F4
sg196
I1
sg215
F1
sg40
S'Dubai (DSC)'
p234
sg42
g43
((I2012
I2
I23
I0
I0
I0
I3
I54
I-1
t(dtRp235
sS'r'
F33
sg225
F26
sa(dp236
g36
I2
sS'b'
F39
sg37
S'India'
p237
sg188
F135.89743589743588
sg39
I214
sg221
S'lbw'
p238
sg214
F5
sg196
I3
sg215
F3
sg40
S'Kolkata'
p239
sg42
g43
((I2011
I10
I29
I0
I0
I0
I5
I302
I-1
t(dtRp240
sS'r'
F53
sg225
F42
sa(dp241
g36
I2
sS'b'
F23
sg37
S'India'
p242
sg188
F143.47826086956522
sg39
I204
sg221
S'stumped'
p243
sg214
F5
sg196
I3
sg215
F0
sg40
S'Manchester'
p244
sg42
g43
((I2011
I8
I31
I0
I0
I0
I2
I243
I-1
t(dtRp245
sS'r'
F33
sg225
F31
sa(dp246
g36
I1
sS'b'
F27
sg37
S'Sri Lanka'
p247
sg188
F151.85185185185185
sg39
I201
sg221
S'bowled'
p248
sg214
F3
sg196
I3
sg215
F2
sg40
S'Bristol'
p249
sg42
g43
((I2011
I6
I25
I0
I0
I0
I5
I176
I-1
t(dtRp250
sS'r'
F41
sg225
F49
sa(dp251
g36
I2
sS'b'
F2
sg37
S'Australia'
p252
sg188
F50
sg39
I198
sg221
S'caught'
p253
sg214
F0
sg196
I3
sg215
F0
sg40
S'Melbourne'
p254
sg42
g43
((I2011
I1
I14
I0
I0
I0
I4
I14
I-1
t(dtRp255
sS'r'
F1
sg225
F2
sa(dp256
g36
I2
sS'b'
F11
sg37
S'Australia'
p257
sg188
F227.27272727272728
sg39
I197
sg221
S'caught'
p258
sg214
F3
sg196
I3
sg215
F1
sg40
S'Adelaide'
p259
sg42
g43
((I2011
I1
I12
I0
I0
I0
I2
I12
I-1
t(dtRp260
sS'r'
F25
sg225
F20
sa(dp261
g36
I2
sS'b'
F31
sg37
S'Australia'
p262
sg188
F151.61290322580646
sg39
I177
sg221
S'caught'
p263
sg214
F4
sg196
I3
sg215
F1
sg40
S'Bridgetown'
p264
sg42
g43
((I2010
I5
I16
I0
I0
I0
I6
I136
I-1
t(dtRp265
sS'r'
F47
sg225
F59
sa(dp266
g36
I2
sS'b'
F26
sg37
S'Sri Lanka'
p267
sg212
I01
sg188
F161.53846153846155
sg39
I175
sg221
S'not out'
p268
sg214
F3
sg196
I3
sg215
F2
sg40
S'Gros Islet'
p269
sg42
g43
((I2010
I5
I13
I0
I0
I0
I3
I133
I-1
t(dtRp270
sS'r'
F42
sg225
F33
sa(dp271
g36
I1
sS'b'
F33
sg37
S'South Africa'
p272
sg188
F160.60606060606059
sg39
I168
sg221
S'caught'
p273
sg214
F8
sg196
I3
sg215
F1
sg40
S'Bridgetown'
p274
sg42
g43
((I2010
I5
I8
I0
I0
I0
I5
I128
I-1
t(dtRp275
sS'r'
F53
sg225
F41
sa(dp276
g36
I2
sS'b'
F52
sg37
S'Pakistan'
p277
sg212
I01
sg188
F140.38461538461539
sg39
I163
sg221
S'not out'
p278
sg214
F8
sg196
I3
sg215
F2
sg40
S'Bridgetown'
p279
sg42
g43
((I2010
I5
I6
I0
I0
I0
I3
I126
I-1
t(dtRp280
sS'r'
F73
sg225
F59
sa(dp281
g36
I1
sS'b'
F18
sg37
S'Ireland'
p282
sg188
F50
sg39
I160
sg221
S'caught'
p283
sg214
F0
sg196
I3
sg215
F0
sg40
S'Providence'
p284
sg42
g43
((I2010
I5
I4
I0
I0
I0
I1
I124
I-1
t(dtRp285
sS'r'
F9
sg225
F25
sa(dp286
g36
I1
sS'b'
F20
sg37
S'West Indies'
p287
sg188
F120
sg39
I158
sg221
S'caught'
p288
sg214
F1
sg196
I3
sg215
F1
sg40
S'Providence'
p289
sg42
g43
((I2010
I5
I3
I0
I0
I0
I0
I123
I-1
t(dtRp290
sS'r'
F24
sg225
F-1
sa(dp291
g36
I1
sS'b'
F40
sg37
S'Pakistan'
p292
sg188
F155
sg39
I145
sg221
S'lbw'
p293
sg214
F4
sg196
I3
sg215
F3
sg40
S'Dubai (DSC)'
p294
sg42
g43
((I2010
I2
I20
I0
I0
I0
I5
I51
I-1
t(dtRp295
sS'r'
F62
sg225
F52
sa(dp296
g36
I2
sS'b'
F43
sg37
S'Pakistan'
p297
sg212
I01
sg188
F100
sg39
I144
sg221
S'not out'
p298
sg214
F3
sg196
I3
sg215
F0
sg40
S'Dubai (DSC)'
p299
sg42
g43
((I2010
I2
I19
I0
I0
I0
I4
I50
I-1
t(dtRp300
sS'r'
F43
sg225
F77
sa(dp301
g36
I2
sS'b'
F19
sg37
S'South Africa'
p302
sg188
F152.63157894736841
sg39
I125
sg221
S'bowled'
p303
sg214
F1
sg196
I4
sg215
F2
sg40
S'Centurion'
p304
sg42
g43
((I2009
I11
I15
I0
I0
I0
I6
I319
I-1
t(dtRp305
sS'r'
F29
sg225
F32
sa(dp306
g36
I1
sS'b'
F19
sg37
S'West Indies'
p307
sg188
F163.15789473684211
sg39
I111
sg221
S'caught'
p308
sg214
F5
sg196
I3
sg215
F0
sg40
S'The Oval'
p309
sg42
g43
((I2009
I6
I15
I0
I0
I0
I0
I166
I-1
t(dtRp310
sS'r'
F31
sg225
F23
sa(dp311
g36
I1
sS'b'
F27
sg37
S'India'
p312
sg188
F170.37037037037038
sg39
I109
sg221
S'lbw'
p313
sg214
F5
sg196
I3
sg215
F1
sg40
S"Lord's"
p314
sg42
g43
((I2009
I6
I14
I0
I0
I0
I6
I165
I-1
t(dtRp315
sS'r'
F46
sg225
F45
sa(dp316
g36
I1
sS'b'
F17
sg37
S'South Africa'
p317
sg188
F111.76470588235294
sg39
I103
sg221
S'caught'
p318
sg214
F4
sg196
I3
sg215
F0
sg40
S'Nottingham'
p319
sg42
g43
((I2009
I6
I11
I0
I0
I0
I3
I162
I-1
t(dtRp320
sS'r'
F19
sg225
F20
sa(dp321
g36
I1
sS'b'
F38
sg37
S'Pakistan'
p322
sg188
F152.63157894736841
sg39
I95
sg221
S'caught'
p323
sg214
F5
sg196
I3
sg215
F3
sg40
S'The Oval'
p324
sg42
g43
((I2009
I6
I7
I0
I0
I0
I6
I158
I-1
t(dtRp325
sS'r'
F58
sg225
F70
sa(dp326
g36
I1
sS'b'
F16
sg37
S'West Indies'
p327
sg188
F75
sg39
I86
sg221
S'lbw'
p328
sg214
F0
sg196
I3
sg215
F0
sg40
S'Port of Spain'
p329
sg42
g43
((I2009
I3
I15
I0
I0
I0
I6
I74
I-1
t(dtRp330
sS'r'
F12
sg225
F23
sa(dp331
g36
I2
sS'b'
F41
sg37
S'New Zealand'
p332
sg212
I01
sg188
F102.4390243902439
sg39
I56
sg221
S'not out'
p333
sg214
F5
sg196
I3
sg215
F0
sg40
S'Manchester'
p334
sg42
g43
((I2008
I6
I13
I0
I0
I0
I4
I165
I-1
t(dtRp335
sS'r'
F42
sg225
F43
sa(dp336
g36
I1
sS'b'
F3
sg37
S'New Zealand'
p337
sg188
F100
sg39
I54
sg221
S'lbw'
p338
sg214
F0
sg196
I3
sg215
F0
sg40
S'Christchurch'
p339
sg42
g43
((I2008
I2
I7
I0
I0
I0
I3
I38
I-1
t(dtRp340
sS'r'
F3
sg225
F5
sa(dp341
g36
I1
sS'b'
F23
sg37
S'New Zealand'
p342
sg188
F186.95652173913044
sg39
I53
sg221
S'caught'
p343
sg214
F6
sg196
I3
sg215
F1
sg40
S'Auckland'
p344
sg42
g43
((I2008
I2
I5
I0
I0
I0
I1
I36
I-1
t(dtRp345
sS'r'
F43
sg225
F36
sa(dp346
g36
I2
sS'b'
F23
sg37
S'India'
p347
sg188
F169.56521739130434
sg39
I40
sg221
S'caught'
p348
sg214
F3
sg196
I3
sg215
F1
sg40
S'Durban'
p349
sg42
g43
((I2007
I9
I19
I0
I0
I0
I2
I262
I-1
t(dtRp350
sS'r'
F39
sg225
F33
sa(dp351
g36
I2
sS'b'
F16
sg37
S'New Zealand'
p352
sg188
F150
sg39
I36
sg221
S'bowled'
p353
sg214
F2
sg196
I3
sg215
F1
sg40
S'Durban'
p354
sg42
g43
((I2007
I9
I18
I0
I0
I0
I1
I261
I-1
t(dtRp355
sS'r'
F24
sg225
F24
sa(dp356
g36
I2
sS'b'
F14
sg37
S'South Africa'
p357
sg188
F107.14285714285714
sg39
I34
sg221
S'run out'
p358
sg214
F3
sg196
I3
sg215
F0
sg40
S'Cape Town'
p359
sg42
g43
((I2007
I9
I16
I0
I0
I0
I6
I259
I-1
t(dtRp360
sS'r'
F15
sg225
F16
sa(dp361
g36
I1
sS'b'
F20
sg37
S'Australia'
p362
sg188
F105
sg39
I28
sg221
S'bowled'
p363
sg214
F2
sg196
I4
sg215
F0
sg40
S'Cape Town'
p364
sg42
g43
((I2007
I9
I14
I0
I0
I0
I4
I257
I-1
t(dtRp365
sS'r'
F21
sg225
F30
sa(dp366
g36
I1
sS'b'
F37
sg37
S'Zimbabwe'
p367
sg188
F213.51351351351352
sg39
I25
sg221
S'caught'
p368
sg214
F7
sg196
I4
sg215
F4
sg40
S'Cape Town'
p369
sg42
g43
((I2007
I9
I13
I0
I0
I0
I3
I256
I-1
t(dtRp370
sS'r'
F79
sg225
F41
sa(dp371
g36
I2
sS'b'
F15
sg37
S'West Indies'
p372
sg188
F126.66666666666667
sg39
I16
sg221
S'caught'
p373
sg214
F3
sg196
I4
sg215
F0
sg40
S'The Oval'
p374
sg42
g43
((I2007
I6
I29
I0
I0
I0
I4
I180
I-1
t(dtRp375
sS'r'
F19
sg225
F17
sa(dp376
g36
I2
sS'b'
F11
sg37
S'West Indies'
p377
sg188
F145.45454545454547
sg39
I15
sg221
S'run out'
p378
sg214
F2
sg196
I4
sg215
F0
sg40
S'The Oval'
p379
sg42
g43
((I2007
I6
I28
I0
I0
I0
I3
I179
I-1
t(dtRp380
sS'r'
F16
sg225
F18
sa(dp381
g36
I2
sS'b'
F6
sg37
S'Australia'
p382
sg188
F183.33333333333334
sg39
I13
sg221
S'run out'
p383
sg214
F2
sg196
I4
sg215
F0
sg40
S'Sydney'
p384
sg42
g43
((I2007
I1
I9
I0
I0
I0
I1
I9
I-1
t(dtRp385
sS'r'
F11
sg225
F12
sa(dp386
g36
I1
sS'b'
F1
sg37
S'Pakistan'
p387
sg188
F0
sg39
I8
sg221
S'bowled'
p388
sg214
F0
sg196
I3
sg215
F0
sg40
S'Bristol'
p389
sg42
g43
((I2006
I8
I28
I0
I0
I0
I0
I240
I-1
t(dtRp390
sS'r'
F0
sg225
F1
sa(dp391
g36
I2
sS'b'
F16
sg37
S'Sri Lanka'
p392
sg188
F106.25
sg39
I7
sg221
S'caught'
p393
sg214
F1
sg196
I3
sg215
F0
sg40
S'Southampton'
p394
sg42
g43
((I2006
I6
I15
I0
I0
I0
I3
I166
I-1
t(dtRp395
sS'r'
F17
sg225
F18
sa(dp396
g36
I1
sS'b'
F18
sg37
S'Australia'
p397
sg188
F188.88888888888889
sg39
I2
sg221
S'caught'
p398
sg214
F3
sg196
I4
sg215
F1
sg40
S'Southampton'
p399
sg42
g43
((I2005
I6
I13
I0
I0
I0
I0
I164
I-1
t(dtRp400
sS'r'
F34
sg225
F19
satp401
ssS'all'
p402
(dp403
g27
(dp404
S'c'
F35
sg29
F0
sS'i'
F85
sS'm'
F85
sS's'
F0
sg31
F35
sg32
F35
ssg186
(dp405
S'a'
F30.235294117647058
sS'b'
F384
sS'e'
F8.03125
sS'i'
F28
sg188
F22.588235294117649
sg189
F0
sS'm'
F85
sg190
F0
sS'r'
F514
sS'w'
F17
sg191
F0
sg192
F33
sg193
F3
ssg209
(dp406
S'a'
F34.314285714285717
sg211
F-1
sS'b'
F1752
sg212
F12
sS'i'
F82
sg213
F103
sS'm'
F85
sg214
F226
sg215
F80
sg188
F137.10045662100455
sS'r'
F2402
sg216
F1
sg217
F13
ssssb.