(iplayer
Player
p1
(dp2
S'is_batsman'
p3
I00
sS'name'
p4
S'Dwayne Bravo'
p5
sS'dob'
p6
S'1983/10/07'
p7
sS'price'
p8
S'1050000'
p9
sS'is_allrounder'
p10
I01
sS'espnid'
p11
S'51439'
p12
sS'is_overseas'
p13
I01
sS'team'
p14
S'CSK'
p15
sS'nationality'
p16
S'West Indian'
p17
sS'is_bowler'
p18
I00
sS'is_keeper'
p19
I00
sS'id'
p20
S'25'
p21
sS'is_uncapped'
p22
I00
sS'tournamentStats'
p23
(dp24
S'international'
p25
(dp26
S'fieldingStats'
p27
((dp28
S'c'
F27
sS'ctw'
p29
F0
sS'span_s'
p30
F2006
sS'm'
F49
sS's'
F0
sS'dismissals'
p31
F27
sS'i'
F49
sS'ctf'
p32
F27
sS'span_f'
p33
F2014
s(lp34
(dp35
S'inning'
p36
I1
sS'c'
F1
sg29
F0
sS'opp'
p37
S'Sri Lanka'
p38
sS't20i_num'
p39
I398
sg32
F1
sg31
F1
sS's'
F0
sS'place'
p40
S'Dhaka'
p41
sS'date'
p42
ctime
struct_time
p43
((I2014
I4
I3
I0
I0
I0
I3
I93
I-1
t(dtRp44
sa(dp45
g36
I2
sS'c'
F1
sg29
F0
sg37
S'Pakistan'
p46
sg39
I397
sg32
F1
sg31
F1
sS's'
F0
sg40
S'Dhaka'
p47
sg42
g43
((I2014
I4
I1
I0
I0
I0
I1
I91
I-1
t(dtRp48
sa(dp49
g36
I1
sS'c'
F2
sg29
F0
sg37
S'Australia'
p50
sg39
I388
sg32
F2
sg31
F2
sS's'
F0
sg40
S'Dhaka'
p51
sg42
g43
((I2014
I3
I28
I0
I0
I0
I4
I87
I-1
t(dtRp52
sa(dp53
g36
I2
sS'c'
F3
sg29
F0
sg37
S'Bangladesh'
p54
sg39
I385
sg32
F3
sg31
F3
sS's'
F0
sg40
S'Dhaka'
p55
sg42
g43
((I2014
I3
I25
I0
I0
I0
I1
I84
I-1
t(dtRp56
sa(dp57
g36
I2
sS'c'
F0
sg29
F0
sg37
S'India'
p58
sg39
I382
sg32
F0
sg31
F0
sS's'
F0
sg40
S'Dhaka'
p59
sg42
g43
((I2014
I3
I23
I0
I0
I0
I6
I82
I-1
t(dtRp60
sa(dp61
g36
I1
sS'c'
F1
sg29
F0
sg37
S'England'
p62
sg39
I364
sg32
F1
sg31
F1
sS's'
F0
sg40
S'Bridgetown'
p63
sg42
g43
((I2014
I3
I13
I0
I0
I0
I3
I72
I-1
t(dtRp64
sa(dp65
g36
I1
sS'c'
F1
sg29
F0
sg37
S'England'
p66
sg39
I362
sg32
F1
sg31
F1
sS's'
F0
sg40
S'Bridgetown'
p67
sg42
g43
((I2014
I3
I11
I0
I0
I0
I1
I70
I-1
t(dtRp68
sa(dp69
g36
I2
sS'c'
F1
sg29
F0
sg37
S'England'
p70
sg39
I361
sg32
F1
sg31
F1
sS's'
F0
sg40
S'Bridgetown'
p71
sg42
g43
((I2014
I3
I9
I0
I0
I0
I6
I68
I-1
t(dtRp72
sa(dp73
g36
I2
sS'c'
F1
sg29
F0
sg37
S'Ireland'
p74
sg39
I360
sg32
F1
sg31
F1
sS's'
F0
sg40
S'Kingston'
p75
sg42
g43
((I2014
I2
I21
I0
I0
I0
I4
I52
I-1
t(dtRp76
sa(dp77
g36
I2
sS'c'
F0
sg29
F0
sg37
S'Ireland'
p78
sg39
I359
sg32
F0
sg31
F0
sS's'
F0
sg40
S'Kingston'
p79
sg42
g43
((I2014
I2
I19
I0
I0
I0
I2
I50
I-1
t(dtRp80
sa(dp81
g36
I2
sS'c'
F0
sg29
F0
sg37
S'New Zealand'
p82
sg39
I353
sg32
F0
sg31
F0
sS's'
F0
sg40
S'Wellington'
p83
sg42
g43
((I2014
I1
I15
I0
I0
I0
I2
I15
I-1
t(dtRp84
sa(dp85
g36
I1
sS'c'
F1
sg29
F0
sg37
S'New Zealand'
p86
sg39
I352
sg32
F1
sg31
F1
sS's'
F0
sg40
S'Auckland'
p87
sg42
g43
((I2014
I1
I11
I0
I0
I0
I5
I11
I-1
t(dtRp88
sa(dp89
g36
I1
sS'c'
F1
sg29
F0
sg37
S'Pakistan'
p90
sg39
I322
sg32
F1
sg31
F1
sS's'
F0
sg40
S'Kingstown'
p91
sg42
g43
((I2013
I7
I28
I0
I0
I0
I6
I209
I-1
t(dtRp92
sa(dp93
g36
I2
sS'c'
F1
sg29
F0
sg37
S'Pakistan'
p94
sg39
I321
sg32
F1
sg31
F1
sS's'
F0
sg40
S'Kingstown'
p95
sg42
g43
((I2013
I7
I27
I0
I0
I0
I5
I208
I-1
t(dtRp96
sa(dp97
g36
I2
sS'c'
F3
sg29
F0
sg37
S'Zimbabwe'
p98
sg39
I308
sg32
F3
sg31
F3
sS's'
F0
sg40
S'North Sound'
p99
sg42
g43
((I2013
I3
I3
I0
I0
I0
I6
I62
I-1
t(dtRp100
sa(dp101
g36
I1
sS'c'
F0
sg29
F0
sg37
S'Zimbabwe'
p102
sg39
I305
sg32
F0
sg31
F0
sS's'
F0
sg40
S'North Sound'
p103
sg42
g43
((I2013
I3
I2
I0
I0
I0
I5
I61
I-1
t(dtRp104
sa(dp105
g36
I2
sS'c'
F0
sg29
F0
sg37
S'Australia'
p106
sg39
I303
sg32
F0
sg31
F0
sS's'
F0
sg40
S'Brisbane'
p107
sg42
g43
((I2013
I2
I13
I0
I0
I0
I2
I44
I-1
t(dtRp108
sa(dp109
g36
I2
sS'c'
F2
sg29
F0
sg37
S'Sri Lanka'
p110
sg39
I289
sg32
F2
sg31
F2
sS's'
F0
sg40
S'Colombo (RPS)'
p111
sg42
g43
((I2012
I10
I7
I0
I0
I0
I6
I281
I-1
t(dtRp112
sa(dp113
g36
I2
sS'c'
F0
sg29
F0
sg37
S'Australia'
p114
sg39
I288
sg32
F0
sg31
F0
sS's'
F0
sg40
S'Colombo (RPS)'
p115
sg42
g43
((I2012
I10
I5
I0
I0
I0
I4
I279
I-1
t(dtRp116
sa(dp117
g36
I2
sS'c'
F0
sg29
F0
sg37
S'Sri Lanka'
p118
sg39
I280
sg32
F0
sg31
F0
sS's'
F0
sg40
S'Pallekele'
p119
sg42
g43
((I2012
I9
I29
I0
I0
I0
I5
I273
I-1
t(dtRp120
sa(dp121
g36
I2
sS'c'
F0
sg29
F0
sg37
S'England'
p122
sg39
I276
sg32
F0
sg31
F0
sS's'
F0
sg40
S'Pallekele'
p123
sg42
g43
((I2012
I9
I27
I0
I0
I0
I3
I271
I-1
t(dtRp124
sa(dp125
g36
I2
sS'c'
F0
sg29
F0
sg37
S'Australia'
p126
sg39
I270
sg32
F0
sg31
F0
sS's'
F0
sg40
S'Colombo (RPS)'
p127
sg42
g43
((I2012
I9
I22
I0
I0
I0
I5
I266
I-1
t(dtRp128
sa(dp129
g36
I2
sS'c'
F2
sg29
F0
sg37
S'New Zealand'
p130
sg39
I248
sg32
F2
sg31
F2
sS's'
F0
sg40
S'Lauderhill'
p131
sg42
g43
((I2012
I7
I1
I0
I0
I0
I6
I183
I-1
t(dtRp132
sa(dp133
g36
I2
sS'c'
F1
sg29
F0
sg37
S'New Zealand'
p134
sg39
I247
sg32
F1
sg31
F1
sS's'
F0
sg40
S'Lauderhill'
p135
sg42
g43
((I2012
I6
I30
I0
I0
I0
I5
I182
I-1
t(dtRp136
sa(dp137
g36
I2
sS'c'
F0
sg29
F0
sg37
S'England'
p138
sg39
I246
sg32
F0
sg31
F0
sS's'
F0
sg40
S'Nottingham'
p139
sg42
g43
((I2012
I6
I24
I0
I0
I0
I6
I176
I-1
t(dtRp140
sa(dp141
g36
I2
sS'c'
F0
sg29
F0
sg37
S'Australia'
p142
sg39
I243
sg32
F0
sg31
F0
sS's'
F0
sg40
S'Bridgetown'
p143
sg42
g43
((I2012
I3
I30
I0
I0
I0
I4
I90
I-1
t(dtRp144
sa(dp145
g36
I2
sS'c'
F0
sg29
F0
sg37
S'Australia'
p146
sg39
I241
sg32
F0
sg31
F0
sS's'
F0
sg40
S'Gros Islet'
p147
sg42
g43
((I2012
I3
I27
I0
I0
I0
I1
I87
I-1
t(dtRp148
sa(dp149
g36
I1
sS'c'
F1
sg29
F0
sg37
S'South Africa'
p150
sg39
I179
sg32
F1
sg31
F1
sS's'
F0
sg40
S'North Sound'
p151
sg42
g43
((I2010
I5
I20
I0
I0
I0
I3
I140
I-1
t(dtRp152
sa(dp153
g36
I1
sS'c'
F0
sg29
F0
sg37
S'South Africa'
p154
sg39
I178
sg32
F0
sg31
F0
sS's'
F0
sg40
S'North Sound'
p155
sg42
g43
((I2010
I5
I19
I0
I0
I0
I2
I139
I-1
t(dtRp156
sa(dp157
g36
I2
sS'c'
F0
sg29
F0
sg37
S'Australia'
p158
sg39
I174
sg32
F0
sg31
F0
sS's'
F0
sg40
S'Gros Islet'
p159
sg42
g43
((I2010
I5
I11
I0
I0
I0
I1
I131
I-1
t(dtRp160
sa(dp161
g36
I2
sS'c'
F1
sg29
F0
sg37
S'India'
p162
sg39
I169
sg32
F1
sg31
F1
sS's'
F0
sg40
S'Bridgetown'
p163
sg42
g43
((I2010
I5
I9
I0
I0
I0
I6
I129
I-1
t(dtRp164
sa(dp165
g36
I1
sS'c'
F0
sg29
F0
sg37
S'Sri Lanka'
p166
sg39
I166
sg32
F0
sg31
F0
sS's'
F0
sg40
S'Bridgetown'
p167
sg42
g43
((I2010
I5
I7
I0
I0
I0
I4
I127
I-1
t(dtRp168
sa(dp169
g36
I1
sS'c'
F0
sg29
F0
sg37
S'England'
p170
sg39
I158
sg32
F0
sg31
F0
sS's'
F0
sg40
S'Providence'
p171
sg42
g43
((I2010
I5
I3
I0
I0
I0
I0
I123
I-1
t(dtRp172
sa(dp173
g36
I2
sS'c'
F0
sg29
F0
sg37
S'Ireland'
p174
sg39
I152
sg32
F0
sg31
F0
sS's'
F0
sg40
S'Providence'
p175
sg42
g43
((I2010
I4
I30
I0
I0
I0
I4
I120
I-1
t(dtRp176
sa(dp177
g36
I1
sS'c'
F0
sg29
F0
sg37
S'Sri Lanka'
p178
sg39
I115
sg32
F0
sg31
F0
sS's'
F0
sg40
S'The Oval'
p179
sg42
g43
((I2009
I6
I19
I0
I0
I0
I4
I170
I-1
t(dtRp180
sa(dp181
g36
I1
sS'c'
F0
sg29
F0
sg37
S'England'
p182
sg39
I111
sg32
F0
sg31
F0
sS's'
F0
sg40
S'The Oval'
p183
sg42
g43
((I2009
I6
I15
I0
I0
I0
I0
I166
I-1
t(dtRp184
sa(dp185
g36
I1
sS'c'
F0
sg29
F0
sg37
S'South Africa'
p186
sg39
I106
sg32
F0
sg31
F0
sS's'
F0
sg40
S'The Oval'
p187
sg42
g43
((I2009
I6
I13
I0
I0
I0
I5
I164
I-1
t(dtRp188
sa(dp189
g36
I1
sS'c'
F0
sg29
F0
sg37
S'India'
p190
sg39
I105
sg32
F0
sg31
F0
sS's'
F0
sg40
S"Lord's"
p191
sg42
g43
((I2009
I6
I12
I0
I0
I0
I4
I163
I-1
t(dtRp192
sa(dp193
g36
I1
sS'c'
F0
sg29
F0
sg37
S'Sri Lanka'
p194
sg39
I100
sg32
F0
sg31
F0
sS's'
F0
sg40
S'Nottingham'
p195
sg42
g43
((I2009
I6
I10
I0
I0
I0
I2
I161
I-1
t(dtRp196
sa(dp197
g36
I1
sS'c'
F1
sg29
F0
sg37
S'Australia'
p198
sg39
I92
sg32
F1
sg31
F1
sS's'
F0
sg40
S'The Oval'
p199
sg42
g43
((I2009
I6
I6
I0
I0
I0
I5
I157
I-1
t(dtRp200
sa(dp201
g36
I1
sS'c'
F0
sg29
F0
sg37
S'England'
p202
sg39
I86
sg32
F0
sg31
F0
sS's'
F0
sg40
S'Port of Spain'
p203
sg42
g43
((I2009
I3
I15
I0
I0
I0
I6
I74
I-1
t(dtRp204
sa(dp205
g36
I1
sS'c'
F0
sg29
F0
sg37
S'Australia'
p206
sg39
I57
sg32
F0
sg31
F0
sS's'
F0
sg40
S'Bridgetown'
p207
sg42
g43
((I2008
I6
I20
I0
I0
I0
I4
I172
I-1
t(dtRp208
sa(dp209
g36
I2
sS'c'
F1
sg29
F0
sg37
S'South Africa'
p210
sg39
I51
sg32
F1
sg31
F1
sS's'
F0
sg40
S'Johannesburg'
p211
sg42
g43
((I2008
I1
I18
I0
I0
I0
I4
I18
I-1
t(dtRp212
sa(dp213
g36
I1
sS'c'
F0
sg29
F0
sg37
S'South Africa'
p214
sg39
I50
sg32
F0
sg31
F0
sS's'
F0
sg40
S'Port Elizabeth'
p215
sg42
g43
((I2007
I12
I16
I0
I0
I0
I6
I350
I-1
t(dtRp216
sa(dp217
g36
I2
sS'c'
F0
sg29
F0
sg37
S'Bangladesh'
p218
sg39
I24
sg32
F0
sg31
F0
sS's'
F0
sg40
S'Johannesburg'
p219
sg42
g43
((I2007
I9
I13
I0
I0
I0
I3
I256
I-1
t(dtRp220
sa(dp221
g36
I2
sS'c'
F0
sg29
F0
sg37
S'South Africa'
p222
sg39
I20
sg32
F0
sg31
F0
sS's'
F0
sg40
S'Johannesburg'
p223
sg42
g43
((I2007
I9
I11
I0
I0
I0
I1
I254
I-1
t(dtRp224
sa(dp225
g36
I2
sS'c'
F0
sg29
F0
sg37
S'England'
p226
sg39
I16
sg32
F0
sg31
F0
sS's'
F0
sg40
S'The Oval'
p227
sg42
g43
((I2007
I6
I29
I0
I0
I0
I4
I180
I-1
t(dtRp228
sa(dp229
g36
I2
sS'c'
F1
sg29
F0
sg37
S'England'
p230
sg39
I15
sg32
F1
sg31
F1
sS's'
F0
sg40
S'The Oval'
p231
sg42
g43
((I2007
I6
I28
I0
I0
I0
I3
I179
I-1
t(dtRp232
sa(dp233
g36
I2
sS'c'
F0
sg29
F0
sg37
S'New Zealand'
p234
sg39
I5
sg32
F0
sg31
F0
sS's'
F0
sg40
S'Auckland'
p235
sg42
g43
((I2006
I2
I16
I0
I0
I0
I3
I47
I-1
t(dtRp236
satp237
sS'bowlingStats'
p238
((dp239
S'a'
F29.484848484848484
sS'b'
F696
sS'e'
F8.387931034482758
sS'i'
F40
sS'sr'
p240
F21.09090909090909
sS'5w'
p241
F0
sS'm'
F49
sS'maid'
p242
F0
sS'r'
F973
sS'w'
F33
sS'4w'
p243
F1
sS'bbir'
p244
F38
sS'bbiw'
p245
F4
sg33
F2014
sg30
F2006
s(lp246
(dp247
g36
I1
sS'b'
F24
sS'e'
F9.75
sg39
I388
sS'pos'
p248
I6
sg242
F0
sS'r'
F39
sg40
S'Dhaka'
p249
sS'w'
F1
sg42
g43
((I2014
I3
I28
I0
I0
I0
I4
I87
I-1
t(dtRp250
sg37
S'Australia'
p251
sa(dp252
g36
I2
sS'b'
F18
sS'e'
F7.666666666666667
sg39
I385
sg248
I6
sg242
F0
sS'r'
F23
sg40
S'Dhaka'
p253
sS'w'
F0
sg42
g43
((I2014
I3
I25
I0
I0
I0
I1
I84
I-1
t(dtRp254
sg37
S'Bangladesh'
p255
sa(dp256
g36
I2
sS'b'
F6
sS'e'
F12
sg39
I382
sg248
I4
sg242
F0
sS'r'
F12
sg40
S'Dhaka'
p257
sS'w'
F0
sg42
g43
((I2014
I3
I23
I0
I0
I0
I6
I82
I-1
t(dtRp258
sg37
S'India'
p259
sa(dp260
g36
I1
sS'b'
F18
sS'e'
F11.666666666666666
sg39
I364
sg248
I4
sg242
F0
sS'r'
F35
sg40
S'Bridgetown'
p261
sS'w'
F0
sg42
g43
((I2014
I3
I13
I0
I0
I0
I3
I72
I-1
t(dtRp262
sg37
S'England'
p263
sa(dp264
g36
I1
sS'b'
F24
sS'e'
F8.5
sg39
I362
sg248
I6
sg242
F0
sS'r'
F34
sg40
S'Bridgetown'
p265
sS'w'
F2
sg42
g43
((I2014
I3
I11
I0
I0
I0
I1
I70
I-1
t(dtRp266
sg37
S'England'
p267
sa(dp268
g36
I2
sS'b'
F24
sS'e'
F7.5
sg39
I361
sg248
I4
sg242
F0
sS'r'
F30
sg40
S'Bridgetown'
p269
sS'w'
F1
sg42
g43
((I2014
I3
I9
I0
I0
I0
I6
I68
I-1
t(dtRp270
sg37
S'England'
p271
sa(dp272
g36
I2
sS'b'
F24
sS'e'
F6
sg39
I360
sg248
I4
sg242
F0
sS'r'
F24
sg40
S'Kingston'
p273
sS'w'
F1
sg42
g43
((I2014
I2
I21
I0
I0
I0
I4
I52
I-1
t(dtRp274
sg37
S'Ireland'
p275
sa(dp276
g36
I2
sS'b'
F18
sS'e'
F7
sg39
I359
sg248
I6
sg242
F0
sS'r'
F21
sg40
S'Kingston'
p277
sS'w'
F0
sg42
g43
((I2014
I2
I19
I0
I0
I0
I2
I50
I-1
t(dtRp278
sg37
S'Ireland'
p279
sa(dp280
g36
I2
sS'b'
F18
sS'e'
F10.333333333333334
sg39
I353
sg248
I3
sg242
F0
sS'r'
F31
sg40
S'Wellington'
p281
sS'w'
F0
sg42
g43
((I2014
I1
I15
I0
I0
I0
I2
I15
I-1
t(dtRp282
sg37
S'New Zealand'
p283
sa(dp284
g36
I1
sS'b'
F24
sS'e'
F6
sg39
I352
sg248
I5
sg242
F0
sS'r'
F24
sg40
S'Auckland'
p285
sS'w'
F0
sg42
g43
((I2014
I1
I11
I0
I0
I0
I5
I11
I-1
t(dtRp286
sg37
S'New Zealand'
p287
sa(dp288
g36
I1
sS'b'
F24
sS'e'
F8.75
sg39
I322
sg248
I5
sg242
F0
sS'r'
F35
sg40
S'Kingstown'
p289
sS'w'
F0
sg42
g43
((I2013
I7
I28
I0
I0
I0
I6
I209
I-1
t(dtRp290
sg37
S'Pakistan'
p291
sa(dp292
g36
I2
sS'b'
F18
sS'e'
F5
sg39
I308
sg248
I5
sg242
F0
sS'r'
F15
sg40
S'North Sound'
p293
sS'w'
F2
sg42
g43
((I2013
I3
I3
I0
I0
I0
I6
I62
I-1
t(dtRp294
sg37
S'Zimbabwe'
p295
sa(dp296
g36
I1
sS'b'
F12
sS'e'
F8
sg39
I305
sg248
I5
sg242
F0
sS'r'
F16
sg40
S'North Sound'
p297
sS'w'
F2
sg42
g43
((I2013
I3
I2
I0
I0
I0
I5
I61
I-1
t(dtRp298
sg37
S'Zimbabwe'
p299
sa(dp300
g36
I2
sS'b'
F12
sS'e'
F8.5
sg39
I303
sg248
I6
sg242
F0
sS'r'
F17
sg40
S'Brisbane'
p301
sS'w'
F0
sg42
g43
((I2013
I2
I13
I0
I0
I0
I2
I44
I-1
t(dtRp302
sg37
S'Australia'
p303
sa(dp304
g36
I2
sS'b'
F6
sS'e'
F8
sg39
I270
sg248
I6
sg242
F0
sS'r'
F8
sg40
S'Colombo (RPS)'
p305
sS'w'
F0
sg42
g43
((I2012
I9
I22
I0
I0
I0
I5
I266
I-1
t(dtRp306
sg37
S'Australia'
p307
sa(dp308
g36
I2
sS'b'
F16
sS'e'
F8.625
sg39
I248
sg248
I5
sg242
F0
sS'r'
F23
sg40
S'Lauderhill'
p309
sS'w'
F2
sg42
g43
((I2012
I7
I1
I0
I0
I0
I6
I183
I-1
t(dtRp310
sg37
S'New Zealand'
p311
sa(dp312
g36
I2
sS'b'
F18
sS'e'
F8.6666666666666661
sg39
I247
sg248
I6
sg242
F0
sS'r'
F26
sg40
S'Lauderhill'
p313
sS'w'
F1
sg42
g43
((I2012
I6
I30
I0
I0
I0
I5
I182
I-1
t(dtRp314
sg37
S'New Zealand'
p315
sa(dp316
g36
I2
sS'b'
F12
sS'e'
F10.5
sg39
I246
sg248
I4
sg242
F0
sS'r'
F21
sg40
S'Nottingham'
p317
sS'w'
F0
sg42
g43
((I2012
I6
I24
I0
I0
I0
I6
I176
I-1
t(dtRp318
sg37
S'England'
p319
sa(dp320
g36
I2
sS'b'
F24
sS'e'
F6.75
sg39
I243
sg248
I5
sg242
F0
sS'r'
F27
sg40
S'Bridgetown'
p321
sS'w'
F2
sg42
g43
((I2012
I3
I30
I0
I0
I0
I4
I90
I-1
t(dtRp322
sg37
S'Australia'
p323
sa(dp324
g36
I2
sS'b'
F18
sS'e'
F7
sg39
I241
sg248
I5
sg242
F0
sS'r'
F21
sg40
S'Gros Islet'
p325
sS'w'
F0
sg42
g43
((I2012
I3
I27
I0
I0
I0
I1
I87
I-1
t(dtRp326
sg37
S'Australia'
p327
sa(dp328
g36
I1
sS'b'
F24
sS'e'
F5
sg39
I179
sg248
I4
sg242
F0
sS'r'
F20
sg40
S'North Sound'
p329
sS'w'
F0
sg42
g43
((I2010
I5
I20
I0
I0
I0
I3
I140
I-1
t(dtRp330
sg37
S'South Africa'
p331
sa(dp332
g36
I1
sS'b'
F6
sS'e'
F14
sg39
I178
sg248
I5
sg242
F0
sS'r'
F14
sg40
S'North Sound'
p333
sS'w'
F0
sg42
g43
((I2010
I5
I19
I0
I0
I0
I2
I139
I-1
t(dtRp334
sg37
S'South Africa'
p335
sa(dp336
g36
I2
sS'b'
F6
sS'e'
F11
sg39
I174
sg248
I4
sg242
F0
sS'r'
F11
sg40
S'Gros Islet'
p337
sS'w'
F0
sg42
g43
((I2010
I5
I11
I0
I0
I0
I1
I131
I-1
t(dtRp338
sg37
S'Australia'
p339
sa(dp340
g36
I2
sS'b'
F24
sS'e'
F7
sg39
I169
sg248
I4
sg242
F0
sS'r'
F28
sg40
S'Bridgetown'
p341
sS'w'
F1
sg42
g43
((I2010
I5
I9
I0
I0
I0
I6
I129
I-1
t(dtRp342
sg37
S'India'
p343
sa(dp344
g36
I1
sS'b'
F18
sS'e'
F12
sg39
I166
sg248
I3
sg242
F0
sS'r'
F36
sg40
S'Bridgetown'
p345
sS'w'
F1
sg42
g43
((I2010
I5
I7
I0
I0
I0
I4
I127
I-1
t(dtRp346
sg37
S'Sri Lanka'
p347
sa(dp348
g36
I1
sS'b'
F24
sS'e'
F9
sg39
I158
sg248
I6
sg242
F0
sS'r'
F36
sg40
S'Providence'
p349
sS'w'
F1
sg42
g43
((I2010
I5
I3
I0
I0
I0
I0
I123
I-1
t(dtRp350
sg37
S'England'
p351
sa(dp352
g36
I2
sS'b'
F12
sS'e'
F2.5
sg39
I152
sg248
I3
sg242
F0
sS'r'
F5
sg40
S'Providence'
p353
sS'w'
F2
sg42
g43
((I2010
I4
I30
I0
I0
I0
I4
I120
I-1
t(dtRp354
sg37
S'Ireland'
p355
sa(dp356
g36
I1
sS'b'
F18
sS'e'
F10.666666666666666
sg39
I115
sg248
I3
sg242
F0
sS'r'
F32
sg40
S'The Oval'
p357
sS'w'
F2
sg42
g43
((I2009
I6
I19
I0
I0
I0
I4
I170
I-1
t(dtRp358
sg37
S'Sri Lanka'
p359
sa(dp360
g36
I1
sS'b'
F24
sS'e'
F7.5
sg39
I111
sg248
I7
sg242
F0
sS'r'
F30
sg40
S'The Oval'
p361
sS'w'
F2
sg42
g43
((I2009
I6
I15
I0
I0
I0
I0
I166
I-1
t(dtRp362
sg37
S'England'
p363
sa(dp364
g36
I1
sS'b'
F12
sS'e'
F12
sg39
I106
sg248
I3
sg242
F0
sS'r'
F24
sg40
S'The Oval'
p365
sS'w'
F0
sg42
g43
((I2009
I6
I13
I0
I0
I0
I5
I164
I-1
t(dtRp366
sg37
S'South Africa'
p367
sa(dp368
g36
I1
sS'b'
F24
sS'e'
F9.5
sg39
I105
sg248
I3
sg242
F0
sS'r'
F38
sg40
S"Lord's"
p369
sS'w'
F4
sg42
g43
((I2009
I6
I12
I0
I0
I0
I4
I163
I-1
t(dtRp370
sg37
S'India'
p371
sa(dp372
g36
I1
sS'b'
F24
sS'e'
F7.25
sg39
I100
sg248
I3
sg242
F0
sS'r'
F29
sg40
S'Nottingham'
p373
sS'w'
F0
sg42
g43
((I2009
I6
I10
I0
I0
I0
I2
I161
I-1
t(dtRp374
sg37
S'Sri Lanka'
p375
sa(dp376
g36
I1
sS'b'
F24
sS'e'
F7.75
sg39
I92
sg248
I3
sg242
F0
sS'r'
F31
sg40
S'The Oval'
p377
sS'w'
F2
sg42
g43
((I2009
I6
I6
I0
I0
I0
I5
I157
I-1
t(dtRp378
sg37
S'Australia'
p379
sa(dp380
g36
I1
sS'b'
F24
sS'e'
F8.5
sg39
I86
sg248
I4
sg242
F0
sS'r'
F34
sg40
S'Port of Spain'
p381
sS'w'
F1
sg42
g43
((I2009
I3
I15
I0
I0
I0
I6
I74
I-1
t(dtRp382
sg37
S'England'
p383
sa(dp384
g36
I1
sS'b'
F12
sS'e'
F6
sg39
I57
sg248
I5
sg242
F0
sS'r'
F12
sg40
S'Bridgetown'
p385
sS'w'
F1
sg42
g43
((I2008
I6
I20
I0
I0
I0
I4
I172
I-1
t(dtRp386
sg37
S'Australia'
p387
sa(dp388
g36
I1
sS'b'
F12
sS'e'
F8
sg39
I50
sg248
I3
sg242
F0
sS'r'
F16
sg40
S'Port Elizabeth'
p389
sS'w'
F0
sg42
g43
((I2007
I12
I16
I0
I0
I0
I6
I350
I-1
t(dtRp390
sg37
S'South Africa'
p391
sa(dp392
g36
I2
sS'b'
F12
sS'e'
F17
sg39
I24
sg248
I5
sg242
F0
sS'r'
F34
sg40
S'Johannesburg'
p393
sS'w'
F0
sg42
g43
((I2007
I9
I13
I0
I0
I0
I3
I256
I-1
t(dtRp394
sg37
S'Bangladesh'
p395
sa(dp396
g36
I2
sS'b'
F16
sS'e'
F14.625
sg39
I20
sg248
I5
sg242
F0
sS'r'
F39
sg40
S'Johannesburg'
p397
sS'w'
F0
sg42
g43
((I2007
I9
I11
I0
I0
I0
I1
I254
I-1
t(dtRp398
sg37
S'South Africa'
p399
sa(dp400
g36
I2
sS'b'
F6
sS'e'
F6
sg39
I15
sg248
I6
sg242
F0
sS'r'
F6
sg40
S'The Oval'
p401
sS'w'
F0
sg42
g43
((I2007
I6
I28
I0
I0
I0
I3
I179
I-1
t(dtRp402
sg37
S'England'
p403
sa(dp404
g36
I2
sS'b'
F16
sS'e'
F6
sg39
I5
sg248
I4
sg242
F0
sS'r'
F16
sg40
S'Auckland'
p405
sS'w'
F2
sg42
g43
((I2006
I2
I16
I0
I0
I0
I3
I47
I-1
t(dtRp406
sg37
S'New Zealand'
p407
satp408
sS'battingStats'
p409
((dp410
S'a'
F26.647058823529413
sS'0s'
p411
F4
sS'b'
F755
sS'no'
p412
F11
sg30
F2006
sS'hs'
p413
F66
sS'm'
F49
sS'4s'
p414
F54
sg33
F2014
sS'i'
F45
sS'6s'
p415
F40
sg240
F120
sS'r'
F906
sS'100s'
p416
F0
sS'50s'
p417
F3
s(lp418
(dp419
g36
I2
sS'b'
F19
sg37
S'Sri Lanka'
p420
sg240
F157.89473684210526
sg39
I398
sS'dismiss'
p421
S'caught'
p422
sg414
F3
sg248
I5
sg415
F1
sg40
S'Dhaka'
p423
sg42
g43
((I2014
I4
I3
I0
I0
I0
I3
I93
I-1
t(dtRp424
sS'r'
F30
sS'minutes'
p425
F24
sa(dp426
g36
I1
sS'b'
F26
sg37
S'Pakistan'
p427
sg240
F176.92307692307693
sg39
I397
sg421
S'run out'
p428
sg414
F2
sg248
I5
sg415
F4
sg40
S'Dhaka'
p429
sg42
g43
((I2014
I4
I1
I0
I0
I0
I1
I91
I-1
t(dtRp430
sS'r'
F46
sg425
F37
sa(dp431
g36
I2
sS'b'
F12
sg37
S'Australia'
p432
sg412
I01
sg240
F225
sg39
I388
sg421
S'not out'
p433
sg414
F2
sg248
I5
sg415
F2
sg40
S'Dhaka'
p434
sg42
g43
((I2014
I3
I28
I0
I0
I0
I4
I87
I-1
t(dtRp435
sS'r'
F27
sg425
F30
sa(dp436
g36
I1
sS'b'
F1
sg37
S'Bangladesh'
p437
sg240
F0
sg39
I385
sg421
S'caught'
p438
sg414
F0
sg248
I7
sg415
F0
sg40
S'Dhaka'
p439
sg42
g43
((I2014
I3
I25
I0
I0
I0
I1
I84
I-1
t(dtRp440
sS'r'
F0
sg425
F2
sa(dp441
g36
I1
sS'b'
F1
sg37
S'India'
p442
sg240
F0
sg39
I382
sg421
S'lbw'
p443
sg414
F0
sg248
I5
sg415
F0
sg40
S'Dhaka'
p444
sg42
g43
((I2014
I3
I23
I0
I0
I0
I6
I82
I-1
t(dtRp445
sS'r'
F0
sg425
F1
sa(dp446
g36
I2
sS'b'
F19
sg37
S'England'
p447
sg240
F84.21052631578948
sg39
I364
sg421
S'caught'
p448
sg414
F2
sg248
I5
sg415
F0
sg40
S'Bridgetown'
p449
sg42
g43
((I2014
I3
I13
I0
I0
I0
I3
I72
I-1
t(dtRp450
sS'r'
F16
sg425
F20
sa(dp451
g36
I2
sS'b'
F6
sg37
S'England'
p452
sg412
I01
sg240
F133.33333333333334
sg39
I362
sg421
S'not out'
p453
sg414
F1
sg248
I7
sg415
F0
sg40
S'Bridgetown'
p454
sg42
g43
((I2014
I3
I11
I0
I0
I0
I1
I70
I-1
t(dtRp455
sS'r'
F8
sg425
F13
sa(dp456
g36
I1
sS'b'
F13
sg37
S'Ireland'
p457
sg240
F76.92307692307692
sg39
I360
sg421
S'run out'
p458
sg414
F1
sg248
I5
sg415
F0
sg40
S'Kingston'
p459
sg42
g43
((I2014
I2
I21
I0
I0
I0
I4
I52
I-1
t(dtRp460
sS'r'
F10
sg425
F-1
sa(dp461
g36
I1
sS'b'
F14
sg37
S'Ireland'
p462
sg240
F57.142857142857146
sg39
I359
sg421
S'caught'
p463
sg414
F1
sg248
I5
sg415
F0
sg40
S'Kingston'
p464
sg42
g43
((I2014
I2
I19
I0
I0
I0
I2
I50
I-1
t(dtRp465
sS'r'
F8
sg425
F-1
sa(dp466
g36
I1
sS'b'
F12
sg37
S'New Zealand'
p467
sg240
F100
sg39
I353
sg421
S'bowled'
p468
sg414
F0
sg248
I4
sg415
F1
sg40
S'Wellington'
p469
sg42
g43
((I2014
I1
I15
I0
I0
I0
I2
I15
I-1
t(dtRp470
sS'r'
F12
sg425
F15
sa(dp471
g36
I2
sS'b'
F11
sg37
S'New Zealand'
p472
sg240
F90.909090909090907
sg39
I352
sg421
S'caught'
p473
sg414
F1
sg248
I5
sg415
F0
sg40
S'Auckland'
p474
sg42
g43
((I2014
I1
I11
I0
I0
I0
I5
I11
I-1
t(dtRp475
sS'r'
F10
sg425
F15
sa(dp476
g36
I2
sS'b'
F44
sg37
S'Pakistan'
p477
sg240
F79.545454545454547
sg39
I322
sg421
S'caught'
p478
sg414
F2
sg248
I5
sg415
F1
sg40
S'Kingstown'
p479
sg42
g43
((I2013
I7
I28
I0
I0
I0
I6
I209
I-1
t(dtRp480
sS'r'
F35
sg425
F61
sa(dp481
g36
I1
sS'b'
F35
sg37
S'Pakistan'
p482
sg240
F71.428571428571431
sg39
I321
sg421
S'caught'
p483
sg414
F2
sg248
I5
sg415
F0
sg40
S'Kingstown'
p484
sg42
g43
((I2013
I7
I27
I0
I0
I0
I5
I208
I-1
t(dtRp485
sS'r'
F25
sg425
F40
sa(dp486
g36
I1
sS'b'
F25
sg37
S'Zimbabwe'
p487
sg240
F96
sg39
I308
sg421
S'caught'
p488
sg414
F1
sg248
I3
sg415
F1
sg40
S'North Sound'
p489
sg42
g43
((I2013
I3
I3
I0
I0
I0
I6
I62
I-1
t(dtRp490
sS'r'
F24
sg425
F22
sa(dp491
g36
I2
sS'b'
F30
sg37
S'Zimbabwe'
p492
sg412
I01
sg240
F126.66666666666667
sg39
I305
sg421
S'not out'
p493
sg414
F3
sg248
I4
sg415
F1
sg40
S'North Sound'
p494
sg42
g43
((I2013
I3
I2
I0
I0
I0
I5
I61
I-1
t(dtRp495
sS'r'
F38
sg425
F42
sa(dp496
g36
I1
sS'b'
F13
sg37
S'Australia'
p497
sg240
F100
sg39
I303
sg421
S'bowled'
p498
sg414
F0
sg248
I5
sg415
F0
sg40
S'Brisbane'
p499
sg42
g43
((I2013
I2
I13
I0
I0
I0
I2
I44
I-1
t(dtRp500
sS'r'
F13
sg425
F20
sa(dp501
g36
I1
sS'b'
F19
sg37
S'Sri Lanka'
p502
sg240
F100
sg39
I289
sg421
S'lbw'
p503
sg414
F0
sg248
I4
sg415
F1
sg40
S'Colombo (RPS)'
p504
sg42
g43
((I2012
I10
I7
I0
I0
I0
I6
I281
I-1
t(dtRp505
sS'r'
F19
sg425
F29
sa(dp506
g36
I1
sS'b'
F31
sg37
S'Australia'
p507
sg240
F119.35483870967742
sg39
I288
sg421
S'caught'
p508
sg414
F1
sg248
I4
sg415
F3
sg40
S'Colombo (RPS)'
p509
sg42
g43
((I2012
I10
I5
I0
I0
I0
I4
I279
I-1
t(dtRp510
sS'r'
F37
sg425
F37
sa(dp511
g36
I1
sS'b'
F34
sg37
S'Sri Lanka'
p512
sg240
F117.64705882352941
sg39
I280
sg421
S'caught'
p513
sg414
F4
sg248
I4
sg415
F2
sg40
S'Pallekele'
p514
sg42
g43
((I2012
I9
I29
I0
I0
I0
I5
I273
I-1
t(dtRp515
sS'r'
F40
sg425
F36
sa(dp516
g36
I1
sS'b'
F8
sg37
S'England'
p517
sg412
I01
sg240
F137.5
sg39
I276
sg421
S'not out'
p518
sg414
F2
sg248
I5
sg415
F0
sg40
S'Pallekele'
p519
sg42
g43
((I2012
I9
I27
I0
I0
I0
I3
I271
I-1
t(dtRp520
sS'r'
F11
sg425
F17
sa(dp521
g36
I1
sS'b'
F21
sg37
S'Australia'
p522
sg240
F128.57142857142858
sg39
I270
sg421
S'bowled'
p523
sg414
F1
sg248
I5
sg415
F1
sg40
S'Colombo (RPS)'
p524
sg42
g43
((I2012
I9
I22
I0
I0
I0
I5
I266
I-1
t(dtRp525
sS'r'
F27
sg425
F39
sa(dp526
g36
I1
sS'b'
F11
sg37
S'New Zealand'
p527
sg412
I01
sg240
F318.18181818181819
sg39
I248
sg421
S'not out'
p528
sg414
F1
sg248
I6
sg415
F4
sg40
S'Lauderhill'
p529
sg42
g43
((I2012
I7
I1
I0
I0
I0
I6
I183
I-1
t(dtRp530
sS'r'
F35
sg425
F18
sa(dp531
g36
I1
sS'b'
F36
sg37
S'England'
p532
sg412
I01
sg240
F150
sg39
I246
sg421
S'not out'
p533
sg414
F1
sg248
I5
sg415
F3
sg40
S'Nottingham'
p534
sg42
g43
((I2012
I6
I24
I0
I0
I0
I6
I176
I-1
t(dtRp535
sS'r'
F54
sg425
F56
sa(dp536
g36
I1
sS'b'
F24
sg37
S'Australia'
p537
sg240
F95.833333333333329
sg39
I243
sg421
S'caught'
p538
sg414
F0
sg248
I4
sg415
F0
sg40
S'Bridgetown'
p539
sg42
g43
((I2012
I3
I30
I0
I0
I0
I4
I90
I-1
t(dtRp540
sS'r'
F23
sg425
F51
sa(dp541
g36
I1
sS'b'
F11
sg37
S'Australia'
p542
sg240
F127.27272727272727
sg39
I241
sg421
S'caught'
p543
sg414
F1
sg248
I6
sg415
F0
sg40
S'Gros Islet'
p544
sg42
g43
((I2012
I3
I27
I0
I0
I0
I1
I87
I-1
t(dtRp545
sS'r'
F14
sg425
F-1
sa(dp546
g36
I2
sS'b'
F42
sg37
S'South Africa'
p547
sg240
F95.238095238095241
sg39
I179
sg421
S'caught'
p548
sg414
F1
sg248
I3
sg415
F2
sg40
S'North Sound'
p549
sg42
g43
((I2010
I5
I20
I0
I0
I0
I3
I140
I-1
t(dtRp550
sS'r'
F40
sg425
F65
sa(dp551
g36
I2
sS'b'
F22
sg37
S'South Africa'
p552
sg240
F90.909090909090907
sg39
I178
sg421
S'caught'
p553
sg414
F2
sg248
I3
sg415
F0
sg40
S'North Sound'
p554
sg42
g43
((I2010
I5
I19
I0
I0
I0
I2
I139
I-1
t(dtRp555
sS'r'
F20
sg425
F26
sa(dp556
g36
I1
sS'b'
F9
sg37
S'Australia'
p557
sg240
F66.666666666666671
sg39
I174
sg421
S'run out'
p558
sg414
F0
sg248
I4
sg415
F0
sg40
S'Gros Islet'
p559
sg42
g43
((I2010
I5
I11
I0
I0
I0
I1
I131
I-1
t(dtRp560
sS'r'
F6
sg425
F10
sa(dp561
g36
I1
sS'b'
F2
sg37
S'India'
p562
sg240
F50
sg39
I169
sg421
S'caught'
p563
sg414
F0
sg248
I5
sg415
F0
sg40
S'Bridgetown'
p564
sg42
g43
((I2010
I5
I9
I0
I0
I0
I6
I129
I-1
t(dtRp565
sS'r'
F1
sg425
F1
sa(dp566
g36
I2
sS'b'
F23
sg37
S'Sri Lanka'
p567
sg240
F100
sg39
I166
sg421
S'caught'
p568
sg414
F3
sg248
I4
sg415
F0
sg40
S'Bridgetown'
p569
sg42
g43
((I2010
I5
I7
I0
I0
I0
I4
I127
I-1
t(dtRp570
sS'r'
F23
sg425
F34
sa(dp571
g36
I1
sS'b'
F10
sg37
S'Ireland'
p572
sg240
F180
sg39
I152
sg421
S'caught'
p573
sg414
F0
sg248
I3
sg415
F2
sg40
S'Providence'
p574
sg42
g43
((I2010
I4
I30
I0
I0
I0
I4
I120
I-1
t(dtRp575
sS'r'
F18
sg425
F9
sa(dp576
g36
I2
sS'b'
F2
sg37
S'Sri Lanka'
p577
sg240
F0
sg39
I115
sg421
S'bowled'
p578
sg414
F0
sg248
I4
sg415
F0
sg40
S'The Oval'
p579
sg42
g43
((I2009
I6
I19
I0
I0
I0
I4
I170
I-1
t(dtRp580
sS'r'
F0
sg425
F1
sa(dp581
g36
I2
sS'b'
F13
sg37
S'England'
p582
sg240
F138.46153846153845
sg39
I111
sg421
S'stumped'
p583
sg414
F1
sg248
I4
sg415
F1
sg40
S'The Oval'
p584
sg42
g43
((I2009
I6
I15
I0
I0
I0
I0
I166
I-1
t(dtRp585
sS'r'
F18
sg425
F16
sa(dp586
g36
I2
sS'b'
F17
sg37
S'South Africa'
p587
sg240
F111.76470588235294
sg39
I106
sg421
S'caught'
p588
sg414
F2
sg248
I4
sg415
F0
sg40
S'The Oval'
p589
sg42
g43
((I2009
I6
I13
I0
I0
I0
I5
I164
I-1
t(dtRp590
sS'r'
F19
sg425
F24
sa(dp591
g36
I2
sS'b'
F36
sg37
S'India'
p592
sg412
I01
sg240
F183.33333333333334
sg39
I105
sg421
S'not out'
p593
sg414
F4
sg248
I4
sg415
F3
sg40
S"Lord's"
p594
sg42
g43
((I2009
I6
I12
I0
I0
I0
I4
I163
I-1
t(dtRp595
sS'r'
F66
sg425
F45
sa(dp596
g36
I2
sS'b'
F38
sg37
S'Sri Lanka'
p597
sg240
F134.21052631578948
sg39
I100
sg421
S'caught'
p598
sg414
F5
sg248
I6
sg415
F2
sg40
S'Nottingham'
p599
sg42
g43
((I2009
I6
I10
I0
I0
I0
I2
I161
I-1
t(dtRp600
sS'r'
F51
sg425
F38
sa(dp601
g36
I2
sS'b'
F11
sg37
S'England'
p602
sg240
F72.727272727272734
sg39
I86
sg421
S'caught'
p603
sg414
F1
sg248
I5
sg415
F0
sg40
S'Port of Spain'
p604
sg42
g43
((I2009
I3
I15
I0
I0
I0
I6
I74
I-1
t(dtRp605
sS'r'
F8
sg425
F11
sa(dp606
g36
I2
sS'b'
F15
sg37
S'Australia'
p607
sg412
I01
sg240
F186.66666666666666
sg39
I57
sg421
S'not out'
p608
sg414
F1
sg248
I4
sg415
F3
sg40
S'Bridgetown'
p609
sg42
g43
((I2008
I6
I20
I0
I0
I0
I4
I172
I-1
t(dtRp610
sS'r'
F28
sg425
F23
sa(dp611
g36
I1
sS'b'
F17
sg37
S'South Africa'
p612
sg240
F141.1764705882353
sg39
I51
sg421
S'caught'
p613
sg414
F0
sg248
I6
sg415
F2
sg40
S'Johannesburg'
p614
sg42
g43
((I2008
I1
I18
I0
I0
I0
I4
I18
I-1
t(dtRp615
sS'r'
F24
sg425
F23
sa(dp616
g36
I2
sS'b'
F1
sg37
S'South Africa'
p617
sg240
F0
sg39
I50
sg421
S'bowled'
p618
sg414
F0
sg248
I6
sg415
F0
sg40
S'Port Elizabeth'
p619
sg42
g43
((I2007
I12
I16
I0
I0
I0
I6
I350
I-1
t(dtRp620
sS'r'
F0
sg425
F1
sa(dp621
g36
I1
sS'b'
F2
sg37
S'Bangladesh'
p622
sg240
F100
sg39
I24
sg421
S'stumped'
p623
sg414
F0
sg248
I8
sg415
F0
sg40
S'Johannesburg'
p624
sg42
g43
((I2007
I9
I13
I0
I0
I0
I3
I256
I-1
t(dtRp625
sS'r'
F2
sg425
F1
sa(dp626
g36
I1
sS'b'
F0
sg37
S'South Africa'
p627
sg412
I01
sg240
F0
sg39
I20
sg421
S'not out'
p628
sg414
F0
sg248
I8
sg415
F0
sg40
S'Johannesburg'
p629
sg42
g43
((I2007
I9
I11
I0
I0
I0
I1
I254
I-1
t(dtRp630
sS'r'
F0
sg425
F1
sa(dp631
g36
I1
sS'b'
F1
sg37
S'England'
p632
sg412
I01
sg240
F0
sg39
I16
sg421
S'not out'
p633
sg414
F0
sg248
I8
sg415
F0
sg40
S'The Oval'
p634
sg42
g43
((I2007
I6
I29
I0
I0
I0
I4
I180
I-1
t(dtRp635
sS'r'
F0
sg425
F6
sa(dp636
g36
I1
sS'b'
F2
sg37
S'England'
p637
sg240
F50
sg39
I15
sg421
S'stumped'
p638
sg414
F0
sg248
I5
sg415
F0
sg40
S'The Oval'
p639
sg42
g43
((I2007
I6
I28
I0
I0
I0
I3
I179
I-1
t(dtRp640
sS'r'
F1
sg425
F4
sa(dp641
g36
I1
sS'b'
F16
sg37
S'New Zealand'
p642
sg412
I01
sg240
F118.75
sg39
I5
sg421
S'not out'
p643
sg414
F2
sg248
I7
sg415
F0
sg40
S'Auckland'
p644
sg42
g43
((I2006
I2
I16
I0
I0
I0
I3
I47
I-1
t(dtRp645
sS'r'
F19
sg425
F25
satp646
ssS'all'
p647
(dp648
g27
(dp649
S'c'
F98
sg29
F0
sS'i'
F197
sS'm'
F197
sS's'
F0
sg31
F98
sg32
F98
ssg238
(dp650
S'a'
F24.479166666666668
sS'b'
F3537
sS'e'
F7.9728583545377436
sS'i'
F184
sg240
F18.421875
sg241
F0
sS'm'
F197
sg242
F0
sS'r'
F4700
sS'w'
F192
sg243
F3
sg244
F23
sg245
F4
ssg409
(dp651
S'a'
F27.199999999999999
sg411
F-1
sS'b'
F2625
sg412
F44
sS'i'
F164
sg413
F70
sS'm'
F197
sg414
F211
sg415
F150
sg240
F124.34285714285714
sS'r'
F3264
sg416
F0
sg417
F12
ssssb.