(iplayer
Player
p1
(dp2
S'is_batsman'
p3
I01
sS'name'
p4
S'Robin Uthappa'
p5
sS'dob'
p6
S'1985/11/11'
p7
sS'price'
p8
S'900000'
p9
sS'is_allrounder'
p10
I00
sS'espnid'
p11
S'35582'
p12
sS'is_overseas'
p13
I00
sS'team'
p14
S'KKR'
p15
sS'nationality'
p16
S'Indian'
p17
sS'is_bowler'
p18
I00
sS'is_keeper'
p19
I01
sS'id'
p20
S'127'
p21
sS'is_uncapped'
p22
I00
sS'tournamentStats'
p23
(dp24
S'international'
p25
(dp26
S'fieldingStats'
p27
((dp28
S'c'
F1
sS'ctw'
p29
F0
sS'span_s'
p30
F2007
sS'm'
F11
sS's'
F0
sS'dismissals'
p31
F1
sS'i'
F10
sS'ctf'
p32
F1
sS'span_f'
p33
F2012
s(lp34
(dp35
S'inning'
p36
I1
sS'c'
F0
sg29
F0
sS'opp'
p37
S'South Africa'
p38
sS't20i_num'
p39
I242
sg32
F0
sg31
F0
sS's'
F0
sS'place'
p40
S'Johannesburg'
p41
sS'date'
p42
ctime
struct_time
p43
((I2012
I3
I30
I0
I0
I0
I4
I90
I-1
t(dtRp44
sa(dp45
g36
I2
sS'c'
F0
sg29
F0
sg37
S'England'
p46
sg39
I214
sg32
F0
sg31
F0
sS's'
F0
sg40
S'Kolkata'
p47
sg42
g43
((I2011
I10
I29
I0
I0
I0
I5
I302
I-1
t(dtRp48
sa(dp49
g36
I2
sS'c'
F0
sg29
F0
sg37
S'Australia'
p50
sg39
I52
sg32
F0
sg31
F0
sS's'
F0
sg40
S'Melbourne'
p51
sg42
g43
((I2008
I2
I1
I0
I0
I0
I4
I32
I-1
t(dtRp52
sa(dp53
g36
I1
sS'c'
F0
sg29
F0
sg37
S'Australia'
p54
sg39
I47
sg32
F0
sg31
F0
sS's'
F0
sg40
S'Mumbai (BS)'
p55
sg42
g43
((I2007
I10
I20
I0
I0
I0
I5
I293
I-1
t(dtRp56
sa(dp57
g36
I2
sS'c'
F1
sg29
F0
sg37
S'Pakistan'
p58
sg39
I46
sg32
F1
sg31
F1
sS's'
F0
sg40
S'Johannesburg'
p59
sg42
g43
((I2007
I9
I24
I0
I0
I0
I0
I267
I-1
t(dtRp60
sa(dp61
g36
I2
sS'c'
F0
sg29
F0
sg37
S'Australia'
p62
sg39
I45
sg32
F0
sg31
F0
sS's'
F0
sg40
S'Durban'
p63
sg42
g43
((I2007
I9
I22
I0
I0
I0
I5
I265
I-1
t(dtRp64
sa(dp65
g36
I2
sS'c'
F0
sg29
F0
sg37
S'South Africa'
p66
sg39
I43
sg32
F0
sg31
F0
sS's'
F0
sg40
S'Durban'
p67
sg42
g43
((I2007
I9
I20
I0
I0
I0
I3
I263
I-1
t(dtRp68
sa(dp69
g36
I2
sS'c'
F0
sg29
F0
sg37
S'England'
p70
sg39
I40
sg32
F0
sg31
F0
sS's'
F0
sg40
S'Durban'
p71
sg42
g43
((I2007
I9
I19
I0
I0
I0
I2
I262
I-1
t(dtRp72
sa(dp73
g36
I1
sS'c'
F0
sg29
F0
sg37
S'New Zealand'
p74
sg39
I32
sg32
F0
sg31
F0
sS's'
F0
sg40
S'Johannesburg'
p75
sg42
g43
((I2007
I9
I16
I0
I0
I0
I6
I259
I-1
t(dtRp76
sa(dp77
g36
I2
sS'c'
F0
sg29
F0
sg37
S'Pakistan'
p78
sg39
I29
sg32
F0
sg31
F0
sS's'
F0
sg40
S'Durban'
p79
sg42
g43
((I2007
I9
I14
I0
I0
I0
I4
I257
I-1
t(dtRp80
satp81
sS'bowlingStats'
p82
((dp83
S'a'
F-1
sS'b'
F0
sS'e'
F-1
sS'i'
F0
sS'sr'
p84
F-1
sS'5w'
p85
F0
sS'm'
F11
sS'maid'
p86
F0
sS'r'
F0
sS'w'
F0
sS'4w'
p87
F0
sS'bbir'
p88
F-1
sS'bbiw'
p89
F-1
sg33
F2012
sg30
F2007
s(ltp90
sS'battingStats'
p91
((dp92
S'a'
F18.666666666666668
sS'0s'
p93
F1
sS'b'
F151
sS'no'
p94
F1
sg30
F2007
sS'hs'
p95
F50
sS'm'
F11
sS'4s'
p96
F15
sg33
F2012
sS'i'
F10
sS'6s'
p97
F6
sg84
F111.25827814569537
sS'r'
F168
sS'100s'
p98
F0
sS'50s'
p99
F1
s(lp100
(dp101
g36
I2
sS'b'
F19
sg37
S'South Africa'
p102
sg94
I01
sg84
F94.736842105263165
sg39
I242
sS'dismiss'
p103
S'not out'
p104
sg96
F1
sS'pos'
p105
I1
sg97
F0
sg40
S'Johannesburg'
p106
sg42
g43
((I2012
I3
I30
I0
I0
I0
I4
I90
I-1
t(dtRp107
sS'r'
F18
sS'minutes'
p108
F36
sa(dp109
g36
I1
sS'b'
F3
sg37
S'England'
p110
sg84
F33.333333333333336
sg39
I214
sg103
S'caught'
p111
sg96
F0
sg105
I1
sg97
F0
sg40
S'Kolkata'
p112
sg42
g43
((I2011
I10
I29
I0
I0
I0
I5
I302
I-1
t(dtRp113
sS'r'
F1
sg108
F6
sa(dp114
g36
I1
sS'b'
F3
sg37
S'Australia'
p115
sg84
F33.333333333333336
sg39
I52
sg103
S'caught'
p116
sg96
F0
sg105
I4
sg97
F0
sg40
S'Melbourne'
p117
sg42
g43
((I2008
I2
I1
I0
I0
I0
I4
I32
I-1
t(dtRp118
sS'r'
F1
sg108
F7
sa(dp119
g36
I2
sS'b'
F26
sg37
S'Australia'
p120
sg84
F134.61538461538461
sg39
I47
sg103
S'caught'
p121
sg96
F6
sg105
I3
sg97
F0
sg40
S'Mumbai (BS)'
p122
sg42
g43
((I2007
I10
I20
I0
I0
I0
I5
I293
I-1
t(dtRp123
sS'r'
F35
sg108
F38
sa(dp124
g36
I1
sS'b'
F11
sg37
S'Pakistan'
p125
sg84
F72.727272727272734
sg39
I46
sg103
S'caught'
p126
sg96
F1
sg105
I3
sg97
F0
sg40
S'Johannesburg'
p127
sg42
g43
((I2007
I9
I24
I0
I0
I0
I0
I267
I-1
t(dtRp128
sS'r'
F8
sg108
F13
sa(dp129
g36
I1
sS'b'
F28
sg37
S'Australia'
p130
sg84
F121.42857142857143
sg39
I45
sg103
S'run out'
p131
sg96
F1
sg105
I3
sg97
F3
sg40
S'Durban'
p132
sg42
g43
((I2007
I9
I22
I0
I0
I0
I5
I265
I-1
t(dtRp133
sS'r'
F34
sg108
F38
sa(dp134
g36
I1
sS'b'
F16
sg37
S'South Africa'
p135
sg84
F93.75
sg39
I43
sg103
S'caught'
p136
sg96
F1
sg105
I4
sg97
F1
sg40
S'Durban'
p137
sg42
g43
((I2007
I9
I20
I0
I0
I0
I3
I263
I-1
t(dtRp138
sS'r'
F15
sg108
F22
sa(dp139
g36
I1
sS'b'
F4
sg37
S'England'
p140
sg84
F150
sg39
I40
sg103
S'bowled'
p141
sg96
F1
sg105
I3
sg97
F0
sg40
S'Durban'
p142
sg42
g43
((I2007
I9
I19
I0
I0
I0
I2
I262
I-1
t(dtRp143
sS'r'
F6
sg108
F8
sa(dp144
g36
I2
sS'b'
F2
sg37
S'New Zealand'
p145
sg84
F0
sg39
I32
sg103
S'caught'
p146
sg96
F0
sg105
I3
sg97
F0
sg40
S'Johannesburg'
p147
sg42
g43
((I2007
I9
I16
I0
I0
I0
I6
I259
I-1
t(dtRp148
sS'r'
F0
sg108
F3
sa(dp149
g36
I1
sS'b'
F39
sg37
S'Pakistan'
p150
sg84
F128.2051282051282
sg39
I29
sg103
S'caught'
p151
sg96
F4
sg105
I3
sg97
F2
sg40
S'Durban'
p152
sg42
g43
((I2007
I9
I14
I0
I0
I0
I4
I257
I-1
t(dtRp153
sS'r'
F50
sg108
F52
satp154
ssS'all'
p155
(dp156
g27
(dp157
S'c'
F74
sg29
F0
sS'i'
F142
sS'm'
F142
sS's'
F13
sg31
F87
sg32
F74
ssg82
(dp158
S'a'
F-1
sS'b'
F6
sS'e'
F11
sS'i'
F1
sg84
F-1
sg85
F0
sS'm'
F142
sg86
F0
sS'r'
F11
sS'w'
F0
sg87
F0
sg88
F-1
sg89
F-1
ssg91
(dp159
S'a'
F26.208333333333332
sg93
F-1
sS'b'
F2399
sg94
F16
sS'i'
F136
sg95
F92
sS'm'
F142
sg96
F301
sg97
F118
sg84
F131.09629012088371
sS'r'
F3145
sg98
F0
sg99
F15
ssssb.