(iplayer
Player
p1
(dp2
S'is_batsman'
p3
I00
sS'name'
p4
S'Lakshmipathy Balaji'
p5
sS'dob'
p6
S'1981/09/27'
p7
sS'price'
p8
S'850000'
p9
sS'is_allrounder'
p10
I00
sS'espnid'
p11
S'26829'
p12
sS'is_overseas'
p13
I00
sS'team'
p14
S'KXIP'
p15
sS'nationality'
p16
S'Indian'
p17
sS'is_bowler'
p18
I01
sS'is_keeper'
p19
I00
sS'id'
p20
S'87'
p21
sS'is_uncapped'
p22
I00
sS'tournamentStats'
p23
(dp24
S'international'
p25
(dp26
S'fieldingStats'
p27
((dp28
S'c'
F0
sS'ctw'
p29
F0
sS'i'
F5
sS'm'
F5
sS's'
F0
sS'dismissals'
p30
F0
sS'ctf'
p31
F0
s(lp32
(dp33
S'inning'
p34
I2
sS'c'
F0
sg29
F0
sS'opp'
p35
S'South Africa'
p36
sS't20i_num'
p37
I286
sg31
F0
sg30
F0
sS's'
F0
sS'place'
p38
S'Colombo (RPS)'
p39
sS'date'
p40
ctime
struct_time
p41
((I2012
I10
I2
I0
I0
I0
I1
I276
I-1
t(dtRp42
sa(dp43
g34
I1
sS'c'
F0
sg29
F0
sg35
S'Pakistan'
p44
sg37
I282
sg31
F0
sg30
F0
sS's'
F0
sg38
S'Colombo (RPS)'
p45
sg40
g41
((I2012
I9
I30
I0
I0
I0
I6
I274
I-1
t(dtRp46
sa(dp47
g34
I2
sS'c'
F0
sg29
F0
sg35
S'England'
p48
sg37
I272
sg31
F0
sg30
F0
sS's'
F0
sg38
S'Colombo (RPS)'
p49
sg40
g41
((I2012
I9
I23
I0
I0
I0
I6
I267
I-1
t(dtRp50
sa(dp51
g34
I2
sS'c'
F0
sg29
F0
sg35
S'Afghanistan'
p52
sg37
I265
sg31
F0
sg30
F0
sS's'
F0
sg38
S'Colombo (RPS)'
p53
sg40
g41
((I2012
I9
I19
I0
I0
I0
I2
I263
I-1
t(dtRp54
sa(dp55
g34
I1
sS'c'
F0
sg29
F0
sg35
S'New Zealand'
p56
sg37
I261
sg31
F0
sg30
F0
sS's'
F0
sg38
S'Chennai'
p57
sg40
g41
((I2012
I9
I11
I0
I0
I0
I1
I255
I-1
t(dtRp58
satp59
sS'bowlingStats'
p60
((dp61
S'a'
F12.1
sS'b'
F96
sS'e'
F7.5625
sS'i'
F5
sS'sr'
p62
F9.5999999999999996
sS'5w'
p63
F0
sS'm'
F5
sS'maid'
p64
F0
sS'r'
F121
sS'w'
F10
sS'4w'
p65
F0
sS'bbir'
p66
F19
sS'bbiw'
p67
F3
s(lp68
(dp69
g34
I2
sS'b'
F23
sS'e'
F9.6521739130434785
sg37
I286
sS'pos'
p70
I6
sg64
F0
sS'r'
F37
sg38
S'Colombo (RPS)'
p71
sS'w'
F3
sg40
g41
((I2012
I10
I2
I0
I0
I0
I1
I276
I-1
t(dtRp72
sg35
S'South Africa'
p73
sa(dp74
g34
I1
sS'b'
F22
sS'e'
F6
sg37
I282
sg70
I3
sg64
F0
sS'r'
F22
sg38
S'Colombo (RPS)'
p75
sS'w'
F3
sg40
g41
((I2012
I9
I30
I0
I0
I0
I6
I274
I-1
t(dtRp76
sg35
S'Pakistan'
p77
sa(dp78
g34
I2
sS'b'
F6
sS'e'
F10
sg37
I272
sg70
I2
sg64
F0
sS'r'
F10
sg38
S'Colombo (RPS)'
p79
sS'w'
F0
sg40
g41
((I2012
I9
I23
I0
I0
I0
I6
I267
I-1
t(dtRp80
sg35
S'England'
p81
sa(dp82
g34
I2
sS'b'
F21
sS'e'
F5.4285714285714288
sg37
I265
sg70
I3
sg64
F0
sS'r'
F19
sg38
S'Colombo (RPS)'
p83
sS'w'
F3
sg40
g41
((I2012
I9
I19
I0
I0
I0
I2
I263
I-1
t(dtRp84
sg35
S'Afghanistan'
p85
sa(dp86
g34
I1
sS'b'
F24
sS'e'
F8.25
sg37
I261
sg70
I3
sg64
F0
sS'r'
F33
sg38
S'Chennai'
p87
sS'w'
F1
sg40
g41
((I2012
I9
I11
I0
I0
I0
I1
I255
I-1
t(dtRp88
sg35
S'New Zealand'
p89
satp90
sS'battingStats'
p91
((dp92
S'a'
F-1
sS'0s'
p93
F0
sS'b'
F0
sS'no'
p94
F0
sS'i'
F0
sS'hs'
p95
F0
sS'm'
F5
sS'4s'
p96
F0
sS'6s'
p97
F0
sg62
F0
sS'r'
F0
sS'100s'
p98
F0
sS'50s'
p99
F0
s(ltp100
ssS'all'
p101
(dp102
g27
(dp103
S'c'
F16
sg29
F0
sS'i'
F95
sS'm'
F95
sS's'
F0
sg30
F16
sg31
F16
ssg60
(dp104
S'a'
F21.912280701754387
sS'b'
F1957
sS'e'
F7.6586612161471637
sS'i'
F95
sg62
F17.166666666666668
sg63
F1
sS'm'
F95
sg64
F0
sS'r'
F2498
sS'w'
F114
sg65
F4
sg66
F24
sg67
F5
ssg91
(dp105
S'a'
F5.2999999999999998
sg93
F-1
sS'b'
F59
sg94
F8
sS'i'
F18
sg95
F15
sS'm'
F95
sg96
F4
sg97
F2
sg62
F89.830508474576277
sS'r'
F53
sg98
F0
sg99
F0
ssssb.