(iplayer
Player
p1
(dp2
S'is_batsman'
p3
I00
sS'name'
p4
S'Kieron Pollard'
p5
sS'dob'
p6
S'1987/05/12'
p7
sS'price'
p8
S'1100000'
p9
sS'is_allrounder'
p10
I01
sS'espnid'
p11
S'230559'
p12
sS'is_overseas'
p13
I01
sS'team'
p14
S'MI'
p15
sS'nationality'
p16
S'West Indian'
p17
sS'is_bowler'
p18
I00
sS'is_keeper'
p19
I00
sS'id'
p20
S'210'
p21
sS'is_uncapped'
p22
I00
sS'tournamentStats'
p23
(dp24
S'international'
p25
(dp26
S'fieldingStats'
p27
((dp28
S'c'
F19
sS'ctw'
p29
F0
sS'span_s'
p30
F2008
sS'm'
F37
sS's'
F0
sS'dismissals'
p31
F19
sS'i'
F37
sS'ctf'
p32
F19
sS'span_f'
p33
F2013
s(lp34
(dp35
S'inning'
p36
I1
sS'c'
F0
sg29
F0
sS'opp'
p37
S'Pakistan'
p38
sS't20i_num'
p39
I322
sg32
F0
sg31
F0
sS's'
F0
sS'place'
p40
S'Kingstown'
p41
sS'date'
p42
ctime
struct_time
p43
((I2013
I7
I28
I0
I0
I0
I6
I209
I-1
t(dtRp44
sa(dp45
g36
I2
sS'c'
F2
sg29
F0
sg37
S'Pakistan'
p46
sg39
I321
sg32
F2
sg31
F2
sS's'
F0
sg40
S'Kingstown'
p47
sg42
g43
((I2013
I7
I27
I0
I0
I0
I5
I208
I-1
t(dtRp48
sa(dp49
g36
I2
sS'c'
F0
sg29
F0
sg37
S'Zimbabwe'
p50
sg39
I308
sg32
F0
sg31
F0
sS's'
F0
sg40
S'North Sound'
p51
sg42
g43
((I2013
I3
I3
I0
I0
I0
I6
I62
I-1
t(dtRp52
sa(dp53
g36
I1
sS'c'
F1
sg29
F0
sg37
S'Zimbabwe'
p54
sg39
I305
sg32
F1
sg31
F1
sS's'
F0
sg40
S'North Sound'
p55
sg42
g43
((I2013
I3
I2
I0
I0
I0
I5
I61
I-1
t(dtRp56
sa(dp57
g36
I2
sS'c'
F0
sg29
F0
sg37
S'Australia'
p58
sg39
I303
sg32
F0
sg31
F0
sS's'
F0
sg40
S'Brisbane'
p59
sg42
g43
((I2013
I2
I13
I0
I0
I0
I2
I44
I-1
t(dtRp60
sa(dp61
g36
I2
sS'c'
F0
sg29
F0
sg37
S'Bangladesh'
p62
sg39
I291
sg32
F0
sg31
F0
sS's'
F0
sg40
S'Dhaka'
p63
sg42
g43
((I2012
I12
I10
I0
I0
I0
I0
I345
I-1
t(dtRp64
sa(dp65
g36
I2
sS'c'
F1
sg29
F0
sg37
S'Sri Lanka'
p66
sg39
I289
sg32
F1
sg31
F1
sS's'
F0
sg40
S'Colombo (RPS)'
p67
sg42
g43
((I2012
I10
I7
I0
I0
I0
I6
I281
I-1
t(dtRp68
sa(dp69
g36
I2
sS'c'
F0
sg29
F0
sg37
S'Australia'
p70
sg39
I288
sg32
F0
sg31
F0
sS's'
F0
sg40
S'Colombo (RPS)'
p71
sg42
g43
((I2012
I10
I5
I0
I0
I0
I4
I279
I-1
t(dtRp72
sa(dp73
g36
I2
sS'c'
F0
sg29
F0
sg37
S'New Zealand'
p74
sg39
I283
sg32
F0
sg31
F0
sS's'
F0
sg40
S'Pallekele'
p75
sg42
g43
((I2012
I10
I1
I0
I0
I0
I0
I275
I-1
t(dtRp76
sa(dp77
g36
I2
sS'c'
F0
sg29
F0
sg37
S'Sri Lanka'
p78
sg39
I280
sg32
F0
sg31
F0
sS's'
F0
sg40
S'Pallekele'
p79
sg42
g43
((I2012
I9
I29
I0
I0
I0
I5
I273
I-1
t(dtRp80
sa(dp81
g36
I2
sS'c'
F2
sg29
F0
sg37
S'England'
p82
sg39
I276
sg32
F2
sg31
F2
sS's'
F0
sg40
S'Pallekele'
p83
sg42
g43
((I2012
I9
I27
I0
I0
I0
I3
I271
I-1
t(dtRp84
sa(dp85
g36
I1
sS'c'
F0
sg29
F0
sg37
S'Ireland'
p86
sg39
I273
sg32
F0
sg31
F0
sS's'
F0
sg40
S'Colombo (RPS)'
p87
sg42
g43
((I2012
I9
I24
I0
I0
I0
I0
I268
I-1
t(dtRp88
sa(dp89
g36
I2
sS'c'
F0
sg29
F0
sg37
S'Australia'
p90
sg39
I270
sg32
F0
sg31
F0
sS's'
F0
sg40
S'Colombo (RPS)'
p91
sg42
g43
((I2012
I9
I22
I0
I0
I0
I5
I266
I-1
t(dtRp92
sa(dp93
g36
I2
sS'c'
F0
sg29
F0
sg37
S'New Zealand'
p94
sg39
I247
sg32
F0
sg31
F0
sS's'
F0
sg40
S'Lauderhill'
p95
sg42
g43
((I2012
I6
I30
I0
I0
I0
I5
I182
I-1
t(dtRp96
sa(dp97
g36
I2
sS'c'
F0
sg29
F0
sg37
S'England'
p98
sg39
I246
sg32
F0
sg31
F0
sS's'
F0
sg40
S'Nottingham'
p99
sg42
g43
((I2012
I6
I24
I0
I0
I0
I6
I176
I-1
t(dtRp100
sa(dp101
g36
I2
sS'c'
F1
sg29
F0
sg37
S'Australia'
p102
sg39
I243
sg32
F1
sg31
F1
sS's'
F0
sg40
S'Bridgetown'
p103
sg42
g43
((I2012
I3
I30
I0
I0
I0
I4
I90
I-1
t(dtRp104
sa(dp105
g36
I2
sS'c'
F1
sg29
F0
sg37
S'Australia'
p106
sg39
I241
sg32
F1
sg31
F1
sS's'
F0
sg40
S'Gros Islet'
p107
sg42
g43
((I2012
I3
I27
I0
I0
I0
I1
I87
I-1
t(dtRp108
sa(dp109
g36
I1
sS'c'
F0
sg29
F0
sg37
S'South Africa'
p110
sg39
I179
sg32
F0
sg31
F0
sS's'
F0
sg40
S'North Sound'
p111
sg42
g43
((I2010
I5
I20
I0
I0
I0
I3
I140
I-1
t(dtRp112
sa(dp113
g36
I1
sS'c'
F0
sg29
F0
sg37
S'South Africa'
p114
sg39
I178
sg32
F0
sg31
F0
sS's'
F0
sg40
S'North Sound'
p115
sg42
g43
((I2010
I5
I19
I0
I0
I0
I2
I139
I-1
t(dtRp116
sa(dp117
g36
I2
sS'c'
F0
sg29
F0
sg37
S'Australia'
p118
sg39
I174
sg32
F0
sg31
F0
sS's'
F0
sg40
S'Gros Islet'
p119
sg42
g43
((I2010
I5
I11
I0
I0
I0
I1
I131
I-1
t(dtRp120
sa(dp121
g36
I2
sS'c'
F1
sg29
F0
sg37
S'India'
p122
sg39
I169
sg32
F1
sg31
F1
sS's'
F0
sg40
S'Bridgetown'
p123
sg42
g43
((I2010
I5
I9
I0
I0
I0
I6
I129
I-1
t(dtRp124
sa(dp125
g36
I1
sS'c'
F1
sg29
F0
sg37
S'Sri Lanka'
p126
sg39
I166
sg32
F1
sg31
F1
sS's'
F0
sg40
S'Bridgetown'
p127
sg42
g43
((I2010
I5
I7
I0
I0
I0
I4
I127
I-1
t(dtRp128
sa(dp129
g36
I1
sS'c'
F1
sg29
F0
sg37
S'England'
p130
sg39
I158
sg32
F1
sg31
F1
sS's'
F0
sg40
S'Providence'
p131
sg42
g43
((I2010
I5
I3
I0
I0
I0
I0
I123
I-1
t(dtRp132
sa(dp133
g36
I2
sS'c'
F0
sg29
F0
sg37
S'Ireland'
p134
sg39
I152
sg32
F0
sg31
F0
sS's'
F0
sg40
S'Providence'
p135
sg42
g43
((I2010
I4
I30
I0
I0
I0
I4
I120
I-1
t(dtRp136
sa(dp137
g36
I1
sS'c'
F1
sg29
F0
sg37
S'Zimbabwe'
p138
sg39
I150
sg32
F1
sg31
F1
sS's'
F0
sg40
S'Port of Spain'
p139
sg42
g43
((I2010
I2
I28
I0
I0
I0
I6
I59
I-1
t(dtRp140
sa(dp141
g36
I2
sS'c'
F1
sg29
F0
sg37
S'Australia'
p142
sg39
I147
sg32
F1
sg31
F1
sS's'
F0
sg40
S'Sydney'
p143
sg42
g43
((I2010
I2
I23
I0
I0
I0
I1
I54
I-1
t(dtRp144
sa(dp145
g36
I1
sS'c'
F1
sg29
F0
sg37
S'Australia'
p146
sg39
I146
sg32
F1
sg31
F1
sS's'
F0
sg40
S'Hobart'
p147
sg42
g43
((I2010
I2
I21
I0
I0
I0
I6
I52
I-1
t(dtRp148
sa(dp149
g36
I1
sS'c'
F1
sg29
F0
sg37
S'Sri Lanka'
p150
sg39
I115
sg32
F1
sg31
F1
sS's'
F0
sg40
S'The Oval'
p151
sg42
g43
((I2009
I6
I19
I0
I0
I0
I4
I170
I-1
t(dtRp152
sa(dp153
g36
I1
sS'c'
F1
sg29
F0
sg37
S'England'
p154
sg39
I111
sg32
F1
sg31
F1
sS's'
F0
sg40
S'The Oval'
p155
sg42
g43
((I2009
I6
I15
I0
I0
I0
I0
I166
I-1
t(dtRp156
sa(dp157
g36
I1
sS'c'
F1
sg29
F0
sg37
S'South Africa'
p158
sg39
I106
sg32
F1
sg31
F1
sS's'
F0
sg40
S'The Oval'
p159
sg42
g43
((I2009
I6
I13
I0
I0
I0
I5
I164
I-1
t(dtRp160
sa(dp161
g36
I1
sS'c'
F0
sg29
F0
sg37
S'India'
p162
sg39
I105
sg32
F0
sg31
F0
sS's'
F0
sg40
S"Lord's"
p163
sg42
g43
((I2009
I6
I12
I0
I0
I0
I4
I163
I-1
t(dtRp164
sa(dp165
g36
I1
sS'c'
F0
sg29
F0
sg37
S'Sri Lanka'
p166
sg39
I100
sg32
F0
sg31
F0
sS's'
F0
sg40
S'Nottingham'
p167
sg42
g43
((I2009
I6
I10
I0
I0
I0
I2
I161
I-1
t(dtRp168
sa(dp169
g36
I1
sS'c'
F0
sg29
F0
sg37
S'Australia'
p170
sg39
I92
sg32
F0
sg31
F0
sS's'
F0
sg40
S'The Oval'
p171
sg42
g43
((I2009
I6
I6
I0
I0
I0
I5
I157
I-1
t(dtRp172
sa(dp173
g36
I1
sS'c'
F1
sg29
F0
sg37
S'England'
p174
sg39
I86
sg32
F1
sg31
F1
sS's'
F0
sg40
S'Port of Spain'
p175
sg42
g43
((I2009
I3
I15
I0
I0
I0
I6
I74
I-1
t(dtRp176
sa(dp177
g36
I1
sS'c'
F0
sg29
F0
sg37
S'New Zealand'
p178
sg39
I79
sg32
F0
sg31
F0
sS's'
F0
sg40
S'Hamilton'
p179
sg42
g43
((I2008
I12
I28
I0
I0
I0
I6
I363
I-1
t(dtRp180
sa(dp181
g36
I1
sS'c'
F1
sg29
F0
sg37
S'New Zealand'
p182
sg39
I78
sg32
F1
sg31
F1
sS's'
F0
sg40
S'Auckland'
p183
sg42
g43
((I2008
I12
I26
I0
I0
I0
I4
I361
I-1
t(dtRp184
sa(dp185
g36
I1
sS'c'
F0
sg29
F0
sg37
S'Australia'
p186
sg39
I57
sg32
F0
sg31
F0
sS's'
F0
sg40
S'Bridgetown'
p187
sg42
g43
((I2008
I6
I20
I0
I0
I0
I4
I172
I-1
t(dtRp188
satp189
sS'bowlingStats'
p190
((dp191
S'a'
F27.941176470588236
sS'b'
F342
sS'e'
F8.3333333333333339
sS'i'
F26
sS'sr'
p192
F20.117647058823529
sS'5w'
p193
F0
sS'm'
F37
sS'maid'
p194
F0
sS'r'
F475
sS'w'
F17
sS'4w'
p195
F0
sS'bbir'
p196
F30
sS'bbiw'
p197
F3
sg33
F2013
sg30
F2008
s(lp198
(dp199
g36
I1
sS'b'
F12
sS'e'
F8
sg39
I322
sS'pos'
p200
I6
sg194
F0
sS'r'
F16
sg40
S'Kingstown'
p201
sS'w'
F1
sg42
g43
((I2013
I7
I28
I0
I0
I0
I6
I209
I-1
t(dtRp202
sg37
S'Pakistan'
p203
sa(dp204
g36
I2
sS'b'
F6
sS'e'
F5
sg39
I308
sg200
I7
sg194
F0
sS'r'
F5
sg40
S'North Sound'
p205
sS'w'
F0
sg42
g43
((I2013
I3
I3
I0
I0
I0
I6
I62
I-1
t(dtRp206
sg37
S'Zimbabwe'
p207
sa(dp208
g36
I1
sS'b'
F6
sS'e'
F8
sg39
I305
sg200
I7
sg194
F0
sS'r'
F8
sg40
S'North Sound'
p209
sS'w'
F0
sg42
g43
((I2013
I3
I2
I0
I0
I0
I5
I61
I-1
t(dtRp210
sg37
S'Zimbabwe'
p211
sa(dp212
g36
I2
sS'b'
F24
sS'e'
F7.5
sg39
I303
sg200
I7
sg194
F0
sS'r'
F30
sg40
S'Brisbane'
p213
sS'w'
F3
sg42
g43
((I2013
I2
I13
I0
I0
I0
I2
I44
I-1
t(dtRp214
sg37
S'Australia'
p215
sa(dp216
g36
I2
sS'b'
F6
sS'e'
F6
sg39
I288
sg200
I7
sg194
F0
sS'r'
F6
sg40
S'Colombo (RPS)'
p217
sS'w'
F2
sg42
g43
((I2012
I10
I5
I0
I0
I0
I4
I279
I-1
t(dtRp218
sg37
S'Australia'
p219
sa(dp220
g36
I2
sS'b'
F12
sS'e'
F6.5
sg39
I283
sg200
I5
sg194
F0
sS'r'
F13
sg40
S'Pallekele'
p221
sS'w'
F0
sg42
g43
((I2012
I10
I1
I0
I0
I0
I0
I275
I-1
t(dtRp222
sg37
S'New Zealand'
p223
sa(dp224
g36
I2
sS'b'
F6
sS'e'
F15
sg39
I246
sg200
I6
sg194
F0
sS'r'
F15
sg40
S'Nottingham'
p225
sS'w'
F0
sg42
g43
((I2012
I6
I24
I0
I0
I0
I6
I176
I-1
t(dtRp226
sg37
S'England'
p227
sa(dp228
g36
I2
sS'b'
F6
sS'e'
F6
sg39
I243
sg200
I7
sg194
F0
sS'r'
F6
sg40
S'Bridgetown'
p229
sS'w'
F0
sg42
g43
((I2012
I3
I30
I0
I0
I0
I4
I90
I-1
t(dtRp230
sg37
S'Australia'
p231
sa(dp232
g36
I2
sS'b'
F6
sS'e'
F16
sg39
I241
sg200
I6
sg194
F0
sS'r'
F16
sg40
S'Gros Islet'
p233
sS'w'
F0
sg42
g43
((I2012
I3
I27
I0
I0
I0
I1
I87
I-1
t(dtRp234
sg37
S'Australia'
p235
sa(dp236
g36
I1
sS'b'
F6
sS'e'
F14
sg39
I179
sg200
I6
sg194
F0
sS'r'
F14
sg40
S'North Sound'
p237
sS'w'
F0
sg42
g43
((I2010
I5
I20
I0
I0
I0
I3
I140
I-1
t(dtRp238
sg37
S'South Africa'
p239
sa(dp240
g36
I1
sS'b'
F24
sS'e'
F5.5
sg39
I178
sg200
I8
sg194
F0
sS'r'
F22
sg40
S'North Sound'
p241
sS'w'
F2
sg42
g43
((I2010
I5
I19
I0
I0
I0
I2
I139
I-1
t(dtRp242
sg37
S'South Africa'
p243
sa(dp244
g36
I2
sS'b'
F12
sS'e'
F11.5
sg39
I169
sg200
I5
sg194
F0
sS'r'
F23
sg40
S'Bridgetown'
p245
sS'w'
F1
sg42
g43
((I2010
I5
I9
I0
I0
I0
I6
I129
I-1
t(dtRp246
sg37
S'India'
p247
sa(dp248
g36
I1
sS'b'
F24
sS'e'
F9.5
sg39
I166
sg200
I6
sg194
F0
sS'r'
F38
sg40
S'Bridgetown'
p249
sS'w'
F0
sg42
g43
((I2010
I5
I7
I0
I0
I0
I4
I127
I-1
t(dtRp250
sg37
S'Sri Lanka'
p251
sa(dp252
g36
I1
sS'b'
F6
sS'e'
F16
sg39
I158
sg200
I7
sg194
F0
sS'r'
F16
sg40
S'Providence'
p253
sS'w'
F0
sg42
g43
((I2010
I5
I3
I0
I0
I0
I0
I123
I-1
t(dtRp254
sg37
S'England'
p255
sa(dp256
g36
I1
sS'b'
F24
sS'e'
F6
sg39
I150
sg200
I4
sg194
F0
sS'r'
F24
sg40
S'Port of Spain'
p257
sS'w'
F0
sg42
g43
((I2010
I2
I28
I0
I0
I0
I6
I59
I-1
t(dtRp258
sg37
S'Zimbabwe'
p259
sa(dp260
g36
I2
sS'b'
F12
sS'e'
F6
sg39
I147
sg200
I6
sg194
F0
sS'r'
F12
sg40
S'Sydney'
p261
sS'w'
F0
sg42
g43
((I2010
I2
I23
I0
I0
I0
I1
I54
I-1
t(dtRp262
sg37
S'Australia'
p263
sa(dp264
g36
I1
sS'b'
F24
sS'e'
F5.75
sg39
I146
sg200
I7
sg194
F0
sS'r'
F23
sg40
S'Hobart'
p265
sS'w'
F1
sg42
g43
((I2010
I2
I21
I0
I0
I0
I6
I52
I-1
t(dtRp266
sg37
S'Australia'
p267
sa(dp268
g36
I1
sS'b'
F12
sS'e'
F7
sg39
I115
sg200
I6
sg194
F0
sS'r'
F14
sg40
S'The Oval'
p269
sS'w'
F1
sg42
g43
((I2009
I6
I19
I0
I0
I0
I4
I170
I-1
t(dtRp270
sg37
S'Sri Lanka'
p271
sa(dp272
g36
I1
sS'b'
F6
sS'e'
F10
sg39
I111
sg200
I2
sg194
F0
sS'r'
F10
sg40
S'The Oval'
p273
sS'w'
F1
sg42
g43
((I2009
I6
I15
I0
I0
I0
I0
I166
I-1
t(dtRp274
sg37
S'England'
p275
sa(dp276
g36
I1
sS'b'
F18
sS'e'
F9.6666666666666661
sg39
I106
sg200
I5
sg194
F0
sS'r'
F29
sg40
S'The Oval'
p277
sS'w'
F1
sg42
g43
((I2009
I6
I13
I0
I0
I0
I5
I164
I-1
t(dtRp278
sg37
S'South Africa'
p279
sa(dp280
g36
I1
sS'b'
F12
sS'e'
F3.5
sg39
I105
sg200
I5
sg194
F0
sS'r'
F7
sg40
S"Lord's"
p281
sS'w'
F0
sg42
g43
((I2009
I6
I12
I0
I0
I0
I4
I163
I-1
t(dtRp282
sg37
S'India'
p283
sa(dp284
g36
I1
sS'b'
F18
sS'e'
F15
sg39
I100
sg200
I5
sg194
F0
sS'r'
F45
sg40
S'Nottingham'
p285
sS'w'
F0
sg42
g43
((I2009
I6
I10
I0
I0
I0
I2
I161
I-1
t(dtRp286
sg37
S'Sri Lanka'
p287
sa(dp288
g36
I1
sS'b'
F12
sS'e'
F8.5
sg39
I92
sg200
I6
sg194
F0
sS'r'
F17
sg40
S'The Oval'
p289
sS'w'
F1
sg42
g43
((I2009
I6
I6
I0
I0
I0
I5
I157
I-1
t(dtRp290
sg37
S'Australia'
p291
sa(dp292
g36
I1
sS'b'
F12
sS'e'
F6
sg39
I86
sg200
I6
sg194
F0
sS'r'
F12
sg40
S'Port of Spain'
p293
sS'w'
F0
sg42
g43
((I2009
I3
I15
I0
I0
I0
I6
I74
I-1
t(dtRp294
sg37
S'England'
p295
sa(dp296
g36
I1
sS'b'
F24
sS'e'
F7.25
sg39
I79
sg200
I6
sg194
F0
sS'r'
F29
sg40
S'Hamilton'
p297
sS'w'
F2
sg42
g43
((I2008
I12
I28
I0
I0
I0
I6
I363
I-1
t(dtRp298
sg37
S'New Zealand'
p299
sa(dp300
g36
I1
sS'b'
F12
sS'e'
F12.5
sg39
I78
sg200
I5
sg194
F0
sS'r'
F25
sg40
S'Auckland'
p301
sS'w'
F1
sg42
g43
((I2008
I12
I26
I0
I0
I0
I4
I361
I-1
t(dtRp302
sg37
S'New Zealand'
p303
satp304
sS'battingStats'
p305
((dp306
S'a'
F22.760000000000002
sS'0s'
p307
F1
sS'b'
F380
sS'no'
p308
F7
sg30
F2008
sS'hs'
p309
F63
sS'm'
F37
sS'4s'
p310
F44
sg33
F2013
sS'i'
F32
sS'6s'
p311
F33
sg192
F149.73684210526315
sS'r'
F569
sS'100s'
p312
F0
sS'50s'
p313
F2
s(lp314
(dp315
g36
I2
sS'b'
F10
sg37
S'Pakistan'
p316
sg192
F230
sg39
I322
sS'dismiss'
p317
S'caught'
p318
sg310
F2
sg200
I7
sg311
F2
sg40
S'Kingstown'
p319
sg42
g43
((I2013
I7
I28
I0
I0
I0
I6
I209
I-1
t(dtRp320
sS'r'
F23
sS'minutes'
p321
F17
sa(dp322
g36
I1
sS'b'
F36
sg37
S'Pakistan'
p323
sg308
I01
sg192
F136.11111111111111
sg39
I321
sg317
S'not out'
p324
sg310
F4
sg200
I6
sg311
F2
sg40
S'Kingstown'
p325
sg42
g43
((I2013
I7
I27
I0
I0
I0
I5
I208
I-1
t(dtRp326
sS'r'
F49
sg321
F53
sa(dp327
g36
I1
sS'b'
F24
sg37
S'Zimbabwe'
p328
sg308
I01
sg192
F187.5
sg39
I308
sg317
S'not out'
p329
sg310
F3
sg200
I5
sg311
F3
sg40
S'North Sound'
p330
sg42
g43
((I2013
I3
I3
I0
I0
I0
I6
I62
I-1
t(dtRp331
sS'r'
F45
sg321
F39
sa(dp332
g36
I1
sS'b'
F17
sg37
S'Australia'
p333
sg192
F152.94117647058823
sg39
I303
sg317
S'caught'
p334
sg310
F2
sg200
I4
sg311
F1
sg40
S'Brisbane'
p335
sg42
g43
((I2013
I2
I13
I0
I0
I0
I2
I44
I-1
t(dtRp336
sS'r'
F26
sg321
F25
sa(dp337
g36
I1
sS'b'
F9
sg37
S'Bangladesh'
p338
sg192
F166.66666666666666
sg39
I291
sg317
S'bowled'
p339
sg310
F0
sg200
I5
sg311
F2
sg40
S'Dhaka'
p340
sg42
g43
((I2012
I12
I10
I0
I0
I0
I0
I345
I-1
t(dtRp341
sS'r'
F15
sg321
F16
sa(dp342
g36
I1
sS'b'
F4
sg37
S'Sri Lanka'
p343
sg192
F50
sg39
I289
sg317
S'caught'
p344
sg310
F0
sg200
I5
sg311
F0
sg40
S'Colombo (RPS)'
p345
sg42
g43
((I2012
I10
I7
I0
I0
I0
I6
I281
I-1
t(dtRp346
sS'r'
F2
sg321
F6
sa(dp347
g36
I1
sS'b'
F15
sg37
S'Australia'
p348
sg192
F253.33333333333334
sg39
I288
sg317
S'caught'
p349
sg310
F3
sg200
I5
sg311
F3
sg40
S'Colombo (RPS)'
p350
sg42
g43
((I2012
I10
I5
I0
I0
I0
I4
I279
I-1
t(dtRp351
sS'r'
F38
sg321
F22
sa(dp352
g36
I1
sS'b'
F22
sg37
S'New Zealand'
p353
sg192
F127.27272727272727
sg39
I283
sg317
S'caught'
p354
sg310
F3
sg200
I6
sg311
F0
sg40
S'Pallekele'
p355
sg42
g43
((I2012
I10
I1
I0
I0
I0
I0
I275
I-1
t(dtRp356
sS'r'
F28
sg321
F29
sa(dp357
g36
I1
sS'b'
F6
sg37
S'Sri Lanka'
p358
sg192
F16.666666666666668
sg39
I280
sg317
S'bowled'
p359
sg310
F0
sg200
I5
sg311
F0
sg40
S'Pallekele'
p360
sg42
g43
((I2012
I9
I29
I0
I0
I0
I5
I273
I-1
t(dtRp361
sS'r'
F1
sg321
F8
sa(dp362
g36
I1
sS'b'
F5
sg37
S'England'
p363
sg192
F20
sg39
I276
sg317
S'caught'
p364
sg310
F0
sg200
I4
sg311
F0
sg40
S'Pallekele'
p365
sg42
g43
((I2012
I9
I27
I0
I0
I0
I3
I271
I-1
t(dtRp366
sS'r'
F1
sg321
F9
sa(dp367
g36
I1
sS'b'
F8
sg37
S'Australia'
p368
sg192
F125
sg39
I270
sg317
S'caught'
p369
sg310
F2
sg200
I6
sg311
F0
sg40
S'Colombo (RPS)'
p370
sg42
g43
((I2012
I9
I22
I0
I0
I0
I5
I266
I-1
t(dtRp371
sS'r'
F10
sg321
F10
sa(dp372
g36
I1
sS'b'
F29
sg37
S'New Zealand'
p373
sg308
I01
sg192
F217.24137931034483
sg39
I247
sg317
S'not out'
p374
sg310
F5
sg200
I4
sg311
F5
sg40
S'Lauderhill'
p375
sg42
g43
((I2012
I6
I30
I0
I0
I0
I5
I182
I-1
t(dtRp376
sS'r'
F63
sg321
F34
sa(dp377
g36
I1
sS'b'
F13
sg37
S'England'
p378
sg308
I01
sg192
F176.92307692307693
sg39
I246
sg317
S'not out'
p379
sg310
F1
sg200
I6
sg311
F2
sg40
S'Nottingham'
p380
sg42
g43
((I2012
I6
I24
I0
I0
I0
I6
I176
I-1
t(dtRp381
sS'r'
F23
sg321
F25
sa(dp382
g36
I1
sS'b'
F3
sg37
S'Australia'
p383
sg192
F33.333333333333336
sg39
I243
sg317
S'caught'
p384
sg310
F0
sg200
I3
sg311
F0
sg40
S'Bridgetown'
p385
sg42
g43
((I2012
I3
I30
I0
I0
I0
I4
I90
I-1
t(dtRp386
sS'r'
F1
sg321
F7
sa(dp387
g36
I1
sS'b'
F26
sg37
S'Australia'
p388
sg308
I01
sg192
F207.69230769230768
sg39
I241
sg317
S'not out'
p389
sg310
F2
sg200
I5
sg311
F5
sg40
S'Gros Islet'
p390
sg42
g43
((I2012
I3
I27
I0
I0
I0
I1
I87
I-1
t(dtRp391
sS'r'
F54
sg321
F-1
sa(dp392
g36
I2
sS'b'
F13
sg37
S'South Africa'
p393
sg192
F92.307692307692307
sg39
I179
sg317
S'caught'
p394
sg310
F1
sg200
I5
sg311
F0
sg40
S'North Sound'
p395
sg42
g43
((I2010
I5
I20
I0
I0
I0
I3
I140
I-1
t(dtRp396
sS'r'
F12
sg321
F17
sa(dp397
g36
I2
sS'b'
F17
sg37
S'South Africa'
p398
sg192
F158.8235294117647
sg39
I178
sg317
S'bowled'
p399
sg310
F2
sg200
I6
sg311
F1
sg40
S'North Sound'
p400
sg42
g43
((I2010
I5
I19
I0
I0
I0
I2
I139
I-1
t(dtRp401
sS'r'
F27
sg321
F20
sa(dp402
g36
I1
sS'b'
F14
sg37
S'Australia'
p403
sg192
F92.857142857142861
sg39
I174
sg317
S'stumped'
p404
sg310
F1
sg200
I7
sg311
F1
sg40
S'Gros Islet'
p405
sg42
g43
((I2010
I5
I11
I0
I0
I0
I1
I131
I-1
t(dtRp406
sS'r'
F13
sg321
F7
sa(dp407
g36
I1
sS'b'
F11
sg37
S'India'
p408
sg192
F154.54545454545453
sg39
I169
sg317
S'caught'
p409
sg310
F0
sg200
I4
sg311
F2
sg40
S'Bridgetown'
p410
sg42
g43
((I2010
I5
I9
I0
I0
I0
I6
I129
I-1
t(dtRp411
sS'r'
F17
sg321
F14
sa(dp412
g36
I2
sS'b'
F10
sg37
S'Sri Lanka'
p413
sg192
F90
sg39
I166
sg317
S'caught'
p414
sg310
F1
sg200
I6
sg311
F0
sg40
S'Bridgetown'
p415
sg42
g43
((I2010
I5
I7
I0
I0
I0
I4
I127
I-1
t(dtRp416
sS'r'
F9
sg321
F12
sa(dp417
g36
I2
sS'b'
F0
sg37
S'England'
p418
sg192
F0
sg39
I158
sg317
S'stumped'
p419
sg310
F0
sg200
I3
sg311
F0
sg40
S'Providence'
p420
sg42
g43
((I2010
I5
I3
I0
I0
I0
I0
I123
I-1
t(dtRp421
sS'r'
F0
sg321
F-1
sa(dp422
g36
I1
sS'b'
F6
sg37
S'Ireland'
p423
sg192
F133.33333333333334
sg39
I152
sg317
S'caught'
p424
sg310
F1
sg200
I8
sg311
F0
sg40
S'Providence'
p425
sg42
g43
((I2010
I4
I30
I0
I0
I0
I4
I120
I-1
t(dtRp426
sS'r'
F8
sg321
F11
sa(dp427
g36
I2
sS'b'
F4
sg37
S'Zimbabwe'
p428
sg192
F25
sg39
I150
sg317
S'bowled'
p429
sg310
F0
sg200
I4
sg311
F0
sg40
S'Port of Spain'
p430
sg42
g43
((I2010
I2
I28
I0
I0
I0
I6
I59
I-1
t(dtRp431
sS'r'
F1
sg321
F8
sa(dp432
g36
I1
sS'b'
F9
sg37
S'Australia'
p433
sg192
F55.555555555555557
sg39
I147
sg317
S'bowled'
p434
sg310
F0
sg200
I4
sg311
F0
sg40
S'Sydney'
p435
sg42
g43
((I2010
I2
I23
I0
I0
I0
I1
I54
I-1
t(dtRp436
sS'r'
F5
sg321
F16
sa(dp437
g36
I2
sS'b'
F9
sg37
S'Australia'
p438
sg192
F133.33333333333334
sg39
I146
sg317
S'caught'
p439
sg310
F2
sg200
I4
sg311
F0
sg40
S'Hobart'
p440
sg42
g43
((I2010
I2
I21
I0
I0
I0
I6
I52
I-1
t(dtRp441
sS'r'
F12
sg321
F11
sa(dp442
g36
I2
sS'b'
F10
sg37
S'Sri Lanka'
p443
sg192
F30
sg39
I115
sg317
S'stumped'
p444
sg310
F0
sg200
I7
sg311
F0
sg40
S'The Oval'
p445
sg42
g43
((I2009
I6
I19
I0
I0
I0
I4
I170
I-1
t(dtRp446
sS'r'
F3
sg321
F9
sa(dp447
g36
I2
sS'b'
F6
sg37
S'England'
p448
sg192
F150
sg39
I111
sg317
S'bowled'
p449
sg310
F0
sg200
I5
sg311
F1
sg40
S'The Oval'
p450
sg42
g43
((I2009
I6
I15
I0
I0
I0
I0
I166
I-1
t(dtRp451
sS'r'
F9
sg321
F10
sa(dp452
g36
I2
sS'b'
F4
sg37
S'South Africa'
p453
sg192
F150
sg39
I106
sg317
S'caught'
p454
sg310
F1
sg200
I7
sg311
F0
sg40
S'The Oval'
p455
sg42
g43
((I2009
I6
I13
I0
I0
I0
I5
I164
I-1
t(dtRp456
sS'r'
F6
sg321
F4
sa(dp457
g36
I2
sS'b'
F11
sg37
S'Sri Lanka'
p458
sg308
I01
sg192
F172.72727272727272
sg39
I100
sg317
S'not out'
p459
sg310
F3
sg200
I7
sg311
F0
sg40
S'Nottingham'
p460
sg42
g43
((I2009
I6
I10
I0
I0
I0
I2
I161
I-1
t(dtRp461
sS'r'
F19
sg321
F16
sa(dp462
g36
I2
sS'b'
F1
sg37
S'England'
p463
sg308
I01
sg192
F400
sg39
I86
sg317
S'not out'
p464
sg310
F1
sg200
I6
sg311
F0
sg40
S'Port of Spain'
p465
sg42
g43
((I2009
I3
I15
I0
I0
I0
I6
I74
I-1
t(dtRp466
sS'r'
F4
sg321
F2
sa(dp467
g36
I2
sS'b'
F24
sg37
S'New Zealand'
p468
sg192
F158.33333333333334
sg39
I79
sg317
S'caught'
p469
sg310
F4
sg200
I6
sg311
F2
sg40
S'Hamilton'
p470
sg42
g43
((I2008
I12
I28
I0
I0
I0
I6
I363
I-1
t(dtRp471
sS'r'
F38
sg321
F33
sa(dp472
g36
I2
sS'b'
F4
sg37
S'New Zealand'
p473
sg192
F175
sg39
I78
sg317
S'caught'
p474
sg310
F0
sg200
I6
sg311
F1
sg40
S'Auckland'
p475
sg42
g43
((I2008
I12
I26
I0
I0
I0
I4
I361
I-1
t(dtRp476
sS'r'
F7
sg321
F5
satp477
ssS'all'
p478
(dp479
g27
(dp480
S'c'
F123
sg29
F0
sS'i'
F217
sS'm'
F217
sS's'
F0
sg31
F123
sg32
F123
ssg190
(dp481
S'a'
F22.341463414634145
sS'b'
F2785
sS'e'
F7.8937163375224415
sS'i'
F169
sg192
F16.98170731707317
sg193
F0
sS'm'
F217
sg194
F0
sS'r'
F3664
sS'w'
F164
sg195
F3
sg196
F15
sg197
F4
ssg305
(dp482
S'a'
F30.188405797101449
sg307
F-1
sS'b'
F2654
sg308
F54
sS'i'
F192
sg309
F89
sS'm'
F217
sg310
F271
sg311
F288
sg192
F156.97061039939715
sS'r'
F4166
sg312
F0
sg313
F21
ssssb.