(iplayer
Player
p1
(dp2
S'is_batsman'
p3
I01
sS'name'
p4
S'Rohit Sharma'
p5
sS'dob'
p6
S'1987/04/30'
p7
sS'price'
p8
S'1050000'
p9
sS'is_allrounder'
p10
I00
sS'espnid'
p11
S'34102'
p12
sS'is_overseas'
p13
I00
sS'team'
p14
S'MI'
p15
sS'nationality'
p16
S'Indian'
p17
sS'is_bowler'
p18
I00
sS'is_keeper'
p19
I00
sS'id'
p20
S'107'
p21
sS'is_uncapped'
p22
I00
sS'tournamentStats'
p23
(dp24
S'international'
p25
(dp26
S'fieldingStats'
p27
((dp28
S'c'
F19
sS'ctw'
p29
F0
sS'span_s'
p30
F2007
sS'm'
F42
sS's'
F0
sS'dismissals'
p31
F19
sS'i'
F42
sS'ctf'
p32
F19
sS'span_f'
p33
F2014
s(lp34
(dp35
S'inning'
p36
I2
sS'c'
F0
sg29
F0
sS'opp'
p37
S'Sri Lanka'
p38
sS't20i_num'
p39
I400
sg32
F0
sg31
F0
sS's'
F0
sS'place'
p40
S'Dhaka'
p41
sS'date'
p42
ctime
struct_time
p43
((I2014
I4
I6
I0
I0
I0
I6
I96
I-1
t(dtRp44
sa(dp45
g36
I1
sS'c'
F1
sg29
F0
sg37
S'South Africa'
p46
sg39
I399
sg32
F1
sg31
F1
sS's'
F0
sg40
S'Dhaka'
p47
sg42
g43
((I2014
I4
I4
I0
I0
I0
I4
I94
I-1
t(dtRp48
sa(dp49
g36
I2
sS'c'
F1
sg29
F0
sg37
S'Australia'
p50
sg39
I393
sg32
F1
sg31
F1
sS's'
F0
sg40
S'Dhaka'
p51
sg42
g43
((I2014
I3
I30
I0
I0
I0
I6
I89
I-1
t(dtRp52
sa(dp53
g36
I1
sS'c'
F1
sg29
F0
sg37
S'Bangladesh'
p54
sg39
I389
sg32
F1
sg31
F1
sS's'
F0
sg40
S'Dhaka'
p55
sg42
g43
((I2014
I3
I28
I0
I0
I0
I4
I87
I-1
t(dtRp56
sa(dp57
g36
I1
sS'c'
F1
sg29
F0
sg37
S'West Indies'
p58
sg39
I382
sg32
F1
sg31
F1
sS's'
F0
sg40
S'Dhaka'
p59
sg42
g43
((I2014
I3
I23
I0
I0
I0
I6
I82
I-1
t(dtRp60
sa(dp61
g36
I1
sS'c'
F0
sg29
F0
sg37
S'Pakistan'
p62
sg39
I378
sg32
F0
sg31
F0
sS's'
F0
sg40
S'Dhaka'
p63
sg42
g43
((I2014
I3
I21
I0
I0
I0
I4
I80
I-1
t(dtRp64
sa(dp65
g36
I1
sS'c'
F0
sg29
F0
sg37
S'Australia'
p66
sg39
I331
sg32
F0
sg31
F0
sS's'
F0
sg40
S'Rajkot'
p67
sg42
g43
((I2013
I10
I10
I0
I0
I0
I3
I283
I-1
t(dtRp68
sa(dp69
g36
I2
sS'c'
F1
sg29
F0
sg37
S'Pakistan'
p70
sg39
I298
sg32
F1
sg31
F1
sS's'
F0
sg40
S'Ahmedabad'
p71
sg42
g43
((I2012
I12
I28
I0
I0
I0
I4
I363
I-1
t(dtRp72
sa(dp73
g36
I2
sS'c'
F0
sg29
F0
sg37
S'Pakistan'
p74
sg39
I296
sg32
F0
sg31
F0
sS's'
F0
sg40
S'Bangalore'
p75
sg42
g43
((I2012
I12
I25
I0
I0
I0
I1
I360
I-1
t(dtRp76
sa(dp77
g36
I2
sS'c'
F0
sg29
F0
sg37
S'England'
p78
sg39
I294
sg32
F0
sg31
F0
sS's'
F0
sg40
S'Mumbai'
p79
sg42
g43
((I2012
I12
I22
I0
I0
I0
I5
I357
I-1
t(dtRp80
sa(dp81
g36
I2
sS'c'
F1
sg29
F0
sg37
S'South Africa'
p82
sg39
I286
sg32
F1
sg31
F1
sS's'
F0
sg40
S'Colombo (RPS)'
p83
sg42
g43
((I2012
I10
I2
I0
I0
I0
I1
I276
I-1
t(dtRp84
sa(dp85
g36
I1
sS'c'
F1
sg29
F0
sg37
S'Pakistan'
p86
sg39
I282
sg32
F1
sg31
F1
sS's'
F0
sg40
S'Colombo (RPS)'
p87
sg42
g43
((I2012
I9
I30
I0
I0
I0
I6
I274
I-1
t(dtRp88
sa(dp89
g36
I2
sS'c'
F0
sg29
F0
sg37
S'Australia'
p90
sg39
I278
sg32
F0
sg31
F0
sS's'
F0
sg40
S'Colombo (RPS)'
p91
sg42
g43
((I2012
I9
I28
I0
I0
I0
I4
I272
I-1
t(dtRp92
sa(dp93
g36
I2
sS'c'
F0
sg29
F0
sg37
S'England'
p94
sg39
I272
sg32
F0
sg31
F0
sS's'
F0
sg40
S'Colombo (RPS)'
p95
sg42
g43
((I2012
I9
I23
I0
I0
I0
I6
I267
I-1
t(dtRp96
sa(dp97
g36
I2
sS'c'
F1
sg29
F0
sg37
S'Afghanistan'
p98
sg39
I265
sg32
F1
sg31
F1
sS's'
F0
sg40
S'Colombo (RPS)'
p99
sg42
g43
((I2012
I9
I19
I0
I0
I0
I2
I263
I-1
t(dtRp100
sa(dp101
g36
I1
sS'c'
F0
sg29
F0
sg37
S'New Zealand'
p102
sg39
I261
sg32
F0
sg31
F0
sS's'
F0
sg40
S'Chennai'
p103
sg42
g43
((I2012
I9
I11
I0
I0
I0
I1
I255
I-1
t(dtRp104
sa(dp105
g36
I2
sS'c'
F0
sg29
F0
sg37
S'Sri Lanka'
p106
sg39
I255
sg32
F0
sg31
F0
sS's'
F0
sg40
S'Pallekele'
p107
sg42
g43
((I2012
I8
I7
I0
I0
I0
I1
I220
I-1
t(dtRp108
sa(dp109
g36
I1
sS'c'
F3
sg29
F0
sg37
S'South Africa'
p110
sg39
I242
sg32
F3
sg31
F3
sS's'
F0
sg40
S'Johannesburg'
p111
sg42
g43
((I2012
I3
I30
I0
I0
I0
I4
I90
I-1
t(dtRp112
sa(dp113
g36
I1
sS'c'
F0
sg29
F0
sg37
S'Australia'
p114
sg39
I218
sg32
F0
sg31
F0
sS's'
F0
sg40
S'Melbourne'
p115
sg42
g43
((I2012
I2
I3
I0
I0
I0
I4
I34
I-1
t(dtRp116
sa(dp117
g36
I1
sS'c'
F0
sg29
F0
sg37
S'Australia'
p118
sg39
I217
sg32
F0
sg31
F0
sS's'
F0
sg40
S'Sydney'
p119
sg42
g43
((I2012
I2
I1
I0
I0
I0
I2
I32
I-1
t(dtRp120
sa(dp121
g36
I2
sS'c'
F1
sg29
F0
sg37
S'England'
p122
sg39
I204
sg32
F1
sg31
F1
sS's'
F0
sg40
S'Manchester'
p123
sg42
g43
((I2011
I8
I31
I0
I0
I0
I2
I243
I-1
t(dtRp124
sa(dp125
g36
I2
sS'c'
F0
sg29
F0
sg37
S'West Indies'
p126
sg39
I200
sg32
F0
sg31
F0
sS's'
F0
sg40
S'Port of Spain'
p127
sg42
g43
((I2011
I6
I4
I0
I0
I0
I5
I155
I-1
t(dtRp128
sa(dp129
g36
I2
sS'c'
F1
sg29
F0
sg37
S'South Africa'
p130
sg39
I196
sg32
F1
sg31
F1
sS's'
F0
sg40
S'Durban'
p131
sg42
g43
((I2011
I1
I9
I0
I0
I0
I6
I9
I-1
t(dtRp132
sa(dp133
g36
I1
sS'c'
F1
sg29
F0
sg37
S'Zimbabwe'
p134
sg39
I183
sg32
F1
sg31
F1
sS's'
F0
sg40
S'Harare'
p135
sg42
g43
((I2010
I6
I13
I0
I0
I0
I6
I164
I-1
t(dtRp136
sa(dp137
g36
I1
sS'c'
F1
sg29
F0
sg37
S'Zimbabwe'
p138
sg39
I182
sg32
F1
sg31
F1
sS's'
F0
sg40
S'Harare'
p139
sg42
g43
((I2010
I6
I12
I0
I0
I0
I5
I163
I-1
t(dtRp140
sa(dp141
g36
I2
sS'c'
F0
sg29
F0
sg37
S'Sri Lanka'
p142
sg39
I173
sg32
F0
sg31
F0
sS's'
F0
sg40
S'Gros Islet'
p143
sg42
g43
((I2010
I5
I11
I0
I0
I0
I1
I131
I-1
t(dtRp144
sa(dp145
g36
I1
sS'c'
F2
sg29
F0
sg37
S'West Indies'
p146
sg39
I169
sg32
F2
sg31
F2
sS's'
F0
sg40
S'Bridgetown'
p147
sg42
g43
((I2010
I5
I9
I0
I0
I0
I6
I129
I-1
t(dtRp148
sa(dp149
g36
I1
sS'c'
F0
sg29
F0
sg37
S'Australia'
p150
sg39
I165
sg32
F0
sg31
F0
sS's'
F0
sg40
S'Bridgetown'
p151
sg42
g43
((I2010
I5
I7
I0
I0
I0
I4
I127
I-1
t(dtRp152
sa(dp153
g36
I1
sS'c'
F0
sg29
F0
sg37
S'Sri Lanka'
p154
sg39
I126
sg32
F0
sg31
F0
sS's'
F0
sg40
S'Nagpur'
p155
sg42
g43
((I2009
I12
I9
I0
I0
I0
I2
I343
I-1
t(dtRp156
sa(dp157
g36
I1
sS'c'
F0
sg29
F0
sg37
S'South Africa'
p158
sg39
I113
sg32
F0
sg31
F0
sS's'
F0
sg40
S'Nottingham'
p159
sg42
g43
((I2009
I6
I16
I0
I0
I0
I1
I167
I-1
t(dtRp160
sa(dp161
g36
I1
sS'c'
F0
sg29
F0
sg37
S'England'
p162
sg39
I109
sg32
F0
sg31
F0
sS's'
F0
sg40
S"Lord's"
p163
sg42
g43
((I2009
I6
I14
I0
I0
I0
I6
I165
I-1
t(dtRp164
sa(dp165
g36
I2
sS'c'
F0
sg29
F0
sg37
S'West Indies'
p166
sg39
I105
sg32
F0
sg31
F0
sS's'
F0
sg40
S"Lord's"
p167
sg42
g43
((I2009
I6
I12
I0
I0
I0
I4
I163
I-1
t(dtRp168
sa(dp169
g36
I1
sS'c'
F0
sg29
F0
sg37
S'Ireland'
p170
sg39
I101
sg32
F0
sg31
F0
sS's'
F0
sg40
S'Nottingham'
p171
sg42
g43
((I2009
I6
I10
I0
I0
I0
I2
I161
I-1
t(dtRp172
sa(dp173
g36
I2
sS'c'
F0
sg29
F0
sg37
S'Bangladesh'
p174
sg39
I93
sg32
F0
sg31
F0
sS's'
F0
sg40
S'Nottingham'
p175
sg42
g43
((I2009
I6
I6
I0
I0
I0
I5
I157
I-1
t(dtRp176
sa(dp177
g36
I2
sS'c'
F0
sg29
F0
sg37
S'New Zealand'
p178
sg39
I84
sg32
F0
sg31
F0
sS's'
F0
sg40
S'Christchurch'
p179
sg42
g43
((I2009
I2
I25
I0
I0
I0
I2
I56
I-1
t(dtRp180
sa(dp181
g36
I1
sS'c'
F0
sg29
F0
sg37
S'Sri Lanka'
p182
sg39
I82
sg32
F0
sg31
F0
sS's'
F0
sg40
S'Colombo (RPS)'
p183
sg42
g43
((I2009
I2
I10
I0
I0
I0
I1
I41
I-1
t(dtRp184
sa(dp185
g36
I2
sS'c'
F0
sg29
F0
sg37
S'Australia'
p186
sg39
I52
sg32
F0
sg31
F0
sS's'
F0
sg40
S'Melbourne'
p187
sg42
g43
((I2008
I2
I1
I0
I0
I0
I4
I32
I-1
t(dtRp188
sa(dp189
g36
I1
sS'c'
F0
sg29
F0
sg37
S'Australia'
p190
sg39
I47
sg32
F0
sg31
F0
sS's'
F0
sg40
S'Mumbai (BS)'
p191
sg42
g43
((I2007
I10
I20
I0
I0
I0
I5
I293
I-1
t(dtRp192
sa(dp193
g36
I2
sS'c'
F1
sg29
F0
sg37
S'Pakistan'
p194
sg39
I46
sg32
F1
sg31
F1
sS's'
F0
sg40
S'Johannesburg'
p195
sg42
g43
((I2007
I9
I24
I0
I0
I0
I0
I267
I-1
t(dtRp196
sa(dp197
g36
I2
sS'c'
F0
sg29
F0
sg37
S'Australia'
p198
sg39
I45
sg32
F0
sg31
F0
sS's'
F0
sg40
S'Durban'
p199
sg42
g43
((I2007
I9
I22
I0
I0
I0
I5
I265
I-1
t(dtRp200
sa(dp201
g36
I2
sS'c'
F0
sg29
F0
sg37
S'South Africa'
p202
sg39
I43
sg32
F0
sg31
F0
sS's'
F0
sg40
S'Durban'
p203
sg42
g43
((I2007
I9
I20
I0
I0
I0
I3
I263
I-1
t(dtRp204
sa(dp205
g36
I2
sS'c'
F1
sg29
F0
sg37
S'England'
p206
sg39
I40
sg32
F1
sg31
F1
sS's'
F0
sg40
S'Durban'
p207
sg42
g43
((I2007
I9
I19
I0
I0
I0
I2
I262
I-1
t(dtRp208
satp209
sS'bowlingStats'
p210
((dp211
S'a'
F113
sS'b'
F68
sS'e'
F9.9705882352941178
sS'i'
F9
sS'sr'
p212
F68
sS'5w'
p213
F0
sS'm'
F42
sS'maid'
p214
F0
sS'r'
F113
sS'w'
F1
sS'4w'
p215
F0
sS'bbir'
p216
F22
sS'bbiw'
p217
F1
sg33
F2014
sg30
F2007
s(lp218
(dp219
g36
I2
sS'b'
F6
sS'e'
F13
sg39
I286
sS'pos'
p220
I4
sg214
F0
sS'r'
F13
sg40
S'Colombo (RPS)'
p221
sS'w'
F0
sg42
g43
((I2012
I10
I2
I0
I0
I0
I1
I276
I-1
t(dtRp222
sg37
S'South Africa'
p223
sa(dp224
g36
I2
sS'b'
F6
sS'e'
F12
sg39
I278
sg220
I8
sg214
F0
sS'r'
F12
sg40
S'Colombo (RPS)'
p225
sS'w'
F0
sg42
g43
((I2012
I9
I28
I0
I0
I0
I4
I272
I-1
t(dtRp226
sg37
S'Australia'
p227
sa(dp228
g36
I2
sS'b'
F6
sS'e'
F10
sg39
I265
sg220
I4
sg214
F0
sS'r'
F10
sg40
S'Colombo (RPS)'
p229
sS'w'
F0
sg42
g43
((I2012
I9
I19
I0
I0
I0
I2
I263
I-1
t(dtRp230
sg37
S'Afghanistan'
p231
sa(dp232
g36
I2
sS'b'
F6
sS'e'
F9
sg39
I255
sg220
I5
sg214
F0
sS'r'
F9
sg40
S'Pallekele'
p233
sS'w'
F0
sg42
g43
((I2012
I8
I7
I0
I0
I0
I1
I220
I-1
t(dtRp234
sg37
S'Sri Lanka'
p235
sa(dp236
g36
I1
sS'b'
F6
sS'e'
F14
sg39
I242
sg220
I7
sg214
F0
sS'r'
F14
sg40
S'Johannesburg'
p237
sS'w'
F0
sg42
g43
((I2012
I3
I30
I0
I0
I0
I4
I90
I-1
t(dtRp238
sg37
S'South Africa'
p239
sa(dp240
g36
I1
sS'b'
F2
sS'e'
F6
sg39
I217
sg220
I6
sg214
F0
sS'r'
F2
sg40
S'Sydney'
p241
sS'w'
F0
sg42
g43
((I2012
I2
I1
I0
I0
I0
I2
I32
I-1
t(dtRp242
sg37
S'Australia'
p243
sa(dp244
g36
I2
sS'b'
F6
sS'e'
F16
sg39
I204
sg220
I6
sg214
F0
sS'r'
F16
sg40
S'Manchester'
p245
sS'w'
F0
sg42
g43
((I2011
I8
I31
I0
I0
I0
I2
I243
I-1
t(dtRp246
sg37
S'England'
p247
sa(dp248
g36
I1
sS'b'
F18
sS'e'
F7.333333333333333
sg39
I126
sg220
I6
sg214
F0
sS'r'
F22
sg40
S'Nagpur'
p249
sS'w'
F1
sg42
g43
((I2009
I12
I9
I0
I0
I0
I2
I343
I-1
t(dtRp250
sg37
S'Sri Lanka'
p251
sa(dp252
g36
I1
sS'b'
F12
sS'e'
F7.5
sg39
I113
sg220
I5
sg214
F0
sS'r'
F15
sg40
S'Nottingham'
p253
sS'w'
F0
sg42
g43
((I2009
I6
I16
I0
I0
I0
I1
I167
I-1
t(dtRp254
sg37
S'South Africa'
p255
satp256
sS'battingStats'
p257
((dp258
S'a'
F30.791666666666668
sS'0s'
p259
F1
sS'b'
F586
sS'no'
p260
F11
sg30
F2007
sS'hs'
p261
F79
sS'm'
F42
sS'4s'
p262
F61
sg33
F2014
sS'i'
F35
sS'6s'
p263
F27
sg212
F126.10921501706484
sS'r'
F739
sS'100s'
p264
F0
sS'50s'
p265
F7
s(lp266
(dp267
g36
I1
sS'b'
F26
sg37
S'Sri Lanka'
p268
sg212
F111.53846153846153
sg39
I400
sS'dismiss'
p269
S'caught'
p270
sg262
F3
sg220
I1
sg263
F0
sg40
S'Dhaka'
p271
sg42
g43
((I2014
I4
I6
I0
I0
I0
I6
I96
I-1
t(dtRp272
sS'r'
F29
sS'minutes'
p273
F41
sa(dp274
g36
I2
sS'b'
F13
sg37
S'South Africa'
p275
sg212
F184.61538461538461
sg39
I399
sg269
S'caught'
p276
sg262
F4
sg220
I1
sg263
F1
sg40
S'Dhaka'
p277
sg42
g43
((I2014
I4
I4
I0
I0
I0
I4
I94
I-1
t(dtRp278
sS'r'
F24
sg273
F17
sa(dp279
g36
I1
sS'b'
F3
sg37
S'Australia'
p280
sg212
F166.66666666666666
sg39
I393
sg269
S'caught'
p281
sg262
F1
sg220
I1
sg263
F0
sg40
S'Dhaka'
p282
sg42
g43
((I2014
I3
I30
I0
I0
I0
I6
I89
I-1
t(dtRp283
sS'r'
F5
sg273
F1
sa(dp284
g36
I2
sS'b'
F44
sg37
S'Bangladesh'
p285
sg212
F127.27272727272727
sg39
I389
sg269
S'caught'
p286
sg262
F5
sg220
I1
sg263
F1
sg40
S'Dhaka'
p287
sg42
g43
((I2014
I3
I28
I0
I0
I0
I4
I87
I-1
t(dtRp288
sS'r'
F56
sg273
F60
sa(dp289
g36
I2
sS'b'
F55
sg37
S'West Indies'
p290
sg260
I01
sg212
F112.72727272727273
sg39
I382
sg269
S'not out'
p291
sg262
F5
sg220
I1
sg263
F2
sg40
S'Dhaka'
p292
sg42
g43
((I2014
I3
I23
I0
I0
I0
I6
I82
I-1
t(dtRp293
sS'r'
F62
sg273
F83
sa(dp294
g36
I2
sS'b'
F21
sg37
S'Pakistan'
p295
sg212
F114.28571428571429
sg39
I378
sg269
S'bowled'
p296
sg262
F1
sg220
I1
sg263
F2
sg40
S'Dhaka'
p297
sg42
g43
((I2014
I3
I21
I0
I0
I0
I4
I80
I-1
t(dtRp298
sS'r'
F24
sg273
F41
sa(dp299
g36
I2
sS'b'
F8
sg37
S'Australia'
p300
sg212
F100
sg39
I331
sg269
S'caught'
p301
sg262
F0
sg220
I1
sg263
F1
sg40
S'Rajkot'
p302
sg42
g43
((I2013
I10
I10
I0
I0
I0
I3
I283
I-1
t(dtRp303
sS'r'
F8
sg273
F8
sa(dp304
g36
I1
sS'b'
F2
sg37
S'Pakistan'
p305
sg260
I01
sg212
F200
sg39
I298
sg269
S'not out'
p306
sg262
F1
sg220
I7
sg263
F0
sg40
S'Ahmedabad'
p307
sg42
g43
((I2012
I12
I28
I0
I0
I0
I4
I363
I-1
t(dtRp308
sS'r'
F4
sg273
F1
sa(dp309
g36
I1
sS'b'
F2
sg37
S'Pakistan'
p310
sg212
F100
sg39
I296
sg269
S'run out'
p311
sg262
F0
sg220
I7
sg263
F0
sg40
S'Bangalore'
p312
sg42
g43
((I2012
I12
I25
I0
I0
I0
I1
I360
I-1
t(dtRp313
sS'r'
F2
sg273
F8
sa(dp314
g36
I1
sS'b'
F19
sg37
S'England'
p315
sg212
F126.31578947368421
sg39
I294
sg269
S'bowled'
p316
sg262
F1
sg220
I5
sg263
F1
sg40
S'Mumbai'
p317
sg42
g43
((I2012
I12
I22
I0
I0
I0
I5
I357
I-1
t(dtRp318
sS'r'
F24
sg273
F28
sa(dp319
g36
I1
sS'b'
F27
sg37
S'South Africa'
p320
sg212
F92.592592592592595
sg39
I286
sg269
S'lbw'
p321
sg262
F2
sg220
I4
sg263
F0
sg40
S'Colombo (RPS)'
p322
sg42
g43
((I2012
I10
I2
I0
I0
I0
I1
I276
I-1
t(dtRp323
sS'r'
F25
sg273
F48
sa(dp324
g36
I1
sS'b'
F2
sg37
S'Australia'
p325
sg212
F50
sg39
I278
sg269
S'bowled'
p326
sg262
F0
sg220
I5
sg263
F0
sg40
S'Colombo (RPS)'
p327
sg42
g43
((I2012
I9
I28
I0
I0
I0
I4
I272
I-1
t(dtRp328
sS'r'
F1
sg273
F5
sa(dp329
g36
I1
sS'b'
F33
sg37
S'England'
p330
sg260
I01
sg212
F166.66666666666666
sg39
I272
sg269
S'not out'
p331
sg262
F5
sg220
I4
sg263
F1
sg40
S'Colombo (RPS)'
p332
sg42
g43
((I2012
I9
I23
I0
I0
I0
I6
I267
I-1
t(dtRp333
sS'r'
F55
sg273
F48
sa(dp334
g36
I1
sS'b'
F1
sg37
S'Afghanistan'
p335
sg260
I01
sg212
F100
sg39
I265
sg269
S'not out'
p336
sg262
F0
sg220
I7
sg263
F0
sg40
S'Colombo (RPS)'
p337
sg42
g43
((I2012
I9
I19
I0
I0
I0
I2
I263
I-1
t(dtRp338
sS'r'
F1
sg273
F2
sa(dp339
g36
I2
sS'b'
F2
sg37
S'New Zealand'
p340
sg260
I01
sg212
F200
sg39
I261
sg269
S'not out'
p341
sg262
F0
sg220
I6
sg263
F0
sg40
S'Chennai'
p342
sg42
g43
((I2012
I9
I11
I0
I0
I0
I1
I255
I-1
t(dtRp343
sS'r'
F4
sg273
F2
sa(dp344
g36
I2
sS'b'
F1
sg37
S'Australia'
p345
sg212
F0
sg39
I217
sg269
S'bowled'
p346
sg262
F0
sg220
I5
sg263
F0
sg40
S'Sydney'
p347
sg42
g43
((I2012
I2
I1
I0
I0
I0
I2
I32
I-1
t(dtRp348
sS'r'
F0
sg273
F2
sa(dp349
g36
I1
sS'b'
F3
sg37
S'England'
p350
sg212
F33.333333333333336
sg39
I204
sg269
S'stumped'
p351
sg262
F0
sg220
I5
sg263
F0
sg40
S'Manchester'
p352
sg42
g43
((I2011
I8
I31
I0
I0
I0
I2
I243
I-1
t(dtRp353
sS'r'
F1
sg273
F7
sa(dp354
g36
I1
sS'b'
F23
sg37
S'West Indies'
p355
sg212
F113.04347826086956
sg39
I200
sg269
S'bowled'
p356
sg262
F0
sg220
I6
sg263
F2
sg40
S'Port of Spain'
p357
sg42
g43
((I2011
I6
I4
I0
I0
I0
I5
I155
I-1
t(dtRp358
sS'r'
F26
sg273
F33
sa(dp359
g36
I1
sS'b'
F34
sg37
S'South Africa'
p360
sg212
F155.88235294117646
sg39
I196
sg269
S'caught'
p361
sg262
F5
sg220
I3
sg263
F2
sg40
S'Durban'
p362
sg42
g43
((I2011
I1
I9
I0
I0
I0
I6
I9
I-1
t(dtRp363
sS'r'
F53
sg273
F38
sa(dp364
g36
I2
sS'b'
F0
sg37
S'Zimbabwe'
p365
sg260
I01
sg212
F0
sg39
I183
sg269
S'not out'
p366
sg262
F0
sg220
I5
sg263
F0
sg40
S'Harare'
p367
sg42
g43
((I2010
I6
I13
I0
I0
I0
I6
I164
I-1
t(dtRp368
sS'r'
F0
sg273
F1
sa(dp369
g36
I2
sS'b'
F15
sg37
S'Zimbabwe'
p370
sg212
F66.666666666666671
sg39
I182
sg269
S'stumped'
p371
sg262
F1
sg220
I4
sg263
F0
sg40
S'Harare'
p372
sg42
g43
((I2010
I6
I12
I0
I0
I0
I5
I163
I-1
t(dtRp373
sS'r'
F10
sg273
F22
sa(dp374
g36
I2
sS'b'
F8
sg37
S'West Indies'
p375
sg212
F62.5
sg39
I169
sg269
S'caught'
p376
sg262
F1
sg220
I4
sg263
F0
sg40
S'Bridgetown'
p377
sg42
g43
((I2010
I5
I9
I0
I0
I0
I6
I129
I-1
t(dtRp378
sS'r'
F5
sg273
F10
sa(dp379
g36
I2
sS'b'
F46
sg37
S'Australia'
p380
sg260
I01
sg212
F171.7391304347826
sg39
I165
sg269
S'not out'
p381
sg262
F4
sg220
I4
sg263
F6
sg40
S'Bridgetown'
p382
sg42
g43
((I2010
I5
I7
I0
I0
I0
I4
I127
I-1
t(dtRp383
sS'r'
F79
sg273
F65
sa(dp384
g36
I2
sS'b'
F4
sg37
S'Sri Lanka'
p385
sg212
F75
sg39
I126
sg269
S'run out'
p386
sg262
F0
sg220
I5
sg263
F0
sg40
S'Nagpur'
p387
sg42
g43
((I2009
I12
I9
I0
I0
I0
I2
I343
I-1
t(dtRp388
sS'r'
F3
sg273
F-1
sa(dp389
g36
I2
sS'b'
F28
sg37
S'South Africa'
p390
sg212
F103.57142857142857
sg39
I113
sg269
S'caught'
p391
sg262
F3
sg220
I2
sg263
F0
sg40
S'Nottingham'
p392
sg42
g43
((I2009
I6
I16
I0
I0
I0
I1
I167
I-1
t(dtRp393
sS'r'
F29
sg273
F39
sa(dp394
g36
I2
sS'b'
F8
sg37
S'England'
p395
sg212
F112.5
sg39
I109
sg269
S'bowled'
p396
sg262
F1
sg220
I2
sg263
F0
sg40
S"Lord's"
p397
sg42
g43
((I2009
I6
I14
I0
I0
I0
I6
I165
I-1
t(dtRp398
sS'r'
F9
sg273
F7
sa(dp399
g36
I1
sS'b'
F3
sg37
S'West Indies'
p400
sg212
F166.66666666666666
sg39
I105
sg269
S'caught'
p401
sg262
F1
sg220
I2
sg263
F0
sg40
S"Lord's"
p402
sg42
g43
((I2009
I6
I12
I0
I0
I0
I4
I163
I-1
t(dtRp403
sS'r'
F5
sg273
F6
sa(dp404
g36
I2
sS'b'
F45
sg37
S'Ireland'
p405
sg260
I01
sg212
F115.55555555555556
sg39
I101
sg269
S'not out'
p406
sg262
F4
sg220
I2
sg263
F1
sg40
S'Nottingham'
p407
sg42
g43
((I2009
I6
I10
I0
I0
I0
I2
I161
I-1
t(dtRp408
sS'r'
F52
sg273
F61
sa(dp409
g36
I1
sS'b'
F23
sg37
S'Bangladesh'
p410
sg212
F156.52173913043478
sg39
I93
sg269
S'bowled'
p411
sg262
F3
sg220
I2
sg263
F2
sg40
S'Nottingham'
p412
sg42
g43
((I2009
I6
I6
I0
I0
I0
I5
I157
I-1
t(dtRp413
sS'r'
F36
sg273
F34
sa(dp414
g36
I1
sS'b'
F7
sg37
S'New Zealand'
p415
sg212
F100
sg39
I84
sg269
S'caught'
p416
sg262
F0
sg220
I4
sg263
F1
sg40
S'Christchurch'
p417
sg42
g43
((I2009
I2
I25
I0
I0
I0
I2
I56
I-1
t(dtRp418
sS'r'
F7
sg273
F9
sa(dp419
g36
I2
sS'b'
F11
sg37
S'Sri Lanka'
p420
sg212
F36.363636363636367
sg39
I82
sg269
S'caught'
p421
sg262
F0
sg220
I6
sg263
F0
sg40
S'Colombo (RPS)'
p422
sg42
g43
((I2009
I2
I10
I0
I0
I0
I1
I41
I-1
t(dtRp423
sS'r'
F4
sg273
F13
sa(dp424
g36
I1
sS'b'
F8
sg37
S'Australia'
p425
sg212
F100
sg39
I52
sg269
S'bowled'
p426
sg262
F1
sg220
I5
sg263
F0
sg40
S'Melbourne'
p427
sg42
g43
((I2008
I2
I1
I0
I0
I0
I4
I32
I-1
t(dtRp428
sS'r'
F8
sg273
F15
sa(dp429
g36
I1
sS'b'
F16
sg37
S'Pakistan'
p430
sg260
I01
sg212
F187.5
sg39
I46
sg269
S'not out'
p431
sg262
F2
sg220
I6
sg263
F1
sg40
S'Johannesburg'
p432
sg42
g43
((I2007
I9
I24
I0
I0
I0
I0
I267
I-1
t(dtRp433
sS'r'
F30
sg273
F22
sa(dp434
g36
I1
sS'b'
F5
sg37
S'Australia'
p435
sg260
I01
sg212
F160
sg39
I45
sg269
S'not out'
p436
sg262
F0
sg220
I6
sg263
F1
sg40
S'Durban'
p437
sg42
g43
((I2007
I9
I22
I0
I0
I0
I5
I265
I-1
t(dtRp438
sS'r'
F8
sg273
F11
sa(dp439
g36
I1
sS'b'
F40
sg37
S'South Africa'
p440
sg260
I01
sg212
F125
sg39
I43
sg269
S'not out'
p441
sg262
F7
sg220
I5
sg263
F2
sg40
S'Durban'
p442
sg42
g43
((I2007
I9
I20
I0
I0
I0
I3
I263
I-1
t(dtRp443
sS'r'
F50
sg273
F52
satp444
ssS'all'
p445
(dp446
g27
(dp447
S'c'
F76
sg29
F0
sS'i'
F171
sS'm'
F171
sS's'
F0
sg31
F76
sg32
F76
ssg210
(dp448
S'a'
F28.25
sS'b'
F610
sS'e'
F7.7803278688524591
sS'i'
F55
sg212
F21.785714285714285
sg213
F0
sS'm'
F171
sg214
F0
sS'r'
F791
sS'w'
F28
sg215
F1
sg216
F6
sg217
F4
ssg257
(dp449
S'a'
F32.736434108527135
sg259
F-1
sS'b'
F3245
sg260
F31
sS'i'
F160
sg261
F109
sS'm'
F171
sg262
F350
sg263
F177
sg212
F130.13867488443759
sS'r'
F4223
sg264
F2
sg265
F28
ssssb.