(iplayer
Player
p1
(dp2
S'is_batsman'
p3
I00
sS'name'
p4
S'Piyush Chawla'
p5
sS'dob'
p6
S'1988/12/24'
p7
sS'price'
p8
S'900000'
p9
sS'is_allrounder'
p10
I01
sS'espnid'
p11
S'32966'
p12
sS'is_overseas'
p13
I00
sS'team'
p14
S'KKR'
p15
sS'nationality'
p16
S'Indian'
p17
sS'is_bowler'
p18
I01
sS'is_keeper'
p19
I00
sS'id'
p20
S'76'
p21
sS'is_uncapped'
p22
I00
sS'tournamentStats'
p23
(dp24
S'international'
p25
(dp26
S'fieldingStats'
p27
((dp28
S'c'
F2
sS'ctw'
p29
F0
sS'span_s'
p30
F2010
sS'm'
F7
sS's'
F0
sS'dismissals'
p31
F2
sS'i'
F7
sS'ctf'
p32
F2
sS'span_f'
p33
F2012
s(lp34
(dp35
S'inning'
p36
I2
sS'c'
F0
sg29
F0
sS'opp'
p37
S'England'
p38
sS't20i_num'
p39
I294
sg32
F0
sg31
F0
sS's'
F0
sS'place'
p40
S'Mumbai'
p41
sS'date'
p42
ctime
struct_time
p43
((I2012
I12
I22
I0
I0
I0
I5
I357
I-1
t(dtRp44
sa(dp45
g36
I1
sS'c'
F0
sg29
F0
sg37
S'England'
p46
sg39
I292
sg32
F0
sg31
F0
sS's'
F0
sg40
S'Pune'
p47
sg42
g43
((I2012
I12
I20
I0
I0
I0
I3
I355
I-1
t(dtRp48
sa(dp49
g36
I2
sS'c'
F0
sg29
F0
sg37
S'Australia'
p50
sg39
I278
sg32
F0
sg31
F0
sS's'
F0
sg40
S'Colombo (RPS)'
p51
sg42
g43
((I2012
I9
I28
I0
I0
I0
I4
I272
I-1
t(dtRp52
sa(dp53
g36
I2
sS'c'
F0
sg29
F0
sg37
S'England'
p54
sg39
I272
sg32
F0
sg31
F0
sS's'
F0
sg40
S'Colombo (RPS)'
p55
sg42
g43
((I2012
I9
I23
I0
I0
I0
I6
I267
I-1
t(dtRp56
sa(dp57
g36
I1
sS'c'
F0
sg29
F0
sg37
S'Zimbabwe'
p58
sg39
I182
sg32
F0
sg31
F0
sS's'
F0
sg40
S'Harare'
p59
sg42
g43
((I2010
I6
I12
I0
I0
I0
I5
I163
I-1
t(dtRp60
sa(dp61
g36
I2
sS'c'
F0
sg29
F0
sg37
S'Sri Lanka'
p62
sg39
I173
sg32
F0
sg31
F0
sS's'
F0
sg40
S'Gros Islet'
p63
sg42
g43
((I2010
I5
I11
I0
I0
I0
I1
I131
I-1
t(dtRp64
sa(dp65
g36
I2
sS'c'
F2
sg29
F0
sg37
S'South Africa'
p66
sg39
I155
sg32
F2
sg31
F2
sS's'
F0
sg40
S'Gros Islet'
p67
sg42
g43
((I2010
I5
I2
I0
I0
I0
I6
I122
I-1
t(dtRp68
satp69
sS'bowlingStats'
p70
((dp71
S'a'
F37.75
sS'b'
F138
sS'e'
F6.5652173913043477
sS'i'
F7
sS'sr'
p72
F34.5
sS'5w'
p73
F0
sS'm'
F7
sS'maid'
p74
F1
sS'r'
F151
sS'w'
F4
sS'4w'
p75
F0
sS'bbir'
p76
F13
sS'bbiw'
p77
F2
sg33
F2012
sg30
F2010
s(lp78
(dp79
g36
I2
sS'b'
F24
sS'e'
F7.75
sg39
I294
sS'pos'
p80
I4
sg74
F0
sS'r'
F31
sg40
S'Mumbai'
p81
sS'w'
F0
sg42
g43
((I2012
I12
I22
I0
I0
I0
I5
I357
I-1
t(dtRp82
sg37
S'England'
p83
sa(dp84
g36
I1
sS'b'
F18
sS'e'
F8
sg39
I292
sg80
I5
sg74
F0
sS'r'
F24
sg40
S'Pune'
p85
sS'w'
F0
sg42
g43
((I2012
I12
I20
I0
I0
I0
I3
I355
I-1
t(dtRp86
sg37
S'England'
p87
sa(dp88
g36
I2
sS'b'
F6
sS'e'
F14
sg39
I278
sg80
I4
sg74
F0
sS'r'
F14
sg40
S'Colombo (RPS)'
p89
sS'w'
F0
sg42
g43
((I2012
I9
I28
I0
I0
I0
I4
I272
I-1
t(dtRp90
sg37
S'Australia'
p91
sa(dp92
g36
I2
sS'b'
F24
sS'e'
F3.25
sg39
I272
sg80
I5
sg74
F1
sS'r'
F13
sg40
S'Colombo (RPS)'
p93
sS'w'
F2
sg42
g43
((I2012
I9
I23
I0
I0
I0
I6
I267
I-1
t(dtRp94
sg37
S'England'
p95
sa(dp96
g36
I1
sS'b'
F24
sS'e'
F3.5
sg39
I182
sg80
I5
sg74
F0
sS'r'
F14
sg40
S'Harare'
p97
sS'w'
F1
sg42
g43
((I2010
I6
I12
I0
I0
I0
I5
I163
I-1
t(dtRp98
sg37
S'Zimbabwe'
p99
sa(dp100
g36
I2
sS'b'
F24
sS'e'
F7
sg39
I173
sg80
I5
sg74
F0
sS'r'
F28
sg40
S'Gros Islet'
p101
sS'w'
F0
sg42
g43
((I2010
I5
I11
I0
I0
I0
I1
I131
I-1
t(dtRp102
sg37
S'Sri Lanka'
p103
sa(dp104
g36
I2
sS'b'
F18
sS'e'
F9
sg39
I155
sg80
I5
sg74
F0
sS'r'
F27
sg40
S'Gros Islet'
p105
sS'w'
F1
sg42
g43
((I2010
I5
I2
I0
I0
I0
I6
I122
I-1
t(dtRp106
sg37
S'South Africa'
p107
satp108
sS'battingStats'
p109
((dp110
S'a'
F0
sS'0s'
p111
F1
sS'b'
F1
sS'no'
p112
F0
sg30
F2010
sS'hs'
p113
F0
sS'm'
F7
sS'4s'
p114
F0
sg33
F2012
sS'i'
F1
sS'6s'
p115
F0
sg72
F0
sS'r'
F0
sS'100s'
p116
F0
sS'50s'
p117
F0
s(lp118
(dp119
g36
I1
sS'b'
F1
sg37
S'England'
p120
sg72
F0
sg39
I294
sS'dismiss'
p121
S'run out'
p122
sg114
F0
sg80
I9
sg115
F0
sg40
S'Mumbai'
p123
sg42
g43
((I2012
I12
I22
I0
I0
I0
I5
I357
I-1
t(dtRp124
sS'r'
F0
sS'minutes'
p125
F3
satp126
ssS'all'
p127
(dp128
g27
(dp129
S'c'
F32
sg29
F0
sS'i'
F124
sS'm'
F124
sS's'
F0
sg31
F32
sg32
F32
ssg70
(dp130
S'a'
F26.462809917355372
sS'b'
F2599
sS'e'
F7.3920738745671413
sS'i'
F124
sg72
F21.479338842975206
sg73
F0
sS'm'
F124
sg74
F0
sS'r'
F3202
sS'w'
F121
sg75
F1
sg76
F17
sg77
F4
ssg109
(dp131
S'a'
F16.28846153846154
sg111
F-1
sS'b'
F679
sg112
F27
sS'i'
F79
sg113
F45
sS'm'
F124
sg114
F68
sg115
F33
sg72
F124.74226804123711
sS'r'
F847
sg116
F0
sg117
F0
ssssb.