(iplayer
Player
p1
(dp2
S'is_batsman'
p3
I01
sS'name'
p4
S'Dwayne Smith'
p5
sS'dob'
p6
S'1983/04/12'
p7
sS'price'
p8
S'1000000'
p9
sS'is_allrounder'
p10
I01
sS'espnid'
p11
S'53118'
p12
sS'is_overseas'
p13
I01
sS'team'
p14
S'CSK'
p15
sS'nationality'
p16
S'West Indian'
p17
sS'is_bowler'
p18
I00
sS'is_keeper'
p19
I00
sS'id'
p20
S'413'
p21
sS'is_uncapped'
p22
I00
sS'tournamentStats'
p23
(dp24
S'international'
p25
(dp26
S'fieldingStats'
p27
((dp28
S'c'
F5
sS'ctw'
p29
F0
sS'span_s'
p30
F2006
sS'm'
F27
sS's'
F0
sS'dismissals'
p31
F5
sS'i'
F27
sS'ctf'
p32
F5
sS'span_f'
p33
F2014
s(lp34
(dp35
S'inning'
p36
I1
sS'c'
F0
sg29
F0
sS'opp'
p37
S'Sri Lanka'
p38
sS't20i_num'
p39
I398
sg32
F0
sg31
F0
sS's'
F0
sS'place'
p40
S'Dhaka'
p41
sS'date'
p42
ctime
struct_time
p43
((I2014
I4
I3
I0
I0
I0
I3
I93
I-1
t(dtRp44
sa(dp45
g36
I2
sS'c'
F0
sg29
F0
sg37
S'Pakistan'
p46
sg39
I397
sg32
F0
sg31
F0
sS's'
F0
sg40
S'Dhaka'
p47
sg42
g43
((I2014
I4
I1
I0
I0
I0
I1
I91
I-1
t(dtRp48
sa(dp49
g36
I1
sS'c'
F0
sg29
F0
sg37
S'Australia'
p50
sg39
I388
sg32
F0
sg31
F0
sS's'
F0
sg40
S'Dhaka'
p51
sg42
g43
((I2014
I3
I28
I0
I0
I0
I4
I87
I-1
t(dtRp52
sa(dp53
g36
I2
sS'c'
F0
sg29
F0
sg37
S'Bangladesh'
p54
sg39
I385
sg32
F0
sg31
F0
sS's'
F0
sg40
S'Dhaka'
p55
sg42
g43
((I2014
I3
I25
I0
I0
I0
I1
I84
I-1
t(dtRp56
sa(dp57
g36
I2
sS'c'
F0
sg29
F0
sg37
S'India'
p58
sg39
I382
sg32
F0
sg31
F0
sS's'
F0
sg40
S'Dhaka'
p59
sg42
g43
((I2014
I3
I23
I0
I0
I0
I6
I82
I-1
t(dtRp60
sa(dp61
g36
I1
sS'c'
F1
sg29
F0
sg37
S'England'
p62
sg39
I364
sg32
F1
sg31
F1
sS's'
F0
sg40
S'Bridgetown'
p63
sg42
g43
((I2014
I3
I13
I0
I0
I0
I3
I72
I-1
t(dtRp64
sa(dp65
g36
I1
sS'c'
F0
sg29
F0
sg37
S'England'
p66
sg39
I362
sg32
F0
sg31
F0
sS's'
F0
sg40
S'Bridgetown'
p67
sg42
g43
((I2014
I3
I11
I0
I0
I0
I1
I70
I-1
t(dtRp68
sa(dp69
g36
I2
sS'c'
F0
sg29
F0
sg37
S'England'
p70
sg39
I361
sg32
F0
sg31
F0
sS's'
F0
sg40
S'Bridgetown'
p71
sg42
g43
((I2014
I3
I9
I0
I0
I0
I6
I68
I-1
t(dtRp72
sa(dp73
g36
I2
sS'c'
F1
sg29
F0
sg37
S'Ireland'
p74
sg39
I360
sg32
F1
sg31
F1
sS's'
F0
sg40
S'Kingston'
p75
sg42
g43
((I2014
I2
I21
I0
I0
I0
I4
I52
I-1
t(dtRp76
sa(dp77
g36
I2
sS'c'
F0
sg29
F0
sg37
S'Ireland'
p78
sg39
I359
sg32
F0
sg31
F0
sS's'
F0
sg40
S'Kingston'
p79
sg42
g43
((I2014
I2
I19
I0
I0
I0
I2
I50
I-1
t(dtRp80
sa(dp81
g36
I2
sS'c'
F0
sg29
F0
sg37
S'Bangladesh'
p82
sg39
I291
sg32
F0
sg31
F0
sS's'
F0
sg40
S'Dhaka'
p83
sg42
g43
((I2012
I12
I10
I0
I0
I0
I0
I345
I-1
t(dtRp84
sa(dp85
g36
I2
sS'c'
F0
sg29
F0
sg37
S'Australia'
p86
sg39
I270
sg32
F0
sg31
F0
sS's'
F0
sg40
S'Colombo (RPS)'
p87
sg42
g43
((I2012
I9
I22
I0
I0
I0
I5
I266
I-1
t(dtRp88
sa(dp89
g36
I2
sS'c'
F1
sg29
F0
sg37
S'New Zealand'
p90
sg39
I248
sg32
F1
sg31
F1
sS's'
F0
sg40
S'Lauderhill'
p91
sg42
g43
((I2012
I7
I1
I0
I0
I0
I6
I183
I-1
t(dtRp92
sa(dp93
g36
I2
sS'c'
F0
sg29
F0
sg37
S'New Zealand'
p94
sg39
I247
sg32
F0
sg31
F0
sS's'
F0
sg40
S'Lauderhill'
p95
sg42
g43
((I2012
I6
I30
I0
I0
I0
I5
I182
I-1
t(dtRp96
sa(dp97
g36
I2
sS'c'
F1
sg29
F0
sg37
S'England'
p98
sg39
I246
sg32
F1
sg31
F1
sS's'
F0
sg40
S'Nottingham'
p99
sg42
g43
((I2012
I6
I24
I0
I0
I0
I6
I176
I-1
t(dtRp100
sa(dp101
g36
I2
sS'c'
F0
sg29
F0
sg37
S'Australia'
p102
sg39
I243
sg32
F0
sg31
F0
sS's'
F0
sg40
S'Bridgetown'
p103
sg42
g43
((I2012
I3
I30
I0
I0
I0
I4
I90
I-1
t(dtRp104
sa(dp105
g36
I2
sS'c'
F0
sg29
F0
sg37
S'Australia'
p106
sg39
I241
sg32
F0
sg31
F0
sS's'
F0
sg40
S'Gros Islet'
p107
sg42
g43
((I2012
I3
I27
I0
I0
I0
I1
I87
I-1
t(dtRp108
sa(dp109
g36
I2
sS'c'
F0
sg29
F0
sg37
S'England'
p110
sg39
I208
sg32
F0
sg31
F0
sS's'
F0
sg40
S'The Oval'
p111
sg42
g43
((I2011
I9
I25
I0
I0
I0
I6
I268
I-1
t(dtRp112
sa(dp113
g36
I2
sS'c'
F0
sg29
F0
sg37
S'England'
p114
sg39
I207
sg32
F0
sg31
F0
sS's'
F0
sg40
S'The Oval'
p115
sg42
g43
((I2011
I9
I23
I0
I0
I0
I4
I266
I-1
t(dtRp116
sa(dp117
g36
I1
sS'c'
F0
sg29
F0
sg37
S'Zimbabwe'
p118
sg39
I150
sg32
F0
sg31
F0
sS's'
F0
sg40
S'Port of Spain'
p119
sg42
g43
((I2010
I2
I28
I0
I0
I0
I6
I59
I-1
t(dtRp120
sa(dp121
g36
I2
sS'c'
F0
sg29
F0
sg37
S'Australia'
p122
sg39
I147
sg32
F0
sg31
F0
sS's'
F0
sg40
S'Sydney'
p123
sg42
g43
((I2010
I2
I23
I0
I0
I0
I1
I54
I-1
t(dtRp124
sa(dp125
g36
I1
sS'c'
F1
sg29
F0
sg37
S'Australia'
p126
sg39
I146
sg32
F1
sg31
F1
sS's'
F0
sg40
S'Hobart'
p127
sg42
g43
((I2010
I2
I21
I0
I0
I0
I6
I52
I-1
t(dtRp128
sa(dp129
g36
I2
sS'c'
F0
sg29
F0
sg37
S'Bangladesh'
p130
sg39
I24
sg32
F0
sg31
F0
sS's'
F0
sg40
S'Johannesburg'
p131
sg42
g43
((I2007
I9
I13
I0
I0
I0
I3
I256
I-1
t(dtRp132
sa(dp133
g36
I2
sS'c'
F0
sg29
F0
sg37
S'South Africa'
p134
sg39
I20
sg32
F0
sg31
F0
sS's'
F0
sg40
S'Johannesburg'
p135
sg42
g43
((I2007
I9
I11
I0
I0
I0
I1
I254
I-1
t(dtRp136
sa(dp137
g36
I2
sS'c'
F0
sg29
F0
sg37
S'England'
p138
sg39
I16
sg32
F0
sg31
F0
sS's'
F0
sg40
S'The Oval'
p139
sg42
g43
((I2007
I6
I29
I0
I0
I0
I4
I180
I-1
t(dtRp140
sa(dp141
g36
I2
sS'c'
F0
sg29
F0
sg37
S'England'
p142
sg39
I15
sg32
F0
sg31
F0
sS's'
F0
sg40
S'The Oval'
p143
sg42
g43
((I2007
I6
I28
I0
I0
I0
I3
I179
I-1
t(dtRp144
sa(dp145
g36
I2
sS'c'
F0
sg29
F0
sg37
S'New Zealand'
p146
sg39
I5
sg32
F0
sg31
F0
sS's'
F0
sg40
S'Auckland'
p147
sg42
g43
((I2006
I2
I16
I0
I0
I0
I3
I47
I-1
t(dtRp148
satp149
sS'bowlingStats'
p150
((dp151
S'a'
F30.285714285714285
sS'b'
F142
sS'e'
F8.9577464788732399
sS'i'
F11
sS'sr'
p152
F20.285714285714285
sS'5w'
p153
F0
sS'm'
F27
sS'maid'
p154
F0
sS'r'
F212
sS'w'
F7
sS'4w'
p155
F0
sS'bbir'
p156
F24
sS'bbiw'
p157
F3
sg33
F2014
sg30
F2006
s(lp158
(dp159
g36
I2
sS'b'
F6
sS'e'
F11
sg39
I397
sS'pos'
p160
I6
sg154
F0
sS'r'
F11
sg40
S'Dhaka'
p161
sS'w'
F0
sg42
g43
((I2014
I4
I1
I0
I0
I0
I1
I91
I-1
t(dtRp162
sg37
S'Pakistan'
p163
sa(dp164
g36
I2
sS'b'
F12
sS'e'
F8
sg39
I291
sg160
I7
sg154
F0
sS'r'
F16
sg40
S'Dhaka'
p165
sS'w'
F0
sg42
g43
((I2012
I12
I10
I0
I0
I0
I0
I345
I-1
t(dtRp166
sg37
S'Bangladesh'
p167
sa(dp168
g36
I2
sS'b'
F6
sS'e'
F12
sg39
I241
sg160
I7
sg154
F0
sS'r'
F12
sg40
S'Gros Islet'
p169
sS'w'
F0
sg42
g43
((I2012
I3
I27
I0
I0
I0
I1
I87
I-1
t(dtRp170
sg37
S'Australia'
p171
sa(dp172
g36
I2
sS'b'
F12
sS'e'
F7
sg39
I208
sg160
I6
sg154
F0
sS'r'
F14
sg40
S'The Oval'
p173
sS'w'
F0
sg42
g43
((I2011
I9
I25
I0
I0
I0
I6
I268
I-1
t(dtRp174
sg37
S'England'
p175
sa(dp176
g36
I2
sS'b'
F2
sS'e'
F12
sg39
I207
sg160
I7
sg154
F0
sS'r'
F4
sg40
S'The Oval'
p177
sS'w'
F0
sg42
g43
((I2011
I9
I23
I0
I0
I0
I4
I266
I-1
t(dtRp178
sg37
S'England'
p179
sa(dp180
g36
I2
sS'b'
F6
sS'e'
F9
sg39
I147
sg160
I3
sg154
F0
sS'r'
F9
sg40
S'Sydney'
p181
sS'w'
F0
sg42
g43
((I2010
I2
I23
I0
I0
I0
I1
I54
I-1
t(dtRp182
sg37
S'Australia'
p183
sa(dp184
g36
I1
sS'b'
F18
sS'e'
F12.666666666666666
sg39
I146
sg160
I5
sg154
F0
sS'r'
F38
sg40
S'Hobart'
p185
sS'w'
F2
sg42
g43
((I2010
I2
I21
I0
I0
I0
I6
I52
I-1
t(dtRp186
sg37
S'Australia'
p187
sa(dp188
g36
I2
sS'b'
F12
sS'e'
F18.5
sg39
I20
sg160
I3
sg154
F0
sS'r'
F37
sg40
S'Johannesburg'
p189
sS'w'
F0
sg42
g43
((I2007
I9
I11
I0
I0
I0
I1
I254
I-1
t(dtRp190
sg37
S'South Africa'
p191
sa(dp192
g36
I2
sS'b'
F24
sS'e'
F9.5
sg39
I16
sg160
I1
sg154
F0
sS'r'
F38
sg40
S'The Oval'
p193
sS'w'
F0
sg42
g43
((I2007
I6
I29
I0
I0
I0
I4
I180
I-1
t(dtRp194
sg37
S'England'
p195
sa(dp196
g36
I2
sS'b'
F24
sS'e'
F6
sg39
I15
sg160
I3
sg154
F0
sS'r'
F24
sg40
S'The Oval'
p197
sS'w'
F3
sg42
g43
((I2007
I6
I28
I0
I0
I0
I3
I179
I-1
t(dtRp198
sg37
S'England'
p199
sa(dp200
g36
I2
sS'b'
F20
sS'e'
F2.7000000000000002
sg39
I5
sg160
I5
sg154
F0
sS'r'
F9
sg40
S'Auckland'
p201
sS'w'
F2
sg42
g43
((I2006
I2
I16
I0
I0
I0
I3
I47
I-1
t(dtRp202
sg37
S'New Zealand'
p203
satp204
sS'battingStats'
p205
((dp206
S'a'
F19.37037037037037
sS'0s'
p207
F1
sS'b'
F416
sS'no'
p208
F0
sg30
F2006
sS'hs'
p209
F72
sS'm'
F27
sS'4s'
p210
F52
sg33
F2014
sS'i'
F27
sS'6s'
p211
F31
sg152
F125.72115384615384
sS'r'
F523
sS'100s'
p212
F0
sS'50s'
p213
F3
s(lp214
(dp215
g36
I2
sS'b'
F14
sg37
S'Sri Lanka'
p216
sg152
F121.42857142857143
sg39
I398
sS'dismiss'
p217
S'bowled'
p218
sg210
F1
sg160
I1
sg211
F1
sg40
S'Dhaka'
p219
sg42
g43
((I2014
I4
I3
I0
I0
I0
I3
I93
I-1
t(dtRp220
sS'r'
F17
sS'minutes'
p221
F22
sa(dp222
g36
I1
sS'b'
F13
sg37
S'Pakistan'
p223
sg152
F61.53846153846154
sg39
I397
sg217
S'caught'
p224
sg210
F2
sg160
I1
sg211
F0
sg40
S'Dhaka'
p225
sg42
g43
((I2014
I4
I1
I0
I0
I0
I1
I91
I-1
t(dtRp226
sS'r'
F8
sg221
F17
sa(dp227
g36
I2
sS'b'
F19
sg37
S'Australia'
p228
sg152
F89.473684210526315
sg39
I388
sg217
S'caught'
p229
sg210
F4
sg160
I1
sg211
F0
sg40
S'Dhaka'
p230
sg42
g43
((I2014
I3
I28
I0
I0
I0
I4
I87
I-1
t(dtRp231
sS'r'
F17
sg221
F21
sa(dp232
g36
I1
sS'b'
F43
sg37
S'Bangladesh'
p233
sg152
F167.44186046511629
sg39
I385
sg217
S'caught'
p234
sg210
F10
sg160
I1
sg211
F3
sg40
S'Dhaka'
p235
sg42
g43
((I2014
I3
I25
I0
I0
I0
I1
I84
I-1
t(dtRp236
sS'r'
F72
sg221
F49
sa(dp237
g36
I1
sS'b'
F29
sg37
S'India'
p238
sg152
F37.931034482758619
sg39
I382
sg217
S'caught'
p239
sg210
F2
sg160
I1
sg211
F0
sg40
S'Dhaka'
p240
sg42
g43
((I2014
I3
I23
I0
I0
I0
I6
I82
I-1
t(dtRp241
sS'r'
F11
sg221
F31
sa(dp242
g36
I2
sS'b'
F1
sg37
S'England'
p243
sg152
F0
sg39
I364
sg217
S'bowled'
p244
sg210
F0
sg160
I1
sg211
F0
sg40
S'Bridgetown'
p245
sg42
g43
((I2014
I3
I13
I0
I0
I0
I3
I72
I-1
t(dtRp246
sS'r'
F0
sg221
F1
sa(dp247
g36
I2
sS'b'
F16
sg37
S'England'
p248
sg152
F187.5
sg39
I362
sg217
S'caught'
p249
sg210
F2
sg160
I1
sg211
F3
sg40
S'Bridgetown'
p250
sg42
g43
((I2014
I3
I11
I0
I0
I0
I1
I70
I-1
t(dtRp251
sS'r'
F30
sg221
F19
sa(dp252
g36
I1
sS'b'
F18
sg37
S'England'
p253
sg152
F150
sg39
I361
sg217
S'bowled'
p254
sg210
F5
sg160
I1
sg211
F1
sg40
S'Bridgetown'
p255
sg42
g43
((I2014
I3
I9
I0
I0
I0
I6
I68
I-1
t(dtRp256
sS'r'
F27
sg221
F27
sa(dp257
g36
I1
sS'b'
F17
sg37
S'Ireland'
p258
sg152
F64.705882352941174
sg39
I360
sg217
S'caught'
p259
sg210
F1
sg160
I1
sg211
F0
sg40
S'Kingston'
p260
sg42
g43
((I2014
I2
I21
I0
I0
I0
I4
I52
I-1
t(dtRp261
sS'r'
F11
sg221
F-1
sa(dp262
g36
I1
sS'b'
F13
sg37
S'Ireland'
p263
sg152
F107.69230769230769
sg39
I359
sg217
S'caught'
p264
sg210
F0
sg160
I1
sg211
F2
sg40
S'Kingston'
p265
sg42
g43
((I2014
I2
I19
I0
I0
I0
I2
I50
I-1
t(dtRp266
sS'r'
F14
sg221
F-1
sa(dp267
g36
I1
sS'b'
F21
sg37
S'Bangladesh'
p268
sg152
F114.28571428571429
sg39
I291
sg217
S'bowled'
p269
sg210
F3
sg160
I1
sg211
F1
sg40
S'Dhaka'
p270
sg42
g43
((I2012
I12
I10
I0
I0
I0
I0
I345
I-1
t(dtRp271
sS'r'
F24
sg221
F19
sa(dp272
g36
I1
sS'b'
F5
sg37
S'Australia'
p273
sg152
F40
sg39
I270
sg217
S'bowled'
p274
sg210
F0
sg160
I1
sg211
F0
sg40
S'Colombo (RPS)'
p275
sg42
g43
((I2012
I9
I22
I0
I0
I0
I5
I266
I-1
t(dtRp276
sS'r'
F2
sg221
F6
sa(dp277
g36
I1
sS'b'
F8
sg37
S'New Zealand'
p278
sg152
F162.5
sg39
I248
sg217
S'caught'
p279
sg210
F0
sg160
I1
sg211
F2
sg40
S'Lauderhill'
p280
sg42
g43
((I2012
I7
I1
I0
I0
I0
I6
I183
I-1
t(dtRp281
sS'r'
F13
sg221
F5
sa(dp282
g36
I1
sS'b'
F13
sg37
S'New Zealand'
p283
sg152
F130.76923076923077
sg39
I247
sg217
S'bowled'
p284
sg210
F1
sg160
I1
sg211
F2
sg40
S'Lauderhill'
p285
sg42
g43
((I2012
I6
I30
I0
I0
I0
I5
I182
I-1
t(dtRp286
sS'r'
F17
sg221
F15
sa(dp287
g36
I1
sS'b'
F54
sg37
S'England'
p288
sg152
F129.62962962962962
sg39
I246
sg217
S'caught'
p289
sg210
F5
sg160
I1
sg211
F5
sg40
S'Nottingham'
p290
sg42
g43
((I2012
I6
I24
I0
I0
I0
I6
I176
I-1
t(dtRp291
sS'r'
F70
sg221
F62
sa(dp292
g36
I1
sS'b'
F34
sg37
S'Australia'
p293
sg152
F185.29411764705881
sg39
I243
sg217
S'caught'
p294
sg210
F6
sg160
I1
sg211
F4
sg40
S'Bridgetown'
p295
sg42
g43
((I2012
I3
I30
I0
I0
I0
I4
I90
I-1
t(dtRp296
sS'r'
F63
sg221
F46
sa(dp297
g36
I1
sS'b'
F10
sg37
S'Australia'
p298
sg152
F100
sg39
I241
sg217
S'caught'
p299
sg210
F2
sg160
I2
sg211
F0
sg40
S'Gros Islet'
p300
sg42
g43
((I2012
I3
I27
I0
I0
I0
I1
I87
I-1
t(dtRp301
sS'r'
F10
sg221
F-1
sa(dp302
g36
I1
sS'b'
F12
sg37
S'England'
p303
sg152
F91.666666666666671
sg39
I208
sg217
S'lbw'
p304
sg210
F2
sg160
I2
sg211
F0
sg40
S'The Oval'
p305
sg42
g43
((I2011
I9
I25
I0
I0
I0
I6
I268
I-1
t(dtRp306
sS'r'
F11
sg221
F13
sa(dp307
g36
I1
sS'b'
F21
sg37
S'England'
p308
sg152
F157.14285714285714
sg39
I207
sg217
S'bowled'
p309
sg210
F3
sg160
I2
sg211
F2
sg40
S'The Oval'
p310
sg42
g43
((I2011
I9
I23
I0
I0
I0
I4
I266
I-1
t(dtRp311
sS'r'
F33
sg221
F21
sa(dp312
g36
I2
sS'b'
F15
sg37
S'Zimbabwe'
p313
sg152
F80
sg39
I150
sg217
S'caught'
p314
sg210
F0
sg160
I7
sg211
F1
sg40
S'Port of Spain'
p315
sg42
g43
((I2010
I2
I28
I0
I0
I0
I6
I59
I-1
t(dtRp316
sS'r'
F12
sg221
F14
sa(dp317
g36
I1
sS'b'
F10
sg37
S'Australia'
p318
sg152
F80
sg39
I147
sg217
S'caught'
p319
sg210
F0
sg160
I6
sg211
F0
sg40
S'Sydney'
p320
sg42
g43
((I2010
I2
I23
I0
I0
I0
I1
I54
I-1
t(dtRp321
sS'r'
F8
sg221
F17
sa(dp322
g36
I2
sS'b'
F6
sg37
S'Australia'
p323
sg152
F66.666666666666671
sg39
I146
sg217
S'caught'
p324
sg210
F0
sg160
I7
sg211
F0
sg40
S'Hobart'
p325
sg42
g43
((I2010
I2
I21
I0
I0
I0
I6
I52
I-1
t(dtRp326
sS'r'
F4
sg221
F6
sa(dp327
g36
I1
sS'b'
F7
sg37
S'Bangladesh'
p328
sg152
F414.28571428571428
sg39
I24
sg217
S'bowled'
p329
sg210
F1
sg160
I7
sg211
F4
sg40
S'Johannesburg'
p330
sg42
g43
((I2007
I9
I13
I0
I0
I0
I3
I256
I-1
t(dtRp331
sS'r'
F29
sg221
F7
sa(dp332
g36
I1
sS'b'
F4
sg37
S'South Africa'
p333
sg152
F25
sg39
I20
sg217
S'caught'
p334
sg210
F0
sg160
I5
sg211
F0
sg40
S'Johannesburg'
p335
sg42
g43
((I2007
I9
I11
I0
I0
I0
I1
I254
I-1
t(dtRp336
sS'r'
F1
sg221
F4
sa(dp337
g36
I1
sS'b'
F4
sg37
S'England'
p338
sg152
F125
sg39
I16
sg217
S'run out'
p339
sg210
F0
sg160
I7
sg211
F0
sg40
S'The Oval'
p340
sg42
g43
((I2007
I6
I29
I0
I0
I0
I4
I180
I-1
t(dtRp341
sS'r'
F5
sg221
F5
sa(dp342
g36
I1
sS'b'
F5
sg37
S'England'
p343
sg152
F120
sg39
I15
sg217
S'run out'
p344
sg210
F1
sg160
I7
sg211
F0
sg40
S'The Oval'
p345
sg42
g43
((I2007
I6
I28
I0
I0
I0
I3
I179
I-1
t(dtRp346
sS'r'
F6
sg221
F3
sa(dp347
g36
I1
sS'b'
F4
sg37
S'New Zealand'
p348
sg152
F200
sg39
I5
sg217
S'run out'
p349
sg210
F1
sg160
I4
sg211
F0
sg40
S'Auckland'
p350
sg42
g43
((I2006
I2
I16
I0
I0
I0
I3
I47
I-1
t(dtRp351
sS'r'
F8
sg221
F4
satp352
ssS'all'
p353
(dp354
g27
(dp355
S'c'
F78
sg29
F0
sS'i'
F175
sS'm'
F175
sS's'
F0
sg31
F78
sg32
F78
ssg150
(dp356
S'a'
F25.797619047619047
sS'b'
F1695
sS'e'
F7.6707964601769909
sS'i'
F120
sg152
F20.178571428571427
sg153
F0
sS'm'
F175
sg154
F0
sS'r'
F2167
sS'w'
F84
sg155
F1
sg156
F9
sg157
F4
ssg205
(dp357
S'a'
F25.026490066225165
sg207
F-1
sS'b'
F2914
sg208
F18
sS'i'
F169
sg209
F103
sS'm'
F175
sg210
F331
sg211
F188
sg152
F129.68428277282086
sS'r'
F3779
sg212
F1
sg213
F21
ssssb.