(iplayer
Player
p1
(dp2
S'is_batsman'
p3
I01
sS'name'
p4
S'Brendon McCullum'
p5
sS'dob'
p6
S'1981/09/27'
p7
sS'price'
p8
S'1000000'
p9
sS'is_allrounder'
p10
I00
sS'espnid'
p11
S'37737'
p12
sS'is_overseas'
p13
I01
sS'team'
p14
S'CSK'
p15
sS'nationality'
p16
S'New Zealander'
p17
sS'is_bowler'
p18
I00
sS'is_keeper'
p19
I01
sS'id'
p20
S'202'
p21
sS'is_uncapped'
p22
I00
sS'tournamentStats'
p23
(dp24
S'international'
p25
(dp26
S'fieldingStats'
p27
((dp28
S'c'
F35
sS'ctw'
p29
F24
sS'span_s'
p30
F2005
sS'm'
F68
sS's'
F8
sS'dismissals'
p31
F43
sS'i'
F68
sS'ctf'
p32
F11
sS'span_f'
p33
F2014
s(lp34
(dp35
S'inning'
p36
I1
sS'c'
F0
sg29
F0
sS'opp'
p37
S'Sri Lanka'
p38
sS't20i_num'
p39
I395
sg32
F0
sg31
F0
sS's'
F0
sS'place'
p40
S'Chittagong'
p41
sS'date'
p42
ctime
struct_time
p43
((I2014
I3
I31
I0
I0
I0
I0
I90
I-1
t(dtRp44
sa(dp45
g36
I1
sS'c'
F0
sg29
F0
sg37
S'Netherlands'
p46
sg39
I390
sg32
F0
sg31
F0
sS's'
F0
sg40
S'Chittagong'
p47
sg42
g43
((I2014
I3
I29
I0
I0
I0
I5
I88
I-1
t(dtRp48
sa(dp49
g36
I1
sS'c'
F0
sg29
F0
sg37
S'South Africa'
p50
sg39
I383
sg32
F0
sg31
F0
sS's'
F0
sg40
S'Chittagong'
p51
sg42
g43
((I2014
I3
I24
I0
I0
I0
I0
I83
I-1
t(dtRp52
sa(dp53
g36
I1
sS'c'
F1
sg29
F0
sg37
S'England'
p54
sg39
I380
sg32
F1
sg31
F1
sS's'
F0
sg40
S'Chittagong'
p55
sg42
g43
((I2014
I3
I22
I0
I0
I0
I5
I81
I-1
t(dtRp56
sa(dp57
g36
I1
sS'c'
F0
sg29
F0
sg37
S'West Indies'
p58
sg39
I353
sg32
F0
sg31
F0
sS's'
F0
sg40
S'Wellington'
p59
sg42
g43
((I2014
I1
I15
I0
I0
I0
I2
I15
I-1
t(dtRp60
sa(dp61
g36
I2
sS'c'
F0
sg29
F0
sg37
S'West Indies'
p62
sg39
I352
sg32
F0
sg31
F0
sS's'
F0
sg40
S'Auckland'
p63
sg42
g43
((I2014
I1
I11
I0
I0
I0
I5
I11
I-1
t(dtRp64
sa(dp65
g36
I1
sS'c'
F1
sg29
F0
sg37
S'England'
p66
sg39
I318
sg32
F1
sg31
F1
sS's'
F0
sg40
S'The Oval'
p67
sg42
g43
((I2013
I6
I27
I0
I0
I0
I3
I178
I-1
t(dtRp68
sa(dp69
g36
I2
sS'c'
F0
sg29
F0
sg37
S'England'
p70
sg39
I317
sg32
F0
sg31
F0
sS's'
F0
sg40
S'The Oval'
p71
sg42
g43
((I2013
I6
I25
I0
I0
I0
I1
I176
I-1
t(dtRp72
sa(dp73
g36
I2
sS'c'
F0
sg29
F0
sg37
S'England'
p74
sg39
I304
sg32
F0
sg31
F0
sS's'
F0
sg40
S'Wellington'
p75
sg42
g43
((I2013
I2
I15
I0
I0
I0
I4
I46
I-1
t(dtRp76
sa(dp77
g36
I2
sS'c'
F0
sg29
F0
sg37
S'England'
p78
sg39
I302
sg32
F0
sg31
F0
sS's'
F0
sg40
S'Hamilton'
p79
sg42
g43
((I2013
I2
I12
I0
I0
I0
I1
I43
I-1
t(dtRp80
sa(dp81
g36
I1
sS'c'
F2
sg29
F2
sg37
S'England'
p82
sg39
I301
sg32
F0
sg31
F3
sS's'
F1
sg40
S'Auckland'
p83
sg42
g43
((I2013
I2
I9
I0
I0
I0
I5
I40
I-1
t(dtRp84
sa(dp85
g36
I1
sS'c'
F0
sg29
F0
sg37
S'South Africa'
p86
sg39
I297
sg32
F0
sg31
F0
sS's'
F0
sg40
S'Port Elizabeth'
p87
sg42
g43
((I2012
I12
I26
I0
I0
I0
I2
I361
I-1
t(dtRp88
sa(dp89
g36
I1
sS'c'
F0
sg29
F0
sg37
S'South Africa'
p90
sg39
I295
sg32
F0
sg31
F0
sS's'
F0
sg40
S'East London'
p91
sg42
g43
((I2012
I12
I23
I0
I0
I0
I6
I358
I-1
t(dtRp92
sa(dp93
g36
I2
sS'c'
F0
sg29
F0
sg37
S'South Africa'
p94
sg39
I293
sg32
F0
sg31
F0
sS's'
F0
sg40
S'Durban'
p95
sg42
g43
((I2012
I12
I21
I0
I0
I0
I4
I356
I-1
t(dtRp96
sa(dp97
g36
I2
sS'c'
F0
sg29
F0
sg37
S'Sri Lanka'
p98
sg39
I290
sg32
F0
sg31
F0
sS's'
F0
sg40
S'Pallekele'
p99
sg42
g43
((I2012
I10
I30
I0
I0
I0
I1
I304
I-1
t(dtRp100
sa(dp101
g36
I1
sS'c'
F1
sg29
F1
sg37
S'West Indies'
p102
sg39
I283
sg32
F0
sg31
F1
sS's'
F0
sg40
S'Pallekele'
p103
sg42
g43
((I2012
I10
I1
I0
I0
I0
I0
I275
I-1
t(dtRp104
sa(dp105
g36
I2
sS'c'
F0
sg29
F0
sg37
S'England'
p106
sg39
I279
sg32
F0
sg31
F0
sS's'
F0
sg40
S'Pallekele'
p107
sg42
g43
((I2012
I9
I29
I0
I0
I0
I5
I273
I-1
t(dtRp108
sa(dp109
g36
I2
sS'c'
F0
sg29
F0
sg37
S'Sri Lanka'
p110
sg39
I275
sg32
F0
sg31
F0
sS's'
F0
sg40
S'Pallekele'
p111
sg42
g43
((I2012
I9
I27
I0
I0
I0
I3
I271
I-1
t(dtRp112
sa(dp113
g36
I1
sS'c'
F0
sg29
F0
sg37
S'Pakistan'
p114
sg39
I271
sg32
F0
sg31
F0
sS's'
F0
sg40
S'Pallekele'
p115
sg42
g43
((I2012
I9
I23
I0
I0
I0
I6
I267
I-1
t(dtRp116
sa(dp117
g36
I2
sS'c'
F0
sg29
F0
sg37
S'Bangladesh'
p118
sg39
I267
sg32
F0
sg31
F0
sS's'
F0
sg40
S'Pallekele'
p119
sg42
g43
((I2012
I9
I21
I0
I0
I0
I4
I265
I-1
t(dtRp120
sa(dp121
g36
I2
sS'c'
F0
sg29
F0
sg37
S'India'
p122
sg39
I261
sg32
F0
sg31
F0
sS's'
F0
sg40
S'Chennai'
p123
sg42
g43
((I2012
I9
I11
I0
I0
I0
I1
I255
I-1
t(dtRp124
sa(dp125
g36
I1
sS'c'
F1
sg29
F1
sg37
S'South Africa'
p126
sg39
I223
sg32
F0
sg31
F1
sS's'
F0
sg40
S'Auckland'
p127
sg42
g43
((I2012
I2
I22
I0
I0
I0
I2
I53
I-1
t(dtRp128
sa(dp129
g36
I2
sS'c'
F0
sg29
F0
sg37
S'South Africa'
p130
sg39
I222
sg32
F0
sg31
F1
sS's'
F1
sg40
S'Hamilton'
p131
sg42
g43
((I2012
I2
I19
I0
I0
I0
I6
I50
I-1
t(dtRp132
sa(dp133
g36
I1
sS'c'
F0
sg29
F0
sg37
S'South Africa'
p134
sg39
I221
sg32
F0
sg31
F1
sS's'
F1
sg40
S'Wellington'
p135
sg42
g43
((I2012
I2
I17
I0
I0
I0
I4
I48
I-1
t(dtRp136
sa(dp137
g36
I1
sS'c'
F0
sg29
F0
sg37
S'Zimbabwe'
p138
sg39
I220
sg32
F0
sg31
F0
sS's'
F0
sg40
S'Hamilton'
p139
sg42
g43
((I2012
I2
I14
I0
I0
I0
I1
I45
I-1
t(dtRp140
sa(dp141
g36
I1
sS'c'
F0
sg29
F0
sg37
S'Zimbabwe'
p142
sg39
I219
sg32
F0
sg31
F0
sS's'
F0
sg40
S'Auckland'
p143
sg42
g43
((I2012
I2
I11
I0
I0
I0
I5
I42
I-1
t(dtRp144
sa(dp145
g36
I2
sS'c'
F2
sg29
F2
sg37
S'Zimbabwe'
p146
sg39
I213
sg32
F0
sg31
F3
sS's'
F1
sg40
S'Harare'
p147
sg42
g43
((I2011
I10
I17
I0
I0
I0
I0
I290
I-1
t(dtRp148
sa(dp149
g36
I1
sS'c'
F2
sg29
F2
sg37
S'Zimbabwe'
p150
sg39
I211
sg32
F0
sg31
F2
sS's'
F0
sg40
S'Harare'
p151
sg42
g43
((I2011
I10
I15
I0
I0
I0
I5
I288
I-1
t(dtRp152
sa(dp153
g36
I2
sS'c'
F1
sg29
F0
sg37
S'Sri Lanka'
p154
sg39
I181
sg32
F1
sg31
F1
sS's'
F0
sg40
S'Lauderhill'
p155
sg42
g43
((I2010
I5
I23
I0
I0
I0
I6
I143
I-1
t(dtRp156
sa(dp157
g36
I2
sS'c'
F2
sg29
F2
sg37
S'Sri Lanka'
p158
sg39
I180
sg32
F0
sg31
F2
sS's'
F0
sg40
S'Lauderhill'
p159
sg42
g43
((I2010
I5
I22
I0
I0
I0
I5
I142
I-1
t(dtRp160
sa(dp161
g36
I2
sS'c'
F1
sg29
F0
sg37
S'England'
p162
sg39
I172
sg32
F1
sg31
F1
sS's'
F0
sg40
S'Gros Islet'
p163
sg42
g43
((I2010
I5
I10
I0
I0
I0
I0
I130
I-1
t(dtRp164
sa(dp165
g36
I2
sS'c'
F0
sg29
F0
sg37
S'Pakistan'
p166
sg39
I167
sg32
F0
sg31
F0
sS's'
F0
sg40
S'Bridgetown'
p167
sg42
g43
((I2010
I5
I8
I0
I0
I0
I5
I128
I-1
t(dtRp168
sa(dp169
g36
I1
sS'c'
F1
sg29
F0
sg37
S'South Africa'
p170
sg39
I164
sg32
F1
sg31
F1
sS's'
F0
sg40
S'Bridgetown'
p171
sg42
g43
((I2010
I5
I6
I0
I0
I0
I3
I126
I-1
t(dtRp172
sa(dp173
g36
I1
sS'c'
F0
sg29
F0
sg37
S'Zimbabwe'
p174
sg39
I159
sg32
F0
sg31
F0
sS's'
F0
sg40
S'Providence'
p175
sg42
g43
((I2010
I5
I4
I0
I0
I0
I1
I124
I-1
t(dtRp176
sa(dp177
g36
I1
sS'c'
F0
sg29
F0
sg37
S'Sri Lanka'
p178
sg39
I151
sg32
F0
sg31
F0
sS's'
F0
sg40
S'Providence'
p179
sg42
g43
((I2010
I4
I30
I0
I0
I0
I4
I120
I-1
t(dtRp180
sa(dp181
g36
I2
sS'c'
F0
sg29
F0
sg37
S'Australia'
p182
sg39
I149
sg32
F0
sg31
F0
sS's'
F0
sg40
S'Christchurch'
p183
sg42
g43
((I2010
I2
I28
I0
I0
I0
I6
I59
I-1
t(dtRp184
sa(dp185
g36
I2
sS'c'
F0
sg29
F0
sg37
S'Australia'
p186
sg39
I148
sg32
F0
sg31
F0
sS's'
F0
sg40
S'Wellington'
p187
sg42
g43
((I2010
I2
I26
I0
I0
I0
I4
I57
I-1
t(dtRp188
sa(dp189
g36
I1
sS'c'
F1
sg29
F1
sg37
S'Bangladesh'
p190
sg39
I131
sg32
F0
sg31
F2
sS's'
F1
sg40
S'Hamilton'
p191
sg42
g43
((I2010
I2
I3
I0
I0
I0
I2
I34
I-1
t(dtRp192
sa(dp193
g36
I1
sS'c'
F0
sg29
F0
sg37
S'Pakistan'
p194
sg39
I123
sg32
F0
sg31
F0
sS's'
F0
sg40
S'Dubai (DSC)'
p195
sg42
g43
((I2009
I11
I13
I0
I0
I0
I4
I317
I-1
t(dtRp196
sa(dp197
g36
I1
sS'c'
F0
sg29
F0
sg37
S'Pakistan'
p198
sg39
I122
sg32
F0
sg31
F0
sS's'
F0
sg40
S'Dubai (DSC)'
p199
sg42
g43
((I2009
I11
I12
I0
I0
I0
I3
I316
I-1
t(dtRp200
sa(dp201
g36
I2
sS'c'
F0
sg29
F0
sg37
S'Sri Lanka'
p202
sg39
I121
sg32
F0
sg31
F0
sS's'
F0
sg40
S'Colombo (RPS)'
p203
sg42
g43
((I2009
I9
I4
I0
I0
I0
I4
I247
I-1
t(dtRp204
sa(dp205
g36
I2
sS'c'
F2
sg29
F0
sg37
S'Sri Lanka'
p206
sg39
I120
sg32
F2
sg31
F2
sS's'
F0
sg40
S'Colombo (RPS)'
p207
sg42
g43
((I2009
I9
I2
I0
I0
I0
I2
I245
I-1
t(dtRp208
sa(dp209
g36
I1
sS'c'
F1
sg29
F0
sg37
S'Sri Lanka'
p210
sg39
I112
sg32
F1
sg31
F1
sS's'
F0
sg40
S'Nottingham'
p211
sg42
g43
((I2009
I6
I16
I0
I0
I0
I1
I167
I-1
t(dtRp212
sa(dp213
g36
I2
sS'c'
F1
sg29
F0
sg37
S'Pakistan'
p214
sg39
I107
sg32
F1
sg31
F1
sS's'
F0
sg40
S'The Oval'
p215
sg42
g43
((I2009
I6
I13
I0
I0
I0
I5
I164
I-1
t(dtRp216
sa(dp217
g36
I2
sS'c'
F1
sg29
F0
sg37
S'Ireland'
p218
sg39
I102
sg32
F1
sg31
F1
sS's'
F0
sg40
S'Nottingham'
p219
sg42
g43
((I2009
I6
I11
I0
I0
I0
I3
I162
I-1
t(dtRp220
sa(dp221
g36
I1
sS'c'
F1
sg29
F0
sg37
S'South Africa'
p222
sg39
I99
sg32
F1
sg31
F1
sS's'
F0
sg40
S"Lord's"
p223
sg42
g43
((I2009
I6
I9
I0
I0
I0
I1
I160
I-1
t(dtRp224
sa(dp225
g36
I1
sS'c'
F0
sg29
F0
sg37
S'Scotland'
p226
sg39
I91
sg32
F0
sg31
F0
sS's'
F0
sg40
S'The Oval'
p227
sg42
g43
((I2009
I6
I6
I0
I0
I0
I5
I157
I-1
t(dtRp228
sa(dp229
g36
I1
sS'c'
F1
sg29
F1
sg37
S'India'
p230
sg39
I85
sg32
F0
sg31
F1
sS's'
F0
sg40
S'Wellington'
p231
sg42
g43
((I2009
I2
I27
I0
I0
I0
I4
I58
I-1
t(dtRp232
sa(dp233
g36
I1
sS'c'
F1
sg29
F1
sg37
S'India'
p234
sg39
I84
sg32
F0
sg31
F1
sS's'
F0
sg40
S'Christchurch'
p235
sg42
g43
((I2009
I2
I25
I0
I0
I0
I2
I56
I-1
t(dtRp236
sa(dp237
g36
I1
sS'c'
F0
sg29
F0
sg37
S'Australia'
p238
sg39
I83
sg32
F0
sg31
F0
sS's'
F0
sg40
S'Sydney'
p239
sg42
g43
((I2009
I2
I15
I0
I0
I0
I6
I46
I-1
t(dtRp240
sa(dp241
g36
I2
sS'c'
F0
sg29
F0
sg37
S'West Indies'
p242
sg39
I79
sg32
F0
sg31
F0
sS's'
F0
sg40
S'Hamilton'
p243
sg42
g43
((I2008
I12
I28
I0
I0
I0
I6
I363
I-1
t(dtRp244
sa(dp245
g36
I2
sS'c'
F2
sg29
F2
sg37
S'West Indies'
p246
sg39
I78
sg32
F0
sg31
F2
sS's'
F0
sg40
S'Auckland'
p247
sg42
g43
((I2008
I12
I26
I0
I0
I0
I4
I361
I-1
t(dtRp248
sa(dp249
g36
I2
sS'c'
F0
sg29
F0
sg37
S'England'
p250
sg39
I56
sg32
F0
sg31
F0
sS's'
F0
sg40
S'Manchester'
p251
sg42
g43
((I2008
I6
I13
I0
I0
I0
I4
I165
I-1
t(dtRp252
sa(dp253
g36
I1
sS'c'
F0
sg29
F0
sg37
S'England'
p254
sg39
I54
sg32
F0
sg31
F0
sS's'
F0
sg40
S'Christchurch'
p255
sg42
g43
((I2008
I2
I7
I0
I0
I0
I3
I38
I-1
t(dtRp256
sa(dp257
g36
I1
sS'c'
F1
sg29
F1
sg37
S'England'
p258
sg39
I53
sg32
F0
sg31
F1
sS's'
F0
sg40
S'Auckland'
p259
sg42
g43
((I2008
I2
I5
I0
I0
I0
I1
I36
I-1
t(dtRp260
sa(dp261
g36
I1
sS'c'
F0
sg29
F0
sg37
S'Australia'
p262
sg39
I49
sg32
F0
sg31
F1
sS's'
F1
sg40
S'Perth'
p263
sg42
g43
((I2007
I12
I11
I0
I0
I0
I1
I345
I-1
t(dtRp264
sa(dp265
g36
I2
sS'c'
F1
sg29
F1
sg37
S'South Africa'
p266
sg39
I48
sg32
F0
sg31
F2
sS's'
F1
sg40
S'Johannesburg'
p267
sg42
g43
((I2007
I11
I23
I0
I0
I0
I4
I327
I-1
t(dtRp268
sa(dp269
g36
I2
sS'c'
F1
sg29
F1
sg37
S'Pakistan'
p270
sg39
I44
sg32
F0
sg31
F1
sS's'
F0
sg40
S'Cape Town'
p271
sg42
g43
((I2007
I9
I22
I0
I0
I0
I5
I265
I-1
t(dtRp272
sa(dp273
g36
I2
sS'c'
F3
sg29
F3
sg37
S'South Africa'
p274
sg39
I39
sg32
F0
sg31
F3
sS's'
F0
sg40
S'Durban'
p275
sg42
g43
((I2007
I9
I19
I0
I0
I0
I2
I262
I-1
t(dtRp276
sa(dp277
g36
I2
sS'c'
F0
sg29
F0
sg37
S'England'
p278
sg39
I36
sg32
F0
sg31
F0
sS's'
F0
sg40
S'Durban'
p279
sg42
g43
((I2007
I9
I18
I0
I0
I0
I1
I261
I-1
t(dtRp280
sa(dp281
g36
I2
sS'c'
F1
sg29
F1
sg37
S'India'
p282
sg39
I32
sg32
F0
sg31
F1
sS's'
F0
sg40
S'Johannesburg'
p283
sg42
g43
((I2007
I9
I16
I0
I0
I0
I6
I259
I-1
t(dtRp284
sa(dp285
g36
I2
sS'c'
F0
sg29
F0
sg37
S'Sri Lanka'
p286
sg39
I30
sg32
F0
sg31
F0
sS's'
F0
sg40
S'Johannesburg'
p287
sg42
g43
((I2007
I9
I15
I0
I0
I0
I5
I258
I-1
t(dtRp288
sa(dp289
g36
I1
sS'c'
F0
sg29
F0
sg37
S'Kenya'
p290
sg39
I21
sg32
F0
sg31
F1
sS's'
F1
sg40
S'Durban'
p291
sg42
g43
((I2007
I9
I12
I0
I0
I0
I2
I255
I-1
t(dtRp292
sa(dp293
g36
I1
sS'c'
F0
sg29
F0
sg37
S'Sri Lanka'
p294
sg39
I12
sg32
F0
sg31
F0
sS's'
F0
sg40
S'Auckland'
p295
sg42
g43
((I2006
I12
I26
I0
I0
I0
I1
I360
I-1
t(dtRp296
sa(dp297
g36
I2
sS'c'
F0
sg29
F0
sg37
S'Sri Lanka'
p298
sg39
I11
sg32
F0
sg31
F0
sS's'
F0
sg40
S'Wellington'
p299
sg42
g43
((I2006
I12
I22
I0
I0
I0
I4
I356
I-1
t(dtRp300
sa(dp301
g36
I1
sS'c'
F0
sg29
F0
sg37
S'West Indies'
p302
sg39
I5
sg32
F0
sg31
F0
sS's'
F0
sg40
S'Auckland'
p303
sg42
g43
((I2006
I2
I16
I0
I0
I0
I3
I47
I-1
t(dtRp304
sa(dp305
g36
I1
sS'c'
F1
sg29
F1
sg37
S'South Africa'
p306
sg39
I3
sg32
F0
sg31
F1
sS's'
F0
sg40
S'Johannesburg'
p307
sg42
g43
((I2005
I10
I21
I0
I0
I0
I4
I294
I-1
t(dtRp308
sa(dp309
g36
I1
sS'c'
F1
sg29
F1
sg37
S'Australia'
p310
sg39
I1
sg32
F0
sg31
F1
sS's'
F0
sg40
S'Auckland'
p311
sg42
g43
((I2005
I2
I17
I0
I0
I0
I3
I48
I-1
t(dtRp312
satp313
sS'bowlingStats'
p314
((dp315
S'a'
F-1
sS'b'
F0
sS'e'
F-1
sS'i'
F0
sS'sr'
p316
F-1
sS'5w'
p317
F0
sS'm'
F68
sS'maid'
p318
F0
sS'r'
F0
sS'w'
F0
sS'4w'
p319
F0
sS'bbir'
p320
F-1
sS'bbiw'
p321
F-1
sg33
F2014
sg30
F2005
s(ltp322
sS'battingStats'
p323
((dp324
S'a'
F35.859649122807021
sS'0s'
p325
F3
sS'b'
F1505
sS'no'
p326
F10
sg30
F2005
sS'hs'
p327
F123
sS'm'
F68
sS'4s'
p328
F192
sg33
F2014
sS'i'
F67
sS'6s'
p329
F85
sg316
F135.81395348837211
sS'r'
F2044
sS'100s'
p330
F2
sS'50s'
p331
F13
s(lp332
(dp333
g36
I2
sS'b'
F5
sg37
S'Sri Lanka'
p334
sg316
F0
sg39
I395
sS'dismiss'
p335
S'stumped'
p336
sg328
F0
sS'pos'
p337
I3
sg329
F0
sg40
S'Chittagong'
p338
sg42
g43
((I2014
I3
I31
I0
I0
I0
I0
I90
I-1
t(dtRp339
sS'r'
F0
sS'minutes'
p340
F4
sa(dp341
g36
I2
sS'b'
F45
sg37
S'Netherlands'
p342
sg316
F144.44444444444446
sg39
I390
sg335
S'caught'
p343
sg328
F4
sg337
I3
sg329
F3
sg40
S'Chittagong'
p344
sg42
g43
((I2014
I3
I29
I0
I0
I0
I5
I88
I-1
t(dtRp345
sS'r'
F65
sg340
F61
sa(dp346
g36
I2
sS'b'
F4
sg37
S'South Africa'
p347
sg316
F100
sg39
I383
sg335
S'stumped'
p348
sg328
F0
sg337
I3
sg329
F0
sg40
S'Chittagong'
p349
sg42
g43
((I2014
I3
I24
I0
I0
I0
I0
I83
I-1
t(dtRp350
sS'r'
F4
sg340
F4
sa(dp351
g36
I2
sS'b'
F6
sg37
S'England'
p352
sg326
I01
sg316
F266.66666666666669
sg39
I380
sg335
S'not out'
p353
sg328
F1
sg337
I3
sg329
F2
sg40
S'Chittagong'
p354
sg42
g43
((I2014
I3
I22
I0
I0
I0
I5
I81
I-1
t(dtRp355
sS'r'
F16
sg340
F13
sa(dp356
g36
I2
sS'b'
F11
sg37
S'West Indies'
p357
sg316
F154.54545454545453
sg39
I353
sg335
S'lbw'
p358
sg328
F2
sg337
I3
sg329
F1
sg40
S'Wellington'
p359
sg42
g43
((I2014
I1
I15
I0
I0
I0
I2
I15
I-1
t(dtRp360
sS'r'
F17
sg340
F22
sa(dp361
g36
I1
sS'b'
F45
sg37
S'West Indies'
p362
sg326
I01
sg316
F133.33333333333334
sg39
I352
sg335
S'not out'
p363
sg328
F2
sg337
I3
sg329
F4
sg40
S'Auckland'
p364
sg42
g43
((I2014
I1
I11
I0
I0
I0
I5
I11
I-1
t(dtRp365
sS'r'
F60
sg340
F67
sa(dp366
g36
I1
sS'b'
F48
sg37
S'England'
p367
sg316
F141.66666666666666
sg39
I317
sg335
S'bowled'
p368
sg328
F7
sg337
I3
sg329
F2
sg40
S'The Oval'
p369
sg42
g43
((I2013
I6
I25
I0
I0
I0
I1
I176
I-1
t(dtRp370
sS'r'
F68
sg340
F71
sa(dp371
g36
I1
sS'b'
F20
sg37
S'England'
p372
sg316
F130
sg39
I304
sg335
S'caught'
p373
sg328
F3
sg337
I3
sg329
F0
sg40
S'Wellington'
p374
sg42
g43
((I2013
I2
I15
I0
I0
I0
I4
I46
I-1
t(dtRp375
sS'r'
F26
sg340
F24
sa(dp376
g36
I1
sS'b'
F38
sg37
S'England'
p377
sg316
F194.73684210526315
sg39
I302
sg335
S'caught'
p378
sg328
F6
sg337
I3
sg329
F5
sg40
S'Hamilton'
p379
sg42
g43
((I2013
I2
I12
I0
I0
I0
I1
I43
I-1
t(dtRp380
sS'r'
F74
sg340
F56
sa(dp381
g36
I2
sS'b'
F5
sg37
S'England'
p382
sg316
F200
sg39
I301
sg335
S'caught'
p383
sg328
F2
sg337
I3
sg329
F0
sg40
S'Auckland'
p384
sg42
g43
((I2013
I2
I9
I0
I0
I0
I5
I40
I-1
t(dtRp385
sS'r'
F10
sg340
F6
sa(dp386
g36
I2
sS'b'
F22
sg37
S'South Africa'
p387
sg316
F113.63636363636364
sg39
I297
sg335
S'caught'
p388
sg328
F3
sg337
I3
sg329
F1
sg40
S'Port Elizabeth'
p389
sg42
g43
((I2012
I12
I26
I0
I0
I0
I2
I361
I-1
t(dtRp390
sS'r'
F25
sg340
F31
sa(dp391
g36
I2
sS'b'
F15
sg37
S'South Africa'
p392
sg316
F113.33333333333333
sg39
I295
sg335
S'caught'
p393
sg328
F2
sg337
I3
sg329
F0
sg40
S'East London'
p394
sg42
g43
((I2012
I12
I23
I0
I0
I0
I6
I358
I-1
t(dtRp395
sS'r'
F17
sg340
F17
sa(dp396
g36
I1
sS'b'
F11
sg37
S'South Africa'
p397
sg316
F54.545454545454547
sg39
I293
sg335
S'caught'
p398
sg328
F1
sg337
I3
sg329
F0
sg40
S'Durban'
p399
sg42
g43
((I2012
I12
I21
I0
I0
I0
I4
I356
I-1
t(dtRp400
sS'r'
F6
sg340
F12
sa(dp401
g36
I1
sS'b'
F10
sg37
S'Sri Lanka'
p402
sg316
F10
sg39
I290
sg335
S'caught'
p403
sg328
F0
sg337
I3
sg329
F0
sg40
S'Pallekele'
p404
sg42
g43
((I2012
I10
I30
I0
I0
I0
I1
I304
I-1
t(dtRp405
sS'r'
F1
sg340
F11
sa(dp406
g36
I2
sS'b'
F18
sg37
S'West Indies'
p407
sg316
F122.22222222222223
sg39
I283
sg335
S'bowled'
p408
sg328
F3
sg337
I3
sg329
F0
sg40
S'Pallekele'
p409
sg42
g43
((I2012
I10
I1
I0
I0
I0
I0
I275
I-1
t(dtRp410
sS'r'
F22
sg340
F20
sa(dp411
g36
I1
sS'b'
F10
sg37
S'England'
p412
sg316
F100
sg39
I279
sg335
S'caught'
p413
sg328
F2
sg337
I3
sg329
F0
sg40
S'Pallekele'
p414
sg42
g43
((I2012
I9
I29
I0
I0
I0
I5
I273
I-1
t(dtRp415
sS'r'
F10
sg340
F11
sa(dp416
g36
I1
sS'b'
F16
sg37
S'Sri Lanka'
p417
sg316
F156.25
sg39
I275
sg335
S'caught'
p418
sg328
F0
sg337
I3
sg329
F2
sg40
S'Pallekele'
p419
sg42
g43
((I2012
I9
I27
I0
I0
I0
I3
I271
I-1
t(dtRp420
sS'r'
F25
sg340
F22
sa(dp421
g36
I2
sS'b'
F31
sg37
S'Pakistan'
p422
sg316
F103.2258064516129
sg39
I271
sg335
S'bowled'
p423
sg328
F4
sg337
I3
sg329
F1
sg40
S'Pallekele'
p424
sg42
g43
((I2012
I9
I23
I0
I0
I0
I6
I267
I-1
t(dtRp425
sS'r'
F32
sg340
F37
sa(dp426
g36
I1
sS'b'
F58
sg37
S'Bangladesh'
p427
sg316
F212.06896551724137
sg39
I267
sg335
S'caught'
p428
sg328
F11
sg337
I3
sg329
F7
sg40
S'Pallekele'
p429
sg42
g43
((I2012
I9
I21
I0
I0
I0
I4
I265
I-1
t(dtRp430
sS'r'
F123
sg340
F72
sa(dp431
g36
I1
sS'b'
F55
sg37
S'India'
p432
sg316
F165.45454545454547
sg39
I261
sg335
S'bowled'
p433
sg328
F11
sg337
I3
sg329
F3
sg40
S'Chennai'
p434
sg42
g43
((I2012
I9
I11
I0
I0
I0
I1
I255
I-1
t(dtRp435
sS'r'
F91
sg340
F67
sa(dp436
g36
I2
sS'b'
F19
sg37
S'South Africa'
p437
sg316
F94.736842105263165
sg39
I223
sg335
S'caught'
p438
sg328
F1
sg337
I4
sg329
F1
sg40
S'Auckland'
p439
sg42
g43
((I2012
I2
I22
I0
I0
I0
I2
I53
I-1
t(dtRp440
sS'r'
F18
sg340
F20
sa(dp441
g36
I1
sS'b'
F31
sg37
S'South Africa'
p442
sg316
F112.90322580645162
sg39
I222
sg335
S'caught'
p443
sg328
F4
sg337
I3
sg329
F1
sg40
S'Hamilton'
p444
sg42
g43
((I2012
I2
I19
I0
I0
I0
I6
I50
I-1
t(dtRp445
sS'r'
F35
sg340
F39
sa(dp446
g36
I2
sS'b'
F17
sg37
S'South Africa'
p447
sg316
F94.117647058823536
sg39
I221
sg335
S'bowled'
p448
sg328
F0
sg337
I3
sg329
F0
sg40
S'Wellington'
p449
sg42
g43
((I2012
I2
I17
I0
I0
I0
I4
I48
I-1
t(dtRp450
sS'r'
F16
sg340
F26
sa(dp451
g36
I2
sS'b'
F24
sg37
S'Zimbabwe'
p452
sg316
F158.33333333333334
sg39
I220
sg335
S'caught'
p453
sg328
F4
sg337
I3
sg329
F1
sg40
S'Hamilton'
p454
sg42
g43
((I2012
I2
I14
I0
I0
I0
I1
I45
I-1
t(dtRp455
sS'r'
F38
sg340
F38
sa(dp456
g36
I2
sS'b'
F1
sg37
S'Zimbabwe'
p457
sg316
F0
sg39
I219
sg335
S'caught'
p458
sg328
F0
sg337
I3
sg329
F0
sg40
S'Auckland'
p459
sg42
g43
((I2012
I2
I11
I0
I0
I0
I5
I42
I-1
t(dtRp460
sS'r'
F0
sg340
F1
sa(dp461
g36
I1
sS'b'
F37
sg37
S'Zimbabwe'
p462
sg316
F172.97297297297297
sg39
I213
sg335
S'bowled'
p463
sg328
F2
sg337
I1
sg329
F6
sg40
S'Harare'
p464
sg42
g43
((I2011
I10
I17
I0
I0
I0
I0
I290
I-1
t(dtRp465
sS'r'
F64
sg340
F46
sa(dp466
g36
I2
sS'b'
F46
sg37
S'Zimbabwe'
p467
sg326
I01
sg316
F176.08695652173913
sg39
I211
sg335
S'not out'
p468
sg328
F5
sg337
I2
sg329
F6
sg40
S'Harare'
p469
sg42
g43
((I2011
I10
I15
I0
I0
I0
I5
I288
I-1
t(dtRp470
sS'r'
F81
sg340
F54
sa(dp471
g36
I1
sS'b'
F7
sg37
S'Sri Lanka'
p472
sg316
F14.285714285714286
sg39
I181
sg335
S'bowled'
p473
sg328
F0
sg337
I1
sg329
F0
sg40
S'Lauderhill'
p474
sg42
g43
((I2010
I5
I23
I0
I0
I0
I6
I143
I-1
t(dtRp475
sS'r'
F1
sg340
F5
sa(dp476
g36
I1
sS'b'
F13
sg37
S'Sri Lanka'
p477
sg316
F138.46153846153845
sg39
I180
sg335
S'caught'
p478
sg328
F2
sg337
I1
sg329
F1
sg40
S'Lauderhill'
p479
sg42
g43
((I2010
I5
I22
I0
I0
I0
I5
I142
I-1
t(dtRp480
sS'r'
F18
sg340
F14
sa(dp481
g36
I1
sS'b'
F32
sg37
S'England'
p482
sg316
F103.125
sg39
I172
sg335
S'caught'
p483
sg328
F4
sg337
I1
sg329
F0
sg40
S'Gros Islet'
p484
sg42
g43
((I2010
I5
I10
I0
I0
I0
I0
I130
I-1
t(dtRp485
sS'r'
F33
sg340
F46
sa(dp486
g36
I1
sS'b'
F29
sg37
S'Pakistan'
p487
sg316
F113.79310344827586
sg39
I167
sg335
S'caught'
p488
sg328
F5
sg337
I1
sg329
F0
sg40
S'Bridgetown'
p489
sg42
g43
((I2010
I5
I8
I0
I0
I0
I5
I128
I-1
t(dtRp490
sS'r'
F33
sg340
F36
sa(dp491
g36
I2
sS'b'
F5
sg37
S'South Africa'
p492
sg316
F120
sg39
I164
sg335
S'caught'
p493
sg328
F1
sg337
I1
sg329
F0
sg40
S'Bridgetown'
p494
sg42
g43
((I2010
I5
I6
I0
I0
I0
I3
I126
I-1
t(dtRp495
sS'r'
F6
sg340
F3
sa(dp496
g36
I2
sS'b'
F26
sg37
S'Zimbabwe'
p497
sg326
I01
sg316
F84.615384615384613
sg39
I159
sg335
S'not out'
p498
sg328
F2
sg337
I1
sg329
F0
sg40
S'Providence'
p499
sg42
g43
((I2010
I5
I4
I0
I0
I0
I1
I124
I-1
t(dtRp500
sS'r'
F22
sg340
F28
sa(dp501
g36
I2
sS'b'
F4
sg37
S'Sri Lanka'
p502
sg316
F0
sg39
I151
sg335
S'caught'
p503
sg328
F0
sg337
I1
sg329
F0
sg40
S'Providence'
p504
sg42
g43
((I2010
I4
I30
I0
I0
I0
I4
I120
I-1
t(dtRp505
sS'r'
F0
sg340
F1
sa(dp506
g36
I1
sS'b'
F56
sg37
S'Australia'
p507
sg326
I01
sg316
F207.14285714285714
sg39
I149
sg335
S'not out'
p508
sg328
F12
sg337
I1
sg329
F8
sg40
S'Christchurch'
p509
sg42
g43
((I2010
I2
I28
I0
I0
I0
I6
I59
I-1
t(dtRp510
sS'r'
F116
sg340
F87
sa(dp511
g36
I1
sS'b'
F4
sg37
S'Australia'
p512
sg316
F50
sg39
I148
sg335
S'caught'
p513
sg328
F0
sg337
I1
sg329
F0
sg40
S'Wellington'
p514
sg42
g43
((I2010
I2
I26
I0
I0
I0
I4
I57
I-1
t(dtRp515
sS'r'
F2
sg340
F2
sa(dp516
g36
I2
sS'b'
F27
sg37
S'Bangladesh'
p517
sg326
I01
sg316
F207.40740740740742
sg39
I131
sg335
S'not out'
p518
sg328
F7
sg337
I1
sg329
F2
sg40
S'Hamilton'
p519
sg42
g43
((I2010
I2
I3
I0
I0
I0
I2
I34
I-1
t(dtRp520
sS'r'
F56
sg340
F35
sa(dp521
g36
I2
sS'b'
F41
sg37
S'Pakistan'
p522
sg316
F114.63414634146342
sg39
I123
sg335
S'caught'
p523
sg328
F3
sg337
I1
sg329
F1
sg40
S'Dubai (DSC)'
p524
sg42
g43
((I2009
I11
I13
I0
I0
I0
I4
I317
I-1
t(dtRp525
sS'r'
F47
sg340
F77
sa(dp526
g36
I2
sS'b'
F13
sg37
S'Pakistan'
p527
sg316
F146.15384615384616
sg39
I122
sg335
S'caught'
p528
sg328
F3
sg337
I1
sg329
F0
sg40
S'Dubai (DSC)'
p529
sg42
g43
((I2009
I11
I12
I0
I0
I0
I3
I316
I-1
t(dtRp530
sS'r'
F19
sg340
F14
sa(dp531
g36
I1
sS'b'
F34
sg37
S'Sri Lanka'
p532
sg316
F144.11764705882354
sg39
I121
sg335
S'caught'
p533
sg328
F4
sg337
I1
sg329
F2
sg40
S'Colombo (RPS)'
p534
sg42
g43
((I2009
I9
I4
I0
I0
I0
I4
I247
I-1
t(dtRp535
sS'r'
F49
sg340
F44
sa(dp536
g36
I1
sS'b'
F9
sg37
S'Sri Lanka'
p537
sg316
F100
sg39
I120
sg335
S'run out'
p538
sg328
F0
sg337
I1
sg329
F1
sg40
S'Colombo (RPS)'
p539
sg42
g43
((I2009
I9
I2
I0
I0
I0
I2
I245
I-1
t(dtRp540
sS'r'
F9
sg340
F11
sa(dp541
g36
I2
sS'b'
F12
sg37
S'Sri Lanka'
p542
sg316
F83.333333333333329
sg39
I112
sg335
S'caught'
p543
sg328
F2
sg337
I1
sg329
F0
sg40
S'Nottingham'
p544
sg42
g43
((I2009
I6
I16
I0
I0
I0
I1
I167
I-1
t(dtRp545
sS'r'
F10
sg340
F11
sa(dp546
g36
I1
sS'b'
F6
sg37
S'Pakistan'
p547
sg316
F200
sg39
I107
sg335
S'caught'
p548
sg328
F2
sg337
I1
sg329
F0
sg40
S'The Oval'
p549
sg42
g43
((I2009
I6
I13
I0
I0
I0
I5
I164
I-1
t(dtRp550
sS'r'
F12
sg340
F8
sa(dp551
g36
I1
sS'b'
F14
sg37
S'Ireland'
p552
sg316
F71.428571428571431
sg39
I102
sg335
S'caught'
p553
sg328
F0
sg337
I1
sg329
F1
sg40
S'Nottingham'
p554
sg42
g43
((I2009
I6
I11
I0
I0
I0
I3
I162
I-1
t(dtRp555
sS'r'
F10
sg340
F21
sa(dp556
g36
I2
sS'b'
F54
sg37
S'South Africa'
p557
sg316
F105.55555555555556
sg39
I99
sg335
S'stumped'
p558
sg328
F6
sg337
I1
sg329
F0
sg40
S"Lord's"
p559
sg42
g43
((I2009
I6
I9
I0
I0
I0
I1
I160
I-1
t(dtRp560
sS'r'
F57
sg340
F74
sa(dp561
g36
I2
sS'b'
F7
sg37
S'Scotland'
p562
sg316
F257.14285714285717
sg39
I91
sg335
S'run out'
p563
sg328
F4
sg337
I1
sg329
F0
sg40
S'The Oval'
p564
sg42
g43
((I2009
I6
I6
I0
I0
I0
I5
I157
I-1
t(dtRp565
sS'r'
F18
sg340
F18
sa(dp566
g36
I2
sS'b'
F55
sg37
S'India'
p567
sg326
I01
sg316
F125.45454545454545
sg39
I85
sg335
S'not out'
p568
sg328
F8
sg337
I2
sg329
F1
sg40
S'Wellington'
p569
sg42
g43
((I2009
I2
I27
I0
I0
I0
I4
I58
I-1
t(dtRp570
sS'r'
F69
sg340
F94
sa(dp571
g36
I2
sS'b'
F49
sg37
S'India'
p572
sg326
I01
sg316
F114.28571428571429
sg39
I84
sg335
S'not out'
p573
sg328
F2
sg337
I2
sg329
F3
sg40
S'Christchurch'
p574
sg42
g43
((I2009
I2
I25
I0
I0
I0
I2
I56
I-1
t(dtRp575
sS'r'
F56
sg340
F88
sa(dp576
g36
I2
sS'b'
F47
sg37
S'Australia'
p577
sg316
F129.78723404255319
sg39
I83
sg335
S'caught'
p578
sg328
F5
sg337
I1
sg329
F2
sg40
S'Sydney'
p579
sg42
g43
((I2009
I2
I15
I0
I0
I0
I6
I46
I-1
t(dtRp580
sS'r'
F61
sg340
F71
sa(dp581
g36
I1
sS'b'
F34
sg37
S'West Indies'
p582
sg316
F173.52941176470588
sg39
I79
sg335
S'caught'
p583
sg328
F6
sg337
I2
sg329
F4
sg40
S'Hamilton'
p584
sg42
g43
((I2008
I12
I28
I0
I0
I0
I6
I363
I-1
t(dtRp585
sS'r'
F59
sg340
F49
sa(dp586
g36
I1
sS'b'
F10
sg37
S'West Indies'
p587
sg316
F140
sg39
I78
sg335
S'caught'
p588
sg328
F3
sg337
I2
sg329
F0
sg40
S'Auckland'
p589
sg42
g43
((I2008
I12
I26
I0
I0
I0
I4
I361
I-1
t(dtRp590
sS'r'
F14
sg340
F13
sa(dp591
g36
I1
sS'b'
F23
sg37
S'England'
p592
sg316
F104.34782608695652
sg39
I56
sg335
S'bowled'
p593
sg328
F1
sg337
I2
sg329
F1
sg40
S'Manchester'
p594
sg42
g43
((I2008
I6
I13
I0
I0
I0
I4
I165
I-1
t(dtRp595
sS'r'
F24
sg340
F45
sa(dp596
g36
I2
sS'b'
F9
sg37
S'England'
p597
sg316
F55.555555555555557
sg39
I54
sg335
S'bowled'
p598
sg328
F0
sg337
I2
sg329
F0
sg40
S'Christchurch'
p599
sg42
g43
((I2008
I2
I7
I0
I0
I0
I3
I38
I-1
t(dtRp600
sS'r'
F5
sg340
F15
sa(dp601
g36
I2
sS'b'
F7
sg37
S'England'
p602
sg316
F128.57142857142858
sg39
I53
sg335
S'caught'
p603
sg328
F0
sg337
I2
sg329
F1
sg40
S'Auckland'
p604
sg42
g43
((I2008
I2
I5
I0
I0
I0
I1
I36
I-1
t(dtRp605
sS'r'
F9
sg340
F10
sa(dp606
g36
I2
sS'b'
F15
sg37
S'Australia'
p607
sg316
F86.666666666666671
sg39
I49
sg335
S'caught'
p608
sg328
F0
sg337
I2
sg329
F1
sg40
S'Perth'
p609
sg42
g43
((I2007
I12
I11
I0
I0
I0
I1
I345
I-1
t(dtRp610
sS'r'
F13
sg340
F23
sa(dp611
g36
I1
sS'b'
F8
sg37
S'South Africa'
p612
sg316
F112.5
sg39
I48
sg335
S'caught'
p613
sg328
F0
sg337
I2
sg329
F1
sg40
S'Johannesburg'
p614
sg42
g43
((I2007
I11
I23
I0
I0
I0
I4
I327
I-1
t(dtRp615
sS'r'
F9
sg340
F9
sa(dp616
g36
I1
sS'b'
F27
sg37
S'Pakistan'
p617
sg316
F96.296296296296291
sg39
I44
sg335
S'lbw'
p618
sg328
F2
sg337
I2
sg329
F0
sg40
S'Cape Town'
p619
sg42
g43
((I2007
I9
I22
I0
I0
I0
I5
I265
I-1
t(dtRp620
sS'r'
F26
sg340
F39
sa(dp621
g36
I1
sS'b'
F26
sg37
S'South Africa'
p622
sg316
F146.15384615384616
sg39
I39
sg335
S'caught'
p623
sg328
F3
sg337
I2
sg329
F2
sg40
S'Durban'
p624
sg42
g43
((I2007
I9
I19
I0
I0
I0
I2
I262
I-1
t(dtRp625
sS'r'
F38
sg340
F34
sa(dp626
g36
I1
sS'b'
F5
sg37
S'England'
p627
sg316
F80
sg39
I36
sg335
S'caught'
p628
sg328
F1
sg337
I2
sg329
F0
sg40
S'Durban'
p629
sg42
g43
((I2007
I9
I18
I0
I0
I0
I1
I261
I-1
t(dtRp630
sS'r'
F4
sg340
F4
sa(dp631
g36
I1
sS'b'
F31
sg37
S'India'
p632
sg316
F145.16129032258064
sg39
I32
sg335
S'caught'
p633
sg328
F9
sg337
I2
sg329
F0
sg40
S'Johannesburg'
p634
sg42
g43
((I2007
I9
I16
I0
I0
I0
I6
I259
I-1
t(dtRp635
sS'r'
F45
sg340
F44
sa(dp636
g36
I1
sS'b'
F12
sg37
S'Sri Lanka'
p637
sg316
F83.333333333333329
sg39
I30
sg335
S'caught'
p638
sg328
F0
sg337
I2
sg329
F0
sg40
S'Johannesburg'
p639
sg42
g43
((I2007
I9
I15
I0
I0
I0
I5
I258
I-1
t(dtRp640
sS'r'
F10
sg340
F16
sa(dp641
g36
I2
sS'b'
F13
sg37
S'Kenya'
p642
sg326
I01
sg316
F123.07692307692308
sg39
I21
sg335
S'not out'
p643
sg328
F1
sg337
I2
sg329
F1
sg40
S'Durban'
p644
sg42
g43
((I2007
I9
I12
I0
I0
I0
I2
I255
I-1
t(dtRp645
sS'r'
F16
sg340
F33
sa(dp646
g36
I2
sS'b'
F28
sg37
S'Sri Lanka'
p647
sg316
F100
sg39
I12
sg335
S'run out'
p648
sg328
F6
sg337
I1
sg329
F0
sg40
S'Auckland'
p649
sg42
g43
((I2006
I12
I26
I0
I0
I0
I1
I360
I-1
t(dtRp650
sS'r'
F28
sg340
F40
sa(dp651
g36
I1
sS'b'
F22
sg37
S'Sri Lanka'
p652
sg316
F177.27272727272728
sg39
I11
sg335
S'caught'
p653
sg328
F2
sg337
I1
sg329
F4
sg40
S'Wellington'
p654
sg42
g43
((I2006
I12
I22
I0
I0
I0
I4
I356
I-1
t(dtRp655
sS'r'
F39
sg340
F33
sa(dp656
g36
I2
sS'b'
F10
sg37
S'West Indies'
p657
sg316
F40
sg39
I5
sg335
S'bowled'
p658
sg328
F0
sg337
I8
sg329
F0
sg40
S'Auckland'
p659
sg42
g43
((I2006
I2
I16
I0
I0
I0
I3
I47
I-1
t(dtRp660
sS'r'
F4
sg340
F8
sa(dp661
g36
I2
sS'b'
F9
sg37
S'South Africa'
p662
sg326
I01
sg316
F188.88888888888889
sg39
I3
sg335
S'not out'
p663
sg328
F1
sg337
I7
sg329
F1
sg40
S'Johannesburg'
p664
sg42
g43
((I2005
I10
I21
I0
I0
I0
I4
I294
I-1
t(dtRp665
sS'r'
F17
sg340
F10
sa(dp666
g36
I2
sS'b'
F24
sg37
S'Australia'
p667
sg316
F150
sg39
I1
sg335
S'caught'
p668
sg328
F5
sg337
I1
sg329
F1
sg40
S'Auckland'
p669
sg42
g43
((I2005
I2
I17
I0
I0
I0
I3
I48
I-1
t(dtRp670
sS'r'
F36
sg340
F29
satp671
ssS'all'
p672
(dp673
g27
(dp674
S'c'
F81
sg29
F0
sS'i'
F176
sS'm'
F176
sS's'
F14
sg31
F95
sg32
F81
ssg314
(dp675
S'a'
F-1
sS'b'
F0
sS'e'
F-1
sS'i'
F0
sg316
F-1
sg317
F0
sS'm'
F176
sg318
F0
sS'r'
F0
sS'w'
F0
sg319
F0
sg320
F-1
sg321
F-1
ssg323
(dp676
S'a'
F32.31818181818182
sg325
F-1
sS'b'
F3682
sg326
F19
sS'i'
F173
sg327
F158
sS'm'
F176
sg328
F475
sg329
F220
sg316
F135.17110266159696
sS'r'
F4977
sg330
F5
sg331
F26
ssssb.