(iplayer
Player
p1
(dp2
S'is_batsman'
p3
I01
sS'name'
p4
S'David Miller'
p5
sS'dob'
p6
S'1989/06/10'
p7
sS'price'
p8
S'1050000'
p9
sS'is_allrounder'
p10
I00
sS'espnid'
p11
S'321777'
p12
sS'is_overseas'
p13
I01
sS'team'
p14
S'KXIP'
p15
sS'nationality'
p16
S'South African'
p17
sS'is_bowler'
p18
I00
sS'is_keeper'
p19
I00
sS'id'
p20
S'187'
p21
sS'is_uncapped'
p22
I00
sS'tournamentStats'
p23
(dp24
S'international'
p25
(dp26
S'fieldingStats'
p27
((dp28
S'c'
F15
sS'ctw'
p29
F0
sS'span_s'
p30
F2010
sS'm'
F26
sS'ctf'
p31
F15
sS'dismissals'
p32
F15
sS'i'
F26
sS's'
F0
sS'span_f'
p33
F2014
s(lp34
(dp35
S'inning'
p36
I2
sS'c'
F0
sg29
F0
sS'opp'
p37
S'India'
p38
sS't20i_num'
p39
I399
sS's'
F0
sg32
F0
sg31
F0
sS'place'
p40
S'Dhaka'
p41
sS'date'
p42
ctime
struct_time
p43
((I2014
I4
I4
I0
I0
I0
I4
I94
I-1
t(dtRp44
sa(dp45
g36
I2
sS'c'
F3
sg29
F0
sg37
S'England'
p46
sg39
I391
sS's'
F0
sg32
F3
sg31
F3
sg40
S'Chittagong'
p47
sg42
g43
((I2014
I3
I29
I0
I0
I0
I5
I88
I-1
t(dtRp48
sa(dp49
g36
I2
sS'c'
F1
sg29
F0
sg37
S'Netherlands'
p50
sg39
I386
sS's'
F0
sg32
F1
sg31
F1
sg40
S'Chittagong'
p51
sg42
g43
((I2014
I3
I27
I0
I0
I0
I3
I86
I-1
t(dtRp52
sa(dp53
g36
I2
sS'c'
F1
sg29
F0
sg37
S'New Zealand'
p54
sg39
I383
sS's'
F0
sg32
F1
sg31
F1
sg40
S'Chittagong'
p55
sg42
g43
((I2014
I3
I24
I0
I0
I0
I0
I83
I-1
t(dtRp56
sa(dp57
g36
I1
sS'c'
F0
sg29
F0
sg37
S'Sri Lanka'
p58
sg39
I379
sS's'
F0
sg32
F0
sg31
F0
sg40
S'Chittagong'
p59
sg42
g43
((I2014
I3
I22
I0
I0
I0
I5
I81
I-1
t(dtRp60
sa(dp61
g36
I2
sS'c'
F1
sg29
F0
sg37
S'Australia'
p62
sg39
I365
sS's'
F0
sg32
F1
sg31
F1
sg40
S'Centurion'
p63
sg42
g43
((I2014
I3
I14
I0
I0
I0
I4
I73
I-1
t(dtRp64
sa(dp65
g36
I2
sS'c'
F0
sg29
F0
sg37
S'Australia'
p66
sg39
I363
sS's'
F0
sg32
F0
sg31
F0
sg40
S'Durban'
p67
sg42
g43
((I2014
I3
I12
I0
I0
I0
I2
I71
I-1
t(dtRp68
sa(dp69
g36
I1
sS'c'
F0
sg29
F0
sg37
S'Pakistan'
p70
sg39
I343
sS's'
F0
sg32
F0
sg31
F0
sg40
S'Cape Town'
p71
sg42
g43
((I2013
I11
I22
I0
I0
I0
I4
I326
I-1
t(dtRp72
sa(dp73
g36
I2
sS'c'
F0
sg29
F0
sg37
S'Pakistan'
p74
sg39
I340
sS's'
F0
sg32
F0
sg31
F0
sg40
S'Johannesburg'
p75
sg42
g43
((I2013
I11
I20
I0
I0
I0
I2
I324
I-1
t(dtRp76
sa(dp77
g36
I2
sS'c'
F0
sg29
F0
sg37
S'Pakistan'
p78
sg39
I336
sS's'
F0
sg32
F0
sg31
F0
sg40
S'Dubai (DSC)'
p79
sg42
g43
((I2013
I11
I15
I0
I0
I0
I4
I319
I-1
t(dtRp80
sa(dp81
g36
I1
sS'c'
F1
sg29
F0
sg37
S'Pakistan'
p82
sg39
I334
sS's'
F0
sg32
F1
sg31
F1
sg40
S'Dubai (DSC)'
p83
sg42
g43
((I2013
I11
I13
I0
I0
I0
I2
I317
I-1
t(dtRp84
sa(dp85
g36
I2
sS'c'
F0
sg29
F0
sg37
S'Sri Lanka'
p86
sg39
I325
sS's'
F0
sg32
F0
sg31
F0
sg40
S'Hambantota'
p87
sg42
g43
((I2013
I8
I6
I0
I0
I0
I1
I218
I-1
t(dtRp88
sa(dp89
g36
I2
sS'c'
F0
sg29
F0
sg37
S'Sri Lanka'
p90
sg39
I324
sS's'
F0
sg32
F0
sg31
F0
sg40
S'Hambantota'
p91
sg42
g43
((I2013
I8
I4
I0
I0
I0
I6
I216
I-1
t(dtRp92
sa(dp93
g36
I2
sS'c'
F0
sg29
F0
sg37
S'Sri Lanka'
p94
sg39
I323
sS's'
F0
sg32
F0
sg31
F0
sg40
S'Colombo (RPS)'
p95
sg42
g43
((I2013
I8
I2
I0
I0
I0
I4
I214
I-1
t(dtRp96
sa(dp97
g36
I1
sS'c'
F1
sg29
F0
sg37
S'Pakistan'
p98
sg39
I306
sS's'
F0
sg32
F1
sg31
F1
sg40
S'Centurion'
p99
sg42
g43
((I2013
I3
I3
I0
I0
I0
I6
I62
I-1
t(dtRp100
sa(dp101
g36
I2
sS'c'
F0
sg29
F0
sg37
S'New Zealand'
p102
sg39
I297
sS's'
F0
sg32
F0
sg31
F0
sg40
S'Port Elizabeth'
p103
sg42
g43
((I2012
I12
I26
I0
I0
I0
I2
I361
I-1
t(dtRp104
sa(dp105
g36
I2
sS'c'
F2
sg29
F0
sg37
S'New Zealand'
p106
sg39
I295
sS's'
F0
sg32
F2
sg31
F2
sg40
S'East London'
p107
sg42
g43
((I2012
I12
I23
I0
I0
I0
I6
I358
I-1
t(dtRp108
sa(dp109
g36
I1
sS'c'
F0
sg29
F0
sg37
S'New Zealand'
p110
sg39
I293
sS's'
F0
sg32
F0
sg31
F0
sg40
S'Durban'
p111
sg42
g43
((I2012
I12
I21
I0
I0
I0
I4
I356
I-1
t(dtRp112
sa(dp113
g36
I1
sS'c'
F2
sg29
F0
sg37
S'Australia'
p114
sg39
I212
sS's'
F0
sg32
F2
sg31
F2
sg40
S'Johannesburg'
p115
sg42
g43
((I2011
I10
I16
I0
I0
I0
I6
I289
I-1
t(dtRp116
sa(dp117
g36
I2
sS'c'
F2
sg29
F0
sg37
S'Australia'
p118
sg39
I210
sS's'
F0
sg32
F2
sg31
F2
sg40
S'Cape Town'
p119
sg42
g43
((I2011
I10
I13
I0
I0
I0
I3
I286
I-1
t(dtRp120
sa(dp121
g36
I1
sS'c'
F1
sg29
F0
sg37
S'India'
p122
sg39
I196
sS's'
F0
sg32
F1
sg31
F1
sg40
S'Durban'
p123
sg42
g43
((I2011
I1
I9
I0
I0
I0
I6
I9
I-1
t(dtRp124
sa(dp125
g36
I1
sS'c'
F0
sg29
F0
sg37
S'Pakistan'
p126
sg39
I191
sS's'
F0
sg32
F0
sg31
F0
sg40
S'Abu Dhabi'
p127
sg42
g43
((I2010
I10
I27
I0
I0
I0
I2
I300
I-1
t(dtRp128
sa(dp129
g36
I1
sS'c'
F0
sg29
F0
sg37
S'Pakistan'
p130
sg39
I190
sS's'
F0
sg32
F0
sg31
F0
sg40
S'Abu Dhabi'
p131
sg42
g43
((I2010
I10
I26
I0
I0
I0
I1
I299
I-1
t(dtRp132
sa(dp133
g36
I2
sS'c'
F0
sg29
F0
sg37
S'Zimbabwe'
p134
sg39
I189
sS's'
F0
sg32
F0
sg31
F0
sg40
S'Kimberley'
p135
sg42
g43
((I2010
I10
I10
I0
I0
I0
I6
I283
I-1
t(dtRp136
sa(dp137
g36
I1
sS'c'
F0
sg29
F0
sg37
S'Zimbabwe'
p138
sg39
I188
sS's'
F0
sg32
F0
sg31
F0
sg40
S'Bloemfontein'
p139
sg42
g43
((I2010
I10
I8
I0
I0
I0
I4
I281
I-1
t(dtRp140
sa(dp141
g36
I2
sS'c'
F0
sg29
F0
sg37
S'West Indies'
p142
sg39
I179
sS's'
F0
sg32
F0
sg31
F0
sg40
S'North Sound'
p143
sg42
g43
((I2010
I5
I20
I0
I0
I0
I3
I140
I-1
t(dtRp144
satp145
sS'bowlingStats'
p146
((dp147
S'a'
F-1
sS'b'
F0
sS'e'
F-1
sS'i'
F0
sS'sr'
p148
F-1
sS'5w'
p149
F0
sS'm'
F26
sS'maid'
p150
F0
sS'r'
F0
sS'w'
F0
sS'4w'
p151
F0
sS'bbir'
p152
F-1
sS'bbiw'
p153
F-1
sg33
F2014
sg30
F2010
s(ltp154
sS'battingStats'
p155
((dp156
S'a'
F25.9375
sS'0s'
p157
F0
sS'b'
F319
sS'no'
p158
F6
sg30
F2010
sS'hs'
p159
F36
sS'm'
F26
sS'4s'
p160
F29
sS'50s'
p161
F0
sS'i'
F22
sS'6s'
p162
F14
sg148
F130.09404388714734
sS'r'
F415
sS'100s'
p163
F0
sg33
F2014
s(lp164
(dp165
g36
I1
sS'b'
F12
sg37
S'India'
p166
sg158
I01
sg148
F191.66666666666666
sg39
I399
sS'dismiss'
p167
S'not out'
p168
sg160
F2
sS'pos'
p169
I6
sg162
F1
sg40
S'Dhaka'
p170
sg42
g43
((I2014
I4
I4
I0
I0
I0
I4
I94
I-1
t(dtRp171
sS'r'
F23
sS'minutes'
p172
F18
sa(dp173
g36
I1
sS'b'
F15
sg37
S'England'
p174
sg148
F126.66666666666667
sg39
I391
sg167
S'caught'
p175
sg160
F2
sg169
I5
sg162
F1
sg40
S'Chittagong'
p176
sg42
g43
((I2014
I3
I29
I0
I0
I0
I5
I88
I-1
t(dtRp177
sS'r'
F19
sg172
F26
sa(dp178
g36
I1
sS'b'
F18
sg37
S'Netherlands'
p179
sg148
F94.444444444444443
sg39
I386
sg167
S'bowled'
p180
sg160
F0
sg169
I7
sg162
F0
sg40
S'Chittagong'
p181
sg42
g43
((I2014
I3
I27
I0
I0
I0
I3
I86
I-1
t(dtRp182
sS'r'
F17
sg172
F26
sa(dp183
g36
I1
sS'b'
F6
sg37
S'New Zealand'
p184
sg148
F100
sg39
I383
sg167
S'caught'
p185
sg160
F1
sg169
I6
sg162
F0
sg40
S'Chittagong'
p186
sg42
g43
((I2014
I3
I24
I0
I0
I0
I0
I83
I-1
t(dtRp187
sS'r'
F6
sg172
F16
sa(dp188
g36
I2
sS'b'
F16
sg37
S'Sri Lanka'
p189
sg148
F118.75
sg39
I379
sg167
S'run out'
p190
sg160
F1
sg169
I5
sg162
F0
sg40
S'Chittagong'
p191
sg42
g43
((I2014
I3
I22
I0
I0
I0
I5
I81
I-1
t(dtRp192
sS'r'
F19
sg172
F33
sa(dp193
g36
I1
sS'b'
F7
sg37
S'Australia'
p194
sg148
F28.571428571428573
sg39
I365
sg167
S'caught'
p195
sg160
F0
sg169
I6
sg162
F0
sg40
S'Centurion'
p196
sg42
g43
((I2014
I3
I14
I0
I0
I0
I4
I73
I-1
t(dtRp197
sS'r'
F2
sg172
F9
sa(dp198
g36
I2
sS'b'
F13
sg37
S'Pakistan'
p199
sg158
I01
sg148
F169.23076923076923
sg39
I343
sg167
S'not out'
p200
sg160
F1
sg169
I6
sg162
F1
sg40
S'Cape Town'
p201
sg42
g43
((I2013
I11
I22
I0
I0
I0
I4
I326
I-1
t(dtRp202
sS'r'
F22
sg172
F24
sa(dp203
g36
I1
sS'b'
F11
sg37
S'Pakistan'
p204
sg158
I01
sg148
F172.72727272727272
sg39
I340
sg167
S'not out'
p205
sg160
F2
sg169
I6
sg162
F1
sg40
S'Johannesburg'
p206
sg42
g43
((I2013
I11
I20
I0
I0
I0
I2
I324
I-1
t(dtRp207
sS'r'
F19
sg172
F46
sa(dp208
g36
I1
sS'b'
F4
sg37
S'Pakistan'
p209
sg148
F100
sg39
I336
sg167
S'lbw'
p210
sg160
F0
sg169
I5
sg162
F0
sg40
S'Dubai (DSC)'
p211
sg42
g43
((I2013
I11
I15
I0
I0
I0
I4
I319
I-1
t(dtRp212
sS'r'
F4
sg172
F6
sa(dp213
g36
I1
sS'b'
F21
sg37
S'Sri Lanka'
p214
sg148
F171.42857142857142
sg39
I324
sg167
S'caught'
p215
sg160
F1
sg169
I6
sg162
F2
sg40
S'Hambantota'
p216
sg42
g43
((I2013
I8
I4
I0
I0
I0
I6
I216
I-1
t(dtRp217
sS'r'
F36
sg172
F25
sa(dp218
g36
I1
sS'b'
F24
sg37
S'Sri Lanka'
p219
sg148
F104.16666666666667
sg39
I323
sg167
S'caught'
p220
sg160
F0
sg169
I6
sg162
F1
sg40
S'Colombo (RPS)'
p221
sg42
g43
((I2013
I8
I2
I0
I0
I0
I4
I214
I-1
t(dtRp222
sS'r'
F25
sg172
F33
sa(dp223
g36
I2
sS'b'
F15
sg37
S'Pakistan'
p224
sg148
F60
sg39
I306
sg167
S'caught'
p225
sg160
F0
sg169
I7
sg162
F0
sg40
S'Centurion'
p226
sg42
g43
((I2013
I3
I3
I0
I0
I0
I6
I62
I-1
t(dtRp227
sS'r'
F9
sg172
F17
sa(dp228
g36
I1
sS'b'
F15
sg37
S'New Zealand'
p229
sg148
F186.66666666666666
sg39
I297
sg167
S'caught'
p230
sg160
F4
sg169
I5
sg162
F0
sg40
S'Port Elizabeth'
p231
sg42
g43
((I2012
I12
I26
I0
I0
I0
I2
I361
I-1
t(dtRp232
sS'r'
F28
sg172
F27
sa(dp233
g36
I1
sS'b'
F18
sg37
S'New Zealand'
p234
sg148
F183.33333333333334
sg39
I295
sg167
S'caught'
p235
sg160
F2
sg169
I4
sg162
F2
sg40
S'East London'
p236
sg42
g43
((I2012
I12
I23
I0
I0
I0
I6
I358
I-1
t(dtRp237
sS'r'
F33
sg172
F35
sa(dp238
g36
I2
sS'b'
F13
sg37
S'Australia'
p239
sg148
F76.92307692307692
sg39
I212
sg167
S'bowled'
p240
sg160
F1
sg169
I6
sg162
F0
sg40
S'Johannesburg'
p241
sg42
g43
((I2011
I10
I16
I0
I0
I0
I6
I289
I-1
t(dtRp242
sS'r'
F10
sg172
F17
sa(dp243
g36
I1
sS'b'
F19
sg37
S'Australia'
p244
sg148
F105.26315789473684
sg39
I210
sg167
S'caught'
p245
sg160
F2
sg169
I5
sg162
F0
sg40
S'Cape Town'
p246
sg42
g43
((I2011
I10
I13
I0
I0
I0
I3
I286
I-1
t(dtRp247
sS'r'
F20
sg172
F30
sa(dp248
g36
I2
sS'b'
F8
sg37
S'India'
p249
sg148
F125
sg39
I196
sg167
S'lbw'
p250
sg160
F0
sg169
I6
sg162
F1
sg40
S'Durban'
p251
sg42
g43
((I2011
I1
I9
I0
I0
I0
I6
I9
I-1
t(dtRp252
sS'r'
F10
sg172
F13
sa(dp253
g36
I2
sS'b'
F6
sg37
S'Pakistan'
p254
sg158
I01
sg148
F100
sg39
I191
sg167
S'not out'
p255
sg160
F1
sg169
I6
sg162
F0
sg40
S'Abu Dhabi'
p256
sg42
g43
((I2010
I10
I27
I0
I0
I0
I2
I300
I-1
t(dtRp257
sS'r'
F6
sg172
F7
sa(dp258
g36
I2
sS'b'
F7
sg37
S'Pakistan'
p259
sg158
I01
sg148
F185.71428571428572
sg39
I190
sg167
S'not out'
p260
sg160
F3
sg169
I6
sg162
F0
sg40
S'Abu Dhabi'
p261
sg42
g43
((I2010
I10
I26
I0
I0
I0
I1
I299
I-1
t(dtRp262
sS'r'
F13
sg172
F12
sa(dp263
g36
I1
sS'b'
F21
sg37
S'Zimbabwe'
p264
sg148
F119.04761904761905
sg39
I189
sg167
S'bowled'
p265
sg160
F1
sg169
I5
sg162
F1
sg40
S'Kimberley'
p266
sg42
g43
((I2010
I10
I10
I0
I0
I0
I6
I283
I-1
t(dtRp267
sS'r'
F25
sg172
F31
sa(dp268
g36
I2
sS'b'
F24
sg37
S'Zimbabwe'
p269
sg158
I01
sg148
F150
sg39
I188
sg167
S'not out'
p270
sg160
F5
sg169
I5
sg162
F1
sg40
S'Bloemfontein'
p271
sg42
g43
((I2010
I10
I8
I0
I0
I0
I4
I281
I-1
t(dtRp272
sS'r'
F36
sg172
F26
sa(dp273
g36
I1
sS'b'
F26
sg37
S'West Indies'
p274
sg148
F126.92307692307692
sg39
I179
sg167
S'run out'
p275
sg160
F0
sg169
I6
sg162
F2
sg40
S'North Sound'
p276
sg42
g43
((I2010
I5
I20
I0
I0
I0
I3
I140
I-1
t(dtRp277
sS'r'
F33
sg172
F37
satp278
ssS'all'
p279
(dp280
g27
(dp281
S'c'
F72
sg29
F0
sS'i'
F117
sS'm'
F117
sg31
F72
sg32
F72
sS's'
F0
ssg146
(dp282
S'a'
F-1
sS'b'
F18
sS'e'
F10.333333333333334
sS'i'
F3
sg148
F-1
sg149
F0
sS'm'
F117
sg150
F0
sS'r'
F31
sS'w'
F0
sg151
F0
sg152
F-1
sg153
F-1
ssg155
(dp283
S'a'
F37.722222222222221
sg157
F-1
sS'b'
F1971
sg158
F33
sS'i'
F105
sg159
F101
sS'm'
F117
sg160
F196
sg162
F113
sg148
F137.7980720446474
sS'r'
F2716
sg163
F1
sg161
F15
ssssb.