(iplayer
Player
p1
(dp2
S'is_batsman'
p3
I00
sS'name'
p4
S'Ravindra Jadeja'
p5
sS'dob'
p6
S'1988/12/06'
p7
sS'price'
p8
S'950000'
p9
sS'is_allrounder'
p10
I01
sS'espnid'
p11
S'234675'
p12
sS'is_overseas'
p13
I00
sS'team'
p14
S'CSK'
p15
sS'nationality'
p16
S'Indian'
p17
sS'is_bowler'
p18
I00
sS'is_keeper'
p19
I00
sS'id'
p20
S'9'
sS'is_uncapped'
p21
I00
sS'tournamentStats'
p22
(dp23
S'international'
p24
(dp25
S'fieldingStats'
p26
((dp27
S'c'
F11
sS'ctw'
p28
F0
sS'span_s'
p29
F2009
sS'm'
F21
sS's'
F0
sS'dismissals'
p30
F11
sS'i'
F21
sS'ctf'
p31
F11
sS'span_f'
p32
F2014
s(lp33
(dp34
S'inning'
p35
I2
sS'c'
F1
sg28
F0
sS'opp'
p36
S'Sri Lanka'
p37
sS't20i_num'
p38
I400
sg31
F1
sg30
F1
sS's'
F0
sS'place'
p39
S'Dhaka'
p40
sS'date'
p41
ctime
struct_time
p42
((I2014
I4
I6
I0
I0
I0
I6
I96
I-1
t(dtRp43
sa(dp44
g35
I1
sS'c'
F0
sg28
F0
sg36
S'South Africa'
p45
sg38
I399
sg31
F0
sg30
F0
sS's'
F0
sg39
S'Dhaka'
p46
sg41
g42
((I2014
I4
I4
I0
I0
I0
I4
I94
I-1
t(dtRp47
sa(dp48
g35
I2
sS'c'
F2
sg28
F0
sg36
S'Australia'
p49
sg38
I393
sg31
F2
sg30
F2
sS's'
F0
sg39
S'Dhaka'
p50
sg41
g42
((I2014
I3
I30
I0
I0
I0
I6
I89
I-1
t(dtRp51
sa(dp52
g35
I1
sS'c'
F1
sg28
F0
sg36
S'Bangladesh'
p53
sg38
I389
sg31
F1
sg30
F1
sS's'
F0
sg39
S'Dhaka'
p54
sg41
g42
((I2014
I3
I28
I0
I0
I0
I4
I87
I-1
t(dtRp55
sa(dp56
g35
I1
sS'c'
F0
sg28
F0
sg36
S'West Indies'
p57
sg38
I382
sg31
F0
sg30
F0
sS's'
F0
sg39
S'Dhaka'
p58
sg41
g42
((I2014
I3
I23
I0
I0
I0
I6
I82
I-1
t(dtRp59
sa(dp60
g35
I1
sS'c'
F0
sg28
F0
sg36
S'Pakistan'
p61
sg38
I378
sg31
F0
sg30
F0
sS's'
F0
sg39
S'Dhaka'
p62
sg41
g42
((I2014
I3
I21
I0
I0
I0
I4
I80
I-1
t(dtRp63
sa(dp64
g35
I1
sS'c'
F1
sg28
F0
sg36
S'Australia'
p65
sg38
I331
sg31
F1
sg30
F1
sS's'
F0
sg39
S'Rajkot'
p66
sg41
g42
((I2013
I10
I10
I0
I0
I0
I3
I283
I-1
t(dtRp67
sa(dp68
g35
I2
sS'c'
F0
sg28
F0
sg36
S'Pakistan'
p69
sg38
I296
sg31
F0
sg30
F0
sS's'
F0
sg39
S'Bangalore'
p70
sg41
g42
((I2012
I12
I25
I0
I0
I0
I1
I360
I-1
t(dtRp71
sa(dp72
g35
I1
sS'c'
F0
sg28
F0
sg36
S'England'
p73
sg38
I292
sg31
F0
sg30
F0
sS's'
F0
sg39
S'Pune'
p74
sg41
g42
((I2012
I12
I20
I0
I0
I0
I3
I355
I-1
t(dtRp75
sa(dp76
g35
I1
sS'c'
F1
sg28
F0
sg36
S'Australia'
p77
sg38
I218
sg31
F1
sg30
F1
sS's'
F0
sg39
S'Melbourne'
p78
sg41
g42
((I2012
I2
I3
I0
I0
I0
I4
I34
I-1
t(dtRp79
sa(dp80
g35
I1
sS'c'
F0
sg28
F0
sg36
S'Australia'
p81
sg38
I217
sg31
F0
sg30
F0
sS's'
F0
sg39
S'Sydney'
p82
sg41
g42
((I2012
I2
I1
I0
I0
I0
I2
I32
I-1
t(dtRp83
sa(dp84
g35
I2
sS'c'
F0
sg28
F0
sg36
S'England'
p85
sg38
I214
sg31
F0
sg30
F0
sS's'
F0
sg39
S'Kolkata'
p86
sg41
g42
((I2011
I10
I29
I0
I0
I0
I5
I302
I-1
t(dtRp87
sa(dp88
g35
I1
sS'c'
F0
sg28
F0
sg36
S'West Indies'
p89
sg38
I169
sg31
F0
sg30
F0
sS's'
F0
sg39
S'Bridgetown'
p90
sg41
g42
((I2010
I5
I9
I0
I0
I0
I6
I129
I-1
t(dtRp91
sa(dp92
g35
I1
sS'c'
F0
sg28
F0
sg36
S'Australia'
p93
sg38
I165
sg31
F0
sg30
F0
sS's'
F0
sg39
S'Bridgetown'
p94
sg41
g42
((I2010
I5
I7
I0
I0
I0
I4
I127
I-1
t(dtRp95
sa(dp96
g35
I2
sS'c'
F1
sg28
F0
sg36
S'South Africa'
p97
sg38
I155
sg31
F1
sg30
F1
sS's'
F0
sg39
S'Gros Islet'
p98
sg41
g42
((I2010
I5
I2
I0
I0
I0
I6
I122
I-1
t(dtRp99
sa(dp100
g35
I1
sS'c'
F0
sg28
F0
sg36
S'Afghanistan'
p101
sg38
I153
sg31
F0
sg30
F0
sS's'
F0
sg39
S'Gros Islet'
p102
sg41
g42
((I2010
I5
I1
I0
I0
I0
I5
I121
I-1
t(dtRp103
sa(dp104
g35
I1
sS'c'
F1
sg28
F0
sg36
S'Sri Lanka'
p105
sg38
I127
sg31
F1
sg30
F1
sS's'
F0
sg39
S'Mohali'
p106
sg41
g42
((I2009
I12
I12
I0
I0
I0
I5
I346
I-1
t(dtRp107
sa(dp108
g35
I1
sS'c'
F2
sg28
F0
sg36
S'South Africa'
p109
sg38
I113
sg31
F2
sg30
F2
sS's'
F0
sg39
S'Nottingham'
p110
sg41
g42
((I2009
I6
I16
I0
I0
I0
I1
I167
I-1
t(dtRp111
sa(dp112
g35
I1
sS'c'
F1
sg28
F0
sg36
S'England'
p113
sg38
I109
sg31
F1
sg30
F1
sS's'
F0
sg39
S"Lord's"
p114
sg41
g42
((I2009
I6
I14
I0
I0
I0
I6
I165
I-1
t(dtRp115
sa(dp116
g35
I2
sS'c'
F0
sg28
F0
sg36
S'New Zealand'
p117
sg38
I85
sg31
F0
sg30
F0
sS's'
F0
sg39
S'Wellington'
p118
sg41
g42
((I2009
I2
I27
I0
I0
I0
I4
I58
I-1
t(dtRp119
sa(dp120
g35
I1
sS'c'
F0
sg28
F0
sg36
S'Sri Lanka'
p121
sg38
I82
sg31
F0
sg30
F0
sS's'
F0
sg39
S'Colombo (RPS)'
p122
sg41
g42
((I2009
I2
I10
I0
I0
I0
I1
I41
I-1
t(dtRp123
satp124
sS'bowlingStats'
p125
((dp126
S'a'
F38
sS'b'
F412
sS'e'
F7.1941747572815533
sS'i'
F21
sS'sr'
p127
F31.692307692307693
sS'5w'
p128
F0
sS'm'
F21
sS'maid'
p129
F2
sS'r'
F494
sS'w'
F13
sS'4w'
p130
F0
sS'bbir'
p131
F48
sS'bbiw'
p132
F3
sg32
F2014
sg29
F2009
s(lp133
(dp134
g35
I2
sS'b'
F6
sS'e'
F11
sg38
I400
sS'pos'
p135
I6
sg129
F0
sS'r'
F11
sg39
S'Dhaka'
p136
sS'w'
F0
sg41
g42
((I2014
I4
I6
I0
I0
I0
I6
I96
I-1
t(dtRp137
sg36
S'Sri Lanka'
p138
sa(dp139
g35
I1
sS'b'
F12
sS'e'
F4
sg38
I399
sg135
I4
sg129
F0
sS'r'
F8
sg39
S'Dhaka'
p140
sS'w'
F0
sg41
g42
((I2014
I4
I4
I0
I0
I0
I4
I94
I-1
t(dtRp141
sg36
S'South Africa'
p142
sa(dp143
g35
I2
sS'b'
F24
sS'e'
F6.25
sg38
I393
sg135
I5
sg129
F0
sS'r'
F25
sg39
S'Dhaka'
p144
sS'w'
F1
sg41
g42
((I2014
I3
I30
I0
I0
I0
I6
I89
I-1
t(dtRp145
sg36
S'Australia'
p146
sa(dp147
g35
I1
sS'b'
F24
sS'e'
F7.5
sg38
I389
sg135
I4
sg129
F0
sS'r'
F30
sg39
S'Dhaka'
p148
sS'w'
F0
sg41
g42
((I2014
I3
I28
I0
I0
I0
I4
I87
I-1
t(dtRp149
sg36
S'Bangladesh'
p150
sa(dp151
g35
I1
sS'b'
F24
sS'e'
F12
sg38
I382
sg135
I6
sg129
F0
sS'r'
F48
sg39
S'Dhaka'
p152
sS'w'
F3
sg41
g42
((I2014
I3
I23
I0
I0
I0
I6
I82
I-1
t(dtRp153
sg36
S'West Indies'
p154
sa(dp155
g35
I1
sS'b'
F24
sS'e'
F4.5
sg38
I378
sg135
I5
sg129
F0
sS'r'
F18
sg39
S'Dhaka'
p156
sS'w'
F1
sg41
g42
((I2014
I3
I21
I0
I0
I0
I4
I80
I-1
t(dtRp157
sg36
S'Pakistan'
p158
sa(dp159
g35
I1
sS'b'
F24
sS'e'
F5.75
sg38
I331
sg135
I5
sg129
F0
sS'r'
F23
sg39
S'Rajkot'
p160
sS'w'
F1
sg41
g42
((I2013
I10
I10
I0
I0
I0
I3
I283
I-1
t(dtRp161
sg36
S'Australia'
p162
sa(dp163
g35
I2
sS'b'
F16
sS'e'
F10.875
sg38
I296
sg135
I6
sg129
F0
sS'r'
F29
sg39
S'Bangalore'
p164
sS'w'
F0
sg41
g42
((I2012
I12
I25
I0
I0
I0
I1
I360
I-1
t(dtRp165
sg36
S'Pakistan'
p166
sa(dp167
g35
I1
sS'b'
F18
sS'e'
F7.333333333333333
sg38
I292
sg135
I4
sg129
F0
sS'r'
F22
sg39
S'Pune'
p168
sS'w'
F0
sg41
g42
((I2012
I12
I20
I0
I0
I0
I3
I355
I-1
t(dtRp169
sg36
S'England'
p170
sa(dp171
g35
I1
sS'b'
F18
sS'e'
F5.333333333333333
sg38
I218
sg135
I4
sg129
F0
sS'r'
F16
sg39
S'Melbourne'
p172
sS'w'
F1
sg41
g42
((I2012
I2
I3
I0
I0
I0
I4
I34
I-1
t(dtRp173
sg36
S'Australia'
p174
sa(dp175
g35
I1
sS'b'
F12
sS'e'
F11.5
sg38
I217
sg135
I7
sg129
F0
sS'r'
F23
sg39
S'Sydney'
p176
sS'w'
F0
sg41
g42
((I2012
I2
I1
I0
I0
I0
I2
I32
I-1
t(dtRp177
sg36
S'Australia'
p178
sa(dp179
g35
I2
sS'b'
F24
sS'e'
F2.25
sg38
I214
sg135
I3
sg129
F1
sS'r'
F9
sg39
S'Kolkata'
p180
sS'w'
F1
sg41
g42
((I2011
I10
I29
I0
I0
I0
I5
I302
I-1
t(dtRp181
sg36
S'England'
p182
sa(dp183
g35
I1
sS'b'
F12
sS'e'
F13.5
sg38
I169
sg135
I6
sg129
F0
sS'r'
F27
sg39
S'Bridgetown'
p184
sS'w'
F1
sg41
g42
((I2010
I5
I9
I0
I0
I0
I6
I129
I-1
t(dtRp185
sg36
S'West Indies'
p186
sa(dp187
g35
I1
sS'b'
F12
sS'e'
F19
sg38
I165
sg135
I3
sg129
F0
sS'r'
F38
sg39
S'Bridgetown'
p188
sS'w'
F0
sg41
g42
((I2010
I5
I7
I0
I0
I0
I4
I127
I-1
t(dtRp189
sg36
S'Australia'
p190
sa(dp191
g35
I2
sS'b'
F24
sS'e'
F9.25
sg38
I155
sg135
I6
sg129
F0
sS'r'
F37
sg39
S'Gros Islet'
p192
sS'w'
F0
sg41
g42
((I2010
I5
I2
I0
I0
I0
I6
I122
I-1
t(dtRp193
sg36
S'South Africa'
p194
sa(dp195
g35
I1
sS'b'
F24
sS'e'
F3.75
sg38
I153
sg135
I4
sg129
F1
sS'r'
F15
sg39
S'Gros Islet'
p196
sS'w'
F1
sg41
g42
((I2010
I5
I1
I0
I0
I0
I5
I121
I-1
t(dtRp197
sg36
S'Afghanistan'
p198
sa(dp199
g35
I1
sS'b'
F24
sS'e'
F7.5
sg38
I127
sg135
I6
sg129
F0
sS'r'
F30
sg39
S'Mohali'
p200
sS'w'
F0
sg41
g42
((I2009
I12
I12
I0
I0
I0
I5
I346
I-1
t(dtRp201
sg36
S'Sri Lanka'
p202
sa(dp203
g35
I1
sS'b'
F18
sS'e'
F3
sg38
I113
sg135
I4
sg129
F0
sS'r'
F9
sg39
S'Nottingham'
p204
sS'w'
F1
sg41
g42
((I2009
I6
I16
I0
I0
I0
I1
I167
I-1
t(dtRp205
sg36
S'South Africa'
p206
sa(dp207
g35
I1
sS'b'
F24
sS'e'
F6.5
sg38
I109
sg135
I6
sg129
F0
sS'r'
F26
sg39
S"Lord's"
p208
sS'w'
F2
sg41
g42
((I2009
I6
I14
I0
I0
I0
I6
I165
I-1
t(dtRp209
sg36
S'England'
p210
sa(dp211
g35
I2
sS'b'
F24
sS'e'
F5.25
sg38
I85
sg135
I5
sg129
F0
sS'r'
F21
sg39
S'Wellington'
p212
sS'w'
F0
sg41
g42
((I2009
I2
I27
I0
I0
I0
I4
I58
I-1
t(dtRp213
sg36
S'New Zealand'
p214
sa(dp215
g35
I1
sS'b'
F24
sS'e'
F7.25
sg38
I82
sg135
I5
sg129
F0
sS'r'
F29
sg39
S'Colombo (RPS)'
p216
sS'w'
F0
sg41
g42
((I2009
I2
I10
I0
I0
I0
I1
I41
I-1
t(dtRp217
sg36
S'Sri Lanka'
p218
satp219
sS'battingStats'
p220
((dp221
S'a'
F9.625
sS'0s'
p222
F1
sS'b'
F91
sS'no'
p223
F3
sg29
F2009
sS'hs'
p224
F25
sS'm'
F21
sS'4s'
p225
F3
sg32
F2014
sS'i'
F11
sS'6s'
p226
F1
sg127
F84.615384615384613
sS'r'
F77
sS'100s'
p227
F0
sS'50s'
p228
F0
s(lp229
(dp230
g35
I1
sS'b'
F3
sg36
S'Australia'
p231
sg127
F100
sg38
I393
sS'dismiss'
p232
S'run out'
p233
sg225
F0
sg135
I7
sg226
F0
sg39
S'Dhaka'
p234
sg41
g42
((I2014
I3
I30
I0
I0
I0
I6
I89
I-1
t(dtRp235
sS'r'
F3
sS'minutes'
p236
F9
sa(dp237
g35
I1
sS'b'
F4
sg36
S'Pakistan'
p238
sg127
F50
sg38
I296
sg232
S'caught'
p239
sg225
F0
sg135
I8
sg226
F0
sg39
S'Bangalore'
p240
sg41
g42
((I2012
I12
I25
I0
I0
I0
I1
I360
I-1
t(dtRp241
sS'r'
F2
sg236
F4
sa(dp242
g35
I2
sS'b'
F0
sg36
S'England'
p243
sg223
I01
sg127
F0
sg38
I292
sg232
S'not out'
p244
sg225
F0
sg135
I7
sg226
F0
sg39
S'Pune'
p245
sg41
g42
((I2012
I12
I20
I0
I0
I0
I3
I355
I-1
t(dtRp246
sS'r'
F0
sg236
F3
sa(dp247
g35
I2
sS'b'
F8
sg36
S'Australia'
p248
sg127
F87.5
sg38
I217
sg232
S'caught'
p249
sg225
F1
sg135
I7
sg226
F0
sg39
S'Sydney'
p250
sg41
g42
((I2012
I2
I1
I0
I0
I0
I2
I32
I-1
t(dtRp251
sS'r'
F7
sg236
F9
sa(dp252
g35
I1
sS'b'
F1
sg36
S'England'
p253
sg127
F0
sg38
I214
sg232
S'bowled'
p254
sg225
F0
sg135
I7
sg226
F0
sg39
S'Kolkata'
p255
sg41
g42
((I2011
I10
I29
I0
I0
I0
I5
I302
I-1
t(dtRp256
sS'r'
F0
sg236
F1
sa(dp257
g35
I2
sS'b'
F6
sg36
S'West Indies'
p258
sg223
I01
sg127
F83.333333333333329
sg38
I169
sg232
S'not out'
p259
sg225
F0
sg135
I9
sg226
F0
sg39
S'Bridgetown'
p260
sg41
g42
((I2010
I5
I9
I0
I0
I0
I6
I129
I-1
t(dtRp261
sS'r'
F5
sg236
F10
sa(dp262
g35
I2
sS'b'
F5
sg36
S'Australia'
p263
sg127
F80
sg38
I165
sg232
S'run out'
p264
sg225
F0
sg135
I8
sg226
F0
sg39
S'Bridgetown'
p265
sg41
g42
((I2010
I5
I7
I0
I0
I0
I4
I127
I-1
t(dtRp266
sS'r'
F4
sg236
F6
sa(dp267
g35
I2
sS'b'
F6
sg36
S'South Africa'
p268
sg223
I01
sg127
F116.66666666666667
sg38
I113
sg232
S'not out'
p269
sg225
F0
sg135
I8
sg226
F0
sg39
S'Nottingham'
p270
sg41
g42
((I2009
I6
I16
I0
I0
I0
I1
I167
I-1
t(dtRp271
sS'r'
F7
sg236
F14
sa(dp272
g35
I2
sS'b'
F35
sg36
S'England'
p273
sg127
F71.428571428571431
sg38
I109
sg232
S'caught'
p274
sg225
F1
sg135
I4
sg226
F0
sg39
S"Lord's"
p275
sg41
g42
((I2009
I6
I14
I0
I0
I0
I6
I165
I-1
t(dtRp276
sS'r'
F25
sg236
F41
sa(dp277
g35
I1
sS'b'
F16
sg36
S'New Zealand'
p278
sg127
F118.75
sg38
I85
sg232
S'caught'
p279
sg225
F1
sg135
I7
sg226
F1
sg39
S'Wellington'
p280
sg41
g42
((I2009
I2
I27
I0
I0
I0
I4
I58
I-1
t(dtRp281
sS'r'
F19
sg236
F14
sa(dp282
g35
I2
sS'b'
F7
sg36
S'Sri Lanka'
p283
sg127
F71.428571428571431
sg38
I82
sg232
S'bowled'
p284
sg225
F0
sg135
I7
sg226
F0
sg39
S'Colombo (RPS)'
p285
sg41
g42
((I2009
I2
I10
I0
I0
I0
I1
I41
I-1
t(dtRp286
sS'r'
F5
sg236
F7
satp287
ssS'all'
p288
(dp289
g26
(dp290
S'c'
F34
sg28
F0
sS'i'
F112
sS'm'
F112
sS's'
F0
sg30
F34
sg31
F34
ssg125
(dp291
S'a'
F31.616666666666667
sS'b'
F1490
sS'e'
F7.6389261744966444
sS'i'
F89
sg127
F24.833333333333332
sg128
F1
sS'm'
F112
sg129
F0
sS'r'
F1897
sS'w'
F60
sg130
F0
sg131
F16
sg132
F5
ssg220
(dp292
S'a'
F19.707692307692309
sg222
F-1
sS'b'
F1058
sg223
F18
sS'i'
F83
sg224
F48
sS'm'
F112
sg225
F93
sg226
F45
sg127
F121.07750472589792
sS'r'
F1281
sg227
F0
sg228
F0
ssssb.