(iplayer
Player
p1
(dp2
S'is_batsman'
p3
I00
sS'name'
p4
S'Samuel Badree'
p5
sS'dob'
p6
S'1981/03/09'
p7
sS'price'
p8
S'900000'
p9
sS'is_allrounder'
p10
I00
sS'espnid'
p11
S'51433'
p12
sS'is_overseas'
p13
I01
sS'team'
p14
S'CSK'
p15
sS'nationality'
p16
S'West Indian'
p17
sS'is_bowler'
p18
I01
sS'is_keeper'
p19
I00
sS'id'
p20
S'590'
p21
sS'is_uncapped'
p22
I00
sS'tournamentStats'
p23
(dp24
S'international'
p25
(dp26
S'fieldingStats'
p27
((dp28
S'c'
F4
sS'ctw'
p29
F0
sS'i'
F20
sS'm'
F20
sS's'
F0
sS'dismissals'
p30
F4
sS'ctf'
p31
F4
s(lp32
(dp33
S'inning'
p34
I1
sS'c'
F1
sg29
F0
sS'opp'
p35
S'Sri Lanka'
p36
sS't20i_num'
p37
I398
sg31
F1
sg30
F1
sS's'
F0
sS'place'
p38
S'Dhaka'
p39
sS'date'
p40
ctime
struct_time
p41
((I2014
I4
I3
I0
I0
I0
I3
I93
I-1
t(dtRp42
sa(dp43
g34
I2
sS'c'
F0
sg29
F0
sg35
S'Pakistan'
p44
sg37
I397
sg31
F0
sg30
F0
sS's'
F0
sg38
S'Dhaka'
p45
sg40
g41
((I2014
I4
I1
I0
I0
I0
I1
I91
I-1
t(dtRp46
sa(dp47
g34
I1
sS'c'
F0
sg29
F0
sg35
S'Australia'
p48
sg37
I388
sg31
F0
sg30
F0
sS's'
F0
sg38
S'Dhaka'
p49
sg40
g41
((I2014
I3
I28
I0
I0
I0
I4
I87
I-1
t(dtRp50
sa(dp51
g34
I2
sS'c'
F0
sg29
F0
sg35
S'Bangladesh'
p52
sg37
I385
sg31
F0
sg30
F0
sS's'
F0
sg38
S'Dhaka'
p53
sg40
g41
((I2014
I3
I25
I0
I0
I0
I1
I84
I-1
t(dtRp54
sa(dp55
g34
I2
sS'c'
F0
sg29
F0
sg35
S'India'
p56
sg37
I382
sg31
F0
sg30
F0
sS's'
F0
sg38
S'Dhaka'
p57
sg40
g41
((I2014
I3
I23
I0
I0
I0
I6
I82
I-1
t(dtRp58
sa(dp59
g34
I1
sS'c'
F0
sg29
F0
sg35
S'England'
p60
sg37
I362
sg31
F0
sg30
F0
sS's'
F0
sg38
S'Bridgetown'
p61
sg40
g41
((I2014
I3
I11
I0
I0
I0
I1
I70
I-1
t(dtRp62
sa(dp63
g34
I2
sS'c'
F0
sg29
F0
sg35
S'England'
p64
sg37
I361
sg31
F0
sg30
F0
sS's'
F0
sg38
S'Bridgetown'
p65
sg40
g41
((I2014
I3
I9
I0
I0
I0
I6
I68
I-1
t(dtRp66
sa(dp67
g34
I2
sS'c'
F0
sg29
F0
sg35
S'Ireland'
p68
sg37
I360
sg31
F0
sg30
F0
sS's'
F0
sg38
S'Kingston'
p69
sg40
g41
((I2014
I2
I21
I0
I0
I0
I4
I52
I-1
t(dtRp70
sa(dp71
g34
I2
sS'c'
F0
sg29
F0
sg35
S'Ireland'
p72
sg37
I359
sg31
F0
sg30
F0
sS's'
F0
sg38
S'Kingston'
p73
sg40
g41
((I2014
I2
I19
I0
I0
I0
I2
I50
I-1
t(dtRp74
sa(dp75
g34
I1
sS'c'
F0
sg29
F0
sg35
S'New Zealand'
p76
sg37
I352
sg31
F0
sg30
F0
sS's'
F0
sg38
S'Auckland'
p77
sg40
g41
((I2014
I1
I11
I0
I0
I0
I5
I11
I-1
t(dtRp78
sa(dp79
g34
I1
sS'c'
F1
sg29
F0
sg35
S'Pakistan'
p80
sg37
I322
sg31
F1
sg30
F1
sS's'
F0
sg38
S'Kingstown'
p81
sg40
g41
((I2013
I7
I28
I0
I0
I0
I6
I209
I-1
t(dtRp82
sa(dp83
g34
I2
sS'c'
F0
sg29
F0
sg35
S'Pakistan'
p84
sg37
I321
sg31
F0
sg30
F0
sS's'
F0
sg38
S'Kingstown'
p85
sg40
g41
((I2013
I7
I27
I0
I0
I0
I5
I208
I-1
t(dtRp86
sa(dp87
g34
I2
sS'c'
F0
sg29
F0
sg35
S'Zimbabwe'
p88
sg37
I308
sg31
F0
sg30
F0
sS's'
F0
sg38
S'North Sound'
p89
sg40
g41
((I2013
I3
I3
I0
I0
I0
I6
I62
I-1
t(dtRp90
sa(dp91
g34
I1
sS'c'
F0
sg29
F0
sg35
S'Zimbabwe'
p92
sg37
I305
sg31
F0
sg30
F0
sS's'
F0
sg38
S'North Sound'
p93
sg40
g41
((I2013
I3
I2
I0
I0
I0
I5
I61
I-1
t(dtRp94
sa(dp95
g34
I2
sS'c'
F1
sg29
F0
sg35
S'Sri Lanka'
p96
sg37
I289
sg31
F1
sg30
F1
sS's'
F0
sg38
S'Colombo (RPS)'
p97
sg40
g41
((I2012
I10
I7
I0
I0
I0
I6
I281
I-1
t(dtRp98
sa(dp99
g34
I2
sS'c'
F1
sg29
F0
sg35
S'Australia'
p100
sg37
I288
sg31
F1
sg30
F1
sS's'
F0
sg38
S'Colombo (RPS)'
p101
sg40
g41
((I2012
I10
I5
I0
I0
I0
I4
I279
I-1
t(dtRp102
sa(dp103
g34
I2
sS'c'
F0
sg29
F0
sg35
S'New Zealand'
p104
sg37
I283
sg31
F0
sg30
F0
sS's'
F0
sg38
S'Pallekele'
p105
sg40
g41
((I2012
I10
I1
I0
I0
I0
I0
I275
I-1
t(dtRp106
sa(dp107
g34
I2
sS'c'
F0
sg29
F0
sg35
S'England'
p108
sg37
I276
sg31
F0
sg30
F0
sS's'
F0
sg38
S'Pallekele'
p109
sg40
g41
((I2012
I9
I27
I0
I0
I0
I3
I271
I-1
t(dtRp110
sa(dp111
g34
I2
sS'c'
F0
sg29
F0
sg35
S'New Zealand'
p112
sg37
I248
sg31
F0
sg30
F0
sS's'
F0
sg38
S'Lauderhill'
p113
sg40
g41
((I2012
I7
I1
I0
I0
I0
I6
I183
I-1
t(dtRp114
sa(dp115
g34
I2
sS'c'
F0
sg29
F0
sg35
S'New Zealand'
p116
sg37
I247
sg31
F0
sg30
F0
sS's'
F0
sg38
S'Lauderhill'
p117
sg40
g41
((I2012
I6
I30
I0
I0
I0
I5
I182
I-1
t(dtRp118
satp119
sS'bowlingStats'
p120
((dp121
S'a'
F14.366666666666667
sS'b'
F474
sS'e'
F5.4556962025316453
sS'i'
F20
sS'sr'
p122
F15.800000000000001
sS'5w'
p123
F0
sS'm'
F20
sS'maid'
p124
F1
sS'r'
F431
sS'w'
F30
sS'4w'
p125
F1
sS'bbir'
p126
F15
sS'bbiw'
p127
F4
s(lp128
(dp129
g34
I1
sS'b'
F24
sS'e'
F5.75
sg37
I398
sS'pos'
p130
I1
sg124
F0
sS'r'
F23
sg38
S'Dhaka'
p131
sS'w'
F1
sg40
g41
((I2014
I4
I3
I0
I0
I0
I3
I93
I-1
t(dtRp132
sg35
S'Sri Lanka'
p133
sa(dp134
g34
I2
sS'b'
F24
sS'e'
F2.5
sg37
I397
sg130
I2
sg124
F0
sS'r'
F10
sg38
S'Dhaka'
p135
sS'w'
F3
sg40
g41
((I2014
I4
I1
I0
I0
I0
I1
I91
I-1
t(dtRp136
sg35
S'Pakistan'
p137
sa(dp138
g34
I1
sS'b'
F24
sS'e'
F9.25
sg37
I388
sg130
I2
sg124
F0
sS'r'
F37
sg38
S'Dhaka'
p139
sS'w'
F2
sg40
g41
((I2014
I3
I28
I0
I0
I0
I4
I87
I-1
t(dtRp140
sg35
S'Australia'
p141
sa(dp142
g34
I2
sS'b'
F24
sS'e'
F3.75
sg37
I385
sg130
I1
sg124
F0
sS'r'
F15
sg38
S'Dhaka'
p143
sS'w'
F4
sg40
g41
((I2014
I3
I25
I0
I0
I0
I1
I84
I-1
t(dtRp144
sg35
S'Bangladesh'
p145
sa(dp146
g34
I2
sS'b'
F24
sS'e'
F7
sg37
I382
sg130
I1
sg124
F0
sS'r'
F28
sg38
S'Dhaka'
p147
sS'w'
F1
sg40
g41
((I2014
I3
I23
I0
I0
I0
I6
I82
I-1
t(dtRp148
sg35
S'India'
p149
sa(dp150
g34
I1
sS'b'
F24
sS'e'
F4
sg37
I362
sg130
I1
sg124
F0
sS'r'
F16
sg38
S'Bridgetown'
p151
sS'w'
F1
sg40
g41
((I2014
I3
I11
I0
I0
I0
I1
I70
I-1
t(dtRp152
sg35
S'England'
p153
sa(dp154
g34
I2
sS'b'
F24
sS'e'
F4.25
sg37
I361
sg130
I1
sg124
F0
sS'r'
F17
sg38
S'Bridgetown'
p155
sS'w'
F3
sg40
g41
((I2014
I3
I9
I0
I0
I0
I6
I68
I-1
t(dtRp156
sg35
S'England'
p157
sa(dp158
g34
I2
sS'b'
F24
sS'e'
F3.25
sg37
I360
sg130
I2
sg124
F1
sS'r'
F13
sg38
S'Kingston'
p159
sS'w'
F1
sg40
g41
((I2014
I2
I21
I0
I0
I0
I4
I52
I-1
t(dtRp160
sg35
S'Ireland'
p161
sa(dp162
g34
I2
sS'b'
F24
sS'e'
F4.5
sg37
I359
sg130
I1
sg124
F0
sS'r'
F18
sg38
S'Kingston'
p163
sS'w'
F2
sg40
g41
((I2014
I2
I19
I0
I0
I0
I2
I50
I-1
t(dtRp164
sg35
S'Ireland'
p165
sa(dp166
g34
I1
sS'b'
F24
sS'e'
F6.25
sg37
I352
sg130
I1
sg124
F0
sS'r'
F25
sg38
S'Auckland'
p167
sS'w'
F0
sg40
g41
((I2014
I1
I11
I0
I0
I0
I5
I11
I-1
t(dtRp168
sg35
S'New Zealand'
p169
sa(dp170
g34
I1
sS'b'
F24
sS'e'
F4
sg37
I322
sg130
I2
sg124
F0
sS'r'
F16
sg38
S'Kingstown'
p171
sS'w'
F2
sg40
g41
((I2013
I7
I28
I0
I0
I0
I6
I209
I-1
t(dtRp172
sg35
S'Pakistan'
p173
sa(dp174
g34
I2
sS'b'
F18
sS'e'
F9
sg37
I321
sg130
I2
sg124
F0
sS'r'
F27
sg38
S'Kingstown'
p175
sS'w'
F1
sg40
g41
((I2013
I7
I27
I0
I0
I0
I5
I208
I-1
t(dtRp176
sg35
S'Pakistan'
p177
sa(dp178
g34
I2
sS'b'
F24
sS'e'
F4.25
sg37
I308
sg130
I2
sg124
F0
sS'r'
F17
sg38
S'North Sound'
p179
sS'w'
F3
sg40
g41
((I2013
I3
I3
I0
I0
I0
I6
I62
I-1
t(dtRp180
sg35
S'Zimbabwe'
p181
sa(dp182
g34
I1
sS'b'
F24
sS'e'
F6.75
sg37
I305
sg130
I2
sg124
F0
sS'r'
F27
sg38
S'North Sound'
p183
sS'w'
F1
sg40
g41
((I2013
I3
I2
I0
I0
I0
I5
I61
I-1
t(dtRp184
sg35
S'Zimbabwe'
p185
sa(dp186
g34
I2
sS'b'
F24
sS'e'
F6
sg37
I289
sg130
I1
sg124
F0
sS'r'
F24
sg38
S'Colombo (RPS)'
p187
sS'w'
F1
sg40
g41
((I2012
I10
I7
I0
I0
I0
I6
I281
I-1
t(dtRp188
sg35
S'Sri Lanka'
p189
sa(dp190
g34
I2
sS'b'
F24
sS'e'
F6.75
sg37
I288
sg130
I1
sg124
F0
sS'r'
F27
sg38
S'Colombo (RPS)'
p191
sS'w'
F2
sg40
g41
((I2012
I10
I5
I0
I0
I0
I4
I279
I-1
t(dtRp192
sg35
S'Australia'
p193
sa(dp194
g34
I2
sS'b'
F24
sS'e'
F4.5
sg37
I283
sg130
I2
sg124
F0
sS'r'
F18
sg38
S'Pallekele'
p195
sS'w'
F1
sg40
g41
((I2012
I10
I1
I0
I0
I0
I0
I275
I-1
t(dtRp196
sg35
S'New Zealand'
p197
sa(dp198
g34
I2
sS'b'
F24
sS'e'
F5
sg37
I276
sg130
I2
sg124
F0
sS'r'
F20
sg38
S'Pallekele'
p199
sS'w'
F0
sg40
g41
((I2012
I9
I27
I0
I0
I0
I3
I271
I-1
t(dtRp200
sg35
S'England'
p201
sa(dp202
g34
I2
sS'b'
F24
sS'e'
F5
sg37
I248
sg130
I2
sg124
F0
sS'r'
F20
sg38
S'Lauderhill'
p203
sS'w'
F1
sg40
g41
((I2012
I7
I1
I0
I0
I0
I6
I183
I-1
t(dtRp204
sg35
S'New Zealand'
p205
sa(dp206
g34
I2
sS'b'
F24
sS'e'
F8.25
sg37
I247
sg130
I2
sg124
F0
sS'r'
F33
sg38
S'Lauderhill'
p207
sS'w'
F0
sg40
g41
((I2012
I6
I30
I0
I0
I0
I5
I182
I-1
t(dtRp208
sg35
S'New Zealand'
p209
satp210
sS'battingStats'
p211
((dp212
S'a'
F12
sS'0s'
p213
F0
sS'b'
F36
sS'no'
p214
F3
sS'i'
F5
sS'hs'
p215
F14
sS'm'
F20
sS'4s'
p216
F1
sS'6s'
p217
F0
sg122
F66.666666666666671
sS'r'
F24
sS'100s'
p218
F0
sS'50s'
p219
F0
s(lp220
(dp221
g34
I1
sS'b'
F6
sg35
S'Ireland'
p222
sg122
F83.333333333333329
sg37
I360
sS'dismiss'
p223
S'caught'
p224
sg216
F0
sg130
I10
sg217
F0
sg38
S'Kingston'
p225
sg40
g41
((I2014
I2
I21
I0
I0
I0
I4
I52
I-1
t(dtRp226
sS'r'
F5
sS'minutes'
p227
F-1
sa(dp228
g34
I1
sS'b'
F3
sg35
S'Ireland'
p229
sg214
I01
sg122
F100
sg37
I359
sg223
S'not out'
p230
sg216
F0
sg130
I10
sg217
F0
sg38
S'Kingston'
p231
sg40
g41
((I2014
I2
I19
I0
I0
I0
I2
I50
I-1
t(dtRp232
sS'r'
F3
sg227
F-1
sa(dp233
g34
I2
sS'b'
F22
sg35
S'New Zealand'
p234
sg214
I01
sg122
F63.636363636363633
sg37
I352
sg223
S'not out'
p235
sg216
F1
sg130
I10
sg217
F0
sg38
S'Auckland'
p236
sg40
g41
((I2014
I1
I11
I0
I0
I0
I5
I11
I-1
t(dtRp237
sS'r'
F14
sg227
F25
sa(dp238
g34
I2
sS'b'
F1
sg35
S'Pakistan'
p239
sg214
I01
sg122
F100
sg37
I322
sg223
S'not out'
p240
sg216
F0
sg130
I11
sg217
F0
sg38
S'Kingstown'
p241
sg40
g41
((I2013
I7
I28
I0
I0
I0
I6
I209
I-1
t(dtRp242
sS'r'
F1
sg227
F11
sa(dp243
g34
I1
sS'b'
F4
sg35
S'New Zealand'
p244
sg122
F25
sg37
I283
sg223
S'bowled'
p245
sg216
F0
sg130
I10
sg217
F0
sg38
S'Pallekele'
p246
sg40
g41
((I2012
I10
I1
I0
I0
I0
I0
I275
I-1
t(dtRp247
sS'r'
F1
sg227
F10
satp248
ssS'all'
p249
(dp250
g27
(dp251
S'c'
F25
sg29
F0
sS'i'
F87
sS'm'
F87
sS's'
F0
sg30
F25
sg31
F25
ssg120
(dp252
S'a'
F17.636363636363637
sS'b'
F1833
sS'e'
F5.0801963993453354
sS'i'
F84
sg122
F20.829545454545453
sg123
F0
sS'm'
F87
sg124
F0
sS'r'
F1552
sS'w'
F88
sg125
F1
sg126
F15
sg127
F4
ssg211
(dp253
S'a'
F9.875
sg213
F-1
sS'b'
F100
sg214
F20
sS'i'
F28
sg215
F15
sS'm'
F87
sg216
F4
sg217
F2
sg122
F79
sS'r'
F79
sg218
F0
sg219
F0
ssssb.