(iplayer
Player
p1
(dp2
S'is_batsman'
p3
I00
sS'name'
p4
S'Darren Sammy'
p5
sS'dob'
p6
S'1983/12/20'
p7
sS'price'
p8
S'950000'
p9
sS'is_allrounder'
p10
I01
sS'espnid'
p11
S'53115'
p12
sS'is_overseas'
p13
I01
sS'team'
p14
S'SRH'
p15
sS'nationality'
p16
S'West Indian'
p17
sS'is_bowler'
p18
I00
sS'is_keeper'
p19
I00
sS'id'
p20
S'589'
p21
sS'is_uncapped'
p22
I00
sS'tournamentStats'
p23
(dp24
S'international'
p25
(dp26
S'fieldingStats'
p27
((dp28
S'c'
F24
sS'ctw'
p29
F0
sS'span_s'
p30
F2007
sS'm'
F52
sS's'
F0
sS'dismissals'
p31
F24
sS'i'
F52
sS'ctf'
p32
F24
sS'span_f'
p33
F2014
s(lp34
(dp35
S'inning'
p36
I1
sS'c'
F0
sg29
F0
sS'opp'
p37
S'Sri Lanka'
p38
sS't20i_num'
p39
I398
sg32
F0
sg31
F0
sS's'
F0
sS'place'
p40
S'Dhaka'
p41
sS'date'
p42
ctime
struct_time
p43
((I2014
I4
I3
I0
I0
I0
I3
I93
I-1
t(dtRp44
sa(dp45
g36
I2
sS'c'
F1
sg29
F0
sg37
S'Pakistan'
p46
sg39
I397
sg32
F1
sg31
F1
sS's'
F0
sg40
S'Dhaka'
p47
sg42
g43
((I2014
I4
I1
I0
I0
I0
I1
I91
I-1
t(dtRp48
sa(dp49
g36
I1
sS'c'
F1
sg29
F0
sg37
S'Australia'
p50
sg39
I388
sg32
F1
sg31
F1
sS's'
F0
sg40
S'Dhaka'
p51
sg42
g43
((I2014
I3
I28
I0
I0
I0
I4
I87
I-1
t(dtRp52
sa(dp53
g36
I2
sS'c'
F1
sg29
F0
sg37
S'Bangladesh'
p54
sg39
I385
sg32
F1
sg31
F1
sS's'
F0
sg40
S'Dhaka'
p55
sg42
g43
((I2014
I3
I25
I0
I0
I0
I1
I84
I-1
t(dtRp56
sa(dp57
g36
I2
sS'c'
F0
sg29
F0
sg37
S'India'
p58
sg39
I382
sg32
F0
sg31
F0
sS's'
F0
sg40
S'Dhaka'
p59
sg42
g43
((I2014
I3
I23
I0
I0
I0
I6
I82
I-1
t(dtRp60
sa(dp61
g36
I1
sS'c'
F1
sg29
F0
sg37
S'England'
p62
sg39
I364
sg32
F1
sg31
F1
sS's'
F0
sg40
S'Bridgetown'
p63
sg42
g43
((I2014
I3
I13
I0
I0
I0
I3
I72
I-1
t(dtRp64
sa(dp65
g36
I1
sS'c'
F1
sg29
F0
sg37
S'England'
p66
sg39
I362
sg32
F1
sg31
F1
sS's'
F0
sg40
S'Bridgetown'
p67
sg42
g43
((I2014
I3
I11
I0
I0
I0
I1
I70
I-1
t(dtRp68
sa(dp69
g36
I2
sS'c'
F0
sg29
F0
sg37
S'England'
p70
sg39
I361
sg32
F0
sg31
F0
sS's'
F0
sg40
S'Bridgetown'
p71
sg42
g43
((I2014
I3
I9
I0
I0
I0
I6
I68
I-1
t(dtRp72
sa(dp73
g36
I2
sS'c'
F0
sg29
F0
sg37
S'Ireland'
p74
sg39
I360
sg32
F0
sg31
F0
sS's'
F0
sg40
S'Kingston'
p75
sg42
g43
((I2014
I2
I21
I0
I0
I0
I4
I52
I-1
t(dtRp76
sa(dp77
g36
I2
sS'c'
F0
sg29
F0
sg37
S'Ireland'
p78
sg39
I359
sg32
F0
sg31
F0
sS's'
F0
sg40
S'Kingston'
p79
sg42
g43
((I2014
I2
I19
I0
I0
I0
I2
I50
I-1
t(dtRp80
sa(dp81
g36
I1
sS'c'
F1
sg29
F0
sg37
S'Pakistan'
p82
sg39
I322
sg32
F1
sg31
F1
sS's'
F0
sg40
S'Kingstown'
p83
sg42
g43
((I2013
I7
I28
I0
I0
I0
I6
I209
I-1
t(dtRp84
sa(dp85
g36
I2
sS'c'
F0
sg29
F0
sg37
S'Pakistan'
p86
sg39
I321
sg32
F0
sg31
F0
sS's'
F0
sg40
S'Kingstown'
p87
sg42
g43
((I2013
I7
I27
I0
I0
I0
I5
I208
I-1
t(dtRp88
sa(dp89
g36
I2
sS'c'
F1
sg29
F0
sg37
S'Zimbabwe'
p90
sg39
I308
sg32
F1
sg31
F1
sS's'
F0
sg40
S'North Sound'
p91
sg42
g43
((I2013
I3
I3
I0
I0
I0
I6
I62
I-1
t(dtRp92
sa(dp93
g36
I1
sS'c'
F0
sg29
F0
sg37
S'Zimbabwe'
p94
sg39
I305
sg32
F0
sg31
F0
sS's'
F0
sg40
S'North Sound'
p95
sg42
g43
((I2013
I3
I2
I0
I0
I0
I5
I61
I-1
t(dtRp96
sa(dp97
g36
I2
sS'c'
F1
sg29
F0
sg37
S'Australia'
p98
sg39
I303
sg32
F1
sg31
F1
sS's'
F0
sg40
S'Brisbane'
p99
sg42
g43
((I2013
I2
I13
I0
I0
I0
I2
I44
I-1
t(dtRp100
sa(dp101
g36
I2
sS'c'
F1
sg29
F0
sg37
S'Bangladesh'
p102
sg39
I291
sg32
F1
sg31
F1
sS's'
F0
sg40
S'Dhaka'
p103
sg42
g43
((I2012
I12
I10
I0
I0
I0
I0
I345
I-1
t(dtRp104
sa(dp105
g36
I2
sS'c'
F1
sg29
F0
sg37
S'Sri Lanka'
p106
sg39
I289
sg32
F1
sg31
F1
sS's'
F0
sg40
S'Colombo (RPS)'
p107
sg42
g43
((I2012
I10
I7
I0
I0
I0
I6
I281
I-1
t(dtRp108
sa(dp109
g36
I2
sS'c'
F0
sg29
F0
sg37
S'Australia'
p110
sg39
I288
sg32
F0
sg31
F0
sS's'
F0
sg40
S'Colombo (RPS)'
p111
sg42
g43
((I2012
I10
I5
I0
I0
I0
I4
I279
I-1
t(dtRp112
sa(dp113
g36
I2
sS'c'
F0
sg29
F0
sg37
S'New Zealand'
p114
sg39
I283
sg32
F0
sg31
F0
sS's'
F0
sg40
S'Pallekele'
p115
sg42
g43
((I2012
I10
I1
I0
I0
I0
I0
I275
I-1
t(dtRp116
sa(dp117
g36
I2
sS'c'
F0
sg29
F0
sg37
S'Sri Lanka'
p118
sg39
I280
sg32
F0
sg31
F0
sS's'
F0
sg40
S'Pallekele'
p119
sg42
g43
((I2012
I9
I29
I0
I0
I0
I5
I273
I-1
t(dtRp120
sa(dp121
g36
I2
sS'c'
F0
sg29
F0
sg37
S'England'
p122
sg39
I276
sg32
F0
sg31
F0
sS's'
F0
sg40
S'Pallekele'
p123
sg42
g43
((I2012
I9
I27
I0
I0
I0
I3
I271
I-1
t(dtRp124
sa(dp125
g36
I1
sS'c'
F0
sg29
F0
sg37
S'Ireland'
p126
sg39
I273
sg32
F0
sg31
F0
sS's'
F0
sg40
S'Colombo (RPS)'
p127
sg42
g43
((I2012
I9
I24
I0
I0
I0
I0
I268
I-1
t(dtRp128
sa(dp129
g36
I2
sS'c'
F0
sg29
F0
sg37
S'Australia'
p130
sg39
I270
sg32
F0
sg31
F0
sS's'
F0
sg40
S'Colombo (RPS)'
p131
sg42
g43
((I2012
I9
I22
I0
I0
I0
I5
I266
I-1
t(dtRp132
sa(dp133
g36
I2
sS'c'
F0
sg29
F0
sg37
S'New Zealand'
p134
sg39
I248
sg32
F0
sg31
F0
sS's'
F0
sg40
S'Lauderhill'
p135
sg42
g43
((I2012
I7
I1
I0
I0
I0
I6
I183
I-1
t(dtRp136
sa(dp137
g36
I2
sS'c'
F1
sg29
F0
sg37
S'New Zealand'
p138
sg39
I247
sg32
F1
sg31
F1
sS's'
F0
sg40
S'Lauderhill'
p139
sg42
g43
((I2012
I6
I30
I0
I0
I0
I5
I182
I-1
t(dtRp140
sa(dp141
g36
I2
sS'c'
F0
sg29
F0
sg37
S'England'
p142
sg39
I246
sg32
F0
sg31
F0
sS's'
F0
sg40
S'Nottingham'
p143
sg42
g43
((I2012
I6
I24
I0
I0
I0
I6
I176
I-1
t(dtRp144
sa(dp145
g36
I2
sS'c'
F2
sg29
F0
sg37
S'Australia'
p146
sg39
I243
sg32
F2
sg31
F2
sS's'
F0
sg40
S'Bridgetown'
p147
sg42
g43
((I2012
I3
I30
I0
I0
I0
I4
I90
I-1
t(dtRp148
sa(dp149
g36
I2
sS'c'
F0
sg29
F0
sg37
S'Australia'
p150
sg39
I241
sg32
F0
sg31
F0
sS's'
F0
sg40
S'Gros Islet'
p151
sg42
g43
((I2012
I3
I27
I0
I0
I0
I1
I87
I-1
t(dtRp152
sa(dp153
g36
I2
sS'c'
F0
sg29
F0
sg37
S'Bangladesh'
p154
sg39
I209
sg32
F0
sg31
F0
sS's'
F0
sg40
S'Dhaka'
p155
sg42
g43
((I2011
I10
I11
I0
I0
I0
I1
I284
I-1
t(dtRp156
sa(dp157
g36
I2
sS'c'
F0
sg29
F0
sg37
S'England'
p158
sg39
I208
sg32
F0
sg31
F0
sS's'
F0
sg40
S'The Oval'
p159
sg42
g43
((I2011
I9
I25
I0
I0
I0
I6
I268
I-1
t(dtRp160
sa(dp161
g36
I2
sS'c'
F0
sg29
F0
sg37
S'England'
p162
sg39
I207
sg32
F0
sg31
F0
sS's'
F0
sg40
S'The Oval'
p163
sg42
g43
((I2011
I9
I23
I0
I0
I0
I4
I266
I-1
t(dtRp164
sa(dp165
g36
I1
sS'c'
F0
sg29
F0
sg37
S'India'
p166
sg39
I200
sg32
F0
sg31
F0
sS's'
F0
sg40
S'Port of Spain'
p167
sg42
g43
((I2011
I6
I4
I0
I0
I0
I5
I155
I-1
t(dtRp168
sa(dp169
g36
I2
sS'c'
F2
sg29
F0
sg37
S'Pakistan'
p170
sg39
I199
sg32
F2
sg31
F2
sS's'
F0
sg40
S'Gros Islet'
p171
sg42
g43
((I2011
I4
I21
I0
I0
I0
I3
I111
I-1
t(dtRp172
sa(dp173
g36
I1
sS'c'
F0
sg29
F0
sg37
S'South Africa'
p174
sg39
I179
sg32
F0
sg31
F0
sS's'
F0
sg40
S'North Sound'
p175
sg42
g43
((I2010
I5
I20
I0
I0
I0
I3
I140
I-1
t(dtRp176
sa(dp177
g36
I1
sS'c'
F0
sg29
F0
sg37
S'South Africa'
p178
sg39
I178
sg32
F0
sg31
F0
sS's'
F0
sg40
S'North Sound'
p179
sg42
g43
((I2010
I5
I19
I0
I0
I0
I2
I139
I-1
t(dtRp180
sa(dp181
g36
I2
sS'c'
F1
sg29
F0
sg37
S'Australia'
p182
sg39
I174
sg32
F1
sg31
F1
sS's'
F0
sg40
S'Gros Islet'
p183
sg42
g43
((I2010
I5
I11
I0
I0
I0
I1
I131
I-1
t(dtRp184
sa(dp185
g36
I2
sS'c'
F1
sg29
F0
sg37
S'India'
p186
sg39
I169
sg32
F1
sg31
F1
sS's'
F0
sg40
S'Bridgetown'
p187
sg42
g43
((I2010
I5
I9
I0
I0
I0
I6
I129
I-1
t(dtRp188
sa(dp189
g36
I1
sS'c'
F0
sg29
F0
sg37
S'Sri Lanka'
p190
sg39
I166
sg32
F0
sg31
F0
sS's'
F0
sg40
S'Bridgetown'
p191
sg42
g43
((I2010
I5
I7
I0
I0
I0
I4
I127
I-1
t(dtRp192
sa(dp193
g36
I1
sS'c'
F0
sg29
F0
sg37
S'England'
p194
sg39
I158
sg32
F0
sg31
F0
sS's'
F0
sg40
S'Providence'
p195
sg42
g43
((I2010
I5
I3
I0
I0
I0
I0
I123
I-1
t(dtRp196
sa(dp197
g36
I2
sS'c'
F4
sg29
F0
sg37
S'Ireland'
p198
sg39
I152
sg32
F4
sg31
F4
sS's'
F0
sg40
S'Providence'
p199
sg42
g43
((I2010
I4
I30
I0
I0
I0
I4
I120
I-1
t(dtRp200
sa(dp201
g36
I1
sS'c'
F0
sg29
F0
sg37
S'Zimbabwe'
p202
sg39
I150
sg32
F0
sg31
F0
sS's'
F0
sg40
S'Port of Spain'
p203
sg42
g43
((I2010
I2
I28
I0
I0
I0
I6
I59
I-1
t(dtRp204
sa(dp205
g36
I2
sS'c'
F0
sg29
F0
sg37
S'Australia'
p206
sg39
I147
sg32
F0
sg31
F0
sS's'
F0
sg40
S'Sydney'
p207
sg42
g43
((I2010
I2
I23
I0
I0
I0
I1
I54
I-1
t(dtRp208
sa(dp209
g36
I1
sS'c'
F1
sg29
F0
sg37
S'Australia'
p210
sg39
I146
sg32
F1
sg31
F1
sS's'
F0
sg40
S'Hobart'
p211
sg42
g43
((I2010
I2
I21
I0
I0
I0
I6
I52
I-1
t(dtRp212
sa(dp213
g36
I1
sS'c'
F0
sg29
F0
sg37
S'Bangladesh'
p214
sg39
I117
sg32
F0
sg31
F0
sS's'
F0
sg40
S'Basseterre'
p215
sg42
g43
((I2009
I8
I2
I0
I0
I0
I6
I214
I-1
t(dtRp216
sa(dp217
g36
I1
sS'c'
F1
sg29
F0
sg37
S'Sri Lanka'
p218
sg39
I115
sg32
F1
sg31
F1
sS's'
F0
sg40
S'The Oval'
p219
sg42
g43
((I2009
I6
I19
I0
I0
I0
I4
I170
I-1
t(dtRp220
sa(dp221
g36
I1
sS'c'
F0
sg29
F0
sg37
S'England'
p222
sg39
I111
sg32
F0
sg31
F0
sS's'
F0
sg40
S'The Oval'
p223
sg42
g43
((I2009
I6
I15
I0
I0
I0
I0
I166
I-1
t(dtRp224
sa(dp225
g36
I1
sS'c'
F0
sg29
F0
sg37
S'England'
p226
sg39
I86
sg32
F0
sg31
F0
sS's'
F0
sg40
S'Port of Spain'
p227
sg42
g43
((I2009
I3
I15
I0
I0
I0
I6
I74
I-1
t(dtRp228
sa(dp229
g36
I1
sS'c'
F0
sg29
F0
sg37
S'Australia'
p230
sg39
I57
sg32
F0
sg31
F0
sS's'
F0
sg40
S'Bridgetown'
p231
sg42
g43
((I2008
I6
I20
I0
I0
I0
I4
I172
I-1
t(dtRp232
sa(dp233
g36
I2
sS'c'
F0
sg29
F0
sg37
S'South Africa'
p234
sg39
I51
sg32
F0
sg31
F0
sS's'
F0
sg40
S'Johannesburg'
p235
sg42
g43
((I2008
I1
I18
I0
I0
I0
I4
I18
I-1
t(dtRp236
sa(dp237
g36
I1
sS'c'
F0
sg29
F0
sg37
S'South Africa'
p238
sg39
I50
sg32
F0
sg31
F0
sS's'
F0
sg40
S'Port Elizabeth'
p239
sg42
g43
((I2007
I12
I16
I0
I0
I0
I6
I350
I-1
t(dtRp240
sa(dp241
g36
I2
sS'c'
F1
sg29
F0
sg37
S'England'
p242
sg39
I16
sg32
F1
sg31
F1
sS's'
F0
sg40
S'The Oval'
p243
sg42
g43
((I2007
I6
I29
I0
I0
I0
I4
I180
I-1
t(dtRp244
sa(dp245
g36
I2
sS'c'
F0
sg29
F0
sg37
S'England'
p246
sg39
I15
sg32
F0
sg31
F0
sS's'
F0
sg40
S'The Oval'
p247
sg42
g43
((I2007
I6
I28
I0
I0
I0
I3
I179
I-1
t(dtRp248
satp249
sS'bowlingStats'
p250
((dp251
S'a'
F22.899999999999999
sS'b'
F784
sS'e'
F7.0102040816326534
sS'i'
F49
sS'sr'
p252
F19.600000000000001
sS'5w'
p253
F1
sS'm'
F52
sS'maid'
p254
F0
sS'r'
F916
sS'w'
F40
sS'4w'
p255
F1
sS'bbir'
p256
F26
sS'bbiw'
p257
F5
sg33
F2014
sg30
F2007
s(lp258
(dp259
g36
I1
sS'b'
F6
sS'e'
F16
sg39
I388
sS'pos'
p260
I5
sg254
F0
sS'r'
F16
sg40
S'Dhaka'
p261
sS'w'
F0
sg42
g43
((I2014
I3
I28
I0
I0
I0
I4
I87
I-1
t(dtRp262
sg37
S'Australia'
p263
sa(dp264
g36
I2
sS'b'
F6
sS'e'
F6
sg39
I385
sg260
I4
sg254
F0
sS'r'
F6
sg40
S'Dhaka'
p265
sS'w'
F0
sg42
g43
((I2014
I3
I25
I0
I0
I0
I1
I84
I-1
t(dtRp266
sg37
S'Bangladesh'
p267
sa(dp268
g36
I2
sS'b'
F6
sS'e'
F9
sg39
I382
sg260
I5
sg254
F0
sS'r'
F9
sg40
S'Dhaka'
p269
sS'w'
F0
sg42
g43
((I2014
I3
I23
I0
I0
I0
I6
I82
I-1
t(dtRp270
sg37
S'India'
p271
sa(dp272
g36
I1
sS'b'
F12
sS'e'
F7
sg39
I364
sg260
I6
sg254
F0
sS'r'
F14
sg40
S'Bridgetown'
p273
sS'w'
F0
sg42
g43
((I2014
I3
I13
I0
I0
I0
I3
I72
I-1
t(dtRp274
sg37
S'England'
p275
sa(dp276
g36
I1
sS'b'
F6
sS'e'
F17
sg39
I362
sg260
I5
sg254
F0
sS'r'
F17
sg40
S'Bridgetown'
p277
sS'w'
F0
sg42
g43
((I2014
I3
I11
I0
I0
I0
I1
I70
I-1
t(dtRp278
sg37
S'England'
p279
sa(dp280
g36
I2
sS'b'
F6
sS'e'
F12
sg39
I361
sg260
I6
sg254
F0
sS'r'
F12
sg40
S'Bridgetown'
p281
sS'w'
F0
sg42
g43
((I2014
I3
I9
I0
I0
I0
I6
I68
I-1
t(dtRp282
sg37
S'England'
p283
sa(dp284
g36
I2
sS'b'
F24
sS'e'
F5.5
sg39
I360
sg260
I5
sg254
F0
sS'r'
F22
sg40
S'Kingston'
p285
sS'w'
F3
sg42
g43
((I2014
I2
I21
I0
I0
I0
I4
I52
I-1
t(dtRp286
sg37
S'Ireland'
p287
sa(dp288
g36
I2
sS'b'
F18
sS'e'
F5.333333333333333
sg39
I359
sg260
I4
sg254
F0
sS'r'
F16
sg40
S'Kingston'
p289
sS'w'
F0
sg42
g43
((I2014
I2
I19
I0
I0
I0
I2
I50
I-1
t(dtRp290
sg37
S'Ireland'
p291
sa(dp292
g36
I1
sS'b'
F24
sS'e'
F5
sg39
I322
sg260
I1
sg254
F0
sS'r'
F20
sg40
S'Kingstown'
p293
sS'w'
F1
sg42
g43
((I2013
I7
I28
I0
I0
I0
I6
I209
I-1
t(dtRp294
sg37
S'Pakistan'
p295
sa(dp296
g36
I2
sS'b'
F6
sS'e'
F4
sg39
I321
sg260
I6
sg254
F0
sS'r'
F4
sg40
S'Kingstown'
p297
sS'w'
F0
sg42
g43
((I2013
I7
I27
I0
I0
I0
I5
I208
I-1
t(dtRp298
sg37
S'Pakistan'
p299
sa(dp300
g36
I2
sS'b'
F12
sS'e'
F6.5
sg39
I308
sg260
I3
sg254
F0
sS'r'
F13
sg40
S'North Sound'
p301
sS'w'
F0
sg42
g43
((I2013
I3
I3
I0
I0
I0
I6
I62
I-1
t(dtRp302
sg37
S'Zimbabwe'
p303
sa(dp304
g36
I1
sS'b'
F24
sS'e'
F8.5
sg39
I305
sg260
I3
sg254
F0
sS'r'
F34
sg40
S'North Sound'
p305
sS'w'
F0
sg42
g43
((I2013
I3
I2
I0
I0
I0
I5
I61
I-1
t(dtRp306
sg37
S'Zimbabwe'
p307
sa(dp308
g36
I2
sS'b'
F18
sS'e'
F10
sg39
I303
sg260
I2
sg254
F0
sS'r'
F30
sg40
S'Brisbane'
p309
sS'w'
F1
sg42
g43
((I2013
I2
I13
I0
I0
I0
I2
I44
I-1
t(dtRp310
sg37
S'Australia'
p311
sa(dp312
g36
I2
sS'b'
F12
sS'e'
F15
sg39
I291
sg260
I1
sg254
F0
sS'r'
F30
sg40
S'Dhaka'
p313
sS'w'
F0
sg42
g43
((I2012
I12
I10
I0
I0
I0
I0
I345
I-1
t(dtRp314
sg37
S'Bangladesh'
p315
sa(dp316
g36
I2
sS'b'
F12
sS'e'
F3
sg39
I289
sg260
I6
sg254
F0
sS'r'
F6
sg40
S'Colombo (RPS)'
p317
sS'w'
F2
sg42
g43
((I2012
I10
I7
I0
I0
I0
I6
I281
I-1
t(dtRp318
sg37
S'Sri Lanka'
p319
sa(dp320
g36
I2
sS'b'
F6
sS'e'
F11
sg39
I288
sg260
I6
sg254
F0
sS'r'
F11
sg40
S'Colombo (RPS)'
p321
sS'w'
F0
sg42
g43
((I2012
I10
I5
I0
I0
I0
I4
I279
I-1
t(dtRp322
sg37
S'Australia'
p323
sa(dp324
g36
I2
sS'b'
F24
sS'e'
F8.75
sg39
I283
sg260
I4
sg254
F0
sS'r'
F35
sg40
S'Pallekele'
p325
sS'w'
F1
sg42
g43
((I2012
I10
I1
I0
I0
I0
I0
I275
I-1
t(dtRp326
sg37
S'New Zealand'
p327
sa(dp328
g36
I2
sS'b'
F24
sS'e'
F7
sg39
I280
sg260
I4
sg254
F0
sS'r'
F28
sg40
S'Pallekele'
p329
sS'w'
F0
sg42
g43
((I2012
I9
I29
I0
I0
I0
I5
I273
I-1
t(dtRp330
sg37
S'Sri Lanka'
p331
sa(dp332
g36
I2
sS'b'
F6
sS'e'
F13
sg39
I276
sg260
I4
sg254
F0
sS'r'
F13
sg40
S'Pallekele'
p333
sS'w'
F0
sg42
g43
((I2012
I9
I27
I0
I0
I0
I3
I271
I-1
t(dtRp334
sg37
S'England'
p335
sa(dp336
g36
I1
sS'b'
F18
sS'e'
F7.666666666666667
sg39
I273
sg260
I3
sg254
F0
sS'r'
F23
sg40
S'Colombo (RPS)'
p337
sS'w'
F1
sg42
g43
((I2012
I9
I24
I0
I0
I0
I0
I268
I-1
t(dtRp338
sg37
S'Ireland'
p339
sa(dp340
g36
I2
sS'b'
F12
sS'e'
F7.5
sg39
I270
sg260
I4
sg254
F0
sS'r'
F15
sg40
S'Colombo (RPS)'
p341
sS'w'
F0
sg42
g43
((I2012
I9
I22
I0
I0
I0
I5
I266
I-1
t(dtRp342
sg37
S'Australia'
p343
sa(dp344
g36
I2
sS'b'
F12
sS'e'
F7
sg39
I248
sg260
I4
sg254
F0
sS'r'
F14
sg40
S'Lauderhill'
p345
sS'w'
F0
sg42
g43
((I2012
I7
I1
I0
I0
I0
I6
I183
I-1
t(dtRp346
sg37
S'New Zealand'
p347
sa(dp348
g36
I2
sS'b'
F12
sS'e'
F6.5
sg39
I247
sg260
I5
sg254
F0
sS'r'
F13
sg40
S'Lauderhill'
p349
sS'w'
F1
sg42
g43
((I2012
I6
I30
I0
I0
I0
I5
I182
I-1
t(dtRp350
sg37
S'New Zealand'
p351
sa(dp352
g36
I2
sS'b'
F18
sS'e'
F7.333333333333333
sg39
I246
sg260
I5
sg254
F0
sS'r'
F22
sg40
S'Nottingham'
p353
sS'w'
F0
sg42
g43
((I2012
I6
I24
I0
I0
I0
I6
I176
I-1
t(dtRp354
sg37
S'England'
p355
sa(dp356
g36
I2
sS'b'
F6
sS'e'
F11
sg39
I243
sg260
I4
sg254
F0
sS'r'
F11
sg40
S'Bridgetown'
p357
sS'w'
F0
sg42
g43
((I2012
I3
I30
I0
I0
I0
I4
I90
I-1
t(dtRp358
sg37
S'Australia'
p359
sa(dp360
g36
I2
sS'b'
F13
sS'e'
F10.153846153846153
sg39
I241
sg260
I4
sg254
F0
sS'r'
F22
sg40
S'Gros Islet'
p361
sS'w'
F0
sg42
g43
((I2012
I3
I27
I0
I0
I0
I1
I87
I-1
t(dtRp362
sg37
S'Australia'
p363
sa(dp364
g36
I2
sS'b'
F24
sS'e'
F7.5
sg39
I209
sg260
I2
sg254
F0
sS'r'
F30
sg40
S'Dhaka'
p365
sS'w'
F1
sg42
g43
((I2011
I10
I11
I0
I0
I0
I1
I284
I-1
t(dtRp366
sg37
S'Bangladesh'
p367
sa(dp368
g36
I2
sS'b'
F12
sS'e'
F4.5
sg39
I208
sg260
I4
sg254
F0
sS'r'
F9
sg40
S'The Oval'
p369
sS'w'
F0
sg42
g43
((I2011
I9
I25
I0
I0
I0
I6
I268
I-1
t(dtRp370
sg37
S'England'
p371
sa(dp372
g36
I2
sS'b'
F18
sS'e'
F6.666666666666667
sg39
I207
sg260
I1
sg254
F0
sS'r'
F20
sg40
S'The Oval'
p373
sS'w'
F0
sg42
g43
((I2011
I9
I23
I0
I0
I0
I4
I266
I-1
t(dtRp374
sg37
S'England'
p375
sa(dp376
g36
I1
sS'b'
F24
sS'e'
F4
sg39
I200
sg260
I3
sg254
F0
sS'r'
F16
sg40
S'Port of Spain'
p377
sS'w'
F4
sg42
g43
((I2011
I6
I4
I0
I0
I0
I5
I155
I-1
t(dtRp378
sg37
S'India'
p379
sa(dp380
g36
I2
sS'b'
F18
sS'e'
F8.6666666666666661
sg39
I199
sg260
I2
sg254
F0
sS'r'
F26
sg40
S'Gros Islet'
p381
sS'w'
F1
sg42
g43
((I2011
I4
I21
I0
I0
I0
I3
I111
I-1
t(dtRp382
sg37
S'Pakistan'
p383
sa(dp384
g36
I1
sS'b'
F24
sS'e'
F4
sg39
I179
sg260
I5
sg254
F0
sS'r'
F16
sg40
S'North Sound'
p385
sS'w'
F2
sg42
g43
((I2010
I5
I20
I0
I0
I0
I3
I140
I-1
t(dtRp386
sg37
S'South Africa'
p387
sa(dp388
g36
I1
sS'b'
F12
sS'e'
F5.5
sg39
I178
sg260
I4
sg254
F0
sS'r'
F11
sg40
S'North Sound'
p389
sS'w'
F0
sg42
g43
((I2010
I5
I19
I0
I0
I0
I2
I139
I-1
t(dtRp390
sg37
S'South Africa'
p391
sa(dp392
g36
I2
sS'b'
F6
sS'e'
F3
sg39
I174
sg260
I6
sg254
F0
sS'r'
F3
sg40
S'Gros Islet'
p393
sS'w'
F0
sg42
g43
((I2010
I5
I11
I0
I0
I0
I1
I131
I-1
t(dtRp394
sg37
S'Australia'
p395
sa(dp396
g36
I2
sS'b'
F18
sS'e'
F5.333333333333333
sg39
I169
sg260
I1
sg254
F0
sS'r'
F16
sg40
S'Bridgetown'
p397
sS'w'
F1
sg42
g43
((I2010
I5
I9
I0
I0
I0
I6
I129
I-1
t(dtRp398
sg37
S'India'
p399
sa(dp400
g36
I1
sS'b'
F12
sS'e'
F11.5
sg39
I166
sg260
I5
sg254
F0
sS'r'
F23
sg40
S'Bridgetown'
p401
sS'w'
F0
sg42
g43
((I2010
I5
I7
I0
I0
I0
I4
I127
I-1
t(dtRp402
sg37
S'Sri Lanka'
p403
sa(dp404
g36
I1
sS'b'
F24
sS'e'
F5.5
sg39
I158
sg260
I5
sg254
F0
sS'r'
F22
sg40
S'Providence'
p405
sS'w'
F2
sg42
g43
((I2010
I5
I3
I0
I0
I0
I0
I123
I-1
t(dtRp406
sg37
S'England'
p407
sa(dp408
g36
I2
sS'b'
F22
sS'e'
F2.1818181818181817
sg39
I152
sg260
I5
sg254
F0
sS'r'
F8
sg40
S'Providence'
p409
sS'w'
F3
sg42
g43
((I2010
I4
I30
I0
I0
I0
I4
I120
I-1
t(dtRp410
sg37
S'Ireland'
p411
sa(dp412
g36
I1
sS'b'
F23
sS'e'
F6.7826086956521738
sg39
I150
sg260
I5
sg254
F0
sS'r'
F26
sg40
S'Port of Spain'
p413
sS'w'
F5
sg42
g43
((I2010
I2
I28
I0
I0
I0
I6
I59
I-1
t(dtRp414
sg37
S'Zimbabwe'
p415
sa(dp416
g36
I2
sS'b'
F6
sS'e'
F14
sg39
I147
sg260
I2
sg254
F0
sS'r'
F14
sg40
S'Sydney'
p417
sS'w'
F0
sg42
g43
((I2010
I2
I23
I0
I0
I0
I1
I54
I-1
t(dtRp418
sg37
S'Australia'
p419
sa(dp420
g36
I1
sS'b'
F18
sS'e'
F12
sg39
I146
sg260
I3
sg254
F0
sS'r'
F36
sg40
S'Hobart'
p421
sS'w'
F1
sg42
g43
((I2010
I2
I21
I0
I0
I0
I6
I52
I-1
t(dtRp422
sg37
S'Australia'
p423
sa(dp424
g36
I1
sS'b'
F24
sS'e'
F8.25
sg39
I117
sg260
I2
sg254
F0
sS'r'
F33
sg40
S'Basseterre'
p425
sS'w'
F2
sg42
g43
((I2009
I8
I2
I0
I0
I0
I6
I214
I-1
t(dtRp426
sg37
S'Bangladesh'
p427
sa(dp428
g36
I1
sS'b'
F24
sS'e'
F4.75
sg39
I115
sg260
I1
sg254
F0
sS'r'
F19
sg40
S'The Oval'
p429
sS'w'
F0
sg42
g43
((I2009
I6
I19
I0
I0
I0
I4
I170
I-1
t(dtRp430
sg37
S'Sri Lanka'
p431
sa(dp432
g36
I1
sS'b'
F24
sS'e'
F6
sg39
I111
sg260
I1
sg254
F0
sS'r'
F24
sg40
S'The Oval'
p433
sS'w'
F0
sg42
g43
((I2009
I6
I15
I0
I0
I0
I0
I166
I-1
t(dtRp434
sg37
S'England'
p435
sa(dp436
g36
I1
sS'b'
F24
sS'e'
F3.5
sg39
I86
sg260
I3
sg254
F0
sS'r'
F14
sg40
S'Port of Spain'
p437
sS'w'
F1
sg42
g43
((I2009
I3
I15
I0
I0
I0
I6
I74
I-1
t(dtRp438
sg37
S'England'
p439
sa(dp440
g36
I2
sS'b'
F24
sS'e'
F5.25
sg39
I51
sg260
I3
sg254
F0
sS'r'
F21
sg40
S'Johannesburg'
p441
sS'w'
F3
sg42
g43
((I2008
I1
I18
I0
I0
I0
I4
I18
I-1
t(dtRp442
sg37
S'South Africa'
p443
sa(dp444
g36
I1
sS'b'
F12
sS'e'
F4.5
sg39
I50
sg260
I5
sg254
F0
sS'r'
F9
sg40
S'Port Elizabeth'
p445
sS'w'
F1
sg42
g43
((I2007
I12
I16
I0
I0
I0
I6
I350
I-1
t(dtRp446
sg37
S'South Africa'
p447
sa(dp448
g36
I2
sS'b'
F24
sS'e'
F6.75
sg39
I16
sg260
I4
sg254
F0
sS'r'
F27
sg40
S'The Oval'
p449
sS'w'
F1
sg42
g43
((I2007
I6
I29
I0
I0
I0
I4
I180
I-1
t(dtRp450
sg37
S'England'
p451
sa(dp452
g36
I2
sS'b'
F24
sS'e'
F9.25
sg39
I15
sg260
I4
sg254
F0
sS'r'
F37
sg40
S'The Oval'
p453
sS'w'
F2
sg42
g43
((I2007
I6
I28
I0
I0
I0
I3
I179
I-1
t(dtRp454
sg37
S'England'
p455
satp456
sS'battingStats'
p457
((dp458
S'a'
F17.148148148148149
sS'0s'
p459
F2
sS'b'
F311
sS'no'
p460
F13
sg30
F2007
sS'hs'
p461
F42
sS'm'
F52
sS'4s'
p462
F37
sg33
F2014
sS'i'
F40
sS'6s'
p463
F24
sg252
F148.87459807073955
sS'r'
F463
sS'100s'
p464
F0
sS'50s'
p465
F0
s(lp466
(dp467
g36
I2
sS'b'
F0
sg37
S'Sri Lanka'
p468
sg460
I01
sg252
F0
sg39
I398
sS'dismiss'
p469
S'not out'
p470
sg462
F0
sg260
I6
sg463
F0
sg40
S'Dhaka'
p471
sg42
g43
((I2014
I4
I3
I0
I0
I0
I3
I93
I-1
t(dtRp472
sS'r'
F0
sS'minutes'
p473
F2
sa(dp474
g36
I1
sS'b'
F20
sg37
S'Pakistan'
p475
sg460
I01
sg252
F210
sg39
I397
sg469
S'not out'
p476
sg462
F5
sg260
I7
sg463
F2
sg40
S'Dhaka'
p477
sg42
g43
((I2014
I4
I1
I0
I0
I0
I1
I91
I-1
t(dtRp478
sS'r'
F42
sg473
F28
sa(dp479
g36
I2
sS'b'
F13
sg37
S'Australia'
p480
sg460
I01
sg252
F261.53846153846155
sg39
I388
sg469
S'not out'
p481
sg462
F2
sg260
I6
sg463
F3
sg40
S'Dhaka'
p482
sg42
g43
((I2014
I3
I28
I0
I0
I0
I4
I87
I-1
t(dtRp483
sS'r'
F34
sg473
F16
sa(dp484
g36
I1
sS'b'
F5
sg37
S'Bangladesh'
p485
sg460
I01
sg252
F280
sg39
I385
sg469
S'not out'
p486
sg462
F3
sg260
I5
sg463
F0
sg40
S'Dhaka'
p487
sg42
g43
((I2014
I3
I25
I0
I0
I0
I1
I84
I-1
t(dtRp488
sS'r'
F14
sg473
F13
sa(dp489
g36
I1
sS'b'
F7
sg37
S'India'
p490
sg252
F157.14285714285714
sg39
I382
sg469
S'caught'
p491
sg462
F2
sg260
I6
sg463
F0
sg40
S'Dhaka'
p492
sg42
g43
((I2014
I3
I23
I0
I0
I0
I6
I82
I-1
t(dtRp493
sS'r'
F11
sg473
F13
sa(dp494
g36
I2
sS'b'
F6
sg37
S'England'
p495
sg460
I01
sg252
F250
sg39
I364
sg469
S'not out'
p496
sg462
F2
sg260
I8
sg463
F1
sg40
S'Bridgetown'
p497
sg42
g43
((I2014
I3
I13
I0
I0
I0
I3
I72
I-1
t(dtRp498
sS'r'
F15
sg473
F11
sa(dp499
g36
I2
sS'b'
F9
sg37
S'England'
p500
sg460
I01
sg252
F333.33333333333331
sg39
I362
sg469
S'not out'
p501
sg462
F2
sg260
I6
sg463
F3
sg40
S'Bridgetown'
p502
sg42
g43
((I2014
I3
I11
I0
I0
I0
I1
I70
I-1
t(dtRp503
sS'r'
F30
sg473
F15
sa(dp504
g36
I1
sS'b'
F5
sg37
S'Ireland'
p505
sg252
F40
sg39
I360
sg469
S'run out'
p506
sg462
F0
sg260
I7
sg463
F0
sg40
S'Kingston'
p507
sg42
g43
((I2014
I2
I21
I0
I0
I0
I4
I52
I-1
t(dtRp508
sS'r'
F2
sg473
F-1
sa(dp509
g36
I1
sS'b'
F8
sg37
S'Ireland'
p510
sg252
F87.5
sg39
I359
sg469
S'bowled'
p511
sg462
F1
sg260
I7
sg463
F0
sg40
S'Kingston'
p512
sg42
g43
((I2014
I2
I19
I0
I0
I0
I2
I50
I-1
t(dtRp513
sS'r'
F7
sg473
F-1
sa(dp514
g36
I2
sS'b'
F4
sg37
S'Pakistan'
p515
sg252
F25
sg39
I322
sg469
S'caught'
p516
sg462
F0
sg260
I8
sg463
F0
sg40
S'Kingstown'
p517
sg42
g43
((I2013
I7
I28
I0
I0
I0
I6
I209
I-1
t(dtRp518
sS'r'
F1
sg473
F10
sa(dp519
g36
I1
sS'b'
F14
sg37
S'Pakistan'
p520
sg252
F214.28571428571428
sg39
I321
sg469
S'caught'
p521
sg462
F2
sg260
I7
sg463
F3
sg40
S'Kingstown'
p522
sg42
g43
((I2013
I7
I27
I0
I0
I0
I5
I208
I-1
t(dtRp523
sS'r'
F30
sg473
F17
sa(dp524
g36
I1
sS'b'
F12
sg37
S'Zimbabwe'
p525
sg252
F158.33333333333334
sg39
I308
sg469
S'caught'
p526
sg462
F2
sg260
I6
sg463
F1
sg40
S'North Sound'
p527
sg42
g43
((I2013
I3
I3
I0
I0
I0
I6
I62
I-1
t(dtRp528
sS'r'
F19
sg473
F22
sa(dp529
g36
I1
sS'b'
F7
sg37
S'Australia'
p530
sg252
F285.71428571428572
sg39
I303
sg469
S'caught'
p531
sg462
F1
sg260
I7
sg463
F2
sg40
S'Brisbane'
p532
sg42
g43
((I2013
I2
I13
I0
I0
I0
I2
I44
I-1
t(dtRp533
sS'r'
F20
sg473
F10
sa(dp534
g36
I1
sS'b'
F15
sg37
S'Sri Lanka'
p535
sg460
I01
sg252
F173.33333333333334
sg39
I289
sg469
S'not out'
p536
sg462
F3
sg260
I7
sg463
F0
sg40
S'Colombo (RPS)'
p537
sg42
g43
((I2012
I10
I7
I0
I0
I0
I6
I281
I-1
t(dtRp538
sS'r'
F26
sg473
F23
sa(dp539
g36
I1
sS'b'
F12
sg37
S'New Zealand'
p540
sg252
F91.666666666666671
sg39
I283
sg469
S'caught'
p541
sg462
F1
sg260
I8
sg463
F0
sg40
S'Pallekele'
p542
sg42
g43
((I2012
I10
I1
I0
I0
I0
I0
I275
I-1
t(dtRp543
sS'r'
F11
sg473
F13
sa(dp544
g36
I1
sS'b'
F1
sg37
S'Sri Lanka'
p545
sg460
I01
sg252
F100
sg39
I280
sg469
S'not out'
p546
sg462
F0
sg260
I7
sg463
F0
sg40
S'Pallekele'
p547
sg42
g43
((I2012
I9
I29
I0
I0
I0
I5
I273
I-1
t(dtRp548
sS'r'
F1
sg473
F2
sa(dp549
g36
I1
sS'b'
F3
sg37
S'England'
p550
sg252
F133.33333333333334
sg39
I276
sg469
S'bowled'
p551
sg462
F0
sg260
I6
sg463
F0
sg40
S'Pallekele'
p552
sg42
g43
((I2012
I9
I27
I0
I0
I0
I3
I271
I-1
t(dtRp553
sS'r'
F4
sg473
F4
sa(dp554
g36
I1
sS'b'
F7
sg37
S'Australia'
p555
sg252
F171.42857142857142
sg39
I270
sg469
S'caught'
p556
sg462
F1
sg260
I7
sg463
F1
sg40
S'Colombo (RPS)'
p557
sg42
g43
((I2012
I9
I22
I0
I0
I0
I5
I266
I-1
t(dtRp558
sS'r'
F12
sg473
F12
sa(dp559
g36
I1
sS'b'
F11
sg37
S'New Zealand'
p560
sg252
F118.18181818181819
sg39
I248
sg469
S'caught'
p561
sg462
F1
sg260
I5
sg463
F0
sg40
S'Lauderhill'
p562
sg42
g43
((I2012
I7
I1
I0
I0
I0
I6
I183
I-1
t(dtRp563
sS'r'
F13
sg473
F15
sa(dp564
g36
I1
sS'b'
F9
sg37
S'Australia'
p565
sg252
F55.555555555555557
sg39
I243
sg469
S'bowled'
p566
sg462
F0
sg260
I5
sg463
F0
sg40
S'Bridgetown'
p567
sg42
g43
((I2012
I3
I30
I0
I0
I0
I4
I90
I-1
t(dtRp568
sS'r'
F5
sg473
F11
sa(dp569
g36
I1
sS'b'
F8
sg37
S'Australia'
p570
sg252
F87.5
sg39
I241
sg469
S'caught'
p571
sg462
F1
sg260
I7
sg463
F0
sg40
S'Gros Islet'
p572
sg42
g43
((I2012
I3
I27
I0
I0
I0
I1
I87
I-1
t(dtRp573
sS'r'
F7
sg473
F-1
sa(dp574
g36
I1
sS'b'
F2
sg37
S'Bangladesh'
p575
sg252
F50
sg39
I209
sg469
S'caught'
p576
sg462
F0
sg260
I7
sg463
F0
sg40
S'Dhaka'
p577
sg42
g43
((I2011
I10
I11
I0
I0
I0
I1
I284
I-1
t(dtRp578
sS'r'
F1
sg473
F3
sa(dp579
g36
I1
sS'b'
F8
sg37
S'England'
p580
sg252
F150
sg39
I208
sg469
S'caught'
p581
sg462
F0
sg260
I6
sg463
F1
sg40
S'The Oval'
p582
sg42
g43
((I2011
I9
I25
I0
I0
I0
I6
I268
I-1
t(dtRp583
sS'r'
F12
sg473
F11
sa(dp584
g36
I1
sS'b'
F6
sg37
S'England'
p585
sg252
F83.333333333333329
sg39
I207
sg469
S'caught'
p586
sg462
F0
sg260
I9
sg463
F0
sg40
S'The Oval'
p587
sg42
g43
((I2011
I9
I23
I0
I0
I0
I4
I266
I-1
t(dtRp588
sS'r'
F5
sg473
F11
sa(dp589
g36
I2
sS'b'
F2
sg37
S'India'
p590
sg252
F0
sg39
I200
sg469
S'caught'
p591
sg462
F0
sg260
I6
sg463
F0
sg40
S'Port of Spain'
p592
sg42
g43
((I2011
I6
I4
I0
I0
I0
I5
I155
I-1
t(dtRp593
sS'r'
F0
sg473
F2
sa(dp594
g36
I1
sS'b'
F2
sg37
S'Pakistan'
p595
sg252
F50
sg39
I199
sg469
S'caught'
p596
sg462
F0
sg260
I6
sg463
F0
sg40
S'Gros Islet'
p597
sg42
g43
((I2011
I4
I21
I0
I0
I0
I3
I111
I-1
t(dtRp598
sS'r'
F1
sg473
F1
sa(dp599
g36
I2
sS'b'
F6
sg37
S'South Africa'
p600
sg460
I01
sg252
F200
sg39
I179
sg469
S'not out'
p601
sg462
F1
sg260
I7
sg463
F0
sg40
S'North Sound'
p602
sg42
g43
((I2010
I5
I20
I0
I0
I0
I3
I140
I-1
t(dtRp603
sS'r'
F12
sg473
F12
sa(dp604
g36
I2
sS'b'
F28
sg37
S'South Africa'
p605
sg252
F60.714285714285715
sg39
I178
sg469
S'stumped'
p606
sg462
F1
sg260
I7
sg463
F0
sg40
S'North Sound'
p607
sg42
g43
((I2010
I5
I19
I0
I0
I0
I2
I139
I-1
t(dtRp608
sS'r'
F17
sg473
F38
sa(dp609
g36
I1
sS'b'
F1
sg37
S'Australia'
p610
sg252
F0
sg39
I174
sg469
S'caught'
p611
sg462
F0
sg260
I8
sg463
F0
sg40
S'Gros Islet'
p612
sg42
g43
((I2010
I5
I11
I0
I0
I0
I1
I131
I-1
t(dtRp613
sS'r'
F0
sg473
F1
sa(dp614
g36
I1
sS'b'
F10
sg37
S'India'
p615
sg252
F190
sg39
I169
sg469
S'caught'
p616
sg462
F2
sg260
I3
sg463
F1
sg40
S'Bridgetown'
p617
sg42
g43
((I2010
I5
I9
I0
I0
I0
I6
I129
I-1
t(dtRp618
sS'r'
F19
sg473
F14
sa(dp619
g36
I2
sS'b'
F3
sg37
S'Sri Lanka'
p620
sg252
F66.666666666666671
sg39
I166
sg469
S'lbw'
p621
sg462
F0
sg260
I7
sg463
F0
sg40
S'Bridgetown'
p622
sg42
g43
((I2010
I5
I7
I0
I0
I0
I4
I127
I-1
t(dtRp623
sS'r'
F2
sg473
F9
sa(dp624
g36
I1
sS'b'
F17
sg37
S'Ireland'
p625
sg252
F176.47058823529412
sg39
I152
sg469
S'caught'
p626
sg462
F2
sg260
I7
sg463
F2
sg40
S'Providence'
p627
sg42
g43
((I2010
I4
I30
I0
I0
I0
I4
I120
I-1
t(dtRp628
sS'r'
F30
sg473
F24
sa(dp629
g36
I2
sS'b'
F4
sg37
S'Zimbabwe'
p630
sg252
F50
sg39
I150
sg469
S'bowled'
p631
sg462
F0
sg260
I8
sg463
F0
sg40
S'Port of Spain'
p632
sg42
g43
((I2010
I2
I28
I0
I0
I0
I6
I59
I-1
t(dtRp633
sS'r'
F2
sg473
F5
sa(dp634
g36
I1
sS'b'
F11
sg37
S'Australia'
p635
sg460
I01
sg252
F236.36363636363637
sg39
I147
sg469
S'not out'
p636
sg462
F1
sg260
I9
sg463
F2
sg40
S'Sydney'
p637
sg42
g43
((I2010
I2
I23
I0
I0
I0
I1
I54
I-1
t(dtRp638
sS'r'
F26
sg473
F16
sa(dp639
g36
I2
sS'b'
F4
sg37
S'Australia'
p640
sg460
I01
sg252
F75
sg39
I146
sg469
S'not out'
p641
sg462
F0
sg260
I9
sg463
F0
sg40
S'Hobart'
p642
sg42
g43
((I2010
I2
I21
I0
I0
I0
I6
I52
I-1
t(dtRp643
sS'r'
F3
sg473
F-1
sa(dp644
g36
I2
sS'b'
F2
sg37
S'Bangladesh'
p645
sg252
F300
sg39
I117
sg469
S'caught'
p646
sg462
F0
sg260
I6
sg463
F1
sg40
S'Basseterre'
p647
sg42
g43
((I2009
I8
I2
I0
I0
I0
I6
I214
I-1
t(dtRp648
sS'r'
F6
sg473
F3
sa(dp649
g36
I2
sS'b'
F4
sg37
S'Sri Lanka'
p650
sg252
F25
sg39
I115
sg469
S'caught'
p651
sg462
F0
sg260
I10
sg463
F0
sg40
S'The Oval'
p652
sg42
g43
((I2009
I6
I19
I0
I0
I0
I4
I170
I-1
t(dtRp653
sS'r'
F1
sg473
F1
sa(dp654
g36
I1
sS'b'
F16
sg37
S'South Africa'
p655
sg460
I01
sg252
F87.5
sg39
I51
sg469
S'not out'
p656
sg462
F1
sg260
I8
sg463
F1
sg40
S'Johannesburg'
p657
sg42
g43
((I2008
I1
I18
I0
I0
I0
I4
I18
I-1
t(dtRp658
sS'r'
F14
sg473
F24
sa(dp659
g36
I1
sS'b'
F7
sg37
S'England'
p660
sg460
I01
sg252
F100
sg39
I16
sg469
S'not out'
p661
sg462
F0
sg260
I9
sg463
F0
sg40
S'The Oval'
p662
sg42
g43
((I2007
I6
I29
I0
I0
I0
I4
I180
I-1
t(dtRp663
sS'r'
F7
sg473
F3
sa(dp664
g36
I1
sS'b'
F2
sg37
S'England'
p665
sg252
F50
sg39
I15
sg469
S'bowled'
p666
sg462
F0
sg260
I9
sg463
F0
sg40
S'The Oval'
p667
sg42
g43
((I2007
I6
I28
I0
I0
I0
I3
I179
I-1
t(dtRp668
sS'r'
F1
sg473
F2
satp669
ssS'all'
p670
(dp671
g27
(dp672
S'c'
F47
sg29
F0
sS'i'
F105
sS'm'
F105
sS's'
F0
sg31
F47
sg32
F47
ssg250
(dp673
S'a'
F23.292134831460675
sS'b'
F1759
sS'e'
F7.0710631040363845
sS'i'
F99
sg252
F19.764044943820224
sg253
F1
sS'm'
F105
sg254
F0
sS'r'
F2073
sS'w'
F89
sg255
F2
sg256
F26
sg257
F5
ssg457
(dp674
S'a'
F21.350000000000001
sg459
F-1
sS'b'
F917
sg460
F26
sS'i'
F86
sg461
F60
sS'm'
F105
sg462
F93
sg463
F72
sg252
F139.69465648854961
sS'r'
F1281
sg464
F0
sg465
F2
ssssb.