(iplayer
Player
p1
(dp2
S'is_batsman'
p3
I00
sS'name'
p4
S'Yuvraj Singh'
p5
sS'dob'
p6
S'1981/12/12'
p7
sS'price'
p8
S'950000'
p9
sS'is_allrounder'
p10
I01
sS'espnid'
p11
S'36084'
p12
sS'is_overseas'
p13
I00
sS'team'
p14
S'RCB'
p15
sS'nationality'
p16
S'Indian'
p17
sS'is_bowler'
p18
I00
sS'is_keeper'
p19
I00
sS'id'
p20
S'113'
p21
sS'is_uncapped'
p22
I00
sS'tournamentStats'
p23
(dp24
S'international'
p25
(dp26
S'fieldingStats'
p27
((dp28
S'c'
F9
sS'ctw'
p29
F0
sS'span_s'
p30
F2007
sS'm'
F40
sS'ctf'
p31
F9
sS'dismissals'
p32
F9
sS'i'
F39
sS's'
F0
sS'span_f'
p33
F2014
s(lp34
(dp35
S'inning'
p36
I2
sS'c'
F0
sg29
F0
sS'opp'
p37
S'Sri Lanka'
p38
sS't20i_num'
p39
I400
sS's'
F0
sg32
F0
sg31
F0
sS'place'
p40
S'Dhaka'
p41
sS'date'
p42
ctime
struct_time
p43
((I2014
I4
I6
I0
I0
I0
I6
I96
I-1
t(dtRp44
sa(dp45
g36
I1
sS'c'
F0
sg29
F0
sg37
S'South Africa'
p46
sg39
I399
sS's'
F0
sg32
F0
sg31
F0
sg40
S'Dhaka'
p47
sg42
g43
((I2014
I4
I4
I0
I0
I0
I4
I94
I-1
t(dtRp48
sa(dp49
g36
I2
sS'c'
F0
sg29
F0
sg37
S'Australia'
p50
sg39
I393
sS's'
F0
sg32
F0
sg31
F0
sg40
S'Dhaka'
p51
sg42
g43
((I2014
I3
I30
I0
I0
I0
I6
I89
I-1
t(dtRp52
sa(dp53
g36
I1
sS'c'
F0
sg29
F0
sg37
S'Bangladesh'
p54
sg39
I389
sS's'
F0
sg32
F0
sg31
F0
sg40
S'Dhaka'
p55
sg42
g43
((I2014
I3
I28
I0
I0
I0
I4
I87
I-1
t(dtRp56
sa(dp57
g36
I1
sS'c'
F0
sg29
F0
sg37
S'West Indies'
p58
sg39
I382
sS's'
F0
sg32
F0
sg31
F0
sg40
S'Dhaka'
p59
sg42
g43
((I2014
I3
I23
I0
I0
I0
I6
I82
I-1
t(dtRp60
sa(dp61
g36
I1
sS'c'
F0
sg29
F0
sg37
S'Pakistan'
p62
sg39
I378
sS's'
F0
sg32
F0
sg31
F0
sg40
S'Dhaka'
p63
sg42
g43
((I2014
I3
I21
I0
I0
I0
I4
I80
I-1
t(dtRp64
sa(dp65
g36
I1
sS'c'
F1
sg29
F0
sg37
S'Australia'
p66
sg39
I331
sS's'
F0
sg32
F1
sg31
F1
sg40
S'Rajkot'
p67
sg42
g43
((I2013
I10
I10
I0
I0
I0
I3
I283
I-1
t(dtRp68
sa(dp69
g36
I2
sS'c'
F0
sg29
F0
sg37
S'Pakistan'
p70
sg39
I298
sS's'
F0
sg32
F0
sg31
F0
sg40
S'Ahmedabad'
p71
sg42
g43
((I2012
I12
I28
I0
I0
I0
I4
I363
I-1
t(dtRp72
sa(dp73
g36
I2
sS'c'
F0
sg29
F0
sg37
S'Pakistan'
p74
sg39
I296
sS's'
F0
sg32
F0
sg31
F0
sg40
S'Bangalore'
p75
sg42
g43
((I2012
I12
I25
I0
I0
I0
I1
I360
I-1
t(dtRp76
sa(dp77
g36
I2
sS'c'
F0
sg29
F0
sg37
S'England'
p78
sg39
I294
sS's'
F0
sg32
F0
sg31
F0
sg40
S'Mumbai'
p79
sg42
g43
((I2012
I12
I22
I0
I0
I0
I5
I357
I-1
t(dtRp80
sa(dp81
g36
I1
sS'c'
F0
sg29
F0
sg37
S'England'
p82
sg39
I292
sS's'
F0
sg32
F0
sg31
F0
sg40
S'Pune'
p83
sg42
g43
((I2012
I12
I20
I0
I0
I0
I3
I355
I-1
t(dtRp84
sa(dp85
g36
I2
sS'c'
F0
sg29
F0
sg37
S'South Africa'
p86
sg39
I286
sS's'
F0
sg32
F0
sg31
F0
sg40
S'Colombo (RPS)'
p87
sg42
g43
((I2012
I10
I2
I0
I0
I0
I1
I276
I-1
t(dtRp88
sa(dp89
g36
I1
sS'c'
F0
sg29
F0
sg37
S'Pakistan'
p90
sg39
I282
sS's'
F0
sg32
F0
sg31
F0
sg40
S'Colombo (RPS)'
p91
sg42
g43
((I2012
I9
I30
I0
I0
I0
I6
I274
I-1
t(dtRp92
sa(dp93
g36
I2
sS'c'
F0
sg29
F0
sg37
S'Australia'
p94
sg39
I278
sS's'
F0
sg32
F0
sg31
F0
sg40
S'Colombo (RPS)'
p95
sg42
g43
((I2012
I9
I28
I0
I0
I0
I4
I272
I-1
t(dtRp96
sa(dp97
g36
I2
sS'c'
F0
sg29
F0
sg37
S'England'
p98
sg39
I272
sS's'
F0
sg32
F0
sg31
F0
sg40
S'Colombo (RPS)'
p99
sg42
g43
((I2012
I9
I23
I0
I0
I0
I6
I267
I-1
t(dtRp100
sa(dp101
g36
I2
sS'c'
F1
sg29
F0
sg37
S'Afghanistan'
p102
sg39
I265
sS's'
F0
sg32
F1
sg31
F1
sg40
S'Colombo (RPS)'
p103
sg42
g43
((I2012
I9
I19
I0
I0
I0
I2
I263
I-1
t(dtRp104
sa(dp105
g36
I1
sS'c'
F1
sg29
F0
sg37
S'New Zealand'
p106
sg39
I261
sS's'
F0
sg32
F1
sg31
F1
sg40
S'Chennai'
p107
sg42
g43
((I2012
I9
I11
I0
I0
I0
I1
I255
I-1
t(dtRp108
sa(dp109
g36
I2
sS'c'
F0
sg29
F0
sg37
S'South Africa'
p110
sg39
I196
sS's'
F0
sg32
F0
sg31
F0
sg40
S'Durban'
p111
sg42
g43
((I2011
I1
I9
I0
I0
I0
I6
I9
I-1
t(dtRp112
sa(dp113
g36
I2
sS'c'
F1
sg29
F0
sg37
S'Sri Lanka'
p114
sg39
I173
sS's'
F0
sg32
F1
sg31
F1
sg40
S'Gros Islet'
p115
sg42
g43
((I2010
I5
I11
I0
I0
I0
I1
I131
I-1
t(dtRp116
sa(dp117
g36
I1
sS'c'
F0
sg29
F0
sg37
S'West Indies'
p118
sg39
I169
sS's'
F0
sg32
F0
sg31
F0
sg40
S'Bridgetown'
p119
sg42
g43
((I2010
I5
I9
I0
I0
I0
I6
I129
I-1
t(dtRp120
sa(dp121
g36
I1
sS'c'
F0
sg29
F0
sg37
S'Australia'
p122
sg39
I165
sS's'
F0
sg32
F0
sg31
F0
sg40
S'Bridgetown'
p123
sg42
g43
((I2010
I5
I7
I0
I0
I0
I4
I127
I-1
t(dtRp124
sa(dp125
g36
I2
sS'c'
F0
sg29
F0
sg37
S'South Africa'
p126
sg39
I155
sS's'
F0
sg32
F0
sg31
F0
sg40
S'Gros Islet'
p127
sg42
g43
((I2010
I5
I2
I0
I0
I0
I6
I122
I-1
t(dtRp128
sa(dp129
g36
I1
sS'c'
F0
sg29
F0
sg37
S'Afghanistan'
p130
sg39
I153
sS's'
F0
sg32
F0
sg31
F0
sg40
S'Gros Islet'
p131
sg42
g43
((I2010
I5
I1
I0
I0
I0
I5
I121
I-1
t(dtRp132
sa(dp133
g36
I1
sS'c'
F0
sg29
F0
sg37
S'Sri Lanka'
p134
sg39
I127
sS's'
F0
sg32
F0
sg31
F0
sg40
S'Mohali'
p135
sg42
g43
((I2009
I12
I12
I0
I0
I0
I5
I346
I-1
t(dtRp136
sa(dp137
g36
I1
sS'c'
F0
sg29
F0
sg37
S'Sri Lanka'
p138
sg39
I126
sS's'
F0
sg32
F0
sg31
F0
sg40
S'Nagpur'
p139
sg42
g43
((I2009
I12
I9
I0
I0
I0
I2
I343
I-1
t(dtRp140
sa(dp141
g36
I1
sS'c'
F0
sg29
F0
sg37
S'South Africa'
p142
sg39
I113
sS's'
F0
sg32
F0
sg31
F0
sg40
S'Nottingham'
p143
sg42
g43
((I2009
I6
I16
I0
I0
I0
I1
I167
I-1
t(dtRp144
sa(dp145
g36
I1
sS'c'
F0
sg29
F0
sg37
S'England'
p146
sg39
I109
sS's'
F0
sg32
F0
sg31
F0
sg40
S"Lord's"
p147
sg42
g43
((I2009
I6
I14
I0
I0
I0
I6
I165
I-1
t(dtRp148
sa(dp149
g36
I2
sS'c'
F1
sg29
F0
sg37
S'West Indies'
p150
sg39
I105
sS's'
F0
sg32
F1
sg31
F1
sg40
S"Lord's"
p151
sg42
g43
((I2009
I6
I12
I0
I0
I0
I4
I163
I-1
t(dtRp152
sa(dp153
g36
I1
sS'c'
F1
sg29
F0
sg37
S'Ireland'
p154
sg39
I101
sS's'
F0
sg32
F1
sg31
F1
sg40
S'Nottingham'
p155
sg42
g43
((I2009
I6
I10
I0
I0
I0
I2
I161
I-1
t(dtRp156
sa(dp157
g36
I2
sS'c'
F2
sg29
F0
sg37
S'Bangladesh'
p158
sg39
I93
sS's'
F0
sg32
F2
sg31
F2
sg40
S'Nottingham'
p159
sg42
g43
((I2009
I6
I6
I0
I0
I0
I5
I157
I-1
t(dtRp160
sa(dp161
g36
I2
sS'c'
F0
sg29
F0
sg37
S'New Zealand'
p162
sg39
I85
sS's'
F0
sg32
F0
sg31
F0
sg40
S'Wellington'
p163
sg42
g43
((I2009
I2
I27
I0
I0
I0
I4
I58
I-1
t(dtRp164
sa(dp165
g36
I2
sS'c'
F0
sg29
F0
sg37
S'New Zealand'
p166
sg39
I84
sS's'
F0
sg32
F0
sg31
F0
sg40
S'Christchurch'
p167
sg42
g43
((I2009
I2
I25
I0
I0
I0
I2
I56
I-1
t(dtRp168
sa(dp169
g36
I1
sS'c'
F0
sg29
F0
sg37
S'Sri Lanka'
p170
sg39
I82
sS's'
F0
sg32
F0
sg31
F0
sg40
S'Colombo (RPS)'
p171
sg42
g43
((I2009
I2
I10
I0
I0
I0
I1
I41
I-1
t(dtRp172
sa(dp173
g36
I1
sS'c'
F0
sg29
F0
sg37
S'Australia'
p174
sg39
I47
sS's'
F0
sg32
F0
sg31
F0
sg40
S'Mumbai (BS)'
p175
sg42
g43
((I2007
I10
I20
I0
I0
I0
I5
I293
I-1
t(dtRp176
sa(dp177
g36
I2
sS'c'
F0
sg29
F0
sg37
S'Pakistan'
p178
sg39
I46
sS's'
F0
sg32
F0
sg31
F0
sg40
S'Johannesburg'
p179
sg42
g43
((I2007
I9
I24
I0
I0
I0
I0
I267
I-1
t(dtRp180
sa(dp181
g36
I2
sS'c'
F1
sg29
F0
sg37
S'Australia'
p182
sg39
I45
sS's'
F0
sg32
F1
sg31
F1
sg40
S'Durban'
p183
sg42
g43
((I2007
I9
I22
I0
I0
I0
I5
I265
I-1
t(dtRp184
sa(dp185
g36
I2
sS'c'
F0
sg29
F0
sg37
S'England'
p186
sg39
I40
sS's'
F0
sg32
F0
sg31
F0
sg40
S'Durban'
p187
sg42
g43
((I2007
I9
I19
I0
I0
I0
I2
I262
I-1
t(dtRp188
sa(dp189
g36
I1
sS'c'
F0
sg29
F0
sg37
S'New Zealand'
p190
sg39
I32
sS's'
F0
sg32
F0
sg31
F0
sg40
S'Johannesburg'
p191
sg42
g43
((I2007
I9
I16
I0
I0
I0
I6
I259
I-1
t(dtRp192
sa(dp193
g36
I2
sS'c'
F0
sg29
F0
sg37
S'Pakistan'
p194
sg39
I29
sS's'
F0
sg32
F0
sg31
F0
sg40
S'Durban'
p195
sg42
g43
((I2007
I9
I14
I0
I0
I0
I4
I257
I-1
t(dtRp196
satp197
sS'bowlingStats'
p198
((dp199
S'a'
F16.782608695652176
sS'b'
F322
sS'e'
F7.1925465838509313
sS'i'
F22
sS'sr'
p200
F14
sS'5w'
p201
F0
sS'm'
F40
sS'maid'
p202
F0
sS'r'
F386
sS'w'
F23
sS'4w'
p203
F0
sS'bbir'
p204
F17
sS'bbiw'
p205
F3
sg33
F2014
sg30
F2007
s(lp206
(dp207
g36
I1
sS'b'
F6
sS'e'
F13
sg39
I378
sS'pos'
p208
I6
sg202
F0
sS'r'
F13
sg40
S'Dhaka'
p209
sS'w'
F0
sg42
g43
((I2014
I3
I21
I0
I0
I0
I4
I80
I-1
t(dtRp210
sg37
S'Pakistan'
p211
sa(dp212
g36
I2
sS'b'
F12
sS'e'
F11.5
sg39
I298
sg208
I6
sg202
F0
sS'r'
F23
sg40
S'Ahmedabad'
p213
sS'w'
F1
sg42
g43
((I2012
I12
I28
I0
I0
I0
I4
I363
I-1
t(dtRp214
sg37
S'Pakistan'
p215
sa(dp216
g36
I2
sS'b'
F18
sS'e'
F8.3333333333333339
sg39
I296
sg208
I5
sg202
F0
sS'r'
F25
sg40
S'Bangalore'
p217
sS'w'
F0
sg42
g43
((I2012
I12
I25
I0
I0
I0
I1
I360
I-1
t(dtRp218
sg37
S'Pakistan'
p219
sa(dp220
g36
I2
sS'b'
F24
sS'e'
F4.25
sg39
I294
sg208
I5
sg202
F0
sS'r'
F17
sg40
S'Mumbai'
p221
sS'w'
F3
sg42
g43
((I2012
I12
I22
I0
I0
I0
I5
I357
I-1
t(dtRp222
sg37
S'England'
p223
sa(dp224
g36
I1
sS'b'
F24
sS'e'
F4.75
sg39
I292
sg208
I7
sg202
F0
sS'r'
F19
sg40
S'Pune'
p225
sS'w'
F3
sg42
g43
((I2012
I12
I20
I0
I0
I0
I3
I355
I-1
t(dtRp226
sg37
S'England'
p227
sa(dp228
g36
I2
sS'b'
F24
sS'e'
F5.75
sg39
I286
sg208
I3
sg202
F0
sS'r'
F23
sg40
S'Colombo (RPS)'
p229
sS'w'
F2
sg42
g43
((I2012
I10
I2
I0
I0
I0
I1
I276
I-1
t(dtRp230
sg37
S'South Africa'
p231
sa(dp232
g36
I1
sS'b'
F18
sS'e'
F5.333333333333333
sg39
I282
sg208
I5
sg202
F0
sS'r'
F16
sg40
S'Colombo (RPS)'
p233
sS'w'
F2
sg42
g43
((I2012
I9
I30
I0
I0
I0
I6
I274
I-1
t(dtRp234
sg37
S'Pakistan'
p235
sa(dp236
g36
I2
sS'b'
F12
sS'e'
F8
sg39
I278
sg208
I7
sg202
F0
sS'r'
F16
sg40
S'Colombo (RPS)'
p237
sS'w'
F1
sg42
g43
((I2012
I9
I28
I0
I0
I0
I4
I272
I-1
t(dtRp238
sg37
S'Australia'
p239
sa(dp240
g36
I2
sS'b'
F4
sS'e'
F3
sg39
I272
sg208
I6
sg202
F0
sS'r'
F2
sg40
S'Colombo (RPS)'
p241
sS'w'
F0
sg42
g43
((I2012
I9
I23
I0
I0
I0
I6
I267
I-1
t(dtRp242
sg37
S'England'
p243
sa(dp244
g36
I2
sS'b'
F24
sS'e'
F6
sg39
I265
sg208
I5
sg202
F0
sS'r'
F24
sg40
S'Colombo (RPS)'
p245
sS'w'
F3
sg42
g43
((I2012
I9
I19
I0
I0
I0
I2
I263
I-1
t(dtRp246
sg37
S'Afghanistan'
p247
sa(dp248
g36
I1
sS'b'
F12
sS'e'
F7
sg39
I261
sg208
I4
sg202
F0
sS'r'
F14
sg40
S'Chennai'
p249
sS'w'
F0
sg42
g43
((I2012
I9
I11
I0
I0
I0
I1
I255
I-1
t(dtRp250
sg37
S'New Zealand'
p251
sa(dp252
g36
I2
sS'b'
F24
sS'e'
F5
sg39
I196
sg208
I5
sg202
F0
sS'r'
F20
sg40
S'Durban'
p253
sS'w'
F1
sg42
g43
((I2011
I1
I9
I0
I0
I0
I6
I9
I-1
t(dtRp254
sg37
S'South Africa'
p255
sa(dp256
g36
I2
sS'b'
F6
sS'e'
F6
sg39
I173
sg208
I6
sg202
F0
sS'r'
F6
sg40
S'Gros Islet'
p257
sS'w'
F0
sg42
g43
((I2010
I5
I11
I0
I0
I0
I1
I131
I-1
t(dtRp258
sg37
S'Sri Lanka'
p259
sa(dp260
g36
I1
sS'b'
F12
sS'e'
F10
sg39
I165
sg208
I6
sg202
F0
sS'r'
F20
sg40
S'Bridgetown'
p261
sS'w'
F2
sg42
g43
((I2010
I5
I7
I0
I0
I0
I4
I127
I-1
t(dtRp262
sg37
S'Australia'
p263
sa(dp264
g36
I1
sS'b'
F6
sS'e'
F4
sg39
I153
sg208
I5
sg202
F0
sS'r'
F4
sg40
S'Gros Islet'
p265
sS'w'
F0
sg42
g43
((I2010
I5
I1
I0
I0
I0
I5
I121
I-1
t(dtRp266
sg37
S'Afghanistan'
p267
sa(dp268
g36
I1
sS'b'
F18
sS'e'
F7.666666666666667
sg39
I127
sg208
I7
sg202
F0
sS'r'
F23
sg40
S'Mohali'
p269
sS'w'
F3
sg42
g43
((I2009
I12
I12
I0
I0
I0
I5
I346
I-1
t(dtRp270
sg37
S'Sri Lanka'
p271
sa(dp272
g36
I1
sS'b'
F24
sS'e'
F6.25
sg39
I113
sg208
I6
sg202
F0
sS'r'
F25
sg40
S'Nottingham'
p273
sS'w'
F0
sg42
g43
((I2009
I6
I16
I0
I0
I0
I1
I167
I-1
t(dtRp274
sg37
S'South Africa'
p275
sa(dp276
g36
I1
sS'b'
F12
sS'e'
F10
sg39
I109
sg208
I4
sg202
F0
sS'r'
F20
sg40
S"Lord's"
p277
sS'w'
F0
sg42
g43
((I2009
I6
I14
I0
I0
I0
I6
I165
I-1
t(dtRp278
sg37
S'England'
p279
sa(dp280
g36
I1
sS'b'
F6
sS'e'
F4
sg39
I101
sg208
I4
sg202
F0
sS'r'
F4
sg40
S'Nottingham'
p281
sS'w'
F0
sg42
g43
((I2009
I6
I10
I0
I0
I0
I2
I161
I-1
t(dtRp282
sg37
S'Ireland'
p283
sa(dp284
g36
I2
sS'b'
F12
sS'e'
F8.5
sg39
I85
sg208
I6
sg202
F0
sS'r'
F17
sg40
S'Wellington'
p285
sS'w'
F1
sg42
g43
((I2009
I2
I27
I0
I0
I0
I4
I58
I-1
t(dtRp286
sg37
S'New Zealand'
p287
sa(dp288
g36
I2
sS'b'
F6
sS'e'
F17
sg39
I84
sg208
I6
sg202
F0
sS'r'
F17
sg40
S'Christchurch'
p289
sS'w'
F0
sg42
g43
((I2009
I2
I25
I0
I0
I0
I2
I56
I-1
t(dtRp290
sg37
S'New Zealand'
p291
sa(dp292
g36
I1
sS'b'
F18
sS'e'
F12.666666666666666
sg39
I32
sg208
I6
sg202
F0
sS'r'
F38
sg40
S'Johannesburg'
p293
sS'w'
F1
sg42
g43
((I2007
I9
I16
I0
I0
I0
I6
I259
I-1
t(dtRp294
sg37
S'New Zealand'
p295
satp296
sS'battingStats'
p297
((dp298
S'a'
F31.225806451612904
sS'0s'
p299
F0
sS'b'
F669
sS'no'
p300
F6
sg30
F2007
sS'hs'
p301
F77
sS'm'
F40
sS'4s'
p302
F61
sS'50s'
p303
F8
sS'i'
F37
sS'6s'
p304
F63
sg200
F144.69357249626307
sS'r'
F968
sS'100s'
p305
F0
sg33
F2014
s(lp306
(dp307
g36
I1
sS'b'
F21
sg37
S'Sri Lanka'
p308
sg200
F52.38095238095238
sg39
I400
sS'dismiss'
p309
S'caught'
p310
sg302
F0
sg208
I4
sg304
F0
sg40
S'Dhaka'
p311
sg42
g43
((I2014
I4
I6
I0
I0
I0
I6
I96
I-1
t(dtRp312
sS'r'
F11
sS'minutes'
p313
F30
sa(dp314
g36
I2
sS'b'
F17
sg37
S'South Africa'
p315
sg200
F105.88235294117646
sg39
I399
sg309
S'caught'
p316
sg302
F2
sg208
I4
sg304
F0
sg40
S'Dhaka'
p317
sg42
g43
((I2014
I4
I4
I0
I0
I0
I4
I94
I-1
t(dtRp318
sS'r'
F18
sg313
F24
sa(dp319
g36
I1
sS'b'
F43
sg37
S'Australia'
p320
sg200
F139.53488372093022
sg39
I393
sg309
S'caught'
p321
sg302
F5
sg208
I4
sg304
F4
sg40
S'Dhaka'
p322
sg42
g43
((I2014
I3
I30
I0
I0
I0
I6
I89
I-1
t(dtRp323
sS'r'
F60
sg313
F61
sa(dp324
g36
I2
sS'b'
F19
sg37
S'West Indies'
p325
sg200
F52.631578947368418
sg39
I382
sg309
S'caught'
p326
sg302
F1
sg208
I4
sg304
F0
sg40
S'Dhaka'
p327
sg42
g43
((I2014
I3
I23
I0
I0
I0
I6
I82
I-1
t(dtRp328
sS'r'
F10
sg313
F19
sa(dp329
g36
I2
sS'b'
F2
sg37
S'Pakistan'
p330
sg200
F50
sg39
I378
sg309
S'bowled'
p331
sg302
F0
sg208
I4
sg304
F0
sg40
S'Dhaka'
p332
sg42
g43
((I2014
I3
I21
I0
I0
I0
I4
I80
I-1
t(dtRp333
sS'r'
F1
sg313
F3
sa(dp334
g36
I2
sS'b'
F35
sg37
S'Australia'
p335
sg300
I01
sg200
F220
sg39
I331
sg309
S'not out'
p336
sg302
F8
sg208
I5
sg304
F5
sg40
S'Rajkot'
p337
sg42
g43
((I2013
I10
I10
I0
I0
I0
I3
I283
I-1
t(dtRp338
sS'r'
F77
sg313
F57
sa(dp339
g36
I1
sS'b'
F36
sg37
S'Pakistan'
p340
sg200
F200
sg39
I298
sg309
S'caught'
p341
sg302
F4
sg208
I4
sg304
F7
sg40
S'Ahmedabad'
p342
sg42
g43
((I2012
I12
I28
I0
I0
I0
I4
I363
I-1
t(dtRp343
sS'r'
F72
sg313
F59
sa(dp344
g36
I1
sS'b'
F9
sg37
S'Pakistan'
p345
sg200
F111.11111111111111
sg39
I296
sg309
S'caught'
p346
sg302
F0
sg208
I4
sg304
F1
sg40
S'Bangalore'
p347
sg42
g43
((I2012
I12
I25
I0
I0
I0
I1
I360
I-1
t(dtRp348
sS'r'
F10
sg313
F21
sa(dp349
g36
I1
sS'b'
F5
sg37
S'England'
p350
sg200
F80
sg39
I294
sg309
S'caught'
p351
sg302
F0
sg208
I4
sg304
F0
sg40
S'Mumbai'
p352
sg42
g43
((I2012
I12
I22
I0
I0
I0
I5
I357
I-1
t(dtRp353
sS'r'
F4
sg313
F6
sa(dp354
g36
I2
sS'b'
F21
sg37
S'England'
p355
sg200
F180.95238095238096
sg39
I292
sg309
S'caught'
p356
sg302
F2
sg208
I4
sg304
F3
sg40
S'Pune'
p357
sg42
g43
((I2012
I12
I20
I0
I0
I0
I3
I355
I-1
t(dtRp358
sS'r'
F38
sg313
F21
sa(dp359
g36
I1
sS'b'
F15
sg37
S'South Africa'
p360
sg200
F140
sg39
I286
sg309
S'bowled'
p361
sg302
F1
sg208
I5
sg304
F2
sg40
S'Colombo (RPS)'
p362
sg42
g43
((I2012
I10
I2
I0
I0
I0
I1
I276
I-1
t(dtRp363
sS'r'
F21
sg313
F18
sa(dp364
g36
I2
sS'b'
F16
sg37
S'Pakistan'
p365
sg300
I01
sg200
F118.75
sg39
I282
sg309
S'not out'
p366
sg302
F2
sg208
I4
sg304
F0
sg40
S'Colombo (RPS)'
p367
sg42
g43
((I2012
I9
I30
I0
I0
I0
I6
I274
I-1
t(dtRp368
sS'r'
F19
sg313
F24
sa(dp369
g36
I1
sS'b'
F10
sg37
S'Australia'
p370
sg200
F80
sg39
I278
sg309
S'caught'
p371
sg302
F1
sg208
I4
sg304
F0
sg40
S'Colombo (RPS)'
p372
sg42
g43
((I2012
I9
I28
I0
I0
I0
I4
I272
I-1
t(dtRp373
sS'r'
F8
sg313
F11
sa(dp374
g36
I1
sS'b'
F20
sg37
S'Afghanistan'
p375
sg200
F90
sg39
I265
sg309
S'caught'
p376
sg302
F0
sg208
I4
sg304
F1
sg40
S'Colombo (RPS)'
p377
sg42
g43
((I2012
I9
I19
I0
I0
I0
I2
I263
I-1
t(dtRp378
sS'r'
F18
sg313
F26
sa(dp379
g36
I2
sS'b'
F26
sg37
S'New Zealand'
p380
sg200
F130.76923076923077
sg39
I261
sg309
S'bowled'
p381
sg302
F1
sg208
I4
sg304
F2
sg40
S'Chennai'
p382
sg42
g43
((I2012
I9
I11
I0
I0
I0
I1
I255
I-1
t(dtRp383
sS'r'
F34
sg313
F49
sa(dp384
g36
I1
sS'b'
F13
sg37
S'South Africa'
p385
sg200
F92.307692307692307
sg39
I196
sg309
S'run out'
p386
sg302
F1
sg208
I4
sg304
F0
sg40
S'Durban'
p387
sg42
g43
((I2011
I1
I9
I0
I0
I0
I6
I9
I-1
t(dtRp388
sS'r'
F12
sg313
F20
sa(dp389
g36
I1
sS'b'
F2
sg37
S'Sri Lanka'
p390
sg200
F50
sg39
I173
sg309
S'caught'
p391
sg302
F0
sg208
I5
sg304
F0
sg40
S'Gros Islet'
p392
sg42
g43
((I2010
I5
I11
I0
I0
I0
I1
I131
I-1
t(dtRp393
sS'r'
F1
sg313
F2
sa(dp394
g36
I2
sS'b'
F14
sg37
S'West Indies'
p395
sg200
F85.714285714285708
sg39
I169
sg309
S'caught'
p396
sg302
F1
sg208
I5
sg304
F0
sg40
S'Bridgetown'
p397
sg42
g43
((I2010
I5
I9
I0
I0
I0
I6
I129
I-1
t(dtRp398
sS'r'
F12
sg313
F22
sa(dp399
g36
I2
sS'b'
F2
sg37
S'Australia'
p400
sg200
F50
sg39
I165
sg309
S'bowled'
p401
sg302
F0
sg208
I5
sg304
F0
sg40
S'Bridgetown'
p402
sg42
g43
((I2010
I5
I7
I0
I0
I0
I4
I127
I-1
t(dtRp403
sS'r'
F1
sg313
F5
sa(dp404
g36
I1
sS'b'
F30
sg37
S'South Africa'
p405
sg200
F123.33333333333333
sg39
I155
sg309
S'caught'
p406
sg302
F3
sg208
I4
sg304
F2
sg40
S'Gros Islet'
p407
sg42
g43
((I2010
I5
I2
I0
I0
I0
I6
I122
I-1
t(dtRp408
sS'r'
F37
sg313
F43
sa(dp409
g36
I2
sS'b'
F22
sg37
S'Afghanistan'
p410
sg300
I01
sg200
F104.54545454545455
sg39
I153
sg309
S'not out'
p411
sg302
F0
sg208
I4
sg304
F1
sg40
S'Gros Islet'
p412
sg42
g43
((I2010
I5
I1
I0
I0
I0
I5
I121
I-1
t(dtRp413
sS'r'
F23
sg313
F34
sa(dp414
g36
I2
sS'b'
F25
sg37
S'Sri Lanka'
p415
sg300
I01
sg200
F240
sg39
I127
sg309
S'not out'
p416
sg302
F3
sg208
I4
sg304
F5
sg40
S'Mohali'
p417
sg42
g43
((I2009
I12
I12
I0
I0
I0
I5
I346
I-1
t(dtRp418
sS'r'
F60
sg313
F45
sa(dp419
g36
I2
sS'b'
F8
sg37
S'Sri Lanka'
p420
sg200
F75
sg39
I126
sg309
S'caught'
p421
sg302
F0
sg208
I4
sg304
F0
sg40
S'Nagpur'
p422
sg42
g43
((I2009
I12
I9
I0
I0
I0
I2
I343
I-1
t(dtRp423
sS'r'
F6
sg313
F-1
sa(dp424
g36
I2
sS'b'
F25
sg37
S'South Africa'
p425
sg200
F100
sg39
I113
sg309
S'caught'
p426
sg302
F1
sg208
I4
sg304
F1
sg40
S'Nottingham'
p427
sg42
g43
((I2009
I6
I16
I0
I0
I0
I1
I167
I-1
t(dtRp428
sS'r'
F25
sg313
F47
sa(dp429
g36
I2
sS'b'
F9
sg37
S'England'
p430
sg200
F188.88888888888889
sg39
I109
sg309
S'stumped'
p431
sg302
F0
sg208
I5
sg304
F2
sg40
S"Lord's"
p432
sg42
g43
((I2009
I6
I14
I0
I0
I0
I6
I165
I-1
t(dtRp433
sS'r'
F17
sg313
F14
sa(dp434
g36
I1
sS'b'
F43
sg37
S'West Indies'
p435
sg200
F155.81395348837211
sg39
I105
sg309
S'caught'
p436
sg302
F6
sg208
I4
sg304
F2
sg40
S"Lord's"
p437
sg42
g43
((I2009
I6
I12
I0
I0
I0
I4
I163
I-1
t(dtRp438
sS'r'
F67
sg313
F55
sa(dp439
g36
I2
sS'b'
F4
sg37
S'Ireland'
p440
sg300
I01
sg200
F75
sg39
I101
sg309
S'not out'
p441
sg302
F0
sg208
I4
sg304
F0
sg40
S'Nottingham'
p442
sg42
g43
((I2009
I6
I10
I0
I0
I0
I2
I161
I-1
t(dtRp443
sS'r'
F3
sg313
F7
sa(dp444
g36
I1
sS'b'
F18
sg37
S'Bangladesh'
p445
sg200
F227.77777777777777
sg39
I93
sg309
S'caught'
p446
sg302
F3
sg208
I4
sg304
F4
sg40
S'Nottingham'
p447
sg42
g43
((I2009
I6
I6
I0
I0
I0
I5
I157
I-1
t(dtRp448
sS'r'
F41
sg313
F12
sa(dp449
g36
I1
sS'b'
F34
sg37
S'New Zealand'
p450
sg200
F147.05882352941177
sg39
I85
sg309
S'caught'
p451
sg302
F3
sg208
I4
sg304
F4
sg40
S'Wellington'
p452
sg42
g43
((I2009
I2
I27
I0
I0
I0
I4
I58
I-1
t(dtRp453
sS'r'
F50
sg313
F33
sa(dp454
g36
I1
sS'b'
F3
sg37
S'New Zealand'
p455
sg200
F33.333333333333336
sg39
I84
sg309
S'lbw'
p456
sg302
F0
sg208
I5
sg304
F0
sg40
S'Christchurch'
p457
sg42
g43
((I2009
I2
I25
I0
I0
I0
I2
I56
I-1
t(dtRp458
sS'r'
F1
sg313
F4
sa(dp459
g36
I2
sS'b'
F21
sg37
S'Sri Lanka'
p460
sg200
F152.38095238095238
sg39
I82
sg309
S'caught'
p461
sg302
F3
sg208
I4
sg304
F2
sg40
S'Colombo (RPS)'
p462
sg42
g43
((I2009
I2
I10
I0
I0
I0
I1
I41
I-1
t(dtRp463
sS'r'
F32
sg313
F43
sa(dp464
g36
I2
sS'b'
F25
sg37
S'Australia'
p465
sg300
I01
sg200
F124
sg39
I47
sg309
S'not out'
p466
sg302
F1
sg208
I4
sg304
F3
sg40
S'Mumbai (BS)'
p467
sg42
g43
((I2007
I10
I20
I0
I0
I0
I5
I293
I-1
t(dtRp468
sS'r'
F31
sg313
F34
sa(dp469
g36
I1
sS'b'
F19
sg37
S'Pakistan'
p470
sg200
F73.684210526315795
sg39
I46
sg309
S'caught'
p471
sg302
F1
sg208
I4
sg304
F0
sg40
S'Johannesburg'
p472
sg42
g43
((I2007
I9
I24
I0
I0
I0
I0
I267
I-1
t(dtRp473
sS'r'
F14
sg313
F28
sa(dp474
g36
I1
sS'b'
F30
sg37
S'Australia'
p475
sg200
F233.33333333333334
sg39
I45
sg309
S'caught'
p476
sg302
F5
sg208
I4
sg304
F5
sg40
S'Durban'
p477
sg42
g43
((I2007
I9
I22
I0
I0
I0
I5
I265
I-1
t(dtRp478
sS'r'
F70
sg313
F38
sa(dp479
g36
I1
sS'b'
F16
sg37
S'England'
p480
sg200
F362.5
sg39
I40
sg309
S'caught'
p481
sg302
F3
sg208
I5
sg304
F7
sg40
S'Durban'
p482
sg42
g43
((I2007
I9
I19
I0
I0
I0
I2
I262
I-1
t(dtRp483
sS'r'
F58
sg313
F14
sa(dp484
g36
I2
sS'b'
F7
sg37
S'New Zealand'
p485
sg200
F71.428571428571431
sg39
I32
sg309
S'caught'
p486
sg302
F0
sg208
I5
sg304
F0
sg40
S'Johannesburg'
p487
sg42
g43
((I2007
I9
I16
I0
I0
I0
I6
I259
I-1
t(dtRp488
sS'r'
F5
sg313
F8
sa(dp489
g36
I1
sS'b'
F4
sg37
S'Pakistan'
p490
sg200
F25
sg39
I29
sg309
S'caught'
p491
sg302
F0
sg208
I4
sg304
F0
sg40
S'Durban'
p492
sg42
g43
((I2007
I9
I14
I0
I0
I0
I4
I257
I-1
t(dtRp493
sS'r'
F1
sg313
F8
satp494
ssS'all'
p495
(dp496
g27
(dp497
S'c'
F32
sg29
F0
sS'i'
F126
sS'm'
F126
sg31
F32
sg32
F32
sS's'
F0
ssg198
(dp498
S'a'
F20.49206349206349
sS'b'
F1102
sS'e'
F7.0290381125226862
sS'i'
F82
sg200
F17.49206349206349
sg201
F0
sS'm'
F126
sg202
F0
sS'r'
F1291
sS'w'
F63
sg203
F1
sg204
F29
sg205
F4
ssg297
(dp499
S'a'
F26.886792452830189
sg299
F-1
sS'b'
F2132
sg300
F15
sS'i'
F121
sg301
F77
sS'm'
F126
sg302
F218
sg304
F157
sg200
F133.67729831144464
sS'r'
F2850
sg305
F0
sg303
F16
ssssb.