(iplayer
Player
p1
(dp2
S'is_batsman'
p3
I01
sS'name'
p4
S'Tanmay Mishra'
p5
sS'dob'
p6
S'1986/12/22'
p7
sS'price'
p8
S'750000'
p9
sS'is_allrounder'
p10
I00
sS'espnid'
p11
S'24790'
p12
sS'is_overseas'
p13
I01
sS'team'
p14
S'RCB'
p15
sS'nationality'
p16
S'Kenyan'
p17
sS'is_bowler'
p18
I00
sS'is_keeper'
p19
I00
sS'id'
p20
S'245'
p21
sS'is_uncapped'
p22
I00
sS'tournamentStats'
p23
(dp24
S'international'
p25
(dp26
S'fieldingStats'
p27
((dp28
S'c'
F3
sS'ctw'
p29
F0
sS'span_s'
p30
F2007
sS'm'
F15
sS's'
F0
sS'dismissals'
p31
F3
sS'i'
F15
sS'ctf'
p32
F3
sS'span_f'
p33
F2013
s(lp34
(dp35
S'inning'
p36
I2
sS'c'
F0
sg29
F0
sS'opp'
p37
S'Scotland'
p38
sS't20i_num'
p39
I320
sg32
F0
sg31
F0
sS's'
F0
sS'place'
p40
S'Aberdeen'
p41
sS'date'
p42
ctime
struct_time
p43
((I2013
I7
I5
I0
I0
I0
I4
I186
I-1
t(dtRp44
sa(dp45
g36
I1
sS'c'
F1
sg29
F0
sg37
S'Scotland'
p46
sg39
I319
sg32
F1
sg31
F1
sS's'
F0
sg40
S'Aberdeen'
p47
sg42
g43
((I2013
I7
I4
I0
I0
I0
I3
I185
I-1
t(dtRp48
sa(dp49
g36
I1
sS'c'
F1
sg29
F0
sg37
S'Netherlands'
p50
sg39
I314
sg32
F1
sg31
F1
sS's'
F0
sg40
S'Windhoek'
p51
sg42
g43
((I2013
I4
I20
I0
I0
I0
I5
I110
I-1
t(dtRp52
sa(dp53
g36
I1
sS'c'
F0
sg29
F0
sg37
S'Netherlands'
p54
sg39
I313
sg32
F0
sg31
F0
sS's'
F0
sg40
S'Windhoek'
p55
sg42
g43
((I2013
I4
I19
I0
I0
I0
I4
I109
I-1
t(dtRp56
sa(dp57
g36
I2
sS'c'
F0
sg29
F0
sg37
S'Canada'
p58
sg39
I311
sg32
F0
sg31
F0
sS's'
F0
sg40
S'Dubai (CA)'
p59
sg42
g43
((I2013
I3
I16
I0
I0
I0
I5
I75
I-1
t(dtRp60
sa(dp61
g36
I2
sS'c'
F0
sg29
F0
sg37
S'Canada'
p62
sg39
I310
sg32
F0
sg31
F0
sS's'
F0
sg40
S'Dubai (CA)'
p63
sg42
g43
((I2013
I3
I15
I0
I0
I0
I4
I74
I-1
t(dtRp64
sa(dp65
g36
I2
sS'c'
F0
sg29
F0
sg37
S'Ireland'
p66
sg39
I232
sg32
F0
sg31
F0
sS's'
F0
sg40
S'Dubai (DSC)'
p67
sg42
g43
((I2012
I3
I14
I0
I0
I0
I2
I74
I-1
t(dtRp68
sa(dp69
g36
I1
sS'c'
F0
sg29
F0
sg37
S'Scotland'
p70
sg39
I231
sg32
F0
sg31
F0
sS's'
F0
sg40
S'Dubai (CA)'
p71
sg42
g43
((I2012
I3
I13
I0
I0
I0
I1
I73
I-1
t(dtRp72
sa(dp73
g36
I1
sS'c'
F1
sg29
F0
sg37
S'Ireland'
p74
sg39
I227
sg32
F1
sg31
F1
sS's'
F0
sg40
S'Mombasa'
p75
sg42
g43
((I2012
I2
I24
I0
I0
I0
I4
I55
I-1
t(dtRp76
sa(dp77
g36
I2
sS'c'
F0
sg29
F0
sg37
S'Ireland'
p78
sg39
I225
sg32
F0
sg31
F0
sS's'
F0
sg40
S'Mombasa'
p79
sg42
g43
((I2012
I2
I23
I0
I0
I0
I3
I54
I-1
t(dtRp80
sa(dp81
g36
I2
sS'c'
F0
sg29
F0
sg37
S'Ireland'
p82
sg39
I224
sg32
F0
sg31
F0
sS's'
F0
sg40
S'Mombasa'
p83
sg42
g43
((I2012
I2
I22
I0
I0
I0
I2
I53
I-1
t(dtRp84
sa(dp85
g36
I1
sS'c'
F0
sg29
F0
sg37
S'Sri Lanka'
p86
sg39
I27
sg32
F0
sg31
F0
sS's'
F0
sg40
S'Johannesburg'
p87
sg42
g43
((I2007
I9
I14
I0
I0
I0
I4
I257
I-1
t(dtRp88
sa(dp89
g36
I2
sS'c'
F0
sg29
F0
sg37
S'New Zealand'
p90
sg39
I21
sg32
F0
sg31
F0
sS's'
F0
sg40
S'Durban'
p91
sg42
g43
((I2007
I9
I12
I0
I0
I0
I2
I255
I-1
t(dtRp92
sa(dp93
g36
I2
sS'c'
F0
sg29
F0
sg37
S'Pakistan'
p94
sg39
I19
sg32
F0
sg31
F0
sS's'
F0
sg40
S'Nairobi (Gym)'
p95
sg42
g43
((I2007
I9
I4
I0
I0
I0
I1
I247
I-1
t(dtRp96
sa(dp97
g36
I2
sS'c'
F0
sg29
F0
sg37
S'Bangladesh'
p98
sg39
I17
sg32
F0
sg31
F0
sS's'
F0
sg40
S'Nairobi (Gym)'
p99
sg42
g43
((I2007
I9
I1
I0
I0
I0
I5
I244
I-1
t(dtRp100
satp101
sS'bowlingStats'
p102
((dp103
S'a'
F11
sS'b'
F30
sS'e'
F6.5999999999999996
sS'i'
F2
sS'sr'
p104
F10
sS'5w'
p105
F0
sS'm'
F15
sS'maid'
p106
F0
sS'r'
F33
sS'w'
F3
sS'4w'
p107
F0
sS'bbir'
p108
F25
sS'bbiw'
p109
F3
sg33
F2013
sg30
F2007
s(lp110
(dp111
g36
I1
sS'b'
F24
sS'e'
F6.25
sg39
I319
sS'pos'
p112
I6
sg106
F0
sS'r'
F25
sg40
S'Aberdeen'
p113
sS'w'
F3
sg42
g43
((I2013
I7
I4
I0
I0
I0
I3
I185
I-1
t(dtRp114
sg37
S'Scotland'
p115
sa(dp116
g36
I1
sS'b'
F6
sS'e'
F8
sg39
I314
sg112
I7
sg106
F0
sS'r'
F8
sg40
S'Windhoek'
p117
sS'w'
F0
sg42
g43
((I2013
I4
I20
I0
I0
I0
I5
I110
I-1
t(dtRp118
sg37
S'Netherlands'
p119
satp120
sS'battingStats'
p121
((dp122
S'a'
F15.133333333333333
sS'0s'
p123
F2
sS'b'
F263
sS'no'
p124
F0
sg30
F2007
sS'hs'
p125
F38
sS'm'
F15
sS'4s'
p126
F15
sg33
F2013
sS'i'
F15
sS'6s'
p127
F4
sg104
F86.311787072243348
sS'r'
F227
sS'100s'
p128
F0
sS'50s'
p129
F0
s(lp130
(dp131
g36
I1
sS'b'
F1
sg37
S'Scotland'
p132
sg104
F0
sg39
I320
sS'dismiss'
p133
S'caught'
p134
sg126
F0
sg112
I2
sg127
F0
sg40
S'Aberdeen'
p135
sg42
g43
((I2013
I7
I5
I0
I0
I0
I4
I186
I-1
t(dtRp136
sS'r'
F0
sS'minutes'
p137
F-1
sa(dp138
g36
I2
sS'b'
F24
sg37
S'Scotland'
p139
sg104
F54.166666666666664
sg39
I319
sg133
S'caught'
p140
sg126
F0
sg112
I2
sg127
F0
sg40
S'Aberdeen'
p141
sg42
g43
((I2013
I7
I4
I0
I0
I0
I3
I185
I-1
t(dtRp142
sS'r'
F13
sg137
F-1
sa(dp143
g36
I2
sS'b'
F5
sg37
S'Netherlands'
p144
sg104
F100
sg39
I314
sg133
S'lbw'
p145
sg126
F1
sg112
I2
sg127
F0
sg40
S'Windhoek'
p146
sg42
g43
((I2013
I4
I20
I0
I0
I0
I5
I110
I-1
t(dtRp147
sS'r'
F5
sg137
F-1
sa(dp148
g36
I2
sS'b'
F3
sg37
S'Netherlands'
p149
sg104
F33.333333333333336
sg39
I313
sg133
S'caught'
p150
sg126
F0
sg112
I2
sg127
F0
sg40
S'Windhoek'
p151
sg42
g43
((I2013
I4
I19
I0
I0
I0
I4
I109
I-1
t(dtRp152
sS'r'
F1
sg137
F-1
sa(dp153
g36
I1
sS'b'
F15
sg37
S'Canada'
p154
sg104
F126.66666666666667
sg39
I311
sg133
S'caught'
p155
sg126
F1
sg112
I5
sg127
F0
sg40
S'Dubai (CA)'
p156
sg42
g43
((I2013
I3
I16
I0
I0
I0
I5
I75
I-1
t(dtRp157
sS'r'
F19
sg137
F-1
sa(dp158
g36
I1
sS'b'
F4
sg37
S'Canada'
p159
sg104
F50
sg39
I310
sg133
S'caught'
p160
sg126
F0
sg112
I5
sg127
F0
sg40
S'Dubai (CA)'
p161
sg42
g43
((I2013
I3
I15
I0
I0
I0
I4
I74
I-1
t(dtRp162
sS'r'
F2
sg137
F-1
sa(dp163
g36
I1
sS'b'
F32
sg37
S'Ireland'
p164
sg104
F87.5
sg39
I232
sg133
S'caught'
p165
sg126
F3
sg112
I5
sg127
F0
sg40
S'Dubai (DSC)'
p166
sg42
g43
((I2012
I3
I14
I0
I0
I0
I2
I74
I-1
t(dtRp167
sS'r'
F28
sg137
F-1
sa(dp168
g36
I2
sS'b'
F8
sg37
S'Scotland'
p169
sg104
F100
sg39
I231
sg133
S'bowled'
p170
sg126
F0
sg112
I4
sg127
F0
sg40
S'Dubai (CA)'
p171
sg42
g43
((I2012
I3
I13
I0
I0
I0
I1
I73
I-1
t(dtRp172
sS'r'
F8
sg137
F-1
sa(dp173
g36
I2
sS'b'
F40
sg37
S'Ireland'
p174
sg104
F92.5
sg39
I227
sg133
S'caught'
p175
sg126
F2
sg112
I4
sg127
F0
sg40
S'Mombasa'
p176
sg42
g43
((I2012
I2
I24
I0
I0
I0
I4
I55
I-1
t(dtRp177
sS'r'
F37
sg137
F54
sa(dp178
g36
I1
sS'b'
F9
sg37
S'Ireland'
p179
sg104
F144.44444444444446
sg39
I225
sg133
S'caught'
p180
sg126
F2
sg112
I4
sg127
F0
sg40
S'Mombasa'
p181
sg42
g43
((I2012
I2
I23
I0
I0
I0
I3
I54
I-1
t(dtRp182
sS'r'
F13
sg137
F-1
sa(dp183
g36
I1
sS'b'
F30
sg37
S'Ireland'
p184
sg104
F113.33333333333333
sg39
I224
sg133
S'caught'
p185
sg126
F2
sg112
I4
sg127
F2
sg40
S'Mombasa'
p186
sg42
g43
((I2012
I2
I22
I0
I0
I0
I2
I53
I-1
t(dtRp187
sS'r'
F34
sg137
F57
sa(dp188
g36
I2
sS'b'
F22
sg37
S'Sri Lanka'
p189
sg104
F72.727272727272734
sg39
I27
sg133
S'stumped'
p190
sg126
F0
sg112
I4
sg127
F1
sg40
S'Johannesburg'
p191
sg42
g43
((I2007
I9
I14
I0
I0
I0
I4
I257
I-1
t(dtRp192
sS'r'
F16
sg137
F27
sa(dp193
g36
I1
sS'b'
F3
sg37
S'New Zealand'
p194
sg104
F0
sg39
I21
sg133
S'caught'
p195
sg126
F0
sg112
I3
sg127
F0
sg40
S'Durban'
p196
sg42
g43
((I2007
I9
I12
I0
I0
I0
I2
I255
I-1
t(dtRp197
sS'r'
F0
sg137
F2
sa(dp198
g36
I1
sS'b'
F26
sg37
S'Pakistan'
p199
sg104
F50
sg39
I19
sg133
S'lbw'
p200
sg126
F2
sg112
I3
sg127
F0
sg40
S'Nairobi (Gym)'
p201
sg42
g43
((I2007
I9
I4
I0
I0
I0
I1
I247
I-1
t(dtRp202
sS'r'
F13
sg137
F-1
sa(dp203
g36
I1
sS'b'
F41
sg37
S'Bangladesh'
p204
sg104
F92.682926829268297
sg39
I17
sg133
S'bowled'
p205
sg126
F2
sg112
I3
sg127
F1
sg40
S'Nairobi (Gym)'
p206
sg42
g43
((I2007
I9
I1
I0
I0
I0
I5
I244
I-1
t(dtRp207
sS'r'
F38
sg137
F-1
satp208
ssS'all'
p209
(dp210
g27
(dp211
S'c'
F6
sg29
F0
sS'i'
F20
sS'm'
F20
sS's'
F0
sg31
F6
sg32
F6
ssg102
(dp212
S'a'
F19.333333333333332
sS'b'
F42
sS'e'
F8.2857142857142865
sS'i'
F4
sg104
F14
sg105
F0
sS'm'
F20
sg106
F0
sS'r'
F58
sS'w'
F3
sg107
F0
sg108
F25
sg109
F3
ssg121
(dp213
S'a'
F19.263157894736842
sg123
F-1
sS'b'
F370
sg124
F0
sS'i'
F19
sg125
F68
sS'm'
F20
sg126
F25
sg127
F10
sg104
F98.918918918918919
sS'r'
F366
sg128
F0
sg129
F1
ssssb.