(iplayer
Player
p1
(dp2
S'is_batsman'
p3
I01
sS'name'
p4
S'Shikhar Dhawan'
p5
sS'dob'
p6
S'1985/12/05'
p7
sS'price'
p8
S'950000'
p9
sS'is_allrounder'
p10
I00
sS'espnid'
p11
S'28235'
p12
sS'is_overseas'
p13
I00
sS'team'
p14
S'SRH'
p15
sS'nationality'
p16
S'Indian'
p17
sS'is_bowler'
p18
I00
sS'is_keeper'
p19
I00
sS'id'
p20
S'41'
p21
sS'is_uncapped'
p22
I00
sS'tournamentStats'
p23
(dp24
S'international'
p25
(dp26
S'fieldingStats'
p27
((dp28
S'c'
F1
sS'ctw'
p29
F0
sS'span_s'
p30
F2011
sS'm'
F5
sS's'
F0
sS'dismissals'
p31
F1
sS'i'
F5
sS'ctf'
p32
F1
sS'span_f'
p33
F2014
s(lp34
(dp35
S'inning'
p36
I1
sS'c'
F0
sg29
F0
sS'opp'
p37
S'Bangladesh'
p38
sS't20i_num'
p39
I389
sg32
F0
sg31
F0
sS's'
F0
sS'place'
p40
S'Dhaka'
p41
sS'date'
p42
ctime
struct_time
p43
((I2014
I3
I28
I0
I0
I0
I4
I87
I-1
t(dtRp44
sa(dp45
g36
I1
sS'c'
F1
sg29
F0
sg37
S'West Indies'
p46
sg39
I382
sg32
F1
sg31
F1
sS's'
F0
sg40
S'Dhaka'
p47
sg42
g43
((I2014
I3
I23
I0
I0
I0
I6
I82
I-1
t(dtRp48
sa(dp49
g36
I1
sS'c'
F0
sg29
F0
sg37
S'Pakistan'
p50
sg39
I378
sg32
F0
sg31
F0
sS's'
F0
sg40
S'Dhaka'
p51
sg42
g43
((I2014
I3
I21
I0
I0
I0
I4
I80
I-1
t(dtRp52
sa(dp53
g36
I1
sS'c'
F0
sg29
F0
sg37
S'Australia'
p54
sg39
I331
sg32
F0
sg31
F0
sS's'
F0
sg40
S'Rajkot'
p55
sg42
g43
((I2013
I10
I10
I0
I0
I0
I3
I283
I-1
t(dtRp56
sa(dp57
g36
I2
sS'c'
F0
sg29
F0
sg37
S'West Indies'
p58
sg39
I200
sg32
F0
sg31
F0
sS's'
F0
sg40
S'Port of Spain'
p59
sg42
g43
((I2011
I6
I4
I0
I0
I0
I5
I155
I-1
t(dtRp60
satp61
sS'bowlingStats'
p62
((dp63
S'a'
F-1
sS'b'
F0
sS'e'
F-1
sS'i'
F0
sS'sr'
p64
F-1
sS'5w'
p65
F0
sS'm'
F5
sS'maid'
p66
F0
sS'r'
F0
sS'w'
F0
sS'4w'
p67
F0
sS'bbir'
p68
F-1
sS'bbiw'
p69
F-1
sg33
F2014
sg30
F2011
s(ltp70
sS'battingStats'
p71
((dp72
S'a'
F13.6
sS'0s'
p73
F1
sS'b'
F67
sS'no'
p74
F0
sg30
F2011
sS'hs'
p75
F32
sS'm'
F5
sS'4s'
p76
F10
sg33
F2014
sS'i'
F5
sS'6s'
p77
F0
sg64
F101.49253731343283
sS'r'
F68
sS'100s'
p78
F0
sS'50s'
p79
F0
s(lp80
(dp81
g36
I2
sS'b'
F6
sg37
S'Bangladesh'
p82
sg64
F16.666666666666668
sg39
I389
sS'dismiss'
p83
S'bowled'
p84
sg76
F0
sS'pos'
p85
I2
sg77
F0
sg40
S'Dhaka'
p86
sg42
g43
((I2014
I3
I28
I0
I0
I0
I4
I87
I-1
t(dtRp87
sS'r'
F1
sS'minutes'
p88
F11
sa(dp89
g36
I2
sS'b'
F3
sg37
S'West Indies'
p90
sg64
F0
sg39
I382
sg83
S'lbw'
p91
sg76
F0
sg85
I2
sg77
F0
sg40
S'Dhaka'
p92
sg42
g43
((I2014
I3
I23
I0
I0
I0
I6
I82
I-1
t(dtRp93
sS'r'
F0
sg88
F10
sa(dp94
g36
I2
sS'b'
F28
sg37
S'Pakistan'
p95
sg64
F107.14285714285714
sg39
I378
sg83
S'caught'
p96
sg76
F5
sg85
I2
sg77
F0
sg40
S'Dhaka'
p97
sg42
g43
((I2014
I3
I21
I0
I0
I0
I4
I80
I-1
t(dtRp98
sS'r'
F30
sg88
F35
sa(dp99
g36
I2
sS'b'
F19
sg37
S'Australia'
p100
sg64
F168.42105263157896
sg39
I331
sg83
S'stumped'
p101
sg76
F5
sg85
I2
sg77
F0
sg40
S'Rajkot'
p102
sg42
g43
((I2013
I10
I10
I0
I0
I0
I3
I283
I-1
t(dtRp103
sS'r'
F32
sg88
F40
sa(dp104
g36
I1
sS'b'
F11
sg37
S'West Indies'
p105
sg64
F45.454545454545453
sg39
I200
sg83
S'caught'
p106
sg76
F0
sg85
I2
sg77
F0
sg40
S'Port of Spain'
p107
sg42
g43
((I2011
I6
I4
I0
I0
I0
I5
I155
I-1
t(dtRp108
sS'r'
F5
sg88
F13
satp109
ssS'all'
p110
(dp111
g27
(dp112
S'c'
F41
sg29
F0
sS'i'
F98
sS'm'
F98
sS's'
F0
sg31
F41
sg32
F41
ssg62
(dp113
S'a'
F16.5
sS'b'
F48
sS'e'
F8.25
sS'i'
F6
sg64
F12
sg65
F0
sS'm'
F98
sg66
F0
sS'r'
F66
sS'w'
F4
sg67
F0
sg68
F7
sg69
F1
ssg71
(dp114
S'a'
F31.627906976744185
sg73
F-1
sS'b'
F2267
sg74
F11
sS'i'
F97
sg75
F95
sS'm'
F98
sg76
F304
sg77
F56
sg64
F119.98235553595059
sS'r'
F2720
sg78
F0
sg79
F21
ssssb.