(iplayer
Player
p1
(dp2
S'is_batsman'
p3
I00
sS'name'
p4
S'Shane Watson'
p5
sS'dob'
p6
S'1981/06/17'
p7
sS'price'
p8
S'1100000'
p9
sS'is_allrounder'
p10
I01
sS'espnid'
p11
S'8180'
p12
sS'is_overseas'
p13
I01
sS'team'
p14
S'RR'
p15
sS'nationality'
p16
S'Australian'
p17
sS'is_bowler'
p18
I00
sS'is_keeper'
p19
I00
sS'id'
p20
S'227'
p21
sS'is_uncapped'
p22
I00
sS'tournamentStats'
p23
(dp24
S'international'
p25
(dp26
S'fieldingStats'
p27
((dp28
S'c'
F15
sS'ctw'
p29
F0
sS'span_s'
p30
F2006
sS'm'
F45
sS's'
F0
sS'dismissals'
p31
F15
sS'i'
F45
sS'ctf'
p32
F15
sS'span_f'
p33
F2014
s(lp34
(dp35
S'inning'
p36
I1
sS'c'
F1
sg29
F0
sS'opp'
p37
S'Bangladesh'
p38
sS't20i_num'
p39
I396
sg32
F1
sg31
F1
sS's'
F0
sS'place'
p40
S'Dhaka'
p41
sS'date'
p42
ctime
struct_time
p43
((I2014
I4
I1
I0
I0
I0
I1
I91
I-1
t(dtRp44
sa(dp45
g36
I1
sS'c'
F0
sg29
F0
sg37
S'India'
p46
sg39
I393
sg32
F0
sg31
F0
sS's'
F0
sg40
S'Dhaka'
p47
sg42
g43
((I2014
I3
I30
I0
I0
I0
I6
I89
I-1
t(dtRp48
sa(dp49
g36
I2
sS'c'
F0
sg29
F0
sg37
S'West Indies'
p50
sg39
I388
sg32
F0
sg31
F0
sS's'
F0
sg40
S'Dhaka'
p51
sg42
g43
((I2014
I3
I28
I0
I0
I0
I4
I87
I-1
t(dtRp52
sa(dp53
g36
I1
sS'c'
F0
sg29
F0
sg37
S'Pakistan'
p54
sg39
I381
sg32
F0
sg31
F0
sS's'
F0
sg40
S'Dhaka'
p55
sg42
g43
((I2014
I3
I23
I0
I0
I0
I6
I82
I-1
t(dtRp56
sa(dp57
g36
I1
sS'c'
F0
sg29
F0
sg37
S'South Africa'
p58
sg39
I365
sg32
F0
sg31
F0
sS's'
F0
sg40
S'Centurion'
p59
sg42
g43
((I2014
I3
I14
I0
I0
I0
I4
I73
I-1
t(dtRp60
sa(dp61
g36
I1
sS'c'
F0
sg29
F0
sg37
S'South Africa'
p62
sg39
I363
sg32
F0
sg31
F0
sS's'
F0
sg40
S'Durban'
p63
sg42
g43
((I2014
I3
I12
I0
I0
I0
I2
I71
I-1
t(dtRp64
sa(dp65
g36
I2
sS'c'
F1
sg29
F0
sg37
S'India'
p66
sg39
I331
sg32
F1
sg31
F1
sS's'
F0
sg40
S'Rajkot'
p67
sg42
g43
((I2013
I10
I10
I0
I0
I0
I3
I283
I-1
t(dtRp68
sa(dp69
g36
I1
sS'c'
F0
sg29
F0
sg37
S'England'
p70
sg39
I329
sg32
F0
sg31
F0
sS's'
F0
sg40
S'Chester-le-Street'
p71
sg42
g43
((I2013
I8
I31
I0
I0
I0
I5
I243
I-1
t(dtRp72
sa(dp73
g36
I2
sS'c'
F0
sg29
F0
sg37
S'England'
p74
sg39
I328
sg32
F0
sg31
F0
sS's'
F0
sg40
S'Southampton'
p75
sg42
g43
((I2013
I8
I29
I0
I0
I0
I3
I241
I-1
t(dtRp76
sa(dp77
g36
I1
sS'c'
F0
sg29
F0
sg37
S'West Indies'
p78
sg39
I288
sg32
F0
sg31
F0
sS's'
F0
sg40
S'Colombo (RPS)'
p79
sg42
g43
((I2012
I10
I5
I0
I0
I0
I4
I279
I-1
t(dtRp80
sa(dp81
g36
I1
sS'c'
F1
sg29
F0
sg37
S'Pakistan'
p82
sg39
I285
sg32
F1
sg31
F1
sS's'
F0
sg40
S'Colombo (RPS)'
p83
sg42
g43
((I2012
I10
I2
I0
I0
I0
I1
I276
I-1
t(dtRp84
sa(dp85
g36
I1
sS'c'
F0
sg29
F0
sg37
S'South Africa'
p86
sg39
I281
sg32
F0
sg31
F0
sS's'
F0
sg40
S'Colombo (RPS)'
p87
sg42
g43
((I2012
I9
I30
I0
I0
I0
I6
I274
I-1
t(dtRp88
sa(dp89
g36
I1
sS'c'
F0
sg29
F0
sg37
S'India'
p90
sg39
I278
sg32
F0
sg31
F0
sS's'
F0
sg40
S'Colombo (RPS)'
p91
sg42
g43
((I2012
I9
I28
I0
I0
I0
I4
I272
I-1
t(dtRp92
sa(dp93
g36
I1
sS'c'
F1
sg29
F0
sg37
S'West Indies'
p94
sg39
I270
sg32
F1
sg31
F1
sS's'
F0
sg40
S'Colombo (RPS)'
p95
sg42
g43
((I2012
I9
I22
I0
I0
I0
I5
I266
I-1
t(dtRp96
sa(dp97
g36
I1
sS'c'
F1
sg29
F0
sg37
S'Ireland'
p98
sg39
I264
sg32
F1
sg31
F1
sS's'
F0
sg40
S'Colombo (RPS)'
p99
sg42
g43
((I2012
I9
I19
I0
I0
I0
I2
I263
I-1
t(dtRp100
sa(dp101
g36
I2
sS'c'
F1
sg29
F0
sg37
S'Pakistan'
p102
sg39
I259
sg32
F1
sg31
F1
sS's'
F0
sg40
S'Dubai (DSC)'
p103
sg42
g43
((I2012
I9
I10
I0
I0
I0
I0
I254
I-1
t(dtRp104
sa(dp105
g36
I1
sS'c'
F0
sg29
F0
sg37
S'Pakistan'
p106
sg39
I257
sg32
F0
sg31
F0
sS's'
F0
sg40
S'Dubai (DSC)'
p107
sg42
g43
((I2012
I9
I7
I0
I0
I0
I4
I251
I-1
t(dtRp108
sa(dp109
g36
I2
sS'c'
F0
sg29
F0
sg37
S'Pakistan'
p110
sg39
I256
sg32
F0
sg31
F0
sS's'
F0
sg40
S'Dubai (DSC)'
p111
sg42
g43
((I2012
I9
I5
I0
I0
I0
I2
I249
I-1
t(dtRp112
sa(dp113
g36
I1
sS'c'
F0
sg29
F0
sg37
S'West Indies'
p114
sg39
I243
sg32
F0
sg31
F0
sS's'
F0
sg40
S'Bridgetown'
p115
sg42
g43
((I2012
I3
I30
I0
I0
I0
I4
I90
I-1
t(dtRp116
sa(dp117
g36
I1
sS'c'
F0
sg29
F0
sg37
S'West Indies'
p118
sg39
I241
sg32
F0
sg31
F0
sS's'
F0
sg40
S'Gros Islet'
p119
sg42
g43
((I2012
I3
I27
I0
I0
I0
I1
I87
I-1
t(dtRp120
sa(dp121
g36
I1
sS'c'
F1
sg29
F0
sg37
S'South Africa'
p122
sg39
I210
sg32
F1
sg31
F1
sS's'
F0
sg40
S'Cape Town'
p123
sg42
g43
((I2011
I10
I13
I0
I0
I0
I3
I286
I-1
t(dtRp124
sa(dp125
g36
I1
sS'c'
F1
sg29
F0
sg37
S'Sri Lanka'
p126
sg39
I203
sg32
F1
sg31
F1
sS's'
F0
sg40
S'Pallekele'
p127
sg42
g43
((I2011
I8
I8
I0
I0
I0
I0
I220
I-1
t(dtRp128
sa(dp129
g36
I1
sS'c'
F0
sg29
F0
sg37
S'Sri Lanka'
p130
sg39
I202
sg32
F0
sg31
F0
sS's'
F0
sg40
S'Pallekele'
p131
sg42
g43
((I2011
I8
I6
I0
I0
I0
I5
I218
I-1
t(dtRp132
sa(dp133
g36
I2
sS'c'
F0
sg29
F0
sg37
S'England'
p134
sg39
I198
sg32
F0
sg31
F0
sS's'
F0
sg40
S'Melbourne'
p135
sg42
g43
((I2011
I1
I14
I0
I0
I0
I4
I14
I-1
t(dtRp136
sa(dp137
g36
I2
sS'c'
F0
sg29
F0
sg37
S'England'
p138
sg39
I197
sg32
F0
sg31
F0
sS's'
F0
sg40
S'Adelaide'
p139
sg42
g43
((I2011
I1
I12
I0
I0
I0
I2
I12
I-1
t(dtRp140
sa(dp141
g36
I2
sS'c'
F0
sg29
F0
sg37
S'Sri Lanka'
p142
sg39
I192
sg32
F0
sg31
F0
sS's'
F0
sg40
S'Perth'
p143
sg42
g43
((I2010
I10
I31
I0
I0
I0
I6
I304
I-1
t(dtRp144
sa(dp145
g36
I1
sS'c'
F0
sg29
F0
sg37
S'Pakistan'
p146
sg39
I184
sg32
F0
sg31
F0
sS's'
F0
sg40
S'Birmingham'
p147
sg42
g43
((I2010
I7
I5
I0
I0
I0
I0
I186
I-1
t(dtRp148
sa(dp149
g36
I2
sS'c'
F0
sg29
F0
sg37
S'England'
p150
sg39
I177
sg32
F0
sg31
F0
sS's'
F0
sg40
S'Bridgetown'
p151
sg42
g43
((I2010
I5
I16
I0
I0
I0
I6
I136
I-1
t(dtRp152
sa(dp153
g36
I1
sS'c'
F0
sg29
F0
sg37
S'Pakistan'
p154
sg39
I176
sg32
F0
sg31
F0
sS's'
F0
sg40
S'Gros Islet'
p155
sg42
g43
((I2010
I5
I14
I0
I0
I0
I4
I134
I-1
t(dtRp156
sa(dp157
g36
I1
sS'c'
F0
sg29
F0
sg37
S'West Indies'
p158
sg39
I174
sg32
F0
sg31
F0
sS's'
F0
sg40
S'Gros Islet'
p159
sg42
g43
((I2010
I5
I11
I0
I0
I0
I1
I131
I-1
t(dtRp160
sa(dp161
g36
I2
sS'c'
F0
sg29
F0
sg37
S'Sri Lanka'
p162
sg39
I170
sg32
F0
sg31
F0
sS's'
F0
sg40
S'Bridgetown'
p163
sg42
g43
((I2010
I5
I9
I0
I0
I0
I6
I129
I-1
t(dtRp164
sa(dp165
g36
I2
sS'c'
F0
sg29
F0
sg37
S'India'
p166
sg39
I165
sg32
F0
sg31
F0
sS's'
F0
sg40
S'Bridgetown'
p167
sg42
g43
((I2010
I5
I7
I0
I0
I0
I4
I127
I-1
t(dtRp168
sa(dp169
g36
I2
sS'c'
F0
sg29
F0
sg37
S'Bangladesh'
p170
sg39
I161
sg32
F0
sg31
F0
sS's'
F0
sg40
S'Bridgetown'
p171
sg42
g43
((I2010
I5
I5
I0
I0
I0
I2
I125
I-1
t(dtRp172
sa(dp173
g36
I2
sS'c'
F0
sg29
F0
sg37
S'Pakistan'
p174
sg39
I156
sg32
F0
sg31
F0
sS's'
F0
sg40
S'Gros Islet'
p175
sg42
g43
((I2010
I5
I2
I0
I0
I0
I6
I122
I-1
t(dtRp176
sa(dp177
g36
I1
sS'c'
F2
sg29
F0
sg37
S'New Zealand'
p178
sg39
I148
sg32
F2
sg31
F2
sS's'
F0
sg40
S'Wellington'
p179
sg42
g43
((I2010
I2
I26
I0
I0
I0
I4
I57
I-1
t(dtRp180
sa(dp181
g36
I1
sS'c'
F0
sg29
F0
sg37
S'West Indies'
p182
sg39
I147
sg32
F0
sg31
F0
sS's'
F0
sg40
S'Sydney'
p183
sg42
g43
((I2010
I2
I23
I0
I0
I0
I1
I54
I-1
t(dtRp184
sa(dp185
g36
I2
sS'c'
F2
sg29
F0
sg37
S'West Indies'
p186
sg39
I146
sg32
F2
sg31
F2
sS's'
F0
sg40
S'Hobart'
p187
sg42
g43
((I2010
I2
I21
I0
I0
I0
I6
I52
I-1
t(dtRp188
sa(dp189
g36
I2
sS'c'
F1
sg29
F0
sg37
S'Pakistan'
p190
sg39
I134
sg32
F1
sg31
F1
sS's'
F0
sg40
S'Melbourne'
p191
sg42
g43
((I2010
I2
I5
I0
I0
I0
I4
I36
I-1
t(dtRp192
sa(dp193
g36
I2
sS'c'
F1
sg29
F0
sg37
S'England'
p194
sg39
I119
sg32
F1
sg31
F1
sS's'
F0
sg40
S'Manchester'
p195
sg42
g43
((I2009
I8
I30
I0
I0
I0
I6
I242
I-1
t(dtRp196
sa(dp197
g36
I2
sS'c'
F0
sg29
F0
sg37
S'Sri Lanka'
p198
sg39
I97
sg32
F0
sg31
F0
sS's'
F0
sg40
S'Nottingham'
p199
sg42
g43
((I2009
I6
I8
I0
I0
I0
I0
I159
I-1
t(dtRp200
sa(dp201
g36
I2
sS'c'
F1
sg29
F0
sg37
S'West Indies'
p202
sg39
I92
sg32
F1
sg31
F1
sS's'
F0
sg40
S'The Oval'
p203
sg42
g43
((I2009
I6
I6
I0
I0
I0
I5
I157
I-1
t(dtRp204
sa(dp205
g36
I2
sS'c'
F0
sg29
F0
sg37
S'Pakistan'
p206
sg39
I89
sg32
F0
sg31
F0
sS's'
F0
sg40
S'Dubai (DSC)'
p207
sg42
g43
((I2009
I5
I7
I0
I0
I0
I3
I127
I-1
t(dtRp208
sa(dp209
g36
I2
sS'c'
F0
sg29
F0
sg37
S'West Indies'
p210
sg39
I57
sg32
F0
sg31
F0
sS's'
F0
sg40
S'Bridgetown'
p211
sg42
g43
((I2008
I6
I20
I0
I0
I0
I4
I172
I-1
t(dtRp212
sa(dp213
g36
I1
sS'c'
F0
sg29
F0
sg37
S'Sri Lanka'
p214
sg39
I41
sg32
F0
sg31
F0
sS's'
F0
sg40
S'Cape Town'
p215
sg42
g43
((I2007
I9
I20
I0
I0
I0
I3
I263
I-1
t(dtRp216
sa(dp217
g36
I1
sS'c'
F0
sg29
F0
sg37
S'South Africa'
p218
sg39
I6
sg32
F0
sg31
F0
sS's'
F0
sg40
S'Johannesburg'
p219
sg42
g43
((I2006
I2
I24
I0
I0
I0
I4
I55
I-1
t(dtRp220
satp221
sS'bowlingStats'
p222
((dp223
S'a'
F24.23076923076923
sS'b'
F750
sS'e'
F7.5599999999999996
sS'i'
F39
sS'sr'
p224
F19.23076923076923
sS'5w'
p225
F0
sS'm'
F45
sS'maid'
p226
F2
sS'r'
F945
sS'w'
F39
sS'4w'
p227
F1
sS'bbir'
p228
F15
sS'bbiw'
p229
F4
sg33
F2014
sg30
F2006
s(lp230
(dp231
g36
I1
sS'b'
F24
sS'e'
F6.25
sg39
I396
sS'pos'
p232
I4
sg226
F0
sS'r'
F25
sg40
S'Dhaka'
p233
sS'w'
F1
sg42
g43
((I2014
I4
I1
I0
I0
I0
I1
I91
I-1
t(dtRp234
sg37
S'Bangladesh'
p235
sa(dp236
g36
I1
sS'b'
F24
sS'e'
F9
sg39
I393
sg232
I4
sg226
F0
sS'r'
F36
sg40
S'Dhaka'
p237
sS'w'
F1
sg42
g43
((I2014
I3
I30
I0
I0
I0
I6
I89
I-1
t(dtRp238
sg37
S'India'
p239
sa(dp240
g36
I2
sS'b'
F12
sS'e'
F5.5
sg39
I388
sg232
I1
sg226
F1
sS'r'
F11
sg40
S'Dhaka'
p241
sS'w'
F0
sg42
g43
((I2014
I3
I28
I0
I0
I0
I4
I87
I-1
t(dtRp242
sg37
S'West Indies'
p243
sa(dp244
g36
I1
sS'b'
F24
sS'e'
F9.5
sg39
I381
sg232
I3
sg226
F0
sS'r'
F38
sg40
S'Dhaka'
p245
sS'w'
F1
sg42
g43
((I2014
I3
I23
I0
I0
I0
I6
I82
I-1
t(dtRp246
sg37
S'Pakistan'
p247
sa(dp248
g36
I1
sS'b'
F6
sS'e'
F11
sg39
I365
sg232
I6
sg226
F0
sS'r'
F11
sg40
S'Centurion'
p249
sS'w'
F0
sg42
g43
((I2014
I3
I14
I0
I0
I0
I4
I73
I-1
t(dtRp250
sg37
S'South Africa'
p251
sa(dp252
g36
I1
sS'b'
F6
sS'e'
F14
sg39
I363
sg232
I4
sg226
F0
sS'r'
F14
sg40
S'Durban'
p253
sS'w'
F0
sg42
g43
((I2014
I3
I12
I0
I0
I0
I2
I71
I-1
t(dtRp254
sg37
S'South Africa'
p255
sa(dp256
g36
I2
sS'b'
F22
sS'e'
F7.9090909090909092
sg39
I331
sg232
I1
sg226
F0
sS'r'
F29
sg40
S'Rajkot'
p257
sS'w'
F0
sg42
g43
((I2013
I10
I10
I0
I0
I0
I3
I283
I-1
t(dtRp258
sg37
S'India'
p259
sa(dp260
g36
I1
sS'b'
F12
sS'e'
F12
sg39
I329
sg232
I2
sg226
F0
sS'r'
F24
sg40
S'Chester-le-Street'
p261
sS'w'
F0
sg42
g43
((I2013
I8
I31
I0
I0
I0
I5
I243
I-1
t(dtRp262
sg37
S'England'
p263
sa(dp264
g36
I2
sS'b'
F24
sS'e'
F10.5
sg39
I328
sg232
I4
sg226
F0
sS'r'
F42
sg40
S'Southampton'
p265
sS'w'
F1
sg42
g43
((I2013
I8
I29
I0
I0
I0
I3
I241
I-1
t(dtRp266
sg37
S'England'
p267
sa(dp268
g36
I1
sS'b'
F24
sS'e'
F8.75
sg39
I288
sg232
I2
sg226
F0
sS'r'
F35
sg40
S'Colombo (RPS)'
p269
sS'w'
F0
sg42
g43
((I2012
I10
I5
I0
I0
I0
I4
I279
I-1
t(dtRp270
sg37
S'West Indies'
p271
sa(dp272
g36
I1
sS'b'
F24
sS'e'
F5.75
sg39
I285
sg232
I3
sg226
F0
sS'r'
F23
sg40
S'Colombo (RPS)'
p273
sS'w'
F1
sg42
g43
((I2012
I10
I2
I0
I0
I0
I1
I276
I-1
t(dtRp274
sg37
S'Pakistan'
p275
sa(dp276
g36
I1
sS'b'
F24
sS'e'
F7.25
sg39
I281
sg232
I4
sg226
F0
sS'r'
F29
sg40
S'Colombo (RPS)'
p277
sS'w'
F2
sg42
g43
((I2012
I9
I30
I0
I0
I0
I6
I274
I-1
t(dtRp278
sg37
S'South Africa'
p279
sa(dp280
g36
I1
sS'b'
F24
sS'e'
F8.5
sg39
I278
sg232
I4
sg226
F0
sS'r'
F34
sg40
S'Colombo (RPS)'
p281
sS'w'
F3
sg42
g43
((I2012
I9
I28
I0
I0
I0
I4
I272
I-1
t(dtRp282
sg37
S'India'
p283
sa(dp284
g36
I1
sS'b'
F24
sS'e'
F7.25
sg39
I270
sg232
I1
sg226
F0
sS'r'
F29
sg40
S'Colombo (RPS)'
p285
sS'w'
F2
sg42
g43
((I2012
I9
I22
I0
I0
I0
I5
I266
I-1
t(dtRp286
sg37
S'West Indies'
p287
sa(dp288
g36
I1
sS'b'
F24
sS'e'
F6.5
sg39
I264
sg232
I1
sg226
F0
sS'r'
F26
sg40
S'Colombo (RPS)'
p289
sS'w'
F3
sg42
g43
((I2012
I9
I19
I0
I0
I0
I2
I263
I-1
t(dtRp290
sg37
S'Ireland'
p291
sa(dp292
g36
I2
sS'b'
F18
sS'e'
F4.333333333333333
sg39
I259
sg232
I1
sg226
F0
sS'r'
F13
sg40
S'Dubai (DSC)'
p293
sS'w'
F1
sg42
g43
((I2012
I9
I10
I0
I0
I0
I0
I254
I-1
t(dtRp294
sg37
S'Pakistan'
p295
sa(dp296
g36
I1
sS'b'
F24
sS'e'
F7.25
sg39
I257
sg232
I3
sg226
F0
sS'r'
F29
sg40
S'Dubai (DSC)'
p297
sS'w'
F1
sg42
g43
((I2012
I9
I7
I0
I0
I0
I4
I251
I-1
t(dtRp298
sg37
S'Pakistan'
p299
sa(dp300
g36
I2
sS'b'
F17
sS'e'
F3.1764705882352939
sg39
I256
sg232
I5
sg226
F0
sS'r'
F9
sg40
S'Dubai (DSC)'
p301
sS'w'
F1
sg42
g43
((I2012
I9
I5
I0
I0
I0
I2
I249
I-1
t(dtRp302
sg37
S'Pakistan'
p303
sa(dp304
g36
I1
sS'b'
F24
sS'e'
F6.5
sg39
I243
sg232
I5
sg226
F0
sS'r'
F26
sg40
S'Bridgetown'
p305
sS'w'
F2
sg42
g43
((I2012
I3
I30
I0
I0
I0
I4
I90
I-1
t(dtRp306
sg37
S'West Indies'
p307
sa(dp308
g36
I1
sS'b'
F24
sS'e'
F4
sg39
I241
sg232
I4
sg226
F0
sS'r'
F16
sg40
S'Gros Islet'
p309
sS'w'
F1
sg42
g43
((I2012
I3
I27
I0
I0
I0
I1
I87
I-1
t(dtRp310
sg37
S'West Indies'
p311
sa(dp312
g36
I1
sS'b'
F24
sS'e'
F6.5
sg39
I210
sg232
I3
sg226
F0
sS'r'
F26
sg40
S'Cape Town'
p313
sS'w'
F1
sg42
g43
((I2011
I10
I13
I0
I0
I0
I3
I286
I-1
t(dtRp314
sg37
S'South Africa'
p315
sa(dp316
g36
I1
sS'b'
F24
sS'e'
F10.25
sg39
I202
sg232
I6
sg226
F0
sS'r'
F41
sg40
S'Pallekele'
p317
sS'w'
F1
sg42
g43
((I2011
I8
I6
I0
I0
I0
I5
I218
I-1
t(dtRp318
sg37
S'Sri Lanka'
p319
sa(dp320
g36
I2
sS'b'
F24
sS'e'
F4.25
sg39
I198
sg232
I3
sg226
F0
sS'r'
F17
sg40
S'Melbourne'
p321
sS'w'
F2
sg42
g43
((I2011
I1
I14
I0
I0
I0
I4
I14
I-1
t(dtRp322
sg37
S'England'
p323
sa(dp324
g36
I2
sS'b'
F24
sS'e'
F3.75
sg39
I197
sg232
I5
sg226
F0
sS'r'
F15
sg40
S'Adelaide'
p325
sS'w'
F4
sg42
g43
((I2011
I1
I12
I0
I0
I0
I2
I12
I-1
t(dtRp326
sg37
S'England'
p327
sa(dp328
g36
I2
sS'b'
F18
sS'e'
F14
sg39
I177
sg232
I5
sg226
F0
sS'r'
F42
sg40
S'Bridgetown'
p329
sS'w'
F0
sg42
g43
((I2010
I5
I16
I0
I0
I0
I6
I136
I-1
t(dtRp330
sg37
S'England'
p331
sa(dp332
g36
I1
sS'b'
F12
sS'e'
F13
sg39
I176
sg232
I4
sg226
F0
sS'r'
F26
sg40
S'Gros Islet'
p333
sS'w'
F0
sg42
g43
((I2010
I5
I14
I0
I0
I0
I4
I134
I-1
t(dtRp334
sg37
S'Pakistan'
p335
sa(dp336
g36
I1
sS'b'
F12
sS'e'
F6.5
sg39
I174
sg232
I3
sg226
F0
sS'r'
F13
sg40
S'Gros Islet'
p337
sS'w'
F1
sg42
g43
((I2010
I5
I11
I0
I0
I0
I1
I131
I-1
t(dtRp338
sg37
S'West Indies'
p339
sa(dp340
g36
I2
sS'b'
F18
sS'e'
F9
sg39
I170
sg232
I3
sg226
F0
sS'r'
F27
sg40
S'Bridgetown'
p341
sS'w'
F0
sg42
g43
((I2010
I5
I9
I0
I0
I0
I6
I129
I-1
t(dtRp342
sg37
S'Sri Lanka'
p343
sa(dp344
g36
I2
sS'b'
F18
sS'e'
F10.333333333333334
sg39
I165
sg232
I3
sg226
F0
sS'r'
F31
sg40
S'Bridgetown'
p345
sS'w'
F1
sg42
g43
((I2010
I5
I7
I0
I0
I0
I4
I127
I-1
t(dtRp346
sg37
S'India'
p347
sa(dp348
g36
I2
sS'b'
F18
sS'e'
F8
sg39
I156
sg232
I4
sg226
F0
sS'r'
F24
sg40
S'Gros Islet'
p349
sS'w'
F0
sg42
g43
((I2010
I5
I2
I0
I0
I0
I6
I122
I-1
t(dtRp350
sg37
S'Pakistan'
p351
sa(dp352
g36
I1
sS'b'
F24
sS'e'
F5.75
sg39
I148
sg232
I6
sg226
F0
sS'r'
F23
sg40
S'Wellington'
p353
sS'w'
F2
sg42
g43
((I2010
I2
I26
I0
I0
I0
I4
I57
I-1
t(dtRp354
sg37
S'New Zealand'
p355
sa(dp356
g36
I1
sS'b'
F18
sS'e'
F5
sg39
I147
sg232
I4
sg226
F0
sS'r'
F15
sg40
S'Sydney'
p357
sS'w'
F1
sg42
g43
((I2010
I2
I23
I0
I0
I0
I1
I54
I-1
t(dtRp358
sg37
S'West Indies'
p359
sa(dp360
g36
I2
sS'b'
F12
sS'e'
F7
sg39
I146
sg232
I7
sg226
F0
sS'r'
F14
sg40
S'Hobart'
p361
sS'w'
F0
sg42
g43
((I2010
I2
I21
I0
I0
I0
I6
I52
I-1
t(dtRp362
sg37
S'West Indies'
p363
sa(dp364
g36
I2
sS'b'
F24
sS'e'
F6
sg39
I134
sg232
I4
sg226
F1
sS'r'
F24
sg40
S'Melbourne'
p365
sS'w'
F2
sg42
g43
((I2010
I2
I5
I0
I0
I0
I4
I36
I-1
t(dtRp366
sg37
S'Pakistan'
p367
sa(dp368
g36
I2
sS'b'
F12
sS'e'
F12
sg39
I97
sg232
I4
sg226
F0
sS'r'
F24
sg40
S'Nottingham'
p369
sS'w'
F0
sg42
g43
((I2009
I6
I8
I0
I0
I0
I0
I159
I-1
t(dtRp370
sg37
S'Sri Lanka'
p371
sa(dp372
g36
I2
sS'b'
F12
sS'e'
F6.5
sg39
I92
sg232
I6
sg226
F0
sS'r'
F13
sg40
S'The Oval'
p373
sS'w'
F0
sg42
g43
((I2009
I6
I6
I0
I0
I0
I5
I157
I-1
t(dtRp374
sg37
S'West Indies'
p375
sa(dp376
g36
I2
sS'b'
F13
sS'e'
F7.8461538461538458
sg39
I57
sg232
I3
sg226
F0
sS'r'
F17
sg40
S'Bridgetown'
p377
sS'w'
F1
sg42
g43
((I2008
I6
I20
I0
I0
I0
I4
I172
I-1
t(dtRp378
sg37
S'West Indies'
p379
sa(dp380
g36
I1
sS'b'
F20
sS'e'
F5.7000000000000002
sg39
I41
sg232
I5
sg226
F0
sS'r'
F19
sg40
S'Cape Town'
p381
sS'w'
F1
sg42
g43
((I2007
I9
I20
I0
I0
I0
I3
I263
I-1
t(dtRp382
sg37
S'Sri Lanka'
p383
sa(dp384
g36
I1
sS'b'
F18
sS'e'
F11.666666666666666
sg39
I6
sg232
I5
sg226
F0
sS'r'
F35
sg40
S'Johannesburg'
p385
sS'w'
F1
sg42
g43
((I2006
I2
I24
I0
I0
I0
I4
I55
I-1
t(dtRp386
sg37
S'South Africa'
p387
satp388
sS'battingStats'
p389
((dp390
S'a'
F26.850000000000001
sS'0s'
p391
F3
sS'b'
F734
sS'no'
p392
F3
sg30
F2006
sS'hs'
p393
F81
sS'm'
F45
sS'4s'
p394
F83
sg33
F2014
sS'i'
F43
sS'6s'
p395
F66
sg224
F146.32152588555857
sS'r'
F1074
sS'100s'
p396
F0
sS'50s'
p397
F10
s(lp398
(dp399
g36
I2
sS'b'
F4
sg37
S'India'
p400
sg224
F25
sg39
I393
sS'dismiss'
p401
S'bowled'
p402
sg394
F0
sg232
I4
sg395
F0
sg40
S'Dhaka'
p403
sg42
g43
((I2014
I3
I30
I0
I0
I0
I6
I89
I-1
t(dtRp404
sS'r'
F1
sS'minutes'
p405
F5
sa(dp406
g36
I1
sS'b'
F8
sg37
S'West Indies'
p407
sg224
F25
sg39
I388
sg401
S'stumped'
p408
sg394
F0
sg232
I3
sg395
F0
sg40
S'Dhaka'
p409
sg42
g43
((I2014
I3
I28
I0
I0
I0
I4
I87
I-1
t(dtRp410
sS'r'
F2
sg405
F12
sa(dp411
g36
I2
sS'b'
F4
sg37
S'Pakistan'
p412
sg224
F100
sg39
I381
sg401
S'caught'
p413
sg394
F1
sg232
I3
sg395
F0
sg40
S'Dhaka'
p414
sg42
g43
((I2014
I3
I23
I0
I0
I0
I6
I82
I-1
t(dtRp415
sS'r'
F4
sg405
F3
sa(dp416
g36
I2
sS'b'
F28
sg37
S'South Africa'
p417
sg224
F125
sg39
I365
sg401
S'caught'
p418
sg394
F2
sg232
I3
sg395
F2
sg40
S'Centurion'
p419
sg42
g43
((I2014
I3
I14
I0
I0
I0
I4
I73
I-1
t(dtRp420
sS'r'
F35
sg405
F38
sa(dp421
g36
I2
sS'b'
F3
sg37
S'South Africa'
p422
sg224
F66.666666666666671
sg39
I363
sg401
S'caught'
p423
sg394
F0
sg232
I3
sg395
F0
sg40
S'Durban'
p424
sg42
g43
((I2014
I3
I12
I0
I0
I0
I2
I71
I-1
t(dtRp425
sS'r'
F2
sg405
F11
sa(dp426
g36
I1
sS'b'
F5
sg37
S'India'
p427
sg224
F120
sg39
I331
sg401
S'lbw'
p428
sg394
F1
sg232
I3
sg395
F0
sg40
S'Rajkot'
p429
sg42
g43
((I2013
I10
I10
I0
I0
I0
I3
I283
I-1
t(dtRp430
sS'r'
F6
sg405
F12
sa(dp431
g36
I2
sS'b'
F6
sg37
S'England'
p432
sg224
F116.66666666666667
sg39
I329
sg401
S'run out'
p433
sg394
F1
sg232
I3
sg395
F0
sg40
S'Chester-le-Street'
p434
sg42
g43
((I2013
I8
I31
I0
I0
I0
I5
I243
I-1
t(dtRp435
sS'r'
F7
sg405
F6
sa(dp436
g36
I1
sS'b'
F16
sg37
S'England'
p437
sg224
F231.25
sg39
I328
sg401
S'bowled'
p438
sg394
F4
sg232
I4
sg395
F2
sg40
S'Southampton'
p439
sg42
g43
((I2013
I8
I29
I0
I0
I0
I3
I241
I-1
t(dtRp440
sS'r'
F37
sg405
F30
sa(dp441
g36
I2
sS'b'
F9
sg37
S'West Indies'
p442
sg224
F77.777777777777771
sg39
I288
sg401
S'bowled'
p443
sg394
F1
sg232
I2
sg395
F0
sg40
S'Colombo (RPS)'
p444
sg42
g43
((I2012
I10
I5
I0
I0
I0
I4
I279
I-1
t(dtRp445
sS'r'
F7
sg405
F19
sa(dp446
g36
I2
sS'b'
F14
sg37
S'Pakistan'
p447
sg224
F57.142857142857146
sg39
I285
sg401
S'lbw'
p448
sg394
F1
sg232
I1
sg395
F0
sg40
S'Colombo (RPS)'
p449
sg42
g43
((I2012
I10
I2
I0
I0
I0
I1
I276
I-1
t(dtRp450
sS'r'
F8
sg405
F14
sa(dp451
g36
I2
sS'b'
F47
sg37
S'South Africa'
p452
sg224
F148.93617021276594
sg39
I281
sg401
S'caught'
p453
sg394
F8
sg232
I2
sg395
F2
sg40
S'Colombo (RPS)'
p454
sg42
g43
((I2012
I9
I30
I0
I0
I0
I6
I274
I-1
t(dtRp455
sS'r'
F70
sg405
F62
sa(dp456
g36
I2
sS'b'
F42
sg37
S'India'
p457
sg224
F171.42857142857142
sg39
I278
sg401
S'caught'
p458
sg394
F2
sg232
I1
sg395
F7
sg40
S'Colombo (RPS)'
p459
sg42
g43
((I2012
I9
I28
I0
I0
I0
I4
I272
I-1
t(dtRp460
sS'r'
F72
sg405
F55
sa(dp461
g36
I2
sS'b'
F24
sg37
S'West Indies'
p462
sg392
I01
sg224
F170.83333333333334
sg39
I270
sg401
S'not out'
p463
sg394
F2
sg232
I2
sg395
F3
sg40
S'Colombo (RPS)'
p464
sg42
g43
((I2012
I9
I22
I0
I0
I0
I5
I266
I-1
t(dtRp465
sS'r'
F41
sg405
F43
sa(dp466
g36
I2
sS'b'
F30
sg37
S'Ireland'
p467
sg224
F170
sg39
I264
sg401
S'run out'
p468
sg394
F5
sg232
I2
sg395
F3
sg40
S'Colombo (RPS)'
p469
sg42
g43
((I2012
I9
I19
I0
I0
I0
I2
I263
I-1
t(dtRp470
sS'r'
F51
sg405
F45
sa(dp471
g36
I1
sS'b'
F32
sg37
S'Pakistan'
p472
sg224
F146.875
sg39
I259
sg401
S'caught'
p473
sg394
F1
sg232
I2
sg395
F5
sg40
S'Dubai (DSC)'
p474
sg42
g43
((I2012
I9
I10
I0
I0
I0
I0
I254
I-1
t(dtRp475
sS'r'
F47
sg405
F47
sa(dp476
g36
I2
sS'b'
F28
sg37
S'Pakistan'
p477
sg224
F117.85714285714286
sg39
I257
sg401
S'lbw'
p478
sg394
F2
sg232
I2
sg395
F2
sg40
S'Dubai (DSC)'
p479
sg42
g43
((I2012
I9
I7
I0
I0
I0
I4
I251
I-1
t(dtRp480
sS'r'
F33
sg405
F48
sa(dp481
g36
I1
sS'b'
F11
sg37
S'Pakistan'
p482
sg224
F72.727272727272734
sg39
I256
sg401
S'lbw'
p483
sg394
F1
sg232
I1
sg395
F0
sg40
S'Dubai (DSC)'
p484
sg42
g43
((I2012
I9
I5
I0
I0
I0
I2
I249
I-1
t(dtRp485
sS'r'
F8
sg405
F12
sa(dp486
g36
I2
sS'b'
F2
sg37
S'West Indies'
p487
sg224
F0
sg39
I243
sg401
S'caught'
p488
sg394
F0
sg232
I2
sg395
F0
sg40
S'Bridgetown'
p489
sg42
g43
((I2012
I3
I30
I0
I0
I0
I4
I90
I-1
t(dtRp490
sS'r'
F0
sg405
F4
sa(dp491
g36
I2
sS'b'
F43
sg37
S'West Indies'
p492
sg224
F160.46511627906978
sg39
I241
sg401
S'caught'
p493
sg394
F5
sg232
I2
sg395
F6
sg40
S'Gros Islet'
p494
sg42
g43
((I2012
I3
I27
I0
I0
I0
I1
I87
I-1
t(dtRp495
sS'r'
F69
sg405
F-1
sa(dp496
g36
I2
sS'b'
F39
sg37
S'South Africa'
p497
sg224
F133.33333333333334
sg39
I210
sg401
S'caught'
p498
sg394
F6
sg232
I1
sg395
F2
sg40
S'Cape Town'
p499
sg42
g43
((I2011
I10
I13
I0
I0
I0
I3
I286
I-1
t(dtRp500
sS'r'
F52
sg405
F45
sa(dp501
g36
I2
sS'b'
F24
sg37
S'Sri Lanka'
p502
sg224
F237.5
sg39
I203
sg401
S'caught'
p503
sg394
F6
sg232
I1
sg395
F5
sg40
S'Pallekele'
p504
sg42
g43
((I2011
I8
I8
I0
I0
I0
I0
I220
I-1
t(dtRp505
sS'r'
F57
sg405
F22
sa(dp506
g36
I2
sS'b'
F9
sg37
S'Sri Lanka'
p507
sg224
F111.11111111111111
sg39
I202
sg401
S'bowled'
p508
sg394
F0
sg232
I1
sg395
F1
sg40
S'Pallekele'
p509
sg42
g43
((I2011
I8
I6
I0
I0
I0
I5
I218
I-1
t(dtRp510
sS'r'
F10
sg405
F10
sa(dp511
g36
I1
sS'b'
F10
sg37
S'England'
p512
sg224
F170
sg39
I198
sg401
S'caught'
p513
sg394
F0
sg232
I2
sg395
F2
sg40
S'Melbourne'
p514
sg42
g43
((I2011
I1
I14
I0
I0
I0
I4
I14
I-1
t(dtRp515
sS'r'
F17
sg405
F18
sa(dp516
g36
I1
sS'b'
F31
sg37
S'England'
p517
sg224
F190.32258064516128
sg39
I197
sg401
S'bowled'
p518
sg394
F6
sg232
I2
sg395
F3
sg40
S'Adelaide'
p519
sg42
g43
((I2011
I1
I12
I0
I0
I0
I2
I12
I-1
t(dtRp520
sS'r'
F59
sg405
F35
sa(dp521
g36
I1
sS'b'
F7
sg37
S'Sri Lanka'
p522
sg224
F57.142857142857146
sg39
I192
sg401
S'caught'
p523
sg394
F0
sg232
I3
sg395
F0
sg40
S'Perth'
p524
sg42
g43
((I2010
I10
I31
I0
I0
I0
I6
I304
I-1
t(dtRp525
sS'r'
F4
sg405
F-1
sa(dp526
g36
I2
sS'b'
F2
sg37
S'Pakistan'
p527
sg224
F0
sg39
I184
sg401
S'lbw'
p528
sg394
F0
sg232
I2
sg395
F0
sg40
S'Birmingham'
p529
sg42
g43
((I2010
I7
I5
I0
I0
I0
I0
I186
I-1
t(dtRp530
sS'r'
F0
sg405
F4
sa(dp531
g36
I1
sS'b'
F3
sg37
S'England'
p532
sg224
F66.666666666666671
sg39
I177
sg401
S'caught'
p533
sg394
F0
sg232
I1
sg395
F0
sg40
S'Bridgetown'
p534
sg42
g43
((I2010
I5
I16
I0
I0
I0
I6
I136
I-1
t(dtRp535
sS'r'
F2
sg405
F3
sa(dp536
g36
I2
sS'b'
F9
sg37
S'Pakistan'
p537
sg224
F177.77777777777777
sg39
I176
sg401
S'caught'
p538
sg394
F2
sg232
I2
sg395
F1
sg40
S'Gros Islet'
p539
sg42
g43
((I2010
I5
I14
I0
I0
I0
I4
I134
I-1
t(dtRp540
sS'r'
F16
sg405
F13
sa(dp541
g36
I2
sS'b'
F7
sg37
S'West Indies'
p542
sg224
F71.428571428571431
sg39
I174
sg401
S'bowled'
p543
sg394
F0
sg232
I2
sg395
F0
sg40
S'Gros Islet'
p544
sg42
g43
((I2010
I5
I11
I0
I0
I0
I1
I131
I-1
t(dtRp545
sS'r'
F5
sg405
F15
sa(dp546
g36
I1
sS'b'
F4
sg37
S'Sri Lanka'
p547
sg224
F25
sg39
I170
sg401
S'bowled'
p548
sg394
F0
sg232
I1
sg395
F0
sg40
S'Bridgetown'
p549
sg42
g43
((I2010
I5
I9
I0
I0
I0
I6
I129
I-1
t(dtRp550
sS'r'
F1
sg405
F3
sa(dp551
g36
I1
sS'b'
F32
sg37
S'India'
p552
sg224
F168.75
sg39
I165
sg401
S'bowled'
p553
sg394
F1
sg232
I1
sg395
F6
sg40
S'Bridgetown'
p554
sg42
g43
((I2010
I5
I7
I0
I0
I0
I4
I127
I-1
t(dtRp555
sS'r'
F54
sg405
F40
sa(dp556
g36
I1
sS'b'
F7
sg37
S'Bangladesh'
p557
sg224
F57.142857142857146
sg39
I161
sg401
S'caught'
p558
sg394
F0
sg232
I2
sg395
F0
sg40
S'Bridgetown'
p559
sg42
g43
((I2010
I5
I5
I0
I0
I0
I2
I125
I-1
t(dtRp560
sS'r'
F4
sg405
F10
sa(dp561
g36
I1
sS'b'
F49
sg37
S'Pakistan'
p562
sg224
F165.30612244897958
sg39
I156
sg401
S'lbw'
p563
sg394
F7
sg232
I2
sg395
F4
sg40
S'Gros Islet'
p564
sg42
g43
((I2010
I5
I2
I0
I0
I0
I6
I122
I-1
t(dtRp565
sS'r'
F81
sg405
F62
sa(dp566
g36
I2
sS'b'
F12
sg37
S'New Zealand'
p567
sg224
F158.33333333333334
sg39
I148
sg401
S'lbw'
p568
sg394
F4
sg232
I2
sg395
F0
sg40
S'Wellington'
p569
sg42
g43
((I2010
I2
I26
I0
I0
I0
I4
I57
I-1
t(dtRp570
sS'r'
F19
sg405
F14
sa(dp571
g36
I2
sS'b'
F33
sg37
S'West Indies'
p572
sg392
I01
sg224
F187.87878787878788
sg39
I147
sg401
S'not out'
p573
sg394
F4
sg232
I1
sg395
F4
sg40
S'Sydney'
p574
sg42
g43
((I2010
I2
I23
I0
I0
I0
I1
I54
I-1
t(dtRp575
sS'r'
F62
sg405
F50
sa(dp576
g36
I1
sS'b'
F19
sg37
S'West Indies'
p577
sg224
F194.73684210526315
sg39
I146
sg401
S'caught'
p578
sg394
F1
sg232
I1
sg395
F4
sg40
S'Hobart'
p579
sg42
g43
((I2010
I2
I21
I0
I0
I0
I6
I52
I-1
t(dtRp580
sS'r'
F37
sg405
F30
sa(dp581
g36
I1
sS'b'
F8
sg37
S'Pakistan'
p582
sg224
F100
sg39
I134
sg401
S'run out'
p583
sg394
F1
sg232
I1
sg395
F0
sg40
S'Melbourne'
p584
sg42
g43
((I2010
I2
I5
I0
I0
I0
I4
I36
I-1
t(dtRp585
sS'r'
F8
sg405
F6
sa(dp586
g36
I1
sS'b'
F14
sg37
S'England'
p587
sg224
F71.428571428571431
sg39
I119
sg401
S'caught'
p588
sg394
F0
sg232
I1
sg395
F0
sg40
S'Manchester'
p589
sg42
g43
((I2009
I8
I30
I0
I0
I0
I6
I242
I-1
t(dtRp590
sS'r'
F10
sg405
F-1
sa(dp591
g36
I1
sS'b'
F21
sg37
S'Sri Lanka'
p592
sg224
F104.76190476190476
sg39
I97
sg401
S'lbw'
p593
sg394
F2
sg232
I1
sg395
F1
sg40
S'Nottingham'
p594
sg42
g43
((I2009
I6
I8
I0
I0
I0
I0
I159
I-1
t(dtRp595
sS'r'
F22
sg405
F32
sa(dp596
g36
I1
sS'b'
F3
sg37
S'West Indies'
p597
sg224
F0
sg39
I92
sg401
S'caught'
p598
sg394
F0
sg232
I1
sg395
F0
sg40
S'The Oval'
p599
sg42
g43
((I2009
I6
I6
I0
I0
I0
I5
I157
I-1
t(dtRp600
sS'r'
F0
sg405
F2
sa(dp601
g36
I1
sS'b'
F14
sg37
S'Pakistan'
p602
sg224
F235.71428571428572
sg39
I89
sg401
S'lbw'
p603
sg394
F5
sg232
I1
sg395
F0
sg40
S'Dubai (DSC)'
p604
sg42
g43
((I2009
I5
I7
I0
I0
I0
I3
I127
I-1
t(dtRp605
sS'r'
F33
sg405
F-1
sa(dp606
g36
I1
sS'b'
F15
sg37
S'West Indies'
p607
sg392
I01
sg224
F113.33333333333333
sg39
I57
sg401
S'not out'
p608
sg394
F1
sg232
I3
sg395
F1
sg40
S'Bridgetown'
p609
sg42
g43
((I2008
I6
I20
I0
I0
I0
I4
I172
I-1
t(dtRp610
sS'r'
F17
sg405
F27
sa(dp611
g36
I2
sS'b'
F6
sg37
S'South Africa'
p612
sg224
F66.666666666666671
sg39
I6
sg401
S'bowled'
p613
sg394
F0
sg232
I6
sg395
F0
sg40
S'Johannesburg'
p614
sg42
g43
((I2006
I2
I24
I0
I0
I0
I4
I55
I-1
t(dtRp615
sS'r'
F4
sg405
F9
satp616
ssS'all'
p617
(dp618
g27
(dp619
S'c'
F40
sg29
F0
sS'i'
F127
sS'm'
F127
sS's'
F0
sg31
F40
sg32
F40
ssg222
(dp620
S'a'
F24.37962962962963
sS'b'
F2159
sS'e'
F7.3172765169059746
sS'i'
F106
sg224
F19.99074074074074
sg225
F0
sS'm'
F127
sg226
F0
sS'r'
F2633
sS'w'
F108
sg227
F1
sg228
F15
sg229
F4
ssg389
(dp621
S'a'
F32.056074766355138
sg391
F-1
sS'b'
F2396
sg392
F15
sS'i'
F122
sg393
F101
sS'm'
F127
sg394
F314
sg395
F173
sg224
F143.15525876460768
sS'r'
F3430
sg396
F1
sg397
F24
ssssb.