(iplayer
Player
p1
(dp2
S'is_batsman'
p3
I00
sS'name'
p4
S'Irfan Pathan'
p5
sS'dob'
p6
S'1984/10/27'
p7
sS'price'
p8
S'900000'
p9
sS'is_allrounder'
p10
I01
sS'espnid'
p11
S'32685'
p12
sS'is_overseas'
p13
I00
sS'team'
p14
S'SRH'
p15
sS'nationality'
p16
S'Indian'
p17
sS'is_bowler'
p18
I00
sS'is_keeper'
p19
I00
sS'id'
p20
S'49'
p21
sS'is_uncapped'
p22
I00
sS'tournamentStats'
p23
(dp24
S'international'
p25
(dp26
S'fieldingStats'
p27
((dp28
S'c'
F2
sS'ctw'
p29
F0
sS'span_s'
p30
F2006
sS'm'
F24
sS's'
F0
sS'dismissals'
p31
F2
sS'i'
F23
sS'ctf'
p32
F2
sS'span_f'
p33
F2012
s(lp34
(dp35
S'inning'
p36
I2
sS'c'
F0
sg29
F0
sS'opp'
p37
S'South Africa'
p38
sS't20i_num'
p39
I286
sg32
F0
sg31
F0
sS's'
F0
sS'place'
p40
S'Colombo (RPS)'
p41
sS'date'
p42
ctime
struct_time
p43
((I2012
I10
I2
I0
I0
I0
I1
I276
I-1
t(dtRp44
sa(dp45
g36
I1
sS'c'
F0
sg29
F0
sg37
S'Pakistan'
p46
sg39
I282
sg32
F0
sg31
F0
sS's'
F0
sg40
S'Colombo (RPS)'
p47
sg42
g43
((I2012
I9
I30
I0
I0
I0
I6
I274
I-1
t(dtRp48
sa(dp49
g36
I2
sS'c'
F0
sg29
F0
sg37
S'Australia'
p50
sg39
I278
sg32
F0
sg31
F0
sS's'
F0
sg40
S'Colombo (RPS)'
p51
sg42
g43
((I2012
I9
I28
I0
I0
I0
I4
I272
I-1
t(dtRp52
sa(dp53
g36
I2
sS'c'
F0
sg29
F0
sg37
S'England'
p54
sg39
I272
sg32
F0
sg31
F0
sS's'
F0
sg40
S'Colombo (RPS)'
p55
sg42
g43
((I2012
I9
I23
I0
I0
I0
I6
I267
I-1
t(dtRp56
sa(dp57
g36
I2
sS'c'
F0
sg29
F0
sg37
S'Afghanistan'
p58
sg39
I265
sg32
F0
sg31
F0
sS's'
F0
sg40
S'Colombo (RPS)'
p59
sg42
g43
((I2012
I9
I19
I0
I0
I0
I2
I263
I-1
t(dtRp60
sa(dp61
g36
I1
sS'c'
F0
sg29
F0
sg37
S'New Zealand'
p62
sg39
I261
sg32
F0
sg31
F0
sS's'
F0
sg40
S'Chennai'
p63
sg42
g43
((I2012
I9
I11
I0
I0
I0
I1
I255
I-1
t(dtRp64
sa(dp65
g36
I2
sS'c'
F0
sg29
F0
sg37
S'Sri Lanka'
p66
sg39
I255
sg32
F0
sg31
F0
sS's'
F0
sg40
S'Pallekele'
p67
sg42
g43
((I2012
I8
I7
I0
I0
I0
I1
I220
I-1
t(dtRp68
sa(dp69
g36
I1
sS'c'
F0
sg29
F0
sg37
S'South Africa'
p70
sg39
I242
sg32
F0
sg31
F0
sS's'
F0
sg40
S'Johannesburg'
p71
sg42
g43
((I2012
I3
I30
I0
I0
I0
I4
I90
I-1
t(dtRp72
sa(dp73
g36
I2
sS'c'
F1
sg29
F0
sg37
S'West Indies'
p74
sg39
I105
sg32
F1
sg31
F1
sS's'
F0
sg40
S"Lord's"
p75
sg42
g43
((I2009
I6
I12
I0
I0
I0
I4
I163
I-1
t(dtRp76
sa(dp77
g36
I1
sS'c'
F0
sg29
F0
sg37
S'Ireland'
p78
sg39
I101
sg32
F0
sg31
F0
sS's'
F0
sg40
S'Nottingham'
p79
sg42
g43
((I2009
I6
I10
I0
I0
I0
I2
I161
I-1
t(dtRp80
sa(dp81
g36
I2
sS'c'
F0
sg29
F0
sg37
S'Bangladesh'
p82
sg39
I93
sg32
F0
sg31
F0
sS's'
F0
sg40
S'Nottingham'
p83
sg42
g43
((I2009
I6
I6
I0
I0
I0
I5
I157
I-1
t(dtRp84
sa(dp85
g36
I2
sS'c'
F1
sg29
F0
sg37
S'New Zealand'
p86
sg39
I85
sg32
F1
sg31
F1
sS's'
F0
sg40
S'Wellington'
p87
sg42
g43
((I2009
I2
I27
I0
I0
I0
I4
I58
I-1
t(dtRp88
sa(dp89
g36
I2
sS'c'
F0
sg29
F0
sg37
S'New Zealand'
p90
sg39
I84
sg32
F0
sg31
F0
sS's'
F0
sg40
S'Christchurch'
p91
sg42
g43
((I2009
I2
I25
I0
I0
I0
I2
I56
I-1
t(dtRp92
sa(dp93
g36
I1
sS'c'
F0
sg29
F0
sg37
S'Sri Lanka'
p94
sg39
I82
sg32
F0
sg31
F0
sS's'
F0
sg40
S'Colombo (RPS)'
p95
sg42
g43
((I2009
I2
I10
I0
I0
I0
I1
I41
I-1
t(dtRp96
sa(dp97
g36
I2
sS'c'
F0
sg29
F0
sg37
S'Australia'
p98
sg39
I52
sg32
F0
sg31
F0
sS's'
F0
sg40
S'Melbourne'
p99
sg42
g43
((I2008
I2
I1
I0
I0
I0
I4
I32
I-1
t(dtRp100
sa(dp101
g36
I1
sS'c'
F0
sg29
F0
sg37
S'Australia'
p102
sg39
I47
sg32
F0
sg31
F0
sS's'
F0
sg40
S'Mumbai (BS)'
p103
sg42
g43
((I2007
I10
I20
I0
I0
I0
I5
I293
I-1
t(dtRp104
sa(dp105
g36
I2
sS'c'
F0
sg29
F0
sg37
S'Pakistan'
p106
sg39
I46
sg32
F0
sg31
F0
sS's'
F0
sg40
S'Johannesburg'
p107
sg42
g43
((I2007
I9
I24
I0
I0
I0
I0
I267
I-1
t(dtRp108
sa(dp109
g36
I2
sS'c'
F0
sg29
F0
sg37
S'Australia'
p110
sg39
I45
sg32
F0
sg31
F0
sS's'
F0
sg40
S'Durban'
p111
sg42
g43
((I2007
I9
I22
I0
I0
I0
I5
I265
I-1
t(dtRp112
sa(dp113
g36
I2
sS'c'
F0
sg29
F0
sg37
S'South Africa'
p114
sg39
I43
sg32
F0
sg31
F0
sS's'
F0
sg40
S'Durban'
p115
sg42
g43
((I2007
I9
I20
I0
I0
I0
I3
I263
I-1
t(dtRp116
sa(dp117
g36
I2
sS'c'
F0
sg29
F0
sg37
S'England'
p118
sg39
I40
sg32
F0
sg31
F0
sS's'
F0
sg40
S'Durban'
p119
sg42
g43
((I2007
I9
I19
I0
I0
I0
I2
I262
I-1
t(dtRp120
sa(dp121
g36
I1
sS'c'
F0
sg29
F0
sg37
S'New Zealand'
p122
sg39
I32
sg32
F0
sg31
F0
sS's'
F0
sg40
S'Johannesburg'
p123
sg42
g43
((I2007
I9
I16
I0
I0
I0
I6
I259
I-1
t(dtRp124
sa(dp125
g36
I2
sS'c'
F0
sg29
F0
sg37
S'Pakistan'
p126
sg39
I29
sg32
F0
sg31
F0
sS's'
F0
sg40
S'Durban'
p127
sg42
g43
((I2007
I9
I14
I0
I0
I0
I4
I257
I-1
t(dtRp128
sa(dp129
g36
I1
sS'c'
F0
sg29
F0
sg37
S'South Africa'
p130
sg39
I10
sg32
F0
sg31
F0
sS's'
F0
sg40
S'Johannesburg'
p131
sg42
g43
((I2006
I12
I1
I0
I0
I0
I4
I335
I-1
t(dtRp132
satp133
sS'bowlingStats'
p134
((dp135
S'a'
F22.071428571428573
sS'b'
F462
sS'e'
F8.0259740259740262
sS'i'
F23
sS'sr'
p136
F16.5
sS'5w'
p137
F0
sS'm'
F24
sS'maid'
p138
F1
sS'r'
F618
sS'w'
F28
sS'4w'
p139
F0
sS'bbir'
p140
F16
sS'bbiw'
p141
F3
sg33
F2012
sg30
F2006
s(lp142
(dp143
g36
I2
sS'b'
F18
sS'e'
F8.6666666666666661
sg39
I286
sS'pos'
p144
I2
sg138
F0
sS'r'
F26
sg40
S'Colombo (RPS)'
p145
sS'w'
F1
sg42
g43
((I2012
I10
I2
I0
I0
I0
I1
I276
I-1
t(dtRp146
sg37
S'South Africa'
p147
sa(dp148
g36
I1
sS'b'
F18
sS'e'
F10
sg39
I282
sg144
I2
sg138
F0
sS'r'
F30
sg40
S'Colombo (RPS)'
p149
sS'w'
F1
sg42
g43
((I2012
I9
I30
I0
I0
I0
I6
I274
I-1
t(dtRp150
sg37
S'Pakistan'
p151
sa(dp152
g36
I2
sS'b'
F6
sS'e'
F19
sg39
I278
sg144
I5
sg138
F0
sS'r'
F19
sg40
S'Colombo (RPS)'
p153
sS'w'
F0
sg42
g43
((I2012
I9
I28
I0
I0
I0
I4
I272
I-1
t(dtRp154
sg37
S'Australia'
p155
sa(dp156
g36
I2
sS'b'
F18
sS'e'
F5.666666666666667
sg39
I272
sg144
I1
sg138
F0
sS'r'
F17
sg40
S'Colombo (RPS)'
p157
sS'w'
F2
sg42
g43
((I2012
I9
I23
I0
I0
I0
I6
I267
I-1
t(dtRp158
sg37
S'England'
p159
sa(dp160
g36
I2
sS'b'
F24
sS'e'
F7.25
sg39
I265
sg144
I2
sg138
F0
sS'r'
F29
sg40
S'Colombo (RPS)'
p161
sS'w'
F1
sg42
g43
((I2012
I9
I19
I0
I0
I0
I2
I263
I-1
t(dtRp162
sg37
S'Afghanistan'
p163
sa(dp164
g36
I1
sS'b'
F24
sS'e'
F7.75
sg39
I261
sg144
I2
sg138
F0
sS'r'
F31
sg40
S'Chennai'
p165
sS'w'
F3
sg42
g43
((I2012
I9
I11
I0
I0
I0
I1
I255
I-1
t(dtRp166
sg37
S'New Zealand'
p167
sa(dp168
g36
I2
sS'b'
F24
sS'e'
F6.75
sg39
I255
sg144
I1
sg138
F0
sS'r'
F27
sg40
S'Pallekele'
p169
sS'w'
F3
sg42
g43
((I2012
I8
I7
I0
I0
I0
I1
I220
I-1
t(dtRp170
sg37
S'Sri Lanka'
p171
sa(dp172
g36
I1
sS'b'
F24
sS'e'
F11
sg39
I242
sg144
I2
sg138
F0
sS'r'
F44
sg40
S'Johannesburg'
p173
sS'w'
F1
sg42
g43
((I2012
I3
I30
I0
I0
I0
I4
I90
I-1
t(dtRp174
sg37
S'South Africa'
p175
sa(dp176
g36
I2
sS'b'
F12
sS'e'
F4.5
sg39
I105
sg144
I2
sg138
F0
sS'r'
F9
sg40
S"Lord's"
p177
sS'w'
F1
sg42
g43
((I2009
I6
I12
I0
I0
I0
I4
I163
I-1
t(dtRp178
sg37
S'West Indies'
p179
sa(dp180
g36
I1
sS'b'
F18
sS'e'
F7.333333333333333
sg39
I101
sg144
I1
sg138
F0
sS'r'
F22
sg40
S'Nottingham'
p181
sS'w'
F0
sg42
g43
((I2009
I6
I10
I0
I0
I0
I2
I161
I-1
t(dtRp182
sg37
S'Ireland'
p183
sa(dp184
g36
I2
sS'b'
F12
sS'e'
F10
sg39
I93
sg144
I2
sg138
F0
sS'r'
F20
sg40
S'Nottingham'
p185
sS'w'
F0
sg42
g43
((I2009
I6
I6
I0
I0
I0
I5
I157
I-1
t(dtRp186
sg37
S'Bangladesh'
p187
sa(dp188
g36
I2
sS'b'
F24
sS'e'
F10.25
sg39
I85
sg144
I1
sg138
F0
sS'r'
F41
sg40
S'Wellington'
p189
sS'w'
F2
sg42
g43
((I2009
I2
I27
I0
I0
I0
I4
I58
I-1
t(dtRp190
sg37
S'New Zealand'
p191
sa(dp192
g36
I2
sS'b'
F18
sS'e'
F12.666666666666666
sg39
I84
sg144
I3
sg138
F0
sS'r'
F38
sg40
S'Christchurch'
p193
sS'w'
F0
sg42
g43
((I2009
I2
I25
I0
I0
I0
I2
I56
I-1
t(dtRp194
sg37
S'New Zealand'
p195
sa(dp196
g36
I1
sS'b'
F24
sS'e'
F8.5
sg39
I82
sg144
I3
sg138
F0
sS'r'
F34
sg40
S'Colombo (RPS)'
p197
sS'w'
F1
sg42
g43
((I2009
I2
I10
I0
I0
I0
I1
I41
I-1
t(dtRp198
sg37
S'Sri Lanka'
p199
sa(dp200
g36
I2
sS'b'
F18
sS'e'
F6
sg39
I52
sg144
I1
sg138
F0
sS'r'
F18
sg40
S'Melbourne'
p201
sS'w'
F0
sg42
g43
((I2008
I2
I1
I0
I0
I0
I4
I32
I-1
t(dtRp202
sg37
S'Australia'
p203
sa(dp204
g36
I1
sS'b'
F24
sS'e'
F8.5
sg39
I47
sg144
I3
sg138
F0
sS'r'
F34
sg40
S'Mumbai (BS)'
p205
sS'w'
F2
sg42
g43
((I2007
I10
I20
I0
I0
I0
I5
I293
I-1
t(dtRp206
sg37
S'Australia'
p207
sa(dp208
g36
I2
sS'b'
F24
sS'e'
F4
sg39
I46
sg144
I5
sg138
F0
sS'r'
F16
sg40
S'Johannesburg'
p209
sS'w'
F3
sg42
g43
((I2007
I9
I24
I0
I0
I0
I0
I267
I-1
t(dtRp210
sg37
S'Pakistan'
p211
sa(dp212
g36
I2
sS'b'
F24
sS'e'
F11
sg39
I45
sg144
I3
sg138
F0
sS'r'
F44
sg40
S'Durban'
p213
sS'w'
F2
sg42
g43
((I2007
I9
I22
I0
I0
I0
I5
I265
I-1
t(dtRp214
sg37
S'Australia'
p215
sa(dp216
g36
I2
sS'b'
F24
sS'e'
F4
sg39
I43
sg144
I4
sg138
F0
sS'r'
F16
sg40
S'Durban'
p217
sS'w'
F0
sg42
g43
((I2007
I9
I20
I0
I0
I0
I3
I263
I-1
t(dtRp218
sg37
S'South Africa'
p219
sa(dp220
g36
I2
sS'b'
F24
sS'e'
F9.25
sg39
I40
sg144
I4
sg138
F0
sS'r'
F37
sg40
S'Durban'
p221
sS'w'
F3
sg42
g43
((I2007
I9
I19
I0
I0
I0
I2
I262
I-1
t(dtRp222
sg37
S'England'
p223
sa(dp224
g36
I1
sS'b'
F12
sS'e'
F8
sg39
I32
sg144
I4
sg138
F0
sS'r'
F16
sg40
S'Johannesburg'
p225
sS'w'
F0
sg42
g43
((I2007
I9
I16
I0
I0
I0
I6
I259
I-1
t(dtRp226
sg37
S'New Zealand'
p227
sa(dp228
g36
I2
sS'b'
F24
sS'e'
F5
sg39
I29
sg144
I4
sg138
F1
sS'r'
F20
sg40
S'Durban'
p229
sS'w'
F2
sg42
g43
((I2007
I9
I14
I0
I0
I0
I4
I257
I-1
t(dtRp230
sg37
S'Pakistan'
p231
sa(dp232
g36
I1
sS'b'
F24
sS'e'
F7.5
sg39
I10
sg144
I4
sg138
F0
sS'r'
F30
sg40
S'Johannesburg'
p233
sS'w'
F0
sg42
g43
((I2006
I12
I1
I0
I0
I0
I4
I335
I-1
t(dtRp234
sg37
S'South Africa'
p235
satp236
sS'battingStats'
p237
((dp238
S'a'
F24.571428571428573
sS'0s'
p239
F0
sS'b'
F144
sS'no'
p240
F7
sg30
F2006
sS'hs'
p241
F33
sS'm'
F24
sS'4s'
p242
F9
sg33
F2012
sS'i'
F14
sS'6s'
p243
F7
sg136
F119.44444444444444
sS'r'
F172
sS'100s'
p244
F0
sS'50s'
p245
F0
s(lp246
(dp247
g36
I1
sS'b'
F30
sg37
S'Australia'
p248
sg136
F103.33333333333333
sg39
I278
sS'dismiss'
p249
S'caught'
p250
sg242
F2
sg144
I2
sg243
F1
sg40
S'Colombo (RPS)'
p251
sg42
g43
((I2012
I9
I28
I0
I0
I0
I4
I272
I-1
t(dtRp252
sS'r'
F31
sS'minutes'
p253
F48
sa(dp254
g36
I1
sS'b'
F8
sg37
S'England'
p255
sg136
F100
sg39
I272
sg249
S'bowled'
p256
sg242
F1
sg144
I2
sg243
F0
sg40
S'Colombo (RPS)'
p257
sg42
g43
((I2012
I9
I23
I0
I0
I0
I6
I267
I-1
t(dtRp258
sS'r'
F8
sg253
F14
sa(dp259
g36
I1
sS'b'
F3
sg37
S'West Indies'
p260
sg136
F66.666666666666671
sg39
I105
sg249
S'caught'
p261
sg242
F0
sg144
I7
sg243
F0
sg40
S"Lord's"
p262
sg42
g43
((I2009
I6
I12
I0
I0
I0
I4
I163
I-1
t(dtRp263
sS'r'
F2
sg253
F7
sa(dp264
g36
I1
sS'b'
F3
sg37
S'Bangladesh'
p265
sg240
I01
sg136
F366.66666666666669
sg39
I93
sg249
S'not out'
p266
sg242
F1
sg144
I7
sg243
F1
sg40
S'Nottingham'
p267
sg42
g43
((I2009
I6
I6
I0
I0
I0
I5
I157
I-1
t(dtRp268
sS'r'
F11
sg253
F2
sa(dp269
g36
I1
sS'b'
F10
sg37
S'New Zealand'
p270
sg240
I01
sg136
F150
sg39
I85
sg249
S'not out'
p271
sg242
F0
sg144
I8
sg243
F1
sg40
S'Wellington'
p272
sg42
g43
((I2009
I2
I27
I0
I0
I0
I4
I58
I-1
t(dtRp273
sS'r'
F15
sg253
F13
sa(dp274
g36
I1
sS'b'
F14
sg37
S'New Zealand'
p275
sg136
F85.714285714285708
sg39
I84
sg249
S'caught'
p276
sg242
F1
sg144
I8
sg243
F0
sg40
S'Christchurch'
p277
sg42
g43
((I2009
I2
I25
I0
I0
I0
I2
I56
I-1
t(dtRp278
sS'r'
F12
sg253
F13
sa(dp279
g36
I2
sS'b'
F16
sg37
S'Sri Lanka'
p280
sg240
I01
sg136
F206.25
sg39
I82
sg249
S'not out'
p281
sg242
F2
sg144
I9
sg243
F2
sg40
S'Colombo (RPS)'
p282
sg42
g43
((I2009
I2
I10
I0
I0
I0
I1
I41
I-1
t(dtRp283
sS'r'
F33
sg253
F22
sa(dp284
g36
I1
sS'b'
F30
sg37
S'Australia'
p285
sg136
F86.666666666666671
sg39
I52
sg249
S'caught'
p286
sg242
F0
sg144
I7
sg243
F0
sg40
S'Melbourne'
p287
sg42
g43
((I2008
I2
I1
I0
I0
I0
I4
I32
I-1
t(dtRp288
sS'r'
F26
sg253
F41
sa(dp289
g36
I1
sS'b'
F3
sg37
S'Pakistan'
p290
sg240
I01
sg136
F100
sg39
I46
sg249
S'not out'
p291
sg242
F0
sg144
I7
sg243
F0
sg40
S'Johannesburg'
p292
sg42
g43
((I2007
I9
I24
I0
I0
I0
I0
I267
I-1
t(dtRp293
sS'r'
F3
sg253
F9
sa(dp294
g36
I1
sS'b'
F1
sg37
S'Australia'
p295
sg240
I01
sg136
F0
sg39
I45
sg249
S'not out'
p296
sg242
F0
sg144
I7
sg243
F0
sg40
S'Durban'
p297
sg42
g43
((I2007
I9
I22
I0
I0
I0
I5
I265
I-1
t(dtRp298
sS'r'
F0
sg253
F1
sa(dp299
g36
I1
sS'b'
F1
sg37
S'South Africa'
p300
sg240
I01
sg136
F0
sg39
I43
sg249
S'not out'
p301
sg242
F0
sg144
I7
sg243
F0
sg40
S'Durban'
p302
sg42
g43
((I2007
I9
I20
I0
I0
I0
I3
I263
I-1
t(dtRp303
sS'r'
F0
sg253
F1
sa(dp304
g36
I1
sS'b'
F0
sg37
S'England'
p305
sg240
I01
sg136
F0
sg39
I40
sg249
S'not out'
p306
sg242
F0
sg144
I6
sg243
F0
sg40
S'Durban'
p307
sg42
g43
((I2007
I9
I19
I0
I0
I0
I2
I262
I-1
t(dtRp308
sS'r'
F0
sg253
F1
sa(dp309
g36
I2
sS'b'
F10
sg37
S'New Zealand'
p310
sg136
F110
sg39
I32
sg249
S'bowled'
p311
sg242
F2
sg144
I7
sg243
F0
sg40
S'Johannesburg'
p312
sg42
g43
((I2007
I9
I16
I0
I0
I0
I6
I259
I-1
t(dtRp313
sS'r'
F11
sg253
F9
sa(dp314
g36
I1
sS'b'
F15
sg37
S'Pakistan'
p315
sg136
F133.33333333333334
sg39
I29
sg249
S'bowled'
p316
sg242
F0
sg144
I7
sg243
F2
sg40
S'Durban'
p317
sg42
g43
((I2007
I9
I14
I0
I0
I0
I4
I257
I-1
t(dtRp318
sS'r'
F20
sg253
F11
satp319
ssS'all'
p320
(dp321
g27
(dp322
S'c'
F36
sg29
F0
sS'i'
F139
sS'm'
F139
sS's'
F0
sg31
F36
sg32
F36
ssg134
(dp323
S'a'
F25.635714285714286
sS'b'
F2873
sS'e'
F7.4953010790114867
sS'i'
F135
sg136
F20.521428571428572
sg137
F0
sS'm'
F139
sg138
F0
sS'r'
F3589
sS'w'
F140
sg139
F1
sg140
F27
sg141
F4
ssg237
(dp324
S'a'
F22.5
sg239
F-1
sS'b'
F1258
sg240
F40
sS'i'
F108
sg241
F60
sS'm'
F139
sg242
F110
sg243
F55
sg136
F121.62162162162163
sS'r'
F1530
sg244
F0
sg245
F1
ssssb.