(iplayer
Player
p1
(dp2
S'is_batsman'
p3
I01
sS'name'
p4
S'Murali Vijay'
p5
sS'dob'
p6
S'1984/04/01'
p7
sS'price'
p8
S'900000'
p9
sS'is_allrounder'
p10
I00
sS'espnid'
p11
S'237095'
p12
sS'is_overseas'
p13
I00
sS'team'
p14
S'DD'
p15
sS'nationality'
p16
S'Indian'
p17
sS'is_bowler'
p18
I00
sS'is_keeper'
p19
I00
sS'id'
p20
S'7'
sS'is_uncapped'
p21
I00
sS'tournamentStats'
p22
(dp23
S'international'
p24
(dp25
S'fieldingStats'
p26
((dp27
S'c'
F3
sS'ctw'
p28
F0
sS'i'
F7
sS'm'
F7
sS's'
F0
sS'dismissals'
p29
F3
sS'ctf'
p30
F3
s(lp31
(dp32
S'inning'
p33
I2
sS'c'
F0
sg28
F0
sS'opp'
p34
S'South Africa'
p35
sS't20i_num'
p36
I196
sg30
F0
sg29
F0
sS's'
F0
sS'place'
p37
S'Durban'
p38
sS'date'
p39
ctime
struct_time
p40
((I2011
I1
I9
I0
I0
I0
I6
I9
I-1
t(dtRp41
sa(dp42
g33
I1
sS'c'
F0
sg28
F0
sg34
S'Zimbabwe'
p43
sg36
I183
sg30
F0
sg29
F0
sS's'
F0
sg37
S'Harare'
p44
sg39
g40
((I2010
I6
I13
I0
I0
I0
I6
I164
I-1
t(dtRp45
sa(dp46
g33
I1
sS'c'
F1
sg28
F0
sg34
S'Zimbabwe'
p47
sg36
I182
sg30
F1
sg29
F1
sS's'
F0
sg37
S'Harare'
p48
sg39
g40
((I2010
I6
I12
I0
I0
I0
I5
I163
I-1
t(dtRp49
sa(dp50
g33
I1
sS'c'
F1
sg28
F0
sg34
S'West Indies'
p51
sg36
I169
sg30
F1
sg29
F1
sS's'
F0
sg37
S'Bridgetown'
p52
sg39
g40
((I2010
I5
I9
I0
I0
I0
I6
I129
I-1
t(dtRp53
sa(dp54
g33
I1
sS'c'
F1
sg28
F0
sg34
S'Australia'
p55
sg36
I165
sg30
F1
sg29
F1
sS's'
F0
sg37
S'Bridgetown'
p56
sg39
g40
((I2010
I5
I7
I0
I0
I0
I4
I127
I-1
t(dtRp57
sa(dp58
g33
I2
sS'c'
F0
sg28
F0
sg34
S'South Africa'
p59
sg36
I155
sg30
F0
sg29
F0
sS's'
F0
sg37
S'Gros Islet'
p60
sg39
g40
((I2010
I5
I2
I0
I0
I0
I6
I122
I-1
t(dtRp61
sa(dp62
g33
I1
sS'c'
F0
sg28
F0
sg34
S'Afghanistan'
p63
sg36
I153
sg30
F0
sg29
F0
sS's'
F0
sg37
S'Gros Islet'
p64
sg39
g40
((I2010
I5
I1
I0
I0
I0
I5
I121
I-1
t(dtRp65
satp66
sS'bowlingStats'
p67
((dp68
S'a'
F-1
sS'b'
F0
sS'e'
F-1
sS'i'
F0
sS'sr'
p69
F-1
sS'5w'
p70
F0
sS'm'
F7
sS'maid'
p71
F0
sS'r'
F0
sS'w'
F0
sS'4w'
p72
F0
sS'bbir'
p73
F-1
sS'bbiw'
p74
F-1
s(ltp75
sS'battingStats'
p76
((dp77
S'a'
F17.428571428571427
sS'0s'
p78
F1
sS'b'
F124
sS'no'
p79
F0
sS'i'
F7
sS'hs'
p80
F48
sS'm'
F7
sS'4s'
p81
F8
sS'6s'
p82
F6
sg69
F98.387096774193552
sS'r'
F122
sS'100s'
p83
F0
sS'50s'
p84
F0
s(lp85
(dp86
g33
I1
sS'b'
F12
sg34
S'South Africa'
p87
sg69
F116.66666666666667
sg36
I196
sS'dismiss'
p88
S'caught'
p89
sg81
F3
sS'pos'
p90
I2
sg82
F0
sg37
S'Durban'
p91
sg39
g40
((I2011
I1
I9
I0
I0
I0
I6
I9
I-1
t(dtRp92
sS'r'
F14
sS'minutes'
p93
F11
sa(dp94
g33
I2
sS'b'
F39
sg34
S'Zimbabwe'
p95
sg69
F117.94871794871794
sg36
I183
sg88
S'caught'
p96
sg81
F2
sg90
I2
sg82
F3
sg37
S'Harare'
p97
sg39
g40
((I2010
I6
I13
I0
I0
I0
I6
I164
I-1
t(dtRp98
sS'r'
F46
sg93
F62
sa(dp99
g33
I2
sS'b'
F5
sg34
S'Zimbabwe'
p100
sg69
F100
sg36
I182
sg88
S'caught'
p101
sg81
F1
sg90
I1
sg82
F0
sg37
S'Harare'
p102
sg39
g40
((I2010
I6
I12
I0
I0
I0
I5
I163
I-1
t(dtRp103
sS'r'
F5
sg93
F3
sa(dp104
g33
I2
sS'b'
F14
sg34
S'West Indies'
p105
sg69
F50
sg36
I169
sg88
S'caught'
p106
sg81
F0
sg90
I1
sg82
F0
sg37
S'Bridgetown'
p107
sg39
g40
((I2010
I5
I9
I0
I0
I0
I6
I129
I-1
t(dtRp108
sS'r'
F7
sg93
F14
sa(dp109
g33
I2
sS'b'
F7
sg34
S'Australia'
p110
sg69
F28.571428571428573
sg36
I165
sg88
S'caught'
p111
sg81
F0
sg90
I1
sg82
F0
sg37
S'Bridgetown'
p112
sg39
g40
((I2010
I5
I7
I0
I0
I0
I4
I127
I-1
t(dtRp113
sS'r'
F2
sg93
F8
sa(dp114
g33
I1
sS'b'
F1
sg34
S'South Africa'
p115
sg69
F0
sg36
I155
sg88
S'caught'
p116
sg81
F0
sg90
I2
sg82
F0
sg37
S'Gros Islet'
p117
sg39
g40
((I2010
I5
I2
I0
I0
I0
I6
I122
I-1
t(dtRp118
sS'r'
F0
sg93
F2
sa(dp119
g33
I2
sS'b'
F46
sg34
S'Afghanistan'
p120
sg69
F104.34782608695652
sg36
I153
sg88
S'caught'
p121
sg81
F2
sg90
I2
sg82
F3
sg37
S'Gros Islet'
p122
sg39
g40
((I2010
I5
I1
I0
I0
I0
I5
I121
I-1
t(dtRp123
sS'r'
F48
sg93
F59
satp124
ssS'all'
p125
(dp126
g26
(dp127
S'c'
F47
sg28
F0
sS'i'
F112
sS'm'
F112
sS's'
F0
sg29
F47
sg30
F47
ssg67
(dp128
S'a'
F-1
sS'b'
F12
sS'e'
F6
sS'i'
F2
sg69
F-1
sg70
F0
sS'm'
F112
sg71
F0
sS'r'
F12
sS'w'
F0
sg72
F0
sg73
F-1
sg74
F-1
ssg76
(dp129
S'a'
F25.716981132075471
sg78
F-1
sS'b'
F2210
sg79
F4
sS'i'
F110
sg80
F127
sS'm'
F112
sg81
F242
sg82
F106
sg69
F123.34841628959276
sS'r'
F2726
sg83
F2
sg84
F14
ssssb.