(iplayer
Player
p1
(dp2
S'is_batsman'
p3
I00
sS'name'
p4
S'Andre Russell'
p5
sS'dob'
p6
S'1988/04/29'
p7
sS'price'
p8
S'850000'
p9
sS'is_allrounder'
p10
I01
sS'espnid'
p11
S'276298'
p12
sS'is_overseas'
p13
I01
sS'team'
p14
S'KKR'
p15
sS'nationality'
p16
S'West Indian'
p17
sS'is_bowler'
p18
I00
sS'is_keeper'
p19
I00
sS'id'
p20
S'177'
p21
sS'is_uncapped'
p22
I00
sS'tournamentStats'
p23
(dp24
S'international'
p25
(dp26
S'fieldingStats'
p27
((dp28
S'c'
F6
sS'ctw'
p29
F0
sS'span_s'
p30
F2011
sS'm'
F27
sS's'
F0
sS'dismissals'
p31
F6
sS'i'
F27
sS'ctf'
p32
F6
sS'span_f'
p33
F2014
s(lp34
(dp35
S'inning'
p36
I1
sS'c'
F0
sg29
F0
sS'opp'
p37
S'Sri Lanka'
p38
sS't20i_num'
p39
I398
sg32
F0
sg31
F0
sS's'
F0
sS'place'
p40
S'Dhaka'
p41
sS'date'
p42
ctime
struct_time
p43
((I2014
I4
I3
I0
I0
I0
I3
I93
I-1
t(dtRp44
sa(dp45
g36
I2
sS'c'
F0
sg29
F0
sg37
S'Pakistan'
p46
sg39
I397
sg32
F0
sg31
F0
sS's'
F0
sg40
S'Dhaka'
p47
sg42
g43
((I2014
I4
I1
I0
I0
I0
I1
I91
I-1
t(dtRp48
sa(dp49
g36
I1
sS'c'
F1
sg29
F0
sg37
S'Australia'
p50
sg39
I388
sg32
F1
sg31
F1
sS's'
F0
sg40
S'Dhaka'
p51
sg42
g43
((I2014
I3
I28
I0
I0
I0
I4
I87
I-1
t(dtRp52
sa(dp53
g36
I2
sS'c'
F0
sg29
F0
sg37
S'Bangladesh'
p54
sg39
I385
sg32
F0
sg31
F0
sS's'
F0
sg40
S'Dhaka'
p55
sg42
g43
((I2014
I3
I25
I0
I0
I0
I1
I84
I-1
t(dtRp56
sa(dp57
g36
I2
sS'c'
F0
sg29
F0
sg37
S'India'
p58
sg39
I382
sg32
F0
sg31
F0
sS's'
F0
sg40
S'Dhaka'
p59
sg42
g43
((I2014
I3
I23
I0
I0
I0
I6
I82
I-1
t(dtRp60
sa(dp61
g36
I1
sS'c'
F0
sg29
F0
sg37
S'England'
p62
sg39
I364
sg32
F0
sg31
F0
sS's'
F0
sg40
S'Bridgetown'
p63
sg42
g43
((I2014
I3
I13
I0
I0
I0
I3
I72
I-1
t(dtRp64
sa(dp65
g36
I1
sS'c'
F0
sg29
F0
sg37
S'England'
p66
sg39
I362
sg32
F0
sg31
F0
sS's'
F0
sg40
S'Bridgetown'
p67
sg42
g43
((I2014
I3
I11
I0
I0
I0
I1
I70
I-1
t(dtRp68
sa(dp69
g36
I2
sS'c'
F0
sg29
F0
sg37
S'England'
p70
sg39
I361
sg32
F0
sg31
F0
sS's'
F0
sg40
S'Bridgetown'
p71
sg42
g43
((I2014
I3
I9
I0
I0
I0
I6
I68
I-1
t(dtRp72
sa(dp73
g36
I2
sS'c'
F0
sg29
F0
sg37
S'Ireland'
p74
sg39
I360
sg32
F0
sg31
F0
sS's'
F0
sg40
S'Kingston'
p75
sg42
g43
((I2014
I2
I21
I0
I0
I0
I4
I52
I-1
t(dtRp76
sa(dp77
g36
I2
sS'c'
F1
sg29
F0
sg37
S'Ireland'
p78
sg39
I359
sg32
F1
sg31
F1
sS's'
F0
sg40
S'Kingston'
p79
sg42
g43
((I2014
I2
I19
I0
I0
I0
I2
I50
I-1
t(dtRp80
sa(dp81
g36
I2
sS'c'
F0
sg29
F0
sg37
S'New Zealand'
p82
sg39
I353
sg32
F0
sg31
F0
sS's'
F0
sg40
S'Wellington'
p83
sg42
g43
((I2014
I1
I15
I0
I0
I0
I2
I15
I-1
t(dtRp84
sa(dp85
g36
I1
sS'c'
F0
sg29
F0
sg37
S'New Zealand'
p86
sg39
I352
sg32
F0
sg31
F0
sS's'
F0
sg40
S'Auckland'
p87
sg42
g43
((I2014
I1
I11
I0
I0
I0
I5
I11
I-1
t(dtRp88
sa(dp89
g36
I2
sS'c'
F0
sg29
F0
sg37
S'Zimbabwe'
p90
sg39
I308
sg32
F0
sg31
F0
sS's'
F0
sg40
S'North Sound'
p91
sg42
g43
((I2013
I3
I3
I0
I0
I0
I6
I62
I-1
t(dtRp92
sa(dp93
g36
I1
sS'c'
F2
sg29
F0
sg37
S'Zimbabwe'
p94
sg39
I305
sg32
F2
sg31
F2
sS's'
F0
sg40
S'North Sound'
p95
sg42
g43
((I2013
I3
I2
I0
I0
I0
I5
I61
I-1
t(dtRp96
sa(dp97
g36
I2
sS'c'
F1
sg29
F0
sg37
S'Australia'
p98
sg39
I303
sg32
F1
sg31
F1
sS's'
F0
sg40
S'Brisbane'
p99
sg42
g43
((I2013
I2
I13
I0
I0
I0
I2
I44
I-1
t(dtRp100
sa(dp101
g36
I2
sS'c'
F0
sg29
F0
sg37
S'Bangladesh'
p102
sg39
I291
sg32
F0
sg31
F0
sS's'
F0
sg40
S'Dhaka'
p103
sg42
g43
((I2012
I12
I10
I0
I0
I0
I0
I345
I-1
t(dtRp104
sa(dp105
g36
I2
sS'c'
F0
sg29
F0
sg37
S'Sri Lanka'
p106
sg39
I289
sg32
F0
sg31
F0
sS's'
F0
sg40
S'Colombo (RPS)'
p107
sg42
g43
((I2012
I10
I7
I0
I0
I0
I6
I281
I-1
t(dtRp108
sa(dp109
g36
I2
sS'c'
F1
sg29
F0
sg37
S'Australia'
p110
sg39
I288
sg32
F1
sg31
F1
sS's'
F0
sg40
S'Colombo (RPS)'
p111
sg42
g43
((I2012
I10
I5
I0
I0
I0
I4
I279
I-1
t(dtRp112
sa(dp113
g36
I2
sS'c'
F0
sg29
F0
sg37
S'New Zealand'
p114
sg39
I283
sg32
F0
sg31
F0
sS's'
F0
sg40
S'Pallekele'
p115
sg42
g43
((I2012
I10
I1
I0
I0
I0
I0
I275
I-1
t(dtRp116
sa(dp117
g36
I2
sS'c'
F0
sg29
F0
sg37
S'Sri Lanka'
p118
sg39
I280
sg32
F0
sg31
F0
sS's'
F0
sg40
S'Pallekele'
p119
sg42
g43
((I2012
I9
I29
I0
I0
I0
I5
I273
I-1
t(dtRp120
sa(dp121
g36
I2
sS'c'
F0
sg29
F0
sg37
S'England'
p122
sg39
I276
sg32
F0
sg31
F0
sS's'
F0
sg40
S'Pallekele'
p123
sg42
g43
((I2012
I9
I27
I0
I0
I0
I3
I271
I-1
t(dtRp124
sa(dp125
g36
I1
sS'c'
F0
sg29
F0
sg37
S'Ireland'
p126
sg39
I273
sg32
F0
sg31
F0
sS's'
F0
sg40
S'Colombo (RPS)'
p127
sg42
g43
((I2012
I9
I24
I0
I0
I0
I0
I268
I-1
t(dtRp128
sa(dp129
g36
I2
sS'c'
F0
sg29
F0
sg37
S'Bangladesh'
p130
sg39
I209
sg32
F0
sg31
F0
sS's'
F0
sg40
S'Dhaka'
p131
sg42
g43
((I2011
I10
I11
I0
I0
I0
I1
I284
I-1
t(dtRp132
sa(dp133
g36
I2
sS'c'
F0
sg29
F0
sg37
S'England'
p134
sg39
I208
sg32
F0
sg31
F0
sS's'
F0
sg40
S'The Oval'
p135
sg42
g43
((I2011
I9
I25
I0
I0
I0
I6
I268
I-1
t(dtRp136
sa(dp137
g36
I2
sS'c'
F0
sg29
F0
sg37
S'England'
p138
sg39
I207
sg32
F0
sg31
F0
sS's'
F0
sg40
S'The Oval'
p139
sg42
g43
((I2011
I9
I23
I0
I0
I0
I4
I266
I-1
t(dtRp140
sa(dp141
g36
I1
sS'c'
F0
sg29
F0
sg37
S'India'
p142
sg39
I200
sg32
F0
sg31
F0
sS's'
F0
sg40
S'Port of Spain'
p143
sg42
g43
((I2011
I6
I4
I0
I0
I0
I5
I155
I-1
t(dtRp144
sa(dp145
g36
I2
sS'c'
F0
sg29
F0
sg37
S'Pakistan'
p146
sg39
I199
sg32
F0
sg31
F0
sS's'
F0
sg40
S'Gros Islet'
p147
sg42
g43
((I2011
I4
I21
I0
I0
I0
I3
I111
I-1
t(dtRp148
satp149
sS'bowlingStats'
p150
((dp151
S'a'
F43.777777777777779
sS'b'
F253
sS'e'
F9.3438735177865606
sS'i'
F23
sS'sr'
p152
F28.111111111111111
sS'5w'
p153
F0
sS'm'
F27
sS'maid'
p154
F0
sS'r'
F394
sS'w'
F9
sS'4w'
p155
F0
sS'bbir'
p156
F10
sS'bbiw'
p157
F2
sg33
F2014
sg30
F2011
s(lp158
(dp159
g36
I1
sS'b'
F18
sS'e'
F12.333333333333334
sg39
I398
sS'pos'
p160
I5
sg154
F0
sS'r'
F37
sg40
S'Dhaka'
p161
sS'w'
F1
sg42
g43
((I2014
I4
I3
I0
I0
I0
I3
I93
I-1
t(dtRp162
sg37
S'Sri Lanka'
p163
sa(dp164
g36
I2
sS'b'
F18
sS'e'
F5
sg39
I397
sg160
I4
sg154
F0
sS'r'
F15
sg40
S'Dhaka'
p165
sS'w'
F2
sg42
g43
((I2014
I4
I1
I0
I0
I0
I1
I91
I-1
t(dtRp166
sg37
S'Pakistan'
p167
sa(dp168
g36
I1
sS'b'
F6
sS'e'
F15
sg39
I388
sg160
I7
sg154
F0
sS'r'
F15
sg40
S'Dhaka'
p169
sS'w'
F0
sg42
g43
((I2014
I3
I28
I0
I0
I0
I4
I87
I-1
t(dtRp170
sg37
S'Australia'
p171
sa(dp172
g36
I2
sS'b'
F13
sS'e'
F4.615384615384615
sg39
I385
sg160
I7
sg154
F0
sS'r'
F10
sg40
S'Dhaka'
p173
sS'w'
F2
sg42
g43
((I2014
I3
I25
I0
I0
I0
I1
I84
I-1
t(dtRp174
sg37
S'Bangladesh'
p175
sa(dp176
g36
I2
sS'b'
F12
sS'e'
F6
sg39
I382
sg160
I7
sg154
F0
sS'r'
F12
sg40
S'Dhaka'
p177
sS'w'
F1
sg42
g43
((I2014
I3
I23
I0
I0
I0
I6
I82
I-1
t(dtRp178
sg37
S'India'
p179
sa(dp180
g36
I1
sS'b'
F6
sS'e'
F11
sg39
I364
sg160
I5
sg154
F0
sS'r'
F11
sg40
S'Bridgetown'
p181
sS'w'
F0
sg42
g43
((I2014
I3
I13
I0
I0
I0
I3
I72
I-1
t(dtRp182
sg37
S'England'
p183
sa(dp184
g36
I1
sS'b'
F12
sS'e'
F6.5
sg39
I362
sg160
I7
sg154
F0
sS'r'
F13
sg40
S'Bridgetown'
p185
sS'w'
F0
sg42
g43
((I2014
I3
I11
I0
I0
I0
I1
I70
I-1
t(dtRp186
sg37
S'England'
p187
sa(dp188
g36
I2
sS'b'
F12
sS'e'
F10.5
sg39
I361
sg160
I7
sg154
F0
sS'r'
F21
sg40
S'Bridgetown'
p189
sS'w'
F0
sg42
g43
((I2014
I3
I9
I0
I0
I0
I6
I68
I-1
t(dtRp190
sg37
S'England'
p191
sa(dp192
g36
I2
sS'b'
F6
sS'e'
F7
sg39
I359
sg160
I7
sg154
F0
sS'r'
F7
sg40
S'Kingston'
p193
sS'w'
F0
sg42
g43
((I2014
I2
I19
I0
I0
I0
I2
I50
I-1
t(dtRp194
sg37
S'Ireland'
p195
sa(dp196
g36
I2
sS'b'
F18
sS'e'
F5.333333333333333
sg39
I353
sg160
I6
sg154
F0
sS'r'
F16
sg40
S'Wellington'
p197
sS'w'
F2
sg42
g43
((I2014
I1
I15
I0
I0
I0
I2
I15
I-1
t(dtRp198
sg37
S'New Zealand'
p199
sa(dp200
g36
I1
sS'b'
F6
sS'e'
F23
sg39
I352
sg160
I6
sg154
F0
sS'r'
F23
sg40
S'Auckland'
p201
sS'w'
F0
sg42
g43
((I2014
I1
I11
I0
I0
I0
I5
I11
I-1
t(dtRp202
sg37
S'New Zealand'
p203
sa(dp204
g36
I2
sS'b'
F12
sS'e'
F10.5
sg39
I308
sg160
I6
sg154
F0
sS'r'
F21
sg40
S'North Sound'
p205
sS'w'
F0
sg42
g43
((I2013
I3
I3
I0
I0
I0
I6
I62
I-1
t(dtRp206
sg37
S'Zimbabwe'
p207
sa(dp208
g36
I1
sS'b'
F6
sS'e'
F6
sg39
I305
sg160
I6
sg154
F0
sS'r'
F6
sg40
S'North Sound'
p209
sS'w'
F0
sg42
g43
((I2013
I3
I2
I0
I0
I0
I5
I61
I-1
t(dtRp210
sg37
S'Zimbabwe'
p211
sa(dp212
g36
I2
sS'b'
F6
sS'e'
F9
sg39
I303
sg160
I4
sg154
F0
sS'r'
F9
sg40
S'Brisbane'
p213
sS'w'
F0
sg42
g43
((I2013
I2
I13
I0
I0
I0
I2
I44
I-1
t(dtRp214
sg37
S'Australia'
p215
sa(dp216
g36
I2
sS'b'
F6
sS'e'
F17
sg39
I291
sg160
I3
sg154
F0
sS'r'
F17
sg40
S'Dhaka'
p217
sS'w'
F0
sg42
g43
((I2012
I12
I10
I0
I0
I0
I0
I345
I-1
t(dtRp218
sg37
S'Bangladesh'
p219
sa(dp220
g36
I2
sS'b'
F6
sS'e'
F25
sg39
I288
sg160
I5
sg154
F0
sS'r'
F25
sg40
S'Colombo (RPS)'
p221
sS'w'
F0
sg42
g43
((I2012
I10
I5
I0
I0
I0
I4
I279
I-1
t(dtRp222
sg37
S'Australia'
p223
sa(dp224
g36
I2
sS'b'
F6
sS'e'
F11
sg39
I280
sg160
I5
sg154
F0
sS'r'
F11
sg40
S'Pallekele'
p225
sS'w'
F0
sg42
g43
((I2012
I9
I29
I0
I0
I0
I5
I273
I-1
t(dtRp226
sg37
S'Sri Lanka'
p227
sa(dp228
g36
I1
sS'b'
F12
sS'e'
F9.5
sg39
I273
sg160
I5
sg154
F0
sS'r'
F19
sg40
S'Colombo (RPS)'
p229
sS'w'
F0
sg42
g43
((I2012
I9
I24
I0
I0
I0
I0
I268
I-1
t(dtRp230
sg37
S'Ireland'
p231
sa(dp232
g36
I2
sS'b'
F12
sS'e'
F8.5
sg39
I209
sg160
I3
sg154
F0
sS'r'
F17
sg40
S'Dhaka'
p233
sS'w'
F0
sg42
g43
((I2011
I10
I11
I0
I0
I0
I1
I284
I-1
t(dtRp234
sg37
S'Bangladesh'
p235
sa(dp236
g36
I2
sS'b'
F12
sS'e'
F7
sg39
I208
sg160
I5
sg154
F0
sS'r'
F14
sg40
S'The Oval'
p237
sS'w'
F1
sg42
g43
((I2011
I9
I25
I0
I0
I0
I6
I268
I-1
t(dtRp238
sg37
S'England'
p239
sa(dp240
g36
I2
sS'b'
F12
sS'e'
F10.5
sg39
I207
sg160
I3
sg154
F0
sS'r'
F21
sg40
S'The Oval'
p241
sS'w'
F0
sg42
g43
((I2011
I9
I23
I0
I0
I0
I4
I266
I-1
t(dtRp242
sg37
S'England'
p243
sa(dp244
g36
I1
sS'b'
F12
sS'e'
F13
sg39
I200
sg160
I2
sg154
F0
sS'r'
F26
sg40
S'Port of Spain'
p245
sS'w'
F0
sg42
g43
((I2011
I6
I4
I0
I0
I0
I5
I155
I-1
t(dtRp246
sg37
S'India'
p247
sa(dp248
g36
I2
sS'b'
F24
sS'e'
F7
sg39
I199
sg160
I3
sg154
F0
sS'r'
F28
sg40
S'Gros Islet'
p249
sS'w'
F0
sg42
g43
((I2011
I4
I21
I0
I0
I0
I3
I111
I-1
t(dtRp250
sg37
S'Pakistan'
p251
satp252
sS'battingStats'
p253
((dp254
S'a'
F11.307692307692308
sS'0s'
p255
F6
sS'b'
F129
sS'no'
p256
F7
sg30
F2011
sS'hs'
p257
F24
sS'm'
F27
sS'4s'
p258
F11
sg33
F2014
sS'i'
F20
sS'6s'
p259
F5
sg152
F113.95348837209302
sS'r'
F147
sS'100s'
p260
F0
sS'50s'
p261
F0
s(lp262
(dp263
g36
I1
sS'b'
F0
sg37
S'Pakistan'
p264
sg256
I01
sg152
F0
sg39
I397
sS'dismiss'
p265
S'not out'
p266
sg258
F0
sg160
I8
sg259
F0
sg40
S'Dhaka'
p267
sg42
g43
((I2014
I4
I1
I0
I0
I0
I1
I91
I-1
t(dtRp268
sS'r'
F0
sS'minutes'
p269
F4
sa(dp270
g36
I1
sS'b'
F1
sg37
S'Bangladesh'
p271
sg152
F0
sg39
I385
sg265
S'caught'
p272
sg258
F0
sg160
I6
sg259
F0
sg40
S'Dhaka'
p273
sg42
g43
((I2014
I3
I25
I0
I0
I0
I1
I84
I-1
t(dtRp274
sS'r'
F0
sg269
F1
sa(dp275
g36
I1
sS'b'
F5
sg37
S'India'
p276
sg152
F140
sg39
I382
sg265
S'caught'
p277
sg258
F0
sg160
I7
sg259
F1
sg40
S'Dhaka'
p278
sg42
g43
((I2014
I3
I23
I0
I0
I0
I6
I82
I-1
t(dtRp279
sS'r'
F7
sg269
F4
sa(dp280
g36
I2
sS'b'
F2
sg37
S'England'
p281
sg152
F0
sg39
I364
sg265
S'caught'
p282
sg258
F0
sg160
I6
sg259
F0
sg40
S'Bridgetown'
p283
sg42
g43
((I2014
I3
I13
I0
I0
I0
I3
I72
I-1
t(dtRp284
sS'r'
F0
sg269
F2
sa(dp285
g36
I2
sS'b'
F4
sg37
S'England'
p286
sg152
F50
sg39
I362
sg265
S'caught'
p287
sg258
F0
sg160
I5
sg259
F0
sg40
S'Bridgetown'
p288
sg42
g43
((I2014
I3
I11
I0
I0
I0
I1
I70
I-1
t(dtRp289
sS'r'
F2
sg269
F9
sa(dp290
g36
I1
sS'b'
F15
sg37
S'England'
p291
sg256
I01
sg152
F160
sg39
I361
sg265
S'not out'
p292
sg258
F2
sg160
I5
sg259
F1
sg40
S'Bridgetown'
p293
sg42
g43
((I2014
I3
I9
I0
I0
I0
I6
I68
I-1
t(dtRp294
sS'r'
F24
sg269
F28
sa(dp295
g36
I1
sS'b'
F11
sg37
S'Ireland'
p296
sg152
F72.727272727272734
sg39
I360
sg265
S'bowled'
p297
sg258
F0
sg160
I6
sg259
F0
sg40
S'Kingston'
p298
sg42
g43
((I2014
I2
I21
I0
I0
I0
I4
I52
I-1
t(dtRp299
sS'r'
F8
sg269
F-1
sa(dp300
g36
I1
sS'b'
F15
sg37
S'Ireland'
p301
sg152
F100
sg39
I359
sg265
S'bowled'
p302
sg258
F1
sg160
I6
sg259
F1
sg40
S'Kingston'
p303
sg42
g43
((I2014
I2
I19
I0
I0
I0
I2
I50
I-1
t(dtRp304
sS'r'
F15
sg269
F-1
sa(dp305
g36
I1
sS'b'
F7
sg37
S'New Zealand'
p306
sg256
I01
sg152
F142.85714285714286
sg39
I353
sg265
S'not out'
p307
sg258
F1
sg160
I7
sg259
F0
sg40
S'Wellington'
p308
sg42
g43
((I2014
I1
I15
I0
I0
I0
I2
I15
I-1
t(dtRp309
sS'r'
F10
sg269
F10
sa(dp310
g36
I2
sS'b'
F2
sg37
S'New Zealand'
p311
sg152
F0
sg39
I352
sg265
S'caught'
p312
sg258
F0
sg160
I6
sg259
F0
sg40
S'Auckland'
p313
sg42
g43
((I2014
I1
I11
I0
I0
I0
I5
I11
I-1
t(dtRp314
sS'r'
F0
sg269
F1
sa(dp315
g36
I1
sS'b'
F1
sg37
S'Zimbabwe'
p316
sg152
F0
sg39
I308
sg265
S'caught'
p317
sg258
F0
sg160
I7
sg259
F0
sg40
S'North Sound'
p318
sg42
g43
((I2013
I3
I3
I0
I0
I0
I6
I62
I-1
t(dtRp319
sS'r'
F0
sg269
F2
sa(dp320
g36
I1
sS'b'
F11
sg37
S'Australia'
p321
sg256
I01
sg152
F209.09090909090909
sg39
I303
sg265
S'not out'
p322
sg258
F3
sg160
I6
sg259
F0
sg40
S'Brisbane'
p323
sg42
g43
((I2013
I2
I13
I0
I0
I0
I2
I44
I-1
t(dtRp324
sS'r'
F23
sg269
F19
sa(dp325
g36
I1
sS'b'
F1
sg37
S'Sri Lanka'
p326
sg152
F0
sg39
I289
sg265
S'lbw'
p327
sg258
F0
sg160
I6
sg259
F0
sg40
S'Colombo (RPS)'
p328
sg42
g43
((I2012
I10
I7
I0
I0
I0
I6
I281
I-1
t(dtRp329
sS'r'
F0
sg269
F2
sa(dp330
g36
I1
sS'b'
F6
sg37
S'New Zealand'
p331
sg152
F100
sg39
I283
sg265
S'caught'
p332
sg258
F0
sg160
I3
sg259
F1
sg40
S'Pallekele'
p333
sg42
g43
((I2012
I10
I1
I0
I0
I0
I0
I275
I-1
t(dtRp334
sS'r'
F6
sg269
F9
sa(dp335
g36
I1
sS'b'
F14
sg37
S'Sri Lanka'
p336
sg256
I01
sg152
F135.71428571428572
sg39
I280
sg265
S'not out'
p337
sg258
F0
sg160
I6
sg259
F1
sg40
S'Pallekele'
p338
sg42
g43
((I2012
I9
I29
I0
I0
I0
I5
I273
I-1
t(dtRp339
sS'r'
F19
sg269
F19
sa(dp340
g36
I1
sS'b'
F5
sg37
S'England'
p341
sg256
I01
sg152
F200
sg39
I276
sg265
S'not out'
p342
sg258
F2
sg160
I7
sg259
F0
sg40
S'Pallekele'
p343
sg42
g43
((I2012
I9
I27
I0
I0
I0
I3
I271
I-1
t(dtRp344
sS'r'
F10
sg269
F7
sa(dp345
g36
I1
sS'b'
F12
sg37
S'Bangladesh'
p346
sg152
F41.666666666666664
sg39
I209
sg265
S'caught'
p347
sg258
F0
sg160
I4
sg259
F0
sg40
S'Dhaka'
p348
sg42
g43
((I2011
I10
I11
I0
I0
I0
I1
I284
I-1
t(dtRp349
sS'r'
F5
sg269
F17
sa(dp350
g36
I1
sS'b'
F8
sg37
S'England'
p351
sg256
I01
sg152
F150
sg39
I208
sg265
S'not out'
p352
sg258
F1
sg160
I7
sg259
F0
sg40
S'The Oval'
p353
sg42
g43
((I2011
I9
I25
I0
I0
I0
I6
I268
I-1
t(dtRp354
sS'r'
F12
sg269
F9
sa(dp355
g36
I1
sS'b'
F6
sg37
S'England'
p356
sg152
F100
sg39
I207
sg265
S'run out'
p357
sg258
F1
sg160
I7
sg259
F0
sg40
S'The Oval'
p358
sg42
g43
((I2011
I9
I23
I0
I0
I0
I4
I266
I-1
t(dtRp359
sS'r'
F6
sg269
F7
sa(dp360
g36
I1
sS'b'
F3
sg37
S'Pakistan'
p361
sg152
F0
sg39
I199
sg265
S'caught'
p362
sg258
F0
sg160
I8
sg259
F0
sg40
S'Gros Islet'
p363
sg42
g43
((I2011
I4
I21
I0
I0
I0
I3
I111
I-1
t(dtRp364
sS'r'
F0
sg269
F1
satp365
ssS'all'
p366
(dp367
g27
(dp368
S'c'
F33
sg29
F0
sS'i'
F90
sS'm'
F90
sS's'
F0
sg31
F33
sg32
F33
ssg150
(dp369
S'a'
F37.196078431372548
sS'b'
F1343
sS'e'
F8.4750558451228599
sS'i'
F83
sg152
F26.333333333333332
sg153
F0
sS'm'
F90
sg154
F0
sS'r'
F1897
sS'w'
F51
sg155
F3
sg156
F22
sg157
F4
ssg253
(dp370
S'a'
F21.18
sg255
F-1
sS'b'
F691
sg256
F21
sS'i'
F71
sg257
F77
sS'm'
F90
sg258
F73
sg259
F66
sg152
F153.25615050651231
sS'r'
F1059
sg260
F0
sg261
F2
ssssb.