(iplayer
Player
p1
(dp2
S'is_batsman'
p3
I00
sS'name'
p4
S'Ishant Sharma'
p5
sS'dob'
p6
S'1988/09/02'
p7
sS'price'
p8
S'850000'
p9
sS'is_allrounder'
p10
I00
sS'espnid'
p11
S'236779'
p12
sS'is_overseas'
p13
I00
sS'team'
p14
S'SRH'
p15
sS'nationality'
p16
S'Indian'
p17
sS'is_bowler'
p18
I01
sS'is_keeper'
p19
I00
sS'id'
p20
S'38'
p21
sS'is_uncapped'
p22
I00
sS'tournamentStats'
p23
(dp24
S'international'
p25
(dp26
S'fieldingStats'
p27
((dp28
S'c'
F4
sS'ctw'
p29
F0
sS'span_s'
p30
F2008
sS'm'
F14
sS's'
F0
sS'dismissals'
p31
F4
sS'i'
F14
sS'ctf'
p32
F4
sS'span_f'
p33
F2013
s(lp34
(dp35
S'inning'
p36
I1
sS'c'
F1
sg29
F0
sS'opp'
p37
S'Australia'
p38
sS't20i_num'
p39
I331
sg32
F1
sg31
F1
sS's'
F0
sS'place'
p40
S'Rajkot'
p41
sS'date'
p42
ctime
struct_time
p43
((I2013
I10
I10
I0
I0
I0
I3
I283
I-1
t(dtRp44
sa(dp45
g36
I2
sS'c'
F0
sg29
F0
sg37
S'Pakistan'
p46
sg39
I298
sg32
F0
sg31
F0
sS's'
F0
sg40
S'Ahmedabad'
p47
sg42
g43
((I2012
I12
I28
I0
I0
I0
I4
I363
I-1
t(dtRp48
sa(dp49
g36
I2
sS'c'
F1
sg29
F0
sg37
S'Pakistan'
p50
sg39
I296
sg32
F1
sg31
F1
sS's'
F0
sg40
S'Bangalore'
p51
sg42
g43
((I2012
I12
I25
I0
I0
I0
I1
I360
I-1
t(dtRp52
sa(dp53
g36
I1
sS'c'
F0
sg29
F0
sg37
S'Sri Lanka'
p54
sg39
I127
sg32
F0
sg31
F0
sS's'
F0
sg40
S'Mohali'
p55
sg42
g43
((I2009
I12
I12
I0
I0
I0
I5
I346
I-1
t(dtRp56
sa(dp57
g36
I1
sS'c'
F1
sg29
F0
sg37
S'Sri Lanka'
p58
sg39
I126
sg32
F1
sg31
F1
sS's'
F0
sg40
S'Nagpur'
p59
sg42
g43
((I2009
I12
I9
I0
I0
I0
I2
I343
I-1
t(dtRp60
sa(dp61
g36
I1
sS'c'
F0
sg29
F0
sg37
S'South Africa'
p62
sg39
I113
sg32
F0
sg31
F0
sS's'
F0
sg40
S'Nottingham'
p63
sg42
g43
((I2009
I6
I16
I0
I0
I0
I1
I167
I-1
t(dtRp64
sa(dp65
g36
I1
sS'c'
F0
sg29
F0
sg37
S'England'
p66
sg39
I109
sg32
F0
sg31
F0
sS's'
F0
sg40
S"Lord's"
p67
sg42
g43
((I2009
I6
I14
I0
I0
I0
I6
I165
I-1
t(dtRp68
sa(dp69
g36
I2
sS'c'
F0
sg29
F0
sg37
S'West Indies'
p70
sg39
I105
sg32
F0
sg31
F0
sS's'
F0
sg40
S"Lord's"
p71
sg42
g43
((I2009
I6
I12
I0
I0
I0
I4
I163
I-1
t(dtRp72
sa(dp73
g36
I1
sS'c'
F0
sg29
F0
sg37
S'Ireland'
p74
sg39
I101
sg32
F0
sg31
F0
sS's'
F0
sg40
S'Nottingham'
p75
sg42
g43
((I2009
I6
I10
I0
I0
I0
I2
I161
I-1
t(dtRp76
sa(dp77
g36
I2
sS'c'
F0
sg29
F0
sg37
S'Bangladesh'
p78
sg39
I93
sg32
F0
sg31
F0
sS's'
F0
sg40
S'Nottingham'
p79
sg42
g43
((I2009
I6
I6
I0
I0
I0
I5
I157
I-1
t(dtRp80
sa(dp81
g36
I2
sS'c'
F0
sg29
F0
sg37
S'New Zealand'
p82
sg39
I85
sg32
F0
sg31
F0
sS's'
F0
sg40
S'Wellington'
p83
sg42
g43
((I2009
I2
I27
I0
I0
I0
I4
I58
I-1
t(dtRp84
sa(dp85
g36
I2
sS'c'
F0
sg29
F0
sg37
S'New Zealand'
p86
sg39
I84
sg32
F0
sg31
F0
sS's'
F0
sg40
S'Christchurch'
p87
sg42
g43
((I2009
I2
I25
I0
I0
I0
I2
I56
I-1
t(dtRp88
sa(dp89
g36
I1
sS'c'
F1
sg29
F0
sg37
S'Sri Lanka'
p90
sg39
I82
sg32
F1
sg31
F1
sS's'
F0
sg40
S'Colombo (RPS)'
p91
sg42
g43
((I2009
I2
I10
I0
I0
I0
I1
I41
I-1
t(dtRp92
sa(dp93
g36
I2
sS'c'
F0
sg29
F0
sg37
S'Australia'
p94
sg39
I52
sg32
F0
sg31
F0
sS's'
F0
sg40
S'Melbourne'
p95
sg42
g43
((I2008
I2
I1
I0
I0
I0
I4
I32
I-1
t(dtRp96
satp97
sS'bowlingStats'
p98
((dp99
S'a'
F50
sS'b'
F278
sS'e'
F8.6330935251798557
sS'i'
F14
sS'sr'
p100
F34.75
sS'5w'
p101
F0
sS'm'
F14
sS'maid'
p102
F0
sS'r'
F400
sS'w'
F8
sS'4w'
p103
F0
sS'bbir'
p104
F34
sS'bbiw'
p105
F2
sg33
F2013
sg30
F2008
s(lp106
(dp107
g36
I1
sS'b'
F24
sS'e'
F13
sg39
I331
sS'pos'
p108
I4
sg102
F0
sS'r'
F52
sg40
S'Rajkot'
p109
sS'w'
F0
sg42
g43
((I2013
I10
I10
I0
I0
I0
I3
I283
I-1
t(dtRp110
sg37
S'Australia'
p111
sa(dp112
g36
I2
sS'b'
F24
sS'e'
F8.5
sg39
I298
sg108
I2
sg102
F0
sS'r'
F34
sg40
S'Ahmedabad'
p113
sS'w'
F1
sg42
g43
((I2012
I12
I28
I0
I0
I0
I4
I363
I-1
t(dtRp114
sg37
S'Pakistan'
p115
sa(dp116
g36
I2
sS'b'
F24
sS'e'
F5.75
sg39
I296
sg108
I3
sg102
F0
sS'r'
F23
sg40
S'Bangalore'
p117
sS'w'
F1
sg42
g43
((I2012
I12
I25
I0
I0
I0
I1
I360
I-1
t(dtRp118
sg37
S'Pakistan'
p119
sa(dp120
g36
I1
sS'b'
F24
sS'e'
F10.5
sg39
I127
sg108
I2
sg102
F0
sS'r'
F42
sg40
S'Mohali'
p121
sS'w'
F2
sg42
g43
((I2009
I12
I12
I0
I0
I0
I5
I346
I-1
t(dtRp122
sg37
S'Sri Lanka'
p123
sa(dp124
g36
I1
sS'b'
F24
sS'e'
F5.5
sg39
I126
sg108
I2
sg102
F0
sS'r'
F22
sg40
S'Nagpur'
p125
sS'w'
F0
sg42
g43
((I2009
I12
I9
I0
I0
I0
I2
I343
I-1
t(dtRp126
sg37
S'Sri Lanka'
p127
sa(dp128
g36
I1
sS'b'
F6
sS'e'
F6
sg39
I113
sg108
I3
sg102
F0
sS'r'
F6
sg40
S'Nottingham'
p129
sS'w'
F0
sg42
g43
((I2009
I6
I16
I0
I0
I0
I1
I167
I-1
t(dtRp130
sg37
S'South Africa'
p131
sa(dp132
g36
I1
sS'b'
F24
sS'e'
F9
sg39
I109
sg108
I3
sg102
F0
sS'r'
F36
sg40
S"Lord's"
p133
sS'w'
F0
sg42
g43
((I2009
I6
I14
I0
I0
I0
I6
I165
I-1
t(dtRp134
sg37
S'England'
p135
sa(dp136
g36
I2
sS'b'
F18
sS'e'
F10.333333333333334
sg39
I105
sg108
I5
sg102
F0
sS'r'
F31
sg40
S"Lord's"
p137
sS'w'
F0
sg42
g43
((I2009
I6
I12
I0
I0
I0
I4
I163
I-1
t(dtRp138
sg37
S'West Indies'
p139
sa(dp140
g36
I1
sS'b'
F18
sS'e'
F6
sg39
I101
sg108
I3
sg102
F0
sS'r'
F18
sg40
S'Nottingham'
p141
sS'w'
F0
sg42
g43
((I2009
I6
I10
I0
I0
I0
I2
I161
I-1
t(dtRp142
sg37
S'Ireland'
p143
sa(dp144
g36
I2
sS'b'
F24
sS'e'
F8.5
sg39
I93
sg108
I4
sg102
F0
sS'r'
F34
sg40
S'Nottingham'
p145
sS'w'
F2
sg42
g43
((I2009
I6
I6
I0
I0
I0
I5
I157
I-1
t(dtRp146
sg37
S'Bangladesh'
p147
sa(dp148
g36
I2
sS'b'
F12
sS'e'
F9.5
sg39
I85
sg108
I3
sg102
F0
sS'r'
F19
sg40
S'Wellington'
p149
sS'w'
F0
sg42
g43
((I2009
I2
I27
I0
I0
I0
I4
I58
I-1
t(dtRp150
sg37
S'New Zealand'
p151
sa(dp152
g36
I2
sS'b'
F24
sS'e'
F8.75
sg39
I84
sg108
I2
sg102
F0
sS'r'
F35
sg40
S'Christchurch'
p153
sS'w'
F1
sg42
g43
((I2009
I2
I25
I0
I0
I0
I2
I56
I-1
t(dtRp154
sg37
S'New Zealand'
p155
sa(dp156
g36
I1
sS'b'
F24
sS'e'
F10
sg39
I82
sg108
I2
sg102
F0
sS'r'
F40
sg40
S'Colombo (RPS)'
p157
sS'w'
F1
sg42
g43
((I2009
I2
I10
I0
I0
I0
I1
I41
I-1
t(dtRp158
sg37
S'Sri Lanka'
p159
sa(dp160
g36
I2
sS'b'
F8
sS'e'
F6
sg39
I52
sg108
I4
sg102
F0
sS'r'
F8
sg40
S'Melbourne'
p161
sS'w'
F0
sg42
g43
((I2008
I2
I1
I0
I0
I0
I4
I32
I-1
t(dtRp162
sg37
S'Australia'
p163
satp164
sS'battingStats'
p165
((dp166
S'a'
F8
sS'0s'
p167
F1
sS'b'
F9
sS'no'
p168
F2
sg30
F2008
sS'hs'
p169
F5
sS'm'
F14
sS'4s'
p170
F1
sg33
F2013
sS'i'
F3
sS'6s'
p171
F0
sg100
F88.888888888888886
sS'r'
F8
sS'100s'
p172
F0
sS'50s'
p173
F0
s(lp174
(dp175
g36
I1
sS'b'
F1
sg37
S'Pakistan'
p176
sg100
F0
sg39
I296
sS'dismiss'
p177
S'bowled'
p178
sg170
F0
sg108
I10
sg171
F0
sg40
S'Bangalore'
p179
sg42
g43
((I2012
I12
I25
I0
I0
I0
I1
I360
I-1
t(dtRp180
sS'r'
F0
sS'minutes'
p181
F1
sa(dp182
g36
I2
sS'b'
F2
sg37
S'Sri Lanka'
p183
sg168
I01
sg100
F250
sg39
I126
sg177
S'not out'
p184
sg170
F1
sg108
I11
sg171
F0
sg40
S'Nagpur'
p185
sg42
g43
((I2009
I12
I9
I0
I0
I0
I2
I343
I-1
t(dtRp186
sS'r'
F5
sg181
F-1
sa(dp187
g36
I1
sS'b'
F6
sg37
S'Australia'
p188
sg168
I01
sg100
F50
sg39
I52
sg177
S'not out'
p189
sg170
F0
sg108
I11
sg171
F0
sg40
S'Melbourne'
p190
sg42
g43
((I2008
I2
I1
I0
I0
I0
I4
I32
I-1
t(dtRp191
sS'r'
F3
sg181
F8
satp192
ssS'all'
p193
(dp194
g27
(dp195
S'c'
F19
sg29
F0
sS'i'
F92
sS'm'
F92
sS's'
F0
sg31
F19
sg32
F19
ssg98
(dp196
S'a'
F32.779220779220779
sS'b'
F1999
sS'e'
F7.5757878939469734
sS'i'
F92
sg100
F25.961038961038962
sg101
F1
sS'm'
F92
sg102
F0
sS'r'
F2524
sS'w'
F77
sg103
F1
sg104
F12
sg105
F5
ssg165
(dp197
S'a'
F9
sg167
F-1
sS'b'
F55
sg168
F18
sS'i'
F23
sg169
F9
sS'm'
F92
sg170
F3
sg171
F1
sg100
F81.818181818181813
sS'r'
F45
sg172
F0
sg173
F0
ssssb.