(iplayer
Player
p1
(dp2
S'is_batsman'
p3
I00
sS'name'
p4
S'Zaheer Khan'
p5
sS'dob'
p6
S'1978/10/07'
p7
sS'price'
p8
S'900000'
p9
sS'is_allrounder'
p10
I00
sS'espnid'
p11
S'30102'
p12
sS'is_overseas'
p13
I00
sS'team'
p14
S'MI'
p15
sS'nationality'
p16
S'Indian'
p17
sS'is_bowler'
p18
I01
sS'is_keeper'
p19
I00
sS'id'
p20
S'165'
p21
sS'is_uncapped'
p22
I00
sS'tournamentStats'
p23
(dp24
S'international'
p25
(dp26
S'fieldingStats'
p27
((dp28
S'c'
F2
sS'ctw'
p29
F0
sS'span_s'
p30
F2006
sS'm'
F17
sS's'
F0
sS'dismissals'
p31
F2
sS'i'
F17
sS'ctf'
p32
F2
sS'span_f'
p33
F2012
s(lp34
(dp35
S'inning'
p36
I2
sS'c'
F0
sg29
F0
sS'opp'
p37
S'South Africa'
p38
sS't20i_num'
p39
I286
sg32
F0
sg31
F0
sS's'
F0
sS'place'
p40
S'Colombo (RPS)'
p41
sS'date'
p42
ctime
struct_time
p43
((I2012
I10
I2
I0
I0
I0
I1
I276
I-1
t(dtRp44
sa(dp45
g36
I1
sS'c'
F0
sg29
F0
sg37
S'Pakistan'
p46
sg39
I282
sg32
F0
sg31
F0
sS's'
F0
sg40
S'Colombo (RPS)'
p47
sg42
g43
((I2012
I9
I30
I0
I0
I0
I6
I274
I-1
t(dtRp48
sa(dp49
g36
I2
sS'c'
F0
sg29
F0
sg37
S'Australia'
p50
sg39
I278
sg32
F0
sg31
F0
sS's'
F0
sg40
S'Colombo (RPS)'
p51
sg42
g43
((I2012
I9
I28
I0
I0
I0
I4
I272
I-1
t(dtRp52
sa(dp53
g36
I2
sS'c'
F0
sg29
F0
sg37
S'Afghanistan'
p54
sg39
I265
sg32
F0
sg31
F0
sS's'
F0
sg40
S'Colombo (RPS)'
p55
sg42
g43
((I2012
I9
I19
I0
I0
I0
I2
I263
I-1
t(dtRp56
sa(dp57
g36
I1
sS'c'
F0
sg29
F0
sg37
S'New Zealand'
p58
sg39
I261
sg32
F0
sg31
F0
sS's'
F0
sg40
S'Chennai'
p59
sg42
g43
((I2012
I9
I11
I0
I0
I0
I1
I255
I-1
t(dtRp60
sa(dp61
g36
I1
sS'c'
F0
sg29
F0
sg37
S'West Indies'
p62
sg39
I169
sg32
F0
sg31
F0
sS's'
F0
sg40
S'Bridgetown'
p63
sg42
g43
((I2010
I5
I9
I0
I0
I0
I6
I129
I-1
t(dtRp64
sa(dp65
g36
I1
sS'c'
F0
sg29
F0
sg37
S'Australia'
p66
sg39
I165
sg32
F0
sg31
F0
sS's'
F0
sg40
S'Bridgetown'
p67
sg42
g43
((I2010
I5
I7
I0
I0
I0
I4
I127
I-1
t(dtRp68
sa(dp69
g36
I1
sS'c'
F1
sg29
F0
sg37
S'Afghanistan'
p70
sg39
I153
sg32
F1
sg31
F1
sS's'
F0
sg40
S'Gros Islet'
p71
sg42
g43
((I2010
I5
I1
I0
I0
I0
I5
I121
I-1
t(dtRp72
sa(dp73
g36
I1
sS'c'
F0
sg29
F0
sg37
S'South Africa'
p74
sg39
I113
sg32
F0
sg31
F0
sS's'
F0
sg40
S'Nottingham'
p75
sg42
g43
((I2009
I6
I16
I0
I0
I0
I1
I167
I-1
t(dtRp76
sa(dp77
g36
I1
sS'c'
F0
sg29
F0
sg37
S'England'
p78
sg39
I109
sg32
F0
sg31
F0
sS's'
F0
sg40
S"Lord's"
p79
sg42
g43
((I2009
I6
I14
I0
I0
I0
I6
I165
I-1
t(dtRp80
sa(dp81
g36
I2
sS'c'
F1
sg29
F0
sg37
S'West Indies'
p82
sg39
I105
sg32
F1
sg31
F1
sS's'
F0
sg40
S"Lord's"
p83
sg42
g43
((I2009
I6
I12
I0
I0
I0
I4
I163
I-1
t(dtRp84
sa(dp85
g36
I1
sS'c'
F0
sg29
F0
sg37
S'Ireland'
p86
sg39
I101
sg32
F0
sg31
F0
sS's'
F0
sg40
S'Nottingham'
p87
sg42
g43
((I2009
I6
I10
I0
I0
I0
I2
I161
I-1
t(dtRp88
sa(dp89
g36
I2
sS'c'
F0
sg29
F0
sg37
S'Bangladesh'
p90
sg39
I93
sg32
F0
sg31
F0
sS's'
F0
sg40
S'Nottingham'
p91
sg42
g43
((I2009
I6
I6
I0
I0
I0
I5
I157
I-1
t(dtRp92
sa(dp93
g36
I2
sS'c'
F0
sg29
F0
sg37
S'New Zealand'
p94
sg39
I85
sg32
F0
sg31
F0
sS's'
F0
sg40
S'Wellington'
p95
sg42
g43
((I2009
I2
I27
I0
I0
I0
I4
I58
I-1
t(dtRp96
sa(dp97
g36
I2
sS'c'
F0
sg29
F0
sg37
S'New Zealand'
p98
sg39
I84
sg32
F0
sg31
F0
sS's'
F0
sg40
S'Christchurch'
p99
sg42
g43
((I2009
I2
I25
I0
I0
I0
I2
I56
I-1
t(dtRp100
sa(dp101
g36
I1
sS'c'
F0
sg29
F0
sg37
S'Sri Lanka'
p102
sg39
I82
sg32
F0
sg31
F0
sS's'
F0
sg40
S'Colombo (RPS)'
p103
sg42
g43
((I2009
I2
I10
I0
I0
I0
I1
I41
I-1
t(dtRp104
sa(dp105
g36
I1
sS'c'
F0
sg29
F0
sg37
S'South Africa'
p106
sg39
I10
sg32
F0
sg31
F0
sS's'
F0
sg40
S'Johannesburg'
p107
sg42
g43
((I2006
I12
I1
I0
I0
I0
I4
I335
I-1
t(dtRp108
satp109
sS'bowlingStats'
p110
((dp111
S'a'
F26.352941176470587
sS'b'
F352
sS'e'
F7.6363636363636367
sS'i'
F17
sS'sr'
p112
F20.705882352941178
sS'5w'
p113
F0
sS'm'
F17
sS'maid'
p114
F0
sS'r'
F448
sS'w'
F17
sS'4w'
p115
F1
sS'bbir'
p116
F19
sS'bbiw'
p117
F4
sg33
F2012
sg30
F2006
s(lp118
(dp119
g36
I2
sS'b'
F24
sS'e'
F5.5
sg39
I286
sS'pos'
p120
I1
sg114
F0
sS'r'
F22
sg40
S'Colombo (RPS)'
p121
sS'w'
F3
sg42
g43
((I2012
I10
I2
I0
I0
I0
I1
I276
I-1
t(dtRp122
sg37
S'South Africa'
p123
sa(dp124
g36
I1
sS'b'
F18
sS'e'
F7.333333333333333
sg39
I282
sg120
I1
sg114
F0
sS'r'
F22
sg40
S'Colombo (RPS)'
p125
sS'w'
F0
sg42
g43
((I2012
I9
I30
I0
I0
I0
I6
I274
I-1
t(dtRp126
sg37
S'Pakistan'
p127
sa(dp128
g36
I2
sS'b'
F18
sS'e'
F6
sg39
I278
sg120
I2
sg114
F0
sS'r'
F18
sg40
S'Colombo (RPS)'
p129
sS'w'
F0
sg42
g43
((I2012
I9
I28
I0
I0
I0
I4
I272
I-1
t(dtRp130
sg37
S'Australia'
p131
sa(dp132
g36
I2
sS'b'
F18
sS'e'
F10.666666666666666
sg39
I265
sg120
I1
sg114
F0
sS'r'
F32
sg40
S'Colombo (RPS)'
p133
sS'w'
F0
sg42
g43
((I2012
I9
I19
I0
I0
I0
I2
I263
I-1
t(dtRp134
sg37
S'Afghanistan'
p135
sa(dp136
g36
I1
sS'b'
F24
sS'e'
F6.75
sg39
I261
sg120
I1
sg114
F0
sS'r'
F27
sg40
S'Chennai'
p137
sS'w'
F1
sg42
g43
((I2012
I9
I11
I0
I0
I0
I1
I255
I-1
t(dtRp138
sg37
S'New Zealand'
p139
sa(dp140
g36
I1
sS'b'
F24
sS'e'
F9
sg39
I169
sg120
I2
sg114
F0
sS'r'
F36
sg40
S'Bridgetown'
p141
sS'w'
F1
sg42
g43
((I2010
I5
I9
I0
I0
I0
I6
I129
I-1
t(dtRp142
sg37
S'West Indies'
p143
sa(dp144
g36
I1
sS'b'
F24
sS'e'
F11.25
sg39
I165
sg120
I4
sg114
F0
sS'r'
F45
sg40
S'Bridgetown'
p145
sS'w'
F0
sg42
g43
((I2010
I5
I7
I0
I0
I0
I4
I127
I-1
t(dtRp146
sg37
S'Australia'
p147
sa(dp148
g36
I1
sS'b'
F18
sS'e'
F8
sg39
I153
sg120
I3
sg114
F0
sS'r'
F24
sg40
S'Gros Islet'
p149
sS'w'
F1
sg42
g43
((I2010
I5
I1
I0
I0
I0
I5
I121
I-1
t(dtRp150
sg37
S'Afghanistan'
p151
sa(dp152
g36
I1
sS'b'
F18
sS'e'
F8.6666666666666661
sg39
I113
sg120
I1
sg114
F0
sS'r'
F26
sg40
S'Nottingham'
p153
sS'w'
F1
sg42
g43
((I2009
I6
I16
I0
I0
I0
I1
I167
I-1
t(dtRp154
sg37
S'South Africa'
p155
sa(dp156
g36
I1
sS'b'
F18
sS'e'
F8.6666666666666661
sg39
I109
sg120
I1
sg114
F0
sS'r'
F26
sg40
S"Lord's"
p157
sS'w'
F1
sg42
g43
((I2009
I6
I14
I0
I0
I0
I6
I165
I-1
t(dtRp158
sg37
S'England'
p159
sa(dp160
g36
I2
sS'b'
F16
sS'e'
F9.75
sg39
I105
sg120
I1
sg114
F0
sS'r'
F26
sg40
S"Lord's"
p161
sS'w'
F0
sg42
g43
((I2009
I6
I12
I0
I0
I0
I4
I163
I-1
t(dtRp162
sg37
S'West Indies'
p163
sa(dp164
g36
I1
sS'b'
F18
sS'e'
F6.333333333333333
sg39
I101
sg120
I2
sg114
F0
sS'r'
F19
sg40
S'Nottingham'
p165
sS'w'
F4
sg42
g43
((I2009
I6
I10
I0
I0
I0
I2
I161
I-1
t(dtRp166
sg37
S'Ireland'
p167
sa(dp168
g36
I2
sS'b'
F18
sS'e'
F8.6666666666666661
sg39
I93
sg120
I1
sg114
F0
sS'r'
F26
sg40
S'Nottingham'
p169
sS'w'
F1
sg42
g43
((I2009
I6
I6
I0
I0
I0
I5
I157
I-1
t(dtRp170
sg37
S'Bangladesh'
p171
sa(dp172
g36
I2
sS'b'
F24
sS'e'
F7.5
sg39
I85
sg120
I2
sg114
F0
sS'r'
F30
sg40
S'Wellington'
p173
sS'w'
F1
sg42
g43
((I2009
I2
I27
I0
I0
I0
I4
I58
I-1
t(dtRp174
sg37
S'New Zealand'
p175
sa(dp176
g36
I2
sS'b'
F24
sS'e'
F5
sg39
I84
sg120
I1
sg114
F0
sS'r'
F20
sg40
S'Christchurch'
p177
sS'w'
F1
sg42
g43
((I2009
I2
I25
I0
I0
I0
I2
I56
I-1
t(dtRp178
sg37
S'New Zealand'
p179
sa(dp180
g36
I1
sS'b'
F24
sS'e'
F8.5
sg39
I82
sg120
I1
sg114
F0
sS'r'
F34
sg40
S'Colombo (RPS)'
p181
sS'w'
F0
sg42
g43
((I2009
I2
I10
I0
I0
I0
I1
I41
I-1
t(dtRp182
sg37
S'Sri Lanka'
p183
sa(dp184
g36
I1
sS'b'
F24
sS'e'
F3.75
sg39
I10
sg120
I1
sg114
F0
sS'r'
F15
sg40
S'Johannesburg'
p185
sS'w'
F2
sg42
g43
((I2006
I12
I1
I0
I0
I0
I4
I335
I-1
t(dtRp186
sg37
S'South Africa'
p187
satp188
sS'battingStats'
p189
((dp190
S'a'
F6.5
sS'0s'
p191
F0
sS'b'
F10
sS'no'
p192
F2
sg30
F2006
sS'hs'
p193
F9
sS'm'
F17
sS'4s'
p194
F0
sg33
F2012
sS'i'
F4
sS'6s'
p195
F1
sg112
F130
sS'r'
F13
sS'100s'
p196
F0
sS'50s'
p197
F0
s(lp198
(dp199
g36
I2
sS'b'
F1
sg37
S'West Indies'
p200
sg192
I01
sg112
F0
sg39
I169
sS'dismiss'
p201
S'not out'
p202
sg194
F0
sg120
I11
sg195
F0
sg40
S'Bridgetown'
p203
sg42
g43
((I2010
I5
I9
I0
I0
I0
I6
I129
I-1
t(dtRp204
sS'r'
F0
sS'minutes'
p205
F1
sa(dp206
g36
I2
sS'b'
F6
sg37
S'Australia'
p207
sg112
F150
sg39
I165
sg201
S'caught'
p208
sg194
F0
sg120
I10
sg195
F1
sg40
S'Bridgetown'
p209
sg42
g43
((I2010
I5
I7
I0
I0
I0
I4
I127
I-1
t(dtRp210
sS'r'
F9
sg205
F6
sa(dp211
g36
I2
sS'b'
F3
sg37
S'South Africa'
p212
sg112
F133.33333333333334
sg39
I113
sg201
S'caught'
p213
sg194
F0
sg120
I9
sg195
F0
sg40
S'Nottingham'
p214
sg42
g43
((I2009
I6
I16
I0
I0
I0
I1
I167
I-1
t(dtRp215
sS'r'
F4
sg205
F1
sa(dp216
g36
I1
sS'b'
F0
sg37
S'West Indies'
p217
sg192
I01
sg112
F0
sg39
I105
sg201
S'not out'
p218
sg194
F0
sg120
I9
sg195
F0
sg40
S"Lord's"
p219
sg42
g43
((I2009
I6
I12
I0
I0
I0
I4
I163
I-1
t(dtRp220
sS'r'
F0
sg205
F1
satp221
ssS'all'
p222
(dp223
g27
(dp224
S'c'
F26
sg29
F0
sS'i'
F102
sS'm'
F102
sS's'
F0
sg31
F26
sg32
F26
ssg110
(dp225
S'a'
F26.635514018691588
sS'b'
F2262
sS'e'
F7.5596816976127323
sS'i'
F101
sg112
F21.140186915887849
sg113
F0
sS'm'
F102
sg114
F0
sS'r'
F2850
sS'w'
F107
sg115
F2
sg116
F17
sg117
F4
ssg189
(dp226
S'a'
F9.6111111111111107
sg191
F-1
sS'b'
F188
sg192
F22
sS'i'
F40
sg193
F26
sS'm'
F102
sg194
F16
sg195
F2
sg112
F92.021276595744681
sS'r'
F173
sg196
F0
sg197
F0
ssssb.