(iplayer
Player
p1
(dp2
S'is_batsman'
p3
I00
sS'name'
p4
S'Beuran Hendricks'
p5
sS'dob'
p6
S'1990/06/08'
p7
sS'price'
p8
S'750000'
p9
sS'is_allrounder'
p10
I00
sS'espnid'
p11
S'379927'
p12
sS'is_overseas'
p13
I01
sS'team'
p14
S'KXIP'
p15
sS'nationality'
p16
S'South African'
p17
sS'is_bowler'
p18
I01
sS'is_keeper'
p19
I00
sS'id'
p20
S'1752'
p21
sS'is_uncapped'
p22
I00
sS'tournamentStats'
p23
(dp24
S'international'
p25
(dp26
S'fieldingStats'
p27
((dp28
S'c'
F0
sS'ctw'
p29
F0
sS'i'
F5
sS'm'
F5
sS's'
F0
sS'dismissals'
p30
F0
sS'ctf'
p31
F0
s(lp32
(dp33
S'inning'
p34
I2
sS'c'
F0
sg29
F0
sS'opp'
p35
S'India'
p36
sS't20i_num'
p37
I399
sg31
F0
sg30
F0
sS's'
F0
sS'place'
p38
S'Dhaka'
p39
sS'date'
p40
ctime
struct_time
p41
((I2014
I4
I4
I0
I0
I0
I4
I94
I-1
t(dtRp42
sa(dp43
g34
I2
sS'c'
F0
sg29
F0
sg35
S'England'
p44
sg37
I391
sg31
F0
sg30
F0
sS's'
F0
sg38
S'Chittagong'
p45
sg40
g41
((I2014
I3
I29
I0
I0
I0
I5
I88
I-1
t(dtRp46
sa(dp47
g34
I2
sS'c'
F0
sg29
F0
sg35
S'Netherlands'
p48
sg37
I386
sg31
F0
sg30
F0
sS's'
F0
sg38
S'Chittagong'
p49
sg40
g41
((I2014
I3
I27
I0
I0
I0
I3
I86
I-1
t(dtRp50
sa(dp51
g34
I2
sS'c'
F0
sg29
F0
sg35
S'Australia'
p52
sg37
I365
sg31
F0
sg30
F0
sS's'
F0
sg38
S'Centurion'
p53
sg40
g41
((I2014
I3
I14
I0
I0
I0
I4
I73
I-1
t(dtRp54
sa(dp55
g34
I2
sS'c'
F0
sg29
F0
sg35
S'Australia'
p56
sg37
I363
sg31
F0
sg30
F0
sS's'
F0
sg38
S'Durban'
p57
sg40
g41
((I2014
I3
I12
I0
I0
I0
I2
I71
I-1
t(dtRp58
satp59
sS'bowlingStats'
p60
((dp61
S'a'
F29.800000000000001
sS'b'
F100
sS'e'
F8.9399999999999995
sS'i'
F5
sS'sr'
p62
F20
sS'5w'
p63
F0
sS'm'
F5
sS'maid'
p64
F0
sS'r'
F149
sS'w'
F5
sS'4w'
p65
F0
sS'bbir'
p66
F31
sS'bbiw'
p67
F2
s(lp68
(dp69
g34
I2
sS'b'
F24
sS'e'
F7.75
sg37
I399
sS'pos'
p70
I4
sg64
F0
sS'r'
F31
sg38
S'Dhaka'
p71
sS'w'
F2
sg40
g41
((I2014
I4
I4
I0
I0
I0
I4
I94
I-1
t(dtRp72
sg35
S'India'
p73
sa(dp74
g34
I2
sS'b'
F24
sS'e'
F12.5
sg37
I391
sg70
I3
sg64
F0
sS'r'
F50
sg38
S'Chittagong'
p75
sS'w'
F1
sg40
g41
((I2014
I3
I29
I0
I0
I0
I5
I88
I-1
t(dtRp76
sg35
S'England'
p77
sa(dp78
g34
I2
sS'b'
F22
sS'e'
F4.3636363636363633
sg37
I386
sg70
I2
sg64
F0
sS'r'
F16
sg38
S'Chittagong'
p79
sS'w'
F1
sg40
g41
((I2014
I3
I27
I0
I0
I0
I3
I86
I-1
t(dtRp80
sg35
S'Netherlands'
p81
sa(dp82
g34
I2
sS'b'
F18
sS'e'
F7
sg37
I365
sg70
I3
sg64
F0
sS'r'
F21
sg38
S'Centurion'
p83
sS'w'
F1
sg40
g41
((I2014
I3
I14
I0
I0
I0
I4
I73
I-1
t(dtRp84
sg35
S'Australia'
p85
sa(dp86
g34
I2
sS'b'
F12
sS'e'
F15.5
sg37
I363
sg70
I3
sg64
F0
sS'r'
F31
sg38
S'Durban'
p87
sS'w'
F0
sg40
g41
((I2014
I3
I12
I0
I0
I0
I2
I71
I-1
t(dtRp88
sg35
S'Australia'
p89
satp90
sS'battingStats'
p91
((dp92
S'a'
F15
sS'0s'
p93
F0
sS'b'
F15
sS'no'
p94
F1
sS'i'
F2
sS'hs'
p95
F12
sS'm'
F5
sS'4s'
p96
F0
sS'6s'
p97
F1
sg62
F100
sS'r'
F15
sS'100s'
p98
F0
sS'50s'
p99
F0
s(lp100
(dp101
g34
I1
sS'b'
F4
sg35
S'Netherlands'
p102
sg62
F75
sg37
I386
sS'dismiss'
p103
S'caught'
p104
sg96
F0
sg70
I9
sg97
F0
sg38
S'Chittagong'
p105
sg40
g41
((I2014
I3
I27
I0
I0
I0
I3
I86
I-1
t(dtRp106
sS'r'
F3
sS'minutes'
p107
F5
sa(dp108
g34
I1
sS'b'
F11
sg35
S'Australia'
p109
sg94
I01
sg62
F109.09090909090909
sg37
I365
sg103
S'not out'
p110
sg96
F0
sg70
I9
sg97
F1
sg38
S'Centurion'
p111
sg40
g41
((I2014
I3
I14
I0
I0
I0
I4
I73
I-1
t(dtRp112
sS'r'
F12
sg107
F15
satp113
ssS'all'
p114
(dp115
g27
(dp116
S'c'
F3
sg29
F0
sS'i'
F34
sS'm'
F34
sS's'
F0
sg30
F3
sg31
F3
ssg60
(dp117
S'a'
F17.653846153846153
sS'b'
F708
sS'e'
F7.7796610169491522
sS'i'
F34
sg62
F13.615384615384615
sg63
F1
sS'm'
F34
sg64
F0
sS'r'
F918
sS'w'
F52
sg65
F1
sg66
F29
sg67
F6
ssg91
(dp118
S'a'
F10
sg93
F-1
sS'b'
F28
sg94
F3
sS'i'
F5
sg95
F12
sS'm'
F34
sg96
F0
sg97
F1
sg62
F71.428571428571431
sS'r'
F20
sg98
F0
sg99
F0
ssssb.