(iplayer
Player
p1
(dp2
S'is_batsman'
p3
I00
sS'name'
p4
S'Nathan Coulter-Nile'
p5
sS'dob'
p6
S'1987/10/11'
p7
sS'price'
p8
S'900000'
p9
sS'is_allrounder'
p10
I01
sS'espnid'
p11
S'261354'
p12
sS'is_overseas'
p13
I01
sS'team'
p14
S'DD'
p15
sS'nationality'
p16
S'Australian'
p17
sS'is_bowler'
p18
I01
sS'is_keeper'
p19
I00
sS'id'
p20
S'840'
p21
sS'is_uncapped'
p22
I00
sS'tournamentStats'
p23
(dp24
S'international'
p25
(dp26
S'fieldingStats'
p27
((dp28
S'c'
F4
sS'ctw'
p29
F0
sS'i'
F10
sS'm'
F10
sS's'
F0
sS'dismissals'
p30
F4
sS'ctf'
p31
F4
s(lp32
(dp33
S'inning'
p34
I1
sS'c'
F0
sg29
F0
sS'opp'
p35
S'Bangladesh'
p36
sS't20i_num'
p37
I396
sg31
F0
sg30
F0
sS's'
F0
sS'place'
p38
S'Dhaka'
p39
sS'date'
p40
ctime
struct_time
p41
((I2014
I4
I1
I0
I0
I0
I1
I91
I-1
t(dtRp42
sa(dp43
g34
I1
sS'c'
F0
sg29
F0
sg35
S'Pakistan'
p44
sg37
I381
sg31
F0
sg30
F0
sS's'
F0
sg38
S'Dhaka'
p45
sg40
g41
((I2014
I3
I23
I0
I0
I0
I6
I82
I-1
t(dtRp46
sa(dp47
g34
I1
sS'c'
F0
sg29
F0
sg35
S'South Africa'
p48
sg37
I365
sg31
F0
sg30
F0
sS's'
F0
sg38
S'Centurion'
p49
sg40
g41
((I2014
I3
I14
I0
I0
I0
I4
I73
I-1
t(dtRp50
sa(dp51
g34
I1
sS'c'
F1
sg29
F0
sg35
S'South Africa'
p52
sg37
I363
sg31
F1
sg30
F1
sS's'
F0
sg38
S'Durban'
p53
sg40
g41
((I2014
I3
I12
I0
I0
I0
I2
I71
I-1
t(dtRp54
sa(dp55
g34
I2
sS'c'
F0
sg29
F0
sg35
S'England'
p56
sg37
I356
sg31
F0
sg30
F0
sS's'
F0
sg38
S'Sydney'
p57
sg40
g41
((I2014
I2
I2
I0
I0
I0
I6
I33
I-1
t(dtRp58
sa(dp59
g34
I1
sS'c'
F1
sg29
F0
sg35
S'England'
p60
sg37
I355
sg31
F1
sg30
F1
sS's'
F0
sg38
S'Melbourne'
p61
sg40
g41
((I2014
I1
I31
I0
I0
I0
I4
I31
I-1
t(dtRp62
sa(dp63
g34
I2
sS'c'
F0
sg29
F0
sg35
S'England'
p64
sg37
I354
sg31
F0
sg30
F0
sS's'
F0
sg38
S'Hobart'
p65
sg40
g41
((I2014
I1
I29
I0
I0
I0
I2
I29
I-1
t(dtRp66
sa(dp67
g34
I2
sS'c'
F0
sg29
F0
sg35
S'India'
p68
sg37
I331
sg31
F0
sg30
F0
sS's'
F0
sg38
S'Rajkot'
p69
sg40
g41
((I2013
I10
I10
I0
I0
I0
I3
I283
I-1
t(dtRp70
sa(dp71
g34
I1
sS'c'
F1
sg29
F0
sg35
S'England'
p72
sg37
I329
sg31
F1
sg30
F1
sS's'
F0
sg38
S'Chester-le-Street'
p73
sg40
g41
((I2013
I8
I31
I0
I0
I0
I5
I243
I-1
t(dtRp74
sa(dp75
g34
I1
sS'c'
F1
sg29
F0
sg35
S'West Indies'
p76
sg37
I303
sg31
F1
sg30
F1
sS's'
F0
sg38
S'Brisbane'
p77
sg40
g41
((I2013
I2
I13
I0
I0
I0
I2
I44
I-1
t(dtRp78
satp79
sS'bowlingStats'
p80
((dp81
S'a'
F22.214285714285715
sS'b'
F222
sS'e'
F8.4054054054054053
sS'i'
F10
sS'sr'
p82
F15.857142857142858
sS'5w'
p83
F0
sS'm'
F10
sS'maid'
p84
F0
sS'r'
F311
sS'w'
F14
sS'4w'
p85
F1
sS'bbir'
p86
F31
sS'bbiw'
p87
F4
s(lp88
(dp89
g34
I1
sS'b'
F18
sS'e'
F5.666666666666667
sg37
I396
sS'pos'
p90
I2
sg84
F0
sS'r'
F17
sg38
S'Dhaka'
p91
sS'w'
F2
sg40
g41
((I2014
I4
I1
I0
I0
I0
I1
I91
I-1
t(dtRp92
sg35
S'Bangladesh'
p93
sa(dp94
g34
I1
sS'b'
F24
sS'e'
F9
sg37
I381
sg90
I4
sg84
F0
sS'r'
F36
sg38
S'Dhaka'
p95
sS'w'
F2
sg40
g41
((I2014
I3
I23
I0
I0
I0
I6
I82
I-1
t(dtRp96
sg35
S'Pakistan'
p97
sa(dp98
g34
I1
sS'b'
F24
sS'e'
F8.25
sg37
I365
sg90
I2
sg84
F0
sS'r'
F33
sg38
S'Centurion'
p99
sS'w'
F0
sg40
g41
((I2014
I3
I14
I0
I0
I0
I4
I73
I-1
t(dtRp100
sg35
S'South Africa'
p101
sa(dp102
g34
I1
sS'b'
F12
sS'e'
F8.5
sg37
I363
sg90
I2
sg84
F0
sS'r'
F17
sg38
S'Durban'
p103
sS'w'
F1
sg40
g41
((I2014
I3
I12
I0
I0
I0
I2
I71
I-1
t(dtRp104
sg35
S'South Africa'
p105
sa(dp106
g34
I2
sS'b'
F24
sS'e'
F5.25
sg37
I356
sg90
I2
sg84
F0
sS'r'
F21
sg38
S'Sydney'
p107
sS'w'
F2
sg40
g41
((I2014
I2
I2
I0
I0
I0
I6
I33
I-1
t(dtRp108
sg35
S'England'
p109
sa(dp110
g34
I1
sS'b'
F24
sS'e'
F7.25
sg37
I355
sg90
I2
sg84
F0
sS'r'
F29
sg38
S'Melbourne'
p111
sS'w'
F1
sg40
g41
((I2014
I1
I31
I0
I0
I0
I4
I31
I-1
t(dtRp112
sg35
S'England'
p113
sa(dp114
g34
I2
sS'b'
F24
sS'e'
F7.75
sg37
I354
sg90
I2
sg84
F0
sS'r'
F31
sg38
S'Hobart'
p115
sS'w'
F4
sg40
g41
((I2014
I1
I29
I0
I0
I0
I2
I29
I-1
t(dtRp116
sg35
S'England'
p117
sa(dp118
g34
I2
sS'b'
F24
sS'e'
F11
sg37
I331
sg90
I4
sg84
F0
sS'r'
F44
sg38
S'Rajkot'
p119
sS'w'
F1
sg40
g41
((I2013
I10
I10
I0
I0
I0
I3
I283
I-1
t(dtRp120
sg35
S'India'
p121
sa(dp122
g34
I1
sS'b'
F24
sS'e'
F11.75
sg37
I329
sg90
I3
sg84
F0
sS'r'
F47
sg38
S'Chester-le-Street'
p123
sS'w'
F0
sg40
g41
((I2013
I8
I31
I0
I0
I0
I5
I243
I-1
t(dtRp124
sg35
S'England'
p125
sa(dp126
g34
I1
sS'b'
F24
sS'e'
F9
sg37
I303
sg90
I4
sg84
F0
sS'r'
F36
sg38
S'Brisbane'
p127
sS'w'
F1
sg40
g41
((I2013
I2
I13
I0
I0
I0
I2
I44
I-1
t(dtRp128
sg35
S'West Indies'
p129
satp130
sS'battingStats'
p131
((dp132
S'a'
F20.5
sS'0s'
p133
F1
sS'b'
F31
sS'no'
p134
F2
sS'i'
F4
sS'hs'
p135
F16
sS'm'
F10
sS'4s'
p136
F1
sS'6s'
p137
F4
sg82
F132.25806451612902
sS'r'
F41
sS'100s'
p138
F0
sS'50s'
p139
F0
s(lp140
(dp141
g34
I2
sS'b'
F3
sg35
S'Pakistan'
p142
sg82
F0
sg37
I381
sS'dismiss'
p143
S'bowled'
p144
sg136
F0
sg90
I8
sg137
F0
sg38
S'Dhaka'
p145
sg40
g41
((I2014
I3
I23
I0
I0
I0
I6
I82
I-1
t(dtRp146
sS'r'
F0
sS'minutes'
p147
F3
sa(dp148
g34
I1
sS'b'
F11
sg35
S'India'
p149
sg134
I01
sg82
F109.09090909090909
sg37
I331
sg143
S'not out'
p150
sg136
F1
sg90
I8
sg137
F0
sg38
S'Rajkot'
p151
sg40
g41
((I2013
I10
I10
I0
I0
I0
I3
I283
I-1
t(dtRp152
sS'r'
F12
sg147
F18
sa(dp153
g34
I2
sS'b'
F6
sg35
S'England'
p154
sg82
F216.66666666666666
sg37
I329
sg143
S'caught'
p155
sg136
F0
sg90
I10
sg137
F2
sg38
S'Chester-le-Street'
p156
sg40
g41
((I2013
I8
I31
I0
I0
I0
I5
I243
I-1
t(dtRp157
sS'r'
F13
sg147
F6
sa(dp158
g34
I2
sS'b'
F11
sg35
S'West Indies'
p159
sg134
I01
sg82
F145.45454545454547
sg37
I303
sg143
S'not out'
p160
sg136
F0
sg90
I9
sg137
F2
sg38
S'Brisbane'
p161
sg40
g41
((I2013
I2
I13
I0
I0
I0
I2
I44
I-1
t(dtRp162
sS'r'
F16
sg147
F15
satp163
ssS'all'
p164
(dp165
g27
(dp166
S'c'
F12
sg29
F0
sS'i'
F47
sS'm'
F47
sS's'
F0
sg30
F12
sg31
F12
ssg80
(dp167
S'a'
F23.648148148148149
sS'b'
F983
sS'e'
F7.794506612410987
sS'i'
F46
sg82
F18.203703703703702
sg83
F0
sS'm'
F47
sg84
F0
sS'r'
F1277
sS'w'
F54
sg85
F1
sg86
F31
sg87
F4
ssg131
(dp168
S'a'
F18.75
sg133
F-1
sS'b'
F185
sg134
F16
sS'i'
F28
sg135
F42
sS'm'
F47
sg136
F14
sg137
F13
sg82
F121.62162162162163
sS'r'
F225
sg138
F0
sg139
F0
ssssb.