(iplayer
Player
p1
(dp2
S'is_batsman'
p3
I01
sS'name'
p4
S'Ross Taylor'
p5
sS'dob'
p6
S'1984/03/08'
p7
sS'price'
p8
S'950000'
p9
sS'is_allrounder'
p10
I00
sS'espnid'
p11
S'38699'
p12
sS'is_overseas'
p13
I01
sS'team'
p14
S'DD'
p15
sS'nationality'
p16
S'New Zealander'
p17
sS'is_bowler'
p18
I00
sS'is_keeper'
p19
I00
sS'id'
p20
S'226'
p21
sS'is_uncapped'
p22
I00
sS'tournamentStats'
p23
(dp24
S'international'
p25
(dp26
S'fieldingStats'
p27
((dp28
S'c'
F36
sS'ctw'
p29
F0
sS'span_s'
p30
F2006
sS'm'
F59
sS's'
F0
sS'dismissals'
p31
F36
sS'i'
F59
sS'ctf'
p32
F36
sS'span_f'
p33
F2014
s(lp34
(dp35
S'inning'
p36
I1
sS'c'
F0
sg29
F0
sS'opp'
p37
S'Sri Lanka'
p38
sS't20i_num'
p39
I395
sg32
F0
sg31
F0
sS's'
F0
sS'place'
p40
S'Chittagong'
p41
sS'date'
p42
ctime
struct_time
p43
((I2014
I3
I31
I0
I0
I0
I0
I90
I-1
t(dtRp44
sa(dp45
g36
I1
sS'c'
F0
sg29
F0
sg37
S'Netherlands'
p46
sg39
I390
sg32
F0
sg31
F0
sS's'
F0
sg40
S'Chittagong'
p47
sg42
g43
((I2014
I3
I29
I0
I0
I0
I5
I88
I-1
t(dtRp48
sa(dp49
g36
I1
sS'c'
F0
sg29
F0
sg37
S'South Africa'
p50
sg39
I383
sg32
F0
sg31
F0
sS's'
F0
sg40
S'Chittagong'
p51
sg42
g43
((I2014
I3
I24
I0
I0
I0
I0
I83
I-1
t(dtRp52
sa(dp53
g36
I1
sS'c'
F0
sg29
F0
sg37
S'England'
p54
sg39
I380
sg32
F0
sg31
F0
sS's'
F0
sg40
S'Chittagong'
p55
sg42
g43
((I2014
I3
I22
I0
I0
I0
I5
I81
I-1
t(dtRp56
sa(dp57
g36
I1
sS'c'
F0
sg29
F0
sg37
S'West Indies'
p58
sg39
I353
sg32
F0
sg31
F0
sS's'
F0
sg40
S'Wellington'
p59
sg42
g43
((I2014
I1
I15
I0
I0
I0
I2
I15
I-1
t(dtRp60
sa(dp61
g36
I2
sS'c'
F0
sg29
F0
sg37
S'West Indies'
p62
sg39
I352
sg32
F0
sg31
F0
sS's'
F0
sg40
S'Auckland'
p63
sg42
g43
((I2014
I1
I11
I0
I0
I0
I5
I11
I-1
t(dtRp64
sa(dp65
g36
I2
sS'c'
F2
sg29
F0
sg37
S'Bangladesh'
p66
sg39
I333
sg32
F2
sg31
F2
sS's'
F0
sg40
S'Dhaka'
p67
sg42
g43
((I2013
I11
I6
I0
I0
I0
I2
I310
I-1
t(dtRp68
sa(dp69
g36
I1
sS'c'
F0
sg29
F0
sg37
S'England'
p70
sg39
I318
sg32
F0
sg31
F0
sS's'
F0
sg40
S'The Oval'
p71
sg42
g43
((I2013
I6
I27
I0
I0
I0
I3
I178
I-1
t(dtRp72
sa(dp73
g36
I2
sS'c'
F1
sg29
F0
sg37
S'England'
p74
sg39
I317
sg32
F1
sg31
F1
sS's'
F0
sg40
S'The Oval'
p75
sg42
g43
((I2013
I6
I25
I0
I0
I0
I1
I176
I-1
t(dtRp76
sa(dp77
g36
I2
sS'c'
F0
sg29
F0
sg37
S'England'
p78
sg39
I304
sg32
F0
sg31
F0
sS's'
F0
sg40
S'Wellington'
p79
sg42
g43
((I2013
I2
I15
I0
I0
I0
I4
I46
I-1
t(dtRp80
sa(dp81
g36
I2
sS'c'
F1
sg29
F0
sg37
S'England'
p82
sg39
I302
sg32
F1
sg31
F1
sS's'
F0
sg40
S'Hamilton'
p83
sg42
g43
((I2013
I2
I12
I0
I0
I0
I1
I43
I-1
t(dtRp84
sa(dp85
g36
I1
sS'c'
F1
sg29
F0
sg37
S'England'
p86
sg39
I301
sg32
F1
sg31
F1
sS's'
F0
sg40
S'Auckland'
p87
sg42
g43
((I2013
I2
I9
I0
I0
I0
I5
I40
I-1
t(dtRp88
sa(dp89
g36
I2
sS'c'
F0
sg29
F0
sg37
S'Sri Lanka'
p90
sg39
I290
sg32
F0
sg31
F0
sS's'
F0
sg40
S'Pallekele'
p91
sg42
g43
((I2012
I10
I30
I0
I0
I0
I1
I304
I-1
t(dtRp92
sa(dp93
g36
I1
sS'c'
F2
sg29
F0
sg37
S'West Indies'
p94
sg39
I283
sg32
F2
sg31
F2
sS's'
F0
sg40
S'Pallekele'
p95
sg42
g43
((I2012
I10
I1
I0
I0
I0
I0
I275
I-1
t(dtRp96
sa(dp97
g36
I2
sS'c'
F1
sg29
F0
sg37
S'England'
p98
sg39
I279
sg32
F1
sg31
F1
sS's'
F0
sg40
S'Pallekele'
p99
sg42
g43
((I2012
I9
I29
I0
I0
I0
I5
I273
I-1
t(dtRp100
sa(dp101
g36
I2
sS'c'
F1
sg29
F0
sg37
S'Sri Lanka'
p102
sg39
I275
sg32
F1
sg31
F1
sS's'
F0
sg40
S'Pallekele'
p103
sg42
g43
((I2012
I9
I27
I0
I0
I0
I3
I271
I-1
t(dtRp104
sa(dp105
g36
I1
sS'c'
F0
sg29
F0
sg37
S'Pakistan'
p106
sg39
I271
sg32
F0
sg31
F0
sS's'
F0
sg40
S'Pallekele'
p107
sg42
g43
((I2012
I9
I23
I0
I0
I0
I6
I267
I-1
t(dtRp108
sa(dp109
g36
I2
sS'c'
F0
sg29
F0
sg37
S'Bangladesh'
p110
sg39
I267
sg32
F0
sg31
F0
sS's'
F0
sg40
S'Pallekele'
p111
sg42
g43
((I2012
I9
I21
I0
I0
I0
I4
I265
I-1
t(dtRp112
sa(dp113
g36
I2
sS'c'
F1
sg29
F0
sg37
S'India'
p114
sg39
I261
sg32
F1
sg31
F1
sS's'
F0
sg40
S'Chennai'
p115
sg42
g43
((I2012
I9
I11
I0
I0
I0
I1
I255
I-1
t(dtRp116
sa(dp117
g36
I1
sS'c'
F0
sg29
F0
sg37
S'West Indies'
p118
sg39
I247
sg32
F0
sg31
F0
sS's'
F0
sg40
S'Lauderhill'
p119
sg42
g43
((I2012
I6
I30
I0
I0
I0
I5
I182
I-1
t(dtRp120
sa(dp121
g36
I2
sS'c'
F1
sg29
F0
sg37
S'Zimbabwe'
p122
sg39
I213
sg32
F1
sg31
F1
sS's'
F0
sg40
S'Harare'
p123
sg42
g43
((I2011
I10
I17
I0
I0
I0
I0
I290
I-1
t(dtRp124
sa(dp125
g36
I1
sS'c'
F2
sg29
F0
sg37
S'Zimbabwe'
p126
sg39
I211
sg32
F2
sg31
F2
sS's'
F0
sg40
S'Harare'
p127
sg42
g43
((I2011
I10
I15
I0
I0
I0
I5
I288
I-1
t(dtRp128
sa(dp129
g36
I1
sS'c'
F1
sg29
F0
sg37
S'Pakistan'
p130
sg39
I195
sg32
F1
sg31
F1
sS's'
F0
sg40
S'Christchurch'
p131
sg42
g43
((I2010
I12
I30
I0
I0
I0
I3
I364
I-1
t(dtRp132
sa(dp133
g36
I2
sS'c'
F0
sg29
F0
sg37
S'Pakistan'
p134
sg39
I194
sg32
F0
sg31
F0
sS's'
F0
sg40
S'Hamilton'
p135
sg42
g43
((I2010
I12
I28
I0
I0
I0
I1
I362
I-1
t(dtRp136
sa(dp137
g36
I1
sS'c'
F0
sg29
F0
sg37
S'Pakistan'
p138
sg39
I193
sg32
F0
sg31
F0
sS's'
F0
sg40
S'Auckland'
p139
sg42
g43
((I2010
I12
I26
I0
I0
I0
I6
I360
I-1
t(dtRp140
sa(dp141
g36
I2
sS'c'
F0
sg29
F0
sg37
S'Sri Lanka'
p142
sg39
I181
sg32
F0
sg31
F0
sS's'
F0
sg40
S'Lauderhill'
p143
sg42
g43
((I2010
I5
I23
I0
I0
I0
I6
I143
I-1
t(dtRp144
sa(dp145
g36
I2
sS'c'
F0
sg29
F0
sg37
S'Sri Lanka'
p146
sg39
I180
sg32
F0
sg31
F0
sS's'
F0
sg40
S'Lauderhill'
p147
sg42
g43
((I2010
I5
I22
I0
I0
I0
I5
I142
I-1
t(dtRp148
sa(dp149
g36
I2
sS'c'
F1
sg29
F0
sg37
S'England'
p150
sg39
I172
sg32
F1
sg31
F1
sS's'
F0
sg40
S'Gros Islet'
p151
sg42
g43
((I2010
I5
I10
I0
I0
I0
I0
I130
I-1
t(dtRp152
sa(dp153
g36
I2
sS'c'
F1
sg29
F0
sg37
S'Pakistan'
p154
sg39
I167
sg32
F1
sg31
F1
sS's'
F0
sg40
S'Bridgetown'
p155
sg42
g43
((I2010
I5
I8
I0
I0
I0
I5
I128
I-1
t(dtRp156
sa(dp157
g36
I1
sS'c'
F0
sg29
F0
sg37
S'South Africa'
p158
sg39
I164
sg32
F0
sg31
F0
sS's'
F0
sg40
S'Bridgetown'
p159
sg42
g43
((I2010
I5
I6
I0
I0
I0
I3
I126
I-1
t(dtRp160
sa(dp161
g36
I1
sS'c'
F0
sg29
F0
sg37
S'Zimbabwe'
p162
sg39
I159
sg32
F0
sg31
F0
sS's'
F0
sg40
S'Providence'
p163
sg42
g43
((I2010
I5
I4
I0
I0
I0
I1
I124
I-1
t(dtRp164
sa(dp165
g36
I1
sS'c'
F1
sg29
F0
sg37
S'Sri Lanka'
p166
sg39
I151
sg32
F1
sg31
F1
sS's'
F0
sg40
S'Providence'
p167
sg42
g43
((I2010
I4
I30
I0
I0
I0
I4
I120
I-1
t(dtRp168
sa(dp169
g36
I2
sS'c'
F0
sg29
F0
sg37
S'Australia'
p170
sg39
I149
sg32
F0
sg31
F0
sS's'
F0
sg40
S'Christchurch'
p171
sg42
g43
((I2010
I2
I28
I0
I0
I0
I6
I59
I-1
t(dtRp172
sa(dp173
g36
I2
sS'c'
F0
sg29
F0
sg37
S'Australia'
p174
sg39
I148
sg32
F0
sg31
F0
sS's'
F0
sg40
S'Wellington'
p175
sg42
g43
((I2010
I2
I26
I0
I0
I0
I4
I57
I-1
t(dtRp176
sa(dp177
g36
I1
sS'c'
F1
sg29
F0
sg37
S'Bangladesh'
p178
sg39
I131
sg32
F1
sg31
F1
sS's'
F0
sg40
S'Hamilton'
p179
sg42
g43
((I2010
I2
I3
I0
I0
I0
I2
I34
I-1
t(dtRp180
sa(dp181
g36
I1
sS'c'
F0
sg29
F0
sg37
S'Pakistan'
p182
sg39
I123
sg32
F0
sg31
F0
sS's'
F0
sg40
S'Dubai (DSC)'
p183
sg42
g43
((I2009
I11
I13
I0
I0
I0
I4
I317
I-1
t(dtRp184
sa(dp185
g36
I1
sS'c'
F0
sg29
F0
sg37
S'Pakistan'
p186
sg39
I122
sg32
F0
sg31
F0
sS's'
F0
sg40
S'Dubai (DSC)'
p187
sg42
g43
((I2009
I11
I12
I0
I0
I0
I3
I316
I-1
t(dtRp188
sa(dp189
g36
I2
sS'c'
F3
sg29
F0
sg37
S'Sri Lanka'
p190
sg39
I121
sg32
F3
sg31
F3
sS's'
F0
sg40
S'Colombo (RPS)'
p191
sg42
g43
((I2009
I9
I4
I0
I0
I0
I4
I247
I-1
t(dtRp192
sa(dp193
g36
I2
sS'c'
F0
sg29
F0
sg37
S'Sri Lanka'
p194
sg39
I120
sg32
F0
sg31
F0
sS's'
F0
sg40
S'Colombo (RPS)'
p195
sg42
g43
((I2009
I9
I2
I0
I0
I0
I2
I245
I-1
t(dtRp196
sa(dp197
g36
I1
sS'c'
F1
sg29
F0
sg37
S'Sri Lanka'
p198
sg39
I112
sg32
F1
sg31
F1
sS's'
F0
sg40
S'Nottingham'
p199
sg42
g43
((I2009
I6
I16
I0
I0
I0
I1
I167
I-1
t(dtRp200
sa(dp201
g36
I1
sS'c'
F0
sg29
F0
sg37
S'South Africa'
p202
sg39
I99
sg32
F0
sg31
F0
sS's'
F0
sg40
S"Lord's"
p203
sg42
g43
((I2009
I6
I9
I0
I0
I0
I1
I160
I-1
t(dtRp204
sa(dp205
g36
I1
sS'c'
F1
sg29
F0
sg37
S'Scotland'
p206
sg39
I91
sg32
F1
sg31
F1
sS's'
F0
sg40
S'The Oval'
p207
sg42
g43
((I2009
I6
I6
I0
I0
I0
I5
I157
I-1
t(dtRp208
sa(dp209
g36
I1
sS'c'
F0
sg29
F0
sg37
S'India'
p210
sg39
I85
sg32
F0
sg31
F0
sS's'
F0
sg40
S'Wellington'
p211
sg42
g43
((I2009
I2
I27
I0
I0
I0
I4
I58
I-1
t(dtRp212
sa(dp213
g36
I1
sS'c'
F0
sg29
F0
sg37
S'India'
p214
sg39
I84
sg32
F0
sg31
F0
sS's'
F0
sg40
S'Christchurch'
p215
sg42
g43
((I2009
I2
I25
I0
I0
I0
I2
I56
I-1
t(dtRp216
sa(dp217
g36
I2
sS'c'
F1
sg29
F0
sg37
S'West Indies'
p218
sg39
I79
sg32
F1
sg31
F1
sS's'
F0
sg40
S'Hamilton'
p219
sg42
g43
((I2008
I12
I28
I0
I0
I0
I6
I363
I-1
t(dtRp220
sa(dp221
g36
I2
sS'c'
F1
sg29
F0
sg37
S'West Indies'
p222
sg39
I78
sg32
F1
sg31
F1
sS's'
F0
sg40
S'Auckland'
p223
sg42
g43
((I2008
I12
I26
I0
I0
I0
I4
I361
I-1
t(dtRp224
sa(dp225
g36
I2
sS'c'
F0
sg29
F0
sg37
S'England'
p226
sg39
I56
sg32
F0
sg31
F0
sS's'
F0
sg40
S'Manchester'
p227
sg42
g43
((I2008
I6
I13
I0
I0
I0
I4
I165
I-1
t(dtRp228
sa(dp229
g36
I1
sS'c'
F1
sg29
F0
sg37
S'England'
p230
sg39
I54
sg32
F1
sg31
F1
sS's'
F0
sg40
S'Christchurch'
p231
sg42
g43
((I2008
I2
I7
I0
I0
I0
I3
I38
I-1
t(dtRp232
sa(dp233
g36
I1
sS'c'
F1
sg29
F0
sg37
S'England'
p234
sg39
I53
sg32
F1
sg31
F1
sS's'
F0
sg40
S'Auckland'
p235
sg42
g43
((I2008
I2
I5
I0
I0
I0
I1
I36
I-1
t(dtRp236
sa(dp237
g36
I1
sS'c'
F3
sg29
F0
sg37
S'Australia'
p238
sg39
I49
sg32
F3
sg31
F3
sS's'
F0
sg40
S'Perth'
p239
sg42
g43
((I2007
I12
I11
I0
I0
I0
I1
I345
I-1
t(dtRp240
sa(dp241
g36
I2
sS'c'
F1
sg29
F0
sg37
S'South Africa'
p242
sg39
I48
sg32
F1
sg31
F1
sS's'
F0
sg40
S'Johannesburg'
p243
sg42
g43
((I2007
I11
I23
I0
I0
I0
I4
I327
I-1
t(dtRp244
sa(dp245
g36
I2
sS'c'
F0
sg29
F0
sg37
S'Pakistan'
p246
sg39
I44
sg32
F0
sg31
F0
sS's'
F0
sg40
S'Cape Town'
p247
sg42
g43
((I2007
I9
I22
I0
I0
I0
I5
I265
I-1
t(dtRp248
sa(dp249
g36
I2
sS'c'
F0
sg29
F0
sg37
S'South Africa'
p250
sg39
I39
sg32
F0
sg31
F0
sS's'
F0
sg40
S'Durban'
p251
sg42
g43
((I2007
I9
I19
I0
I0
I0
I2
I262
I-1
t(dtRp252
sa(dp253
g36
I2
sS'c'
F0
sg29
F0
sg37
S'England'
p254
sg39
I36
sg32
F0
sg31
F0
sS's'
F0
sg40
S'Durban'
p255
sg42
g43
((I2007
I9
I18
I0
I0
I0
I1
I261
I-1
t(dtRp256
sa(dp257
g36
I2
sS'c'
F1
sg29
F0
sg37
S'India'
p258
sg39
I32
sg32
F1
sg31
F1
sS's'
F0
sg40
S'Johannesburg'
p259
sg42
g43
((I2007
I9
I16
I0
I0
I0
I6
I259
I-1
t(dtRp260
sa(dp261
g36
I2
sS'c'
F1
sg29
F0
sg37
S'Sri Lanka'
p262
sg39
I30
sg32
F1
sg31
F1
sS's'
F0
sg40
S'Johannesburg'
p263
sg42
g43
((I2007
I9
I15
I0
I0
I0
I5
I258
I-1
t(dtRp264
sa(dp265
g36
I1
sS'c'
F2
sg29
F0
sg37
S'Kenya'
p266
sg39
I21
sg32
F2
sg31
F2
sS's'
F0
sg40
S'Durban'
p267
sg42
g43
((I2007
I9
I12
I0
I0
I0
I2
I255
I-1
t(dtRp268
sa(dp269
g36
I1
sS'c'
F1
sg29
F0
sg37
S'Sri Lanka'
p270
sg39
I12
sg32
F1
sg31
F1
sS's'
F0
sg40
S'Auckland'
p271
sg42
g43
((I2006
I12
I26
I0
I0
I0
I1
I360
I-1
t(dtRp272
sa(dp273
g36
I2
sS'c'
F0
sg29
F0
sg37
S'Sri Lanka'
p274
sg39
I11
sg32
F0
sg31
F0
sS's'
F0
sg40
S'Wellington'
p275
sg42
g43
((I2006
I12
I22
I0
I0
I0
I4
I356
I-1
t(dtRp276
satp277
sS'bowlingStats'
p278
((dp279
S'a'
F-1
sS'b'
F0
sS'e'
F-1
sS'i'
F0
sS'sr'
p280
F-1
sS'5w'
p281
F0
sS'm'
F59
sS'maid'
p282
F0
sS'r'
F0
sS'w'
F0
sS'4w'
p283
F0
sS'bbir'
p284
F-1
sS'bbiw'
p285
F-1
sg33
F2014
sg30
F2006
s(ltp286
sS'battingStats'
p287
((dp288
S'a'
F24.09090909090909
sS'0s'
p289
F4
sS'b'
F879
sS'no'
p290
F9
sg30
F2006
sS'hs'
p291
F63
sS'm'
F59
sS'4s'
p292
F68
sg33
F2014
sS'i'
F53
sS'6s'
p293
F42
sg280
F120.59158134243458
sS'r'
F1060
sS'100s'
p294
F0
sS'50s'
p295
F5
s(lp296
(dp297
g36
I2
sS'b'
F5
sg37
S'Sri Lanka'
p298
sg280
F0
sg39
I395
sS'dismiss'
p299
S'lbw'
p300
sg292
F0
sS'pos'
p301
I4
sg293
F0
sg40
S'Chittagong'
p302
sg42
g43
((I2014
I3
I31
I0
I0
I0
I0
I90
I-1
t(dtRp303
sS'r'
F0
sS'minutes'
p304
F8
sa(dp305
g36
I2
sS'b'
F11
sg37
S'Netherlands'
p306
sg280
F163.63636363636363
sg39
I390
sg299
S'caught'
p307
sg292
F1
sg301
I4
sg293
F1
sg40
S'Chittagong'
p308
sg42
g43
((I2014
I3
I29
I0
I0
I0
I5
I88
I-1
t(dtRp309
sS'r'
F18
sg304
F16
sa(dp310
g36
I2
sS'b'
F37
sg37
S'South Africa'
p311
sg280
F167.56756756756758
sg39
I383
sg299
S'run out'
p312
sg292
F4
sg301
I4
sg293
F3
sg40
S'Chittagong'
p313
sg42
g43
((I2014
I3
I24
I0
I0
I0
I0
I83
I-1
t(dtRp314
sS'r'
F62
sg304
F68
sa(dp315
g36
I2
sS'b'
F41
sg37
S'West Indies'
p316
sg280
F95.121951219512198
sg39
I353
sg299
S'caught'
p317
sg292
F3
sg301
I4
sg293
F0
sg40
S'Wellington'
p318
sg42
g43
((I2014
I1
I15
I0
I0
I0
I2
I15
I-1
t(dtRp319
sS'r'
F39
sg304
F66
sa(dp320
g36
I1
sS'b'
F7
sg37
S'West Indies'
p321
sg280
F71.428571428571431
sg39
I352
sg299
S'caught'
p322
sg292
F0
sg301
I4
sg293
F0
sg40
S'Auckland'
p323
sg42
g43
((I2014
I1
I11
I0
I0
I0
I5
I11
I-1
t(dtRp324
sS'r'
F5
sg304
F8
sa(dp325
g36
I1
sS'b'
F25
sg37
S'Bangladesh'
p326
sg280
F112
sg39
I333
sg299
S'caught'
p327
sg292
F3
sg301
I3
sg293
F0
sg40
S'Dhaka'
p328
sg42
g43
((I2013
I11
I6
I0
I0
I0
I2
I310
I-1
t(dtRp329
sS'r'
F28
sg304
F49
sa(dp330
g36
I1
sS'b'
F19
sg37
S'England'
p331
sg290
I01
sg280
F168.42105263157896
sg39
I317
sg299
S'not out'
p332
sg292
F2
sg301
I4
sg293
F1
sg40
S'The Oval'
p333
sg42
g43
((I2013
I6
I25
I0
I0
I0
I1
I176
I-1
t(dtRp334
sS'r'
F32
sg304
F40
sa(dp335
g36
I1
sS'b'
F4
sg37
S'England'
p336
sg280
F150
sg39
I304
sg299
S'caught'
p337
sg292
F0
sg301
I4
sg293
F1
sg40
S'Wellington'
p338
sg42
g43
((I2013
I2
I15
I0
I0
I0
I4
I46
I-1
t(dtRp339
sS'r'
F6
sg304
F4
sa(dp340
g36
I1
sS'b'
F6
sg37
S'England'
p341
sg280
F66.666666666666671
sg39
I302
sg299
S'caught'
p342
sg292
F0
sg301
I4
sg293
F0
sg40
S'Hamilton'
p343
sg42
g43
((I2013
I2
I12
I0
I0
I0
I1
I43
I-1
t(dtRp344
sS'r'
F4
sg304
F11
sa(dp345
g36
I2
sS'b'
F14
sg37
S'England'
p346
sg280
F92.857142857142861
sg39
I301
sg299
S'caught'
p347
sg292
F1
sg301
I4
sg293
F0
sg40
S'Auckland'
p348
sg42
g43
((I2013
I2
I9
I0
I0
I0
I5
I40
I-1
t(dtRp349
sS'r'
F13
sg304
F19
sa(dp350
g36
I1
sS'b'
F10
sg37
S'Sri Lanka'
p351
sg280
F40
sg39
I290
sg299
S'caught'
p352
sg292
F0
sg301
I4
sg293
F0
sg40
S'Pallekele'
p353
sg42
g43
((I2012
I10
I30
I0
I0
I0
I1
I304
I-1
t(dtRp354
sS'r'
F4
sg304
F24
sa(dp355
g36
I2
sS'b'
F40
sg37
S'West Indies'
p356
sg290
I01
sg280
F155
sg39
I283
sg299
S'not out'
p357
sg292
F3
sg301
I4
sg293
F3
sg40
S'Pallekele'
p358
sg42
g43
((I2012
I10
I1
I0
I0
I0
I0
I275
I-1
t(dtRp359
sS'r'
F62
sg304
F69
sa(dp360
g36
I1
sS'b'
F23
sg37
S'England'
p361
sg280
F95.652173913043484
sg39
I279
sg299
S'caught'
p362
sg292
F2
sg301
I5
sg293
F0
sg40
S'Pallekele'
p363
sg42
g43
((I2012
I9
I29
I0
I0
I0
I5
I273
I-1
t(dtRp364
sS'r'
F22
sg304
F43
sa(dp365
g36
I1
sS'b'
F15
sg37
S'Sri Lanka'
p366
sg280
F153.33333333333334
sg39
I275
sg299
S'bowled'
p367
sg292
F2
sg301
I4
sg293
F0
sg40
S'Pallekele'
p368
sg42
g43
((I2012
I9
I27
I0
I0
I0
I3
I271
I-1
t(dtRp369
sS'r'
F23
sg304
F26
sa(dp370
g36
I2
sS'b'
F11
sg37
S'Pakistan'
p371
sg280
F236.36363636363637
sg39
I271
sg299
S'run out'
p372
sg292
F3
sg301
I6
sg293
F1
sg40
S'Pallekele'
p373
sg42
g43
((I2012
I9
I23
I0
I0
I0
I6
I267
I-1
t(dtRp374
sS'r'
F26
sg304
F21
sa(dp375
g36
I1
sS'b'
F12
sg37
S'Bangladesh'
p376
sg290
I01
sg280
F116.66666666666667
sg39
I267
sg299
S'not out'
p377
sg292
F2
sg301
I4
sg293
F0
sg40
S'Pallekele'
p378
sg42
g43
((I2012
I9
I21
I0
I0
I0
I4
I265
I-1
t(dtRp379
sS'r'
F14
sg304
F26
sa(dp380
g36
I1
sS'b'
F19
sg37
S'India'
p381
sg290
I01
sg280
F131.57894736842104
sg39
I261
sg299
S'not out'
p382
sg292
F0
sg301
I5
sg293
F1
sg40
S'Chennai'
p383
sg42
g43
((I2012
I9
I11
I0
I0
I0
I1
I255
I-1
t(dtRp384
sS'r'
F25
sg304
F35
sa(dp385
g36
I2
sS'b'
F11
sg37
S'West Indies'
p386
sg290
I01
sg280
F90.909090909090907
sg39
I247
sg299
S'retired notout'
p387
sg292
F2
sg301
I3
sg293
F0
sg40
S'Lauderhill'
p388
sg42
g43
((I2012
I6
I30
I0
I0
I0
I5
I182
I-1
t(dtRp389
sS'r'
F10
sg304
F10
sa(dp390
g36
I1
sS'b'
F5
sg37
S'Zimbabwe'
p391
sg280
F160
sg39
I213
sg299
S'run out'
p392
sg292
F1
sg301
I4
sg293
F0
sg40
S'Harare'
p393
sg42
g43
((I2011
I10
I17
I0
I0
I0
I0
I290
I-1
t(dtRp394
sS'r'
F8
sg304
F7
sa(dp395
g36
I2
sS'b'
F3
sg37
S'Pakistan'
p396
sg280
F0
sg39
I195
sg299
S'lbw'
p397
sg292
F0
sg301
I4
sg293
F0
sg40
S'Christchurch'
p398
sg42
g43
((I2010
I12
I30
I0
I0
I0
I3
I364
I-1
t(dtRp399
sS'r'
F0
sg304
F6
sa(dp400
g36
I1
sS'b'
F21
sg37
S'Pakistan'
p401
sg290
I01
sg280
F142.85714285714286
sg39
I194
sg299
S'not out'
p402
sg292
F1
sg301
I4
sg293
F2
sg40
S'Hamilton'
p403
sg42
g43
((I2010
I12
I28
I0
I0
I0
I1
I362
I-1
t(dtRp404
sS'r'
F30
sg304
F40
sa(dp405
g36
I2
sS'b'
F31
sg37
S'Pakistan'
p406
sg290
I01
sg280
F125.80645161290323
sg39
I193
sg299
S'not out'
p407
sg292
F2
sg301
I5
sg293
F3
sg40
S'Auckland'
p408
sg42
g43
((I2010
I12
I26
I0
I0
I0
I6
I360
I-1
t(dtRp409
sS'r'
F39
sg304
F53
sa(dp410
g36
I1
sS'b'
F5
sg37
S'Sri Lanka'
p411
sg280
F100
sg39
I181
sg299
S'lbw'
p412
sg292
F0
sg301
I3
sg293
F0
sg40
S'Lauderhill'
p413
sg42
g43
((I2010
I5
I23
I0
I0
I0
I6
I143
I-1
t(dtRp414
sS'r'
F5
sg304
F5
sa(dp415
g36
I1
sS'b'
F30
sg37
S'Sri Lanka'
p416
sg280
F90
sg39
I180
sg299
S'run out'
p417
sg292
F3
sg301
I4
sg293
F0
sg40
S'Lauderhill'
p418
sg42
g43
((I2010
I5
I22
I0
I0
I0
I5
I142
I-1
t(dtRp419
sS'r'
F27
sg304
F41
sa(dp420
g36
I1
sS'b'
F33
sg37
S'England'
p421
sg280
F133.33333333333334
sg39
I172
sg299
S'caught'
p422
sg292
F0
sg301
I4
sg293
F2
sg40
S'Gros Islet'
p423
sg42
g43
((I2010
I5
I10
I0
I0
I0
I0
I130
I-1
t(dtRp424
sS'r'
F44
sg304
F44
sa(dp425
g36
I1
sS'b'
F7
sg37
S'Pakistan'
p426
sg280
F42.857142857142854
sg39
I167
sg299
S'caught'
p427
sg292
F0
sg301
I4
sg293
F0
sg40
S'Bridgetown'
p428
sg42
g43
((I2010
I5
I8
I0
I0
I0
I5
I128
I-1
t(dtRp429
sS'r'
F3
sg304
F10
sa(dp430
g36
I2
sS'b'
F16
sg37
S'South Africa'
p431
sg280
F118.75
sg39
I164
sg299
S'caught'
p432
sg292
F1
sg301
I4
sg293
F1
sg40
S'Bridgetown'
p433
sg42
g43
((I2010
I5
I6
I0
I0
I0
I3
I126
I-1
t(dtRp434
sS'r'
F19
sg304
F17
sa(dp435
g36
I2
sS'b'
F15
sg37
S'Sri Lanka'
p436
sg280
F60
sg39
I151
sg299
S'caught'
p437
sg292
F0
sg301
I4
sg293
F0
sg40
S'Providence'
p438
sg42
g43
((I2010
I4
I30
I0
I0
I0
I4
I120
I-1
t(dtRp439
sS'r'
F9
sg304
F19
sa(dp440
g36
I1
sS'b'
F9
sg37
S'Australia'
p441
sg280
F66.666666666666671
sg39
I149
sg299
S'run out'
p442
sg292
F1
sg301
I4
sg293
F0
sg40
S'Christchurch'
p443
sg42
g43
((I2010
I2
I28
I0
I0
I0
I6
I59
I-1
t(dtRp444
sS'r'
F6
sg304
F8
sa(dp445
g36
I1
sS'b'
F9
sg37
S'Australia'
p446
sg280
F100
sg39
I148
sg299
S'lbw'
p447
sg292
F1
sg301
I4
sg293
F0
sg40
S'Wellington'
p448
sg42
g43
((I2010
I2
I26
I0
I0
I0
I4
I57
I-1
t(dtRp449
sS'r'
F9
sg304
F11
sa(dp450
g36
I2
sS'b'
F12
sg37
S'Pakistan'
p451
sg280
F108.33333333333333
sg39
I123
sg299
S'lbw'
p452
sg292
F0
sg301
I4
sg293
F1
sg40
S'Dubai (DSC)'
p453
sg42
g43
((I2009
I11
I13
I0
I0
I0
I4
I317
I-1
t(dtRp454
sS'r'
F13
sg304
F12
sa(dp455
g36
I2
sS'b'
F8
sg37
S'Pakistan'
p456
sg280
F62.5
sg39
I122
sg299
S'caught'
p457
sg292
F1
sg301
I3
sg293
F0
sg40
S'Dubai (DSC)'
p458
sg42
g43
((I2009
I11
I12
I0
I0
I0
I3
I316
I-1
t(dtRp459
sS'r'
F5
sg304
F9
sa(dp460
g36
I1
sS'b'
F18
sg37
S'Sri Lanka'
p461
sg280
F88.888888888888886
sg39
I121
sg299
S'lbw'
p462
sg292
F1
sg301
I3
sg293
F0
sg40
S'Colombo (RPS)'
p463
sg42
g43
((I2009
I9
I4
I0
I0
I0
I4
I247
I-1
t(dtRp464
sS'r'
F16
sg304
F19
sa(dp465
g36
I1
sS'b'
F45
sg37
S'Sri Lanka'
p466
sg280
F133.33333333333334
sg39
I120
sg299
S'caught'
p467
sg292
F5
sg301
I4
sg293
F1
sg40
S'Colombo (RPS)'
p468
sg42
g43
((I2009
I9
I2
I0
I0
I0
I2
I245
I-1
t(dtRp469
sS'r'
F60
sg304
F57
sa(dp470
g36
I2
sS'b'
F8
sg37
S'Sri Lanka'
p471
sg280
F100
sg39
I112
sg299
S'stumped'
p472
sg292
F1
sg301
I4
sg293
F0
sg40
S'Nottingham'
p473
sg42
g43
((I2009
I6
I16
I0
I0
I0
I1
I167
I-1
t(dtRp474
sS'r'
F8
sg304
F8
sa(dp475
g36
I2
sS'b'
F31
sg37
S'South Africa'
p476
sg280
F70.967741935483872
sg39
I99
sg299
S'bowled'
p477
sg292
F2
sg301
I4
sg293
F0
sg40
S"Lord's"
p478
sg42
g43
((I2009
I6
I9
I0
I0
I0
I1
I160
I-1
t(dtRp479
sS'r'
F22
sg304
F44
sa(dp480
g36
I2
sS'b'
F10
sg37
S'Scotland'
p481
sg290
I01
sg280
F210
sg39
I91
sg299
S'not out'
p482
sg292
F1
sg301
I3
sg293
F2
sg40
S'The Oval'
p483
sg42
g43
((I2009
I6
I6
I0
I0
I0
I5
I157
I-1
t(dtRp484
sS'r'
F21
sg304
F19
sa(dp485
g36
I2
sS'b'
F25
sg37
S'India'
p486
sg280
F108
sg39
I85
sg299
S'bowled'
p487
sg292
F2
sg301
I4
sg293
F0
sg40
S'Wellington'
p488
sg42
g43
((I2009
I2
I27
I0
I0
I0
I4
I58
I-1
t(dtRp489
sS'r'
F27
sg304
F35
sa(dp490
g36
I2
sS'b'
F20
sg37
S'India'
p491
sg280
F155
sg39
I84
sg299
S'bowled'
p492
sg292
F1
sg301
I4
sg293
F3
sg40
S'Christchurch'
p493
sg42
g43
((I2009
I2
I25
I0
I0
I0
I2
I56
I-1
t(dtRp494
sS'r'
F31
sg304
F28
sa(dp495
g36
I1
sS'b'
F4
sg37
S'West Indies'
p496
sg280
F150
sg39
I79
sg299
S'caught'
p497
sg292
F1
sg301
I3
sg293
F0
sg40
S'Hamilton'
p498
sg42
g43
((I2008
I12
I28
I0
I0
I0
I6
I363
I-1
t(dtRp499
sS'r'
F6
sg304
F6
sa(dp500
g36
I1
sS'b'
F50
sg37
S'West Indies'
p501
sg280
F126
sg39
I78
sg299
S'bowled'
p502
sg292
F4
sg301
I3
sg293
F4
sg40
S'Auckland'
p503
sg42
g43
((I2008
I12
I26
I0
I0
I0
I4
I361
I-1
t(dtRp504
sS'r'
F63
sg304
F77
sa(dp505
g36
I1
sS'b'
F18
sg37
S'England'
p506
sg280
F138.88888888888889
sg39
I56
sg299
S'bowled'
p507
sg292
F3
sg301
I4
sg293
F2
sg40
S'Manchester'
p508
sg42
g43
((I2008
I6
I13
I0
I0
I0
I4
I165
I-1
t(dtRp509
sS'r'
F25
sg304
F19
sa(dp510
g36
I2
sS'b'
F10
sg37
S'England'
p511
sg280
F210
sg39
I54
sg299
S'caught'
p512
sg292
F1
sg301
I3
sg293
F2
sg40
S'Christchurch'
p513
sg42
g43
((I2008
I2
I7
I0
I0
I0
I3
I38
I-1
t(dtRp514
sS'r'
F21
sg304
F13
sa(dp515
g36
I2
sS'b'
F2
sg37
S'England'
p516
sg280
F0
sg39
I53
sg299
S'lbw'
p517
sg292
F0
sg301
I3
sg293
F0
sg40
S'Auckland'
p518
sg42
g43
((I2008
I2
I5
I0
I0
I0
I1
I36
I-1
t(dtRp519
sS'r'
F0
sg304
F2
sa(dp520
g36
I2
sS'b'
F2
sg37
S'Australia'
p521
sg280
F0
sg39
I49
sg299
S'bowled'
p522
sg292
F0
sg301
I5
sg293
F0
sg40
S'Perth'
p523
sg42
g43
((I2007
I12
I11
I0
I0
I0
I1
I345
I-1
t(dtRp524
sS'r'
F0
sg304
F3
sa(dp525
g36
I1
sS'b'
F8
sg37
S'South Africa'
p526
sg280
F87.5
sg39
I48
sg299
S'caught'
p527
sg292
F0
sg301
I4
sg293
F1
sg40
S'Johannesburg'
p528
sg42
g43
((I2007
I11
I23
I0
I0
I0
I4
I327
I-1
t(dtRp529
sS'r'
F7
sg304
F9
sa(dp530
g36
I1
sS'b'
F23
sg37
S'Pakistan'
p531
sg290
I01
sg280
F160.86956521739131
sg39
I44
sg299
S'not out'
p532
sg292
F2
sg301
I5
sg293
F2
sg40
S'Cape Town'
p533
sg42
g43
((I2007
I9
I22
I0
I0
I0
I5
I265
I-1
t(dtRp534
sS'r'
F37
sg304
F31
sa(dp535
g36
I1
sS'b'
F3
sg37
S'South Africa'
p536
sg280
F33.333333333333336
sg39
I39
sg299
S'caught'
p537
sg292
F0
sg301
I3
sg293
F0
sg40
S'Durban'
p538
sg42
g43
((I2007
I9
I19
I0
I0
I0
I2
I262
I-1
t(dtRp539
sS'r'
F1
sg304
F3
sa(dp540
g36
I1
sS'b'
F8
sg37
S'England'
p541
sg280
F87.5
sg39
I36
sg299
S'caught'
p542
sg292
F0
sg301
I4
sg293
F1
sg40
S'Durban'
p543
sg42
g43
((I2007
I9
I18
I0
I0
I0
I1
I261
I-1
t(dtRp544
sS'r'
F7
sg304
F6
sa(dp545
g36
I1
sS'b'
F9
sg37
S'India'
p546
sg280
F122.22222222222223
sg39
I32
sg299
S'lbw'
p547
sg292
F0
sg301
I4
sg293
F1
sg40
S'Johannesburg'
p548
sg42
g43
((I2007
I9
I16
I0
I0
I0
I6
I259
I-1
t(dtRp549
sS'r'
F11
sg304
F10
sa(dp550
g36
I1
sS'b'
F43
sg37
S'Sri Lanka'
p551
sg280
F144.18604651162789
sg39
I30
sg299
S'caught'
p552
sg292
F3
sg301
I4
sg293
F3
sg40
S'Johannesburg'
p553
sg42
g43
((I2007
I9
I15
I0
I0
I0
I5
I258
I-1
t(dtRp554
sS'r'
F62
sg304
F59
sa(dp555
g36
I2
sS'b'
F7
sg37
S'Sri Lanka'
p556
sg280
F57.142857142857146
sg39
I12
sg299
S'run out'
p557
sg292
F0
sg301
I3
sg293
F0
sg40
S'Auckland'
p558
sg42
g43
((I2006
I12
I26
I0
I0
I0
I1
I360
I-1
t(dtRp559
sS'r'
F4
sg304
F9
sa(dp560
g36
I1
sS'b'
F21
sg37
S'Sri Lanka'
p561
sg280
F100
sg39
I11
sg299
S'lbw'
p562
sg292
F2
sg301
I4
sg293
F0
sg40
S'Wellington'
p563
sg42
g43
((I2006
I12
I22
I0
I0
I0
I4
I356
I-1
t(dtRp564
sS'r'
F21
sg304
F25
satp565
ssS'all'
p566
(dp567
g27
(dp568
S'c'
F82
sg29
F0
sS'i'
F174
sS'm'
F174
sS's'
F0
sg31
F82
sg32
F82
ssg278
(dp569
S'a'
F35
sS'b'
F186
sS'e'
F9.0322580645161299
sS'i'
F15
sg280
F23.25
sg281
F0
sS'm'
F174
sg282
F0
sS'r'
F280
sS'w'
F8
sg283
F0
sg284
F28
sg285
F3
ssg287
(dp570
S'a'
F29.740458015267176
sg289
F-1
sS'b'
F2820
sg290
F31
sS'i'
F162
sg291
F111
sS'm'
F174
sg292
F270
sg293
F207
sg280
F138.15602836879432
sS'r'
F3896
sg294
F1
sg295
F19
ssssb.