(iplayer
Player
p1
(dp2
S'is_batsman'
p3
I00
sS'name'
p4
S'John Hastings'
p5
sS'dob'
p6
S'1985/11/04'
p7
sS'price'
p8
S'800000'
p9
sS'is_allrounder'
p10
I01
sS'espnid'
p11
S'228622'
p12
sS'is_overseas'
p13
I01
sS'team'
p14
S'CSK'
p15
sS'nationality'
p16
S'Australian'
p17
sS'is_bowler'
p18
I00
sS'is_keeper'
p19
I00
sS'id'
p20
S'748'
p21
sS'is_uncapped'
p22
I00
sS'tournamentStats'
p23
(dp24
S'international'
p25
(dp26
S'fieldingStats'
p27
((dp28
S'c'
F0
sS'ctw'
p29
F0
sS'i'
F3
sS'm'
F3
sS's'
F0
sS'dismissals'
p30
F0
sS'ctf'
p31
F0
s(lp32
(dp33
S'inning'
p34
I1
sS'c'
F0
sg29
F0
sS'opp'
p35
S'Sri Lanka'
p36
sS't20i_num'
p37
I203
sg31
F0
sg30
F0
sS's'
F0
sS'place'
p38
S'Pallekele'
p39
sS'date'
p40
ctime
struct_time
p41
((I2011
I8
I8
I0
I0
I0
I0
I220
I-1
t(dtRp42
sa(dp43
g34
I1
sS'c'
F0
sg29
F0
sg35
S'Sri Lanka'
p44
sg37
I202
sg31
F0
sg30
F0
sS's'
F0
sg38
S'Pallekele'
p45
sg40
g41
((I2011
I8
I6
I0
I0
I0
I5
I218
I-1
t(dtRp46
sa(dp47
g34
I2
sS'c'
F0
sg29
F0
sg35
S'Sri Lanka'
p48
sg37
I192
sg31
F0
sg30
F0
sS's'
F0
sg38
S'Perth'
p49
sg40
g41
((I2010
I10
I31
I0
I0
I0
I6
I304
I-1
t(dtRp50
satp51
sS'bowlingStats'
p52
((dp53
S'a'
F22
sS'b'
F60
sS'e'
F6.5999999999999996
sS'i'
F3
sS'sr'
p54
F20
sS'5w'
p55
F0
sS'm'
F3
sS'maid'
p56
F0
sS'r'
F66
sS'w'
F3
sS'4w'
p57
F0
sS'bbir'
p58
F14
sS'bbiw'
p59
F3
s(lp60
(dp61
g34
I1
sS'b'
F24
sS'e'
F3.5
sg37
I203
sS'pos'
p62
I6
sg56
F0
sS'r'
F14
sg38
S'Pallekele'
p63
sS'w'
F3
sg40
g41
((I2011
I8
I8
I0
I0
I0
I0
I220
I-1
t(dtRp64
sg35
S'Sri Lanka'
p65
sa(dp66
g34
I1
sS'b'
F18
sS'e'
F11.333333333333334
sg37
I202
sg62
I4
sg56
F0
sS'r'
F34
sg38
S'Pallekele'
p67
sS'w'
F0
sg40
g41
((I2011
I8
I6
I0
I0
I0
I5
I218
I-1
t(dtRp68
sg35
S'Sri Lanka'
p69
sa(dp70
g34
I2
sS'b'
F18
sS'e'
F6
sg37
I192
sg62
I4
sg56
F0
sS'r'
F18
sg38
S'Perth'
p71
sS'w'
F0
sg40
g41
((I2010
I10
I31
I0
I0
I0
I6
I304
I-1
t(dtRp72
sg35
S'Sri Lanka'
p73
satp74
sS'battingStats'
p75
((dp76
S'a'
F32
sS'0s'
p77
F0
sS'b'
F18
sS'no'
p78
F2
sS'i'
F3
sS'hs'
p79
F15
sS'm'
F3
sS'4s'
p80
F2
sS'6s'
p81
F1
sg54
F177.77777777777777
sS'r'
F32
sS'100s'
p82
F0
sS'50s'
p83
F0
s(lp84
(dp85
g34
I2
sS'b'
F6
sg35
S'Sri Lanka'
p86
sg78
I01
sg54
F50
sg37
I203
sS'dismiss'
p87
S'not out'
p88
sg80
F0
sg62
I10
sg81
F0
sg38
S'Pallekele'
p89
sg40
g41
((I2011
I8
I8
I0
I0
I0
I0
I220
I-1
t(dtRp90
sS'r'
F3
sS'minutes'
p91
F14
sa(dp92
g34
I2
sS'b'
F4
sg35
S'Sri Lanka'
p93
sg78
I01
sg54
F350
sg37
I202
sg87
S'not out'
p94
sg80
F0
sg62
I10
sg81
F1
sg38
S'Pallekele'
p95
sg40
g41
((I2011
I8
I6
I0
I0
I0
I5
I218
I-1
t(dtRp96
sS'r'
F14
sg91
F5
sa(dp97
g34
I1
sS'b'
F8
sg35
S'Sri Lanka'
p98
sg54
F187.5
sg37
I192
sg87
S'run out'
p99
sg80
F2
sg62
I8
sg81
F0
sg38
S'Perth'
p100
sg40
g41
((I2010
I10
I31
I0
I0
I0
I6
I304
I-1
t(dtRp101
sS'r'
F15
sg91
F-1
satp102
ssS'all'
p103
(dp104
g27
(dp105
S'c'
F11
sg29
F0
sS'i'
F39
sS'm'
F39
sS's'
F0
sg30
F11
sg31
F11
ssg52
(dp106
S'a'
F25.315789473684209
sS'b'
F783
sS'e'
F7.3716475095785441
sS'i'
F38
sg54
F20.605263157894736
sg55
F0
sS'm'
F39
sg56
F0
sS'r'
F962
sS'w'
F38
sg57
F0
sg58
F14
sg59
F3
ssg75
(dp107
S'a'
F8.9499999999999993
sg77
F-1
sS'b'
F152
sg78
F7
sS'i'
F27
sg79
F23
sS'm'
F39
sg80
F7
sg81
F9
sg54
F117.76315789473684
sS'r'
F179
sg82
F0
sg83
F0
ssssb.