(iplayer
Player
p1
(dp2
S'is_batsman'
p3
I00
sS'name'
p4
S'Yusuf Pathan'
p5
sS'dob'
p6
S'1982/11/17'
p7
sS'price'
p8
S'1000000'
p9
sS'is_allrounder'
p10
I01
sS'espnid'
p11
S'32498'
p12
sS'is_overseas'
p13
I00
sS'team'
p14
S'KKR'
p15
sS'nationality'
p16
S'Indian'
p17
sS'is_bowler'
p18
I00
sS'is_keeper'
p19
I00
sS'id'
p20
S'96'
p21
sS'is_uncapped'
p22
I00
sS'tournamentStats'
p23
(dp24
S'international'
p25
(dp26
S'fieldingStats'
p27
((dp28
S'c'
F9
sS'ctw'
p29
F0
sS'span_s'
p30
F2007
sS'm'
F22
sS's'
F0
sS'dismissals'
p31
F9
sS'i'
F22
sS'ctf'
p32
F9
sS'span_f'
p33
F2012
s(lp34
(dp35
S'inning'
p36
I1
sS'c'
F0
sg29
F0
sS'opp'
p37
S'South Africa'
p38
sS't20i_num'
p39
I242
sg32
F0
sg31
F0
sS's'
F0
sS'place'
p40
S'Johannesburg'
p41
sS'date'
p42
ctime
struct_time
p43
((I2012
I3
I30
I0
I0
I0
I4
I90
I-1
t(dtRp44
sa(dp45
g36
I2
sS'c'
F0
sg29
F0
sg37
S'England'
p46
sg39
I214
sg32
F0
sg31
F0
sS's'
F0
sg40
S'Kolkata'
p47
sg42
g43
((I2011
I10
I29
I0
I0
I0
I5
I302
I-1
t(dtRp48
sa(dp49
g36
I2
sS'c'
F0
sg29
F0
sg37
S'West Indies'
p50
sg39
I200
sg32
F0
sg31
F0
sS's'
F0
sg40
S'Port of Spain'
p51
sg42
g43
((I2011
I6
I4
I0
I0
I0
I5
I155
I-1
t(dtRp52
sa(dp53
g36
I2
sS'c'
F1
sg29
F0
sg37
S'South Africa'
p54
sg39
I196
sg32
F1
sg31
F1
sS's'
F0
sg40
S'Durban'
p55
sg42
g43
((I2011
I1
I9
I0
I0
I0
I6
I9
I-1
t(dtRp56
sa(dp57
g36
I1
sS'c'
F1
sg29
F0
sg37
S'Zimbabwe'
p58
sg39
I183
sg32
F1
sg31
F1
sS's'
F0
sg40
S'Harare'
p59
sg42
g43
((I2010
I6
I13
I0
I0
I0
I6
I164
I-1
t(dtRp60
sa(dp61
g36
I1
sS'c'
F0
sg29
F0
sg37
S'Zimbabwe'
p62
sg39
I182
sg32
F0
sg31
F0
sS's'
F0
sg40
S'Harare'
p63
sg42
g43
((I2010
I6
I12
I0
I0
I0
I5
I163
I-1
t(dtRp64
sa(dp65
g36
I2
sS'c'
F1
sg29
F0
sg37
S'Sri Lanka'
p66
sg39
I173
sg32
F1
sg31
F1
sS's'
F0
sg40
S'Gros Islet'
p67
sg42
g43
((I2010
I5
I11
I0
I0
I0
I1
I131
I-1
t(dtRp68
sa(dp69
g36
I1
sS'c'
F1
sg29
F0
sg37
S'West Indies'
p70
sg39
I169
sg32
F1
sg31
F1
sS's'
F0
sg40
S'Bridgetown'
p71
sg42
g43
((I2010
I5
I9
I0
I0
I0
I6
I129
I-1
t(dtRp72
sa(dp73
g36
I1
sS'c'
F0
sg29
F0
sg37
S'Australia'
p74
sg39
I165
sg32
F0
sg31
F0
sS's'
F0
sg40
S'Bridgetown'
p75
sg42
g43
((I2010
I5
I7
I0
I0
I0
I4
I127
I-1
t(dtRp76
sa(dp77
g36
I2
sS'c'
F0
sg29
F0
sg37
S'South Africa'
p78
sg39
I155
sg32
F0
sg31
F0
sS's'
F0
sg40
S'Gros Islet'
p79
sg42
g43
((I2010
I5
I2
I0
I0
I0
I6
I122
I-1
t(dtRp80
sa(dp81
g36
I1
sS'c'
F0
sg29
F0
sg37
S'Afghanistan'
p82
sg39
I153
sg32
F0
sg31
F0
sS's'
F0
sg40
S'Gros Islet'
p83
sg42
g43
((I2010
I5
I1
I0
I0
I0
I5
I121
I-1
t(dtRp84
sa(dp85
g36
I1
sS'c'
F0
sg29
F0
sg37
S'Sri Lanka'
p86
sg39
I127
sg32
F0
sg31
F0
sS's'
F0
sg40
S'Mohali'
p87
sg42
g43
((I2009
I12
I12
I0
I0
I0
I5
I346
I-1
t(dtRp88
sa(dp89
g36
I1
sS'c'
F0
sg29
F0
sg37
S'Sri Lanka'
p90
sg39
I126
sg32
F0
sg31
F0
sS's'
F0
sg40
S'Nagpur'
p91
sg42
g43
((I2009
I12
I9
I0
I0
I0
I2
I343
I-1
t(dtRp92
sa(dp93
g36
I1
sS'c'
F0
sg29
F0
sg37
S'South Africa'
p94
sg39
I113
sg32
F0
sg31
F0
sS's'
F0
sg40
S'Nottingham'
p95
sg42
g43
((I2009
I6
I16
I0
I0
I0
I1
I167
I-1
t(dtRp96
sa(dp97
g36
I1
sS'c'
F1
sg29
F0
sg37
S'England'
p98
sg39
I109
sg32
F1
sg31
F1
sS's'
F0
sg40
S"Lord's"
p99
sg42
g43
((I2009
I6
I14
I0
I0
I0
I6
I165
I-1
t(dtRp100
sa(dp101
g36
I2
sS'c'
F0
sg29
F0
sg37
S'West Indies'
p102
sg39
I105
sg32
F0
sg31
F0
sS's'
F0
sg40
S"Lord's"
p103
sg42
g43
((I2009
I6
I12
I0
I0
I0
I4
I163
I-1
t(dtRp104
sa(dp105
g36
I1
sS'c'
F2
sg29
F0
sg37
S'Ireland'
p106
sg39
I101
sg32
F2
sg31
F2
sS's'
F0
sg40
S'Nottingham'
p107
sg42
g43
((I2009
I6
I10
I0
I0
I0
I2
I161
I-1
t(dtRp108
sa(dp109
g36
I2
sS'c'
F0
sg29
F0
sg37
S'Bangladesh'
p110
sg39
I93
sg32
F0
sg31
F0
sS's'
F0
sg40
S'Nottingham'
p111
sg42
g43
((I2009
I6
I6
I0
I0
I0
I5
I157
I-1
t(dtRp112
sa(dp113
g36
I2
sS'c'
F0
sg29
F0
sg37
S'New Zealand'
p114
sg39
I85
sg32
F0
sg31
F0
sS's'
F0
sg40
S'Wellington'
p115
sg42
g43
((I2009
I2
I27
I0
I0
I0
I4
I58
I-1
t(dtRp116
sa(dp117
g36
I2
sS'c'
F0
sg29
F0
sg37
S'New Zealand'
p118
sg39
I84
sg32
F0
sg31
F0
sS's'
F0
sg40
S'Christchurch'
p119
sg42
g43
((I2009
I2
I25
I0
I0
I0
I2
I56
I-1
t(dtRp120
sa(dp121
g36
I1
sS'c'
F1
sg29
F0
sg37
S'Sri Lanka'
p122
sg39
I82
sg32
F1
sg31
F1
sS's'
F0
sg40
S'Colombo (RPS)'
p123
sg42
g43
((I2009
I2
I10
I0
I0
I0
I1
I41
I-1
t(dtRp124
sa(dp125
g36
I2
sS'c'
F1
sg29
F0
sg37
S'Pakistan'
p126
sg39
I46
sg32
F1
sg31
F1
sS's'
F0
sg40
S'Johannesburg'
p127
sg42
g43
((I2007
I9
I24
I0
I0
I0
I0
I267
I-1
t(dtRp128
satp129
sS'bowlingStats'
p130
((dp131
S'a'
F33.692307692307693
sS'b'
F305
sS'e'
F8.6163934426229503
sS'i'
F17
sS'sr'
p132
F23.46153846153846
sS'5w'
p133
F0
sS'm'
F22
sS'maid'
p134
F0
sS'r'
F438
sS'w'
F13
sS'4w'
p135
F0
sS'bbir'
p136
F22
sS'bbiw'
p137
F2
sg33
F2012
sg30
F2007
s(lp138
(dp139
g36
I1
sS'b'
F6
sS'e'
F9
sg39
I242
sS'pos'
p140
I5
sg134
F0
sS'r'
F9
sg40
S'Johannesburg'
p141
sS'w'
F0
sg42
g43
((I2012
I3
I30
I0
I0
I0
I4
I90
I-1
t(dtRp142
sg37
S'South Africa'
p143
sa(dp144
g36
I2
sS'b'
F18
sS'e'
F11.333333333333334
sg39
I214
sg140
I2
sg134
F0
sS'r'
F34
sg40
S'Kolkata'
p145
sS'w'
F1
sg42
g43
((I2011
I10
I29
I0
I0
I0
I5
I302
I-1
t(dtRp146
sg37
S'England'
p147
sa(dp148
g36
I2
sS'b'
F24
sS'e'
F5.5
sg39
I200
sg140
I5
sg134
F0
sS'r'
F22
sg40
S'Port of Spain'
p149
sS'w'
F0
sg42
g43
((I2011
I6
I4
I0
I0
I0
I5
I155
I-1
t(dtRp150
sg37
S'West Indies'
p151
sa(dp152
g36
I2
sS'b'
F18
sS'e'
F7.333333333333333
sg39
I196
sg140
I6
sg134
F0
sS'r'
F22
sg40
S'Durban'
p153
sS'w'
F2
sg42
g43
((I2011
I1
I9
I0
I0
I0
I6
I9
I-1
t(dtRp154
sg37
S'South Africa'
p155
sa(dp156
g36
I1
sS'b'
F12
sS'e'
F5
sg39
I182
sg140
I6
sg134
F0
sS'r'
F10
sg40
S'Harare'
p157
sS'w'
F0
sg42
g43
((I2010
I6
I12
I0
I0
I0
I5
I163
I-1
t(dtRp158
sg37
S'Zimbabwe'
p159
sa(dp160
g36
I2
sS'b'
F18
sS'e'
F7.666666666666667
sg39
I173
sg140
I4
sg134
F0
sS'r'
F23
sg40
S'Gros Islet'
p161
sS'w'
F1
sg42
g43
((I2010
I5
I11
I0
I0
I0
I1
I131
I-1
t(dtRp162
sg37
S'Sri Lanka'
p163
sa(dp164
g36
I1
sS'b'
F24
sS'e'
F7
sg39
I169
sg140
I4
sg134
F0
sS'r'
F28
sg40
S'Bridgetown'
p165
sS'w'
F0
sg42
g43
((I2010
I5
I9
I0
I0
I0
I6
I129
I-1
t(dtRp166
sg37
S'West Indies'
p167
sa(dp168
g36
I1
sS'b'
F24
sS'e'
F8.75
sg39
I165
sg140
I5
sg134
F0
sS'r'
F35
sg40
S'Bridgetown'
p169
sS'w'
F1
sg42
g43
((I2010
I5
I7
I0
I0
I0
I4
I127
I-1
t(dtRp170
sg37
S'Australia'
p171
sa(dp172
g36
I2
sS'b'
F24
sS'e'
F10.5
sg39
I155
sg140
I4
sg134
F0
sS'r'
F42
sg40
S'Gros Islet'
p173
sS'w'
F2
sg42
g43
((I2010
I5
I2
I0
I0
I0
I6
I122
I-1
t(dtRp174
sg37
S'South Africa'
p175
sa(dp176
g36
I1
sS'b'
F6
sS'e'
F12
sg39
I153
sg140
I7
sg134
F0
sS'r'
F12
sg40
S'Gros Islet'
p177
sS'w'
F0
sg42
g43
((I2010
I5
I1
I0
I0
I0
I5
I121
I-1
t(dtRp178
sg37
S'Afghanistan'
p179
sa(dp180
g36
I1
sS'b'
F18
sS'e'
F9.6666666666666661
sg39
I127
sg140
I4
sg134
F0
sS'r'
F29
sg40
S'Mohali'
p181
sS'w'
F1
sg42
g43
((I2009
I12
I12
I0
I0
I0
I5
I346
I-1
t(dtRp182
sg37
S'Sri Lanka'
p183
sa(dp184
g36
I1
sS'b'
F24
sS'e'
F13.5
sg39
I126
sg140
I4
sg134
F0
sS'r'
F54
sg40
S'Nagpur'
p185
sS'w'
F1
sg42
g43
((I2009
I12
I9
I0
I0
I0
I2
I343
I-1
t(dtRp186
sg37
S'Sri Lanka'
p187
sa(dp188
g36
I2
sS'b'
F24
sS'e'
F6.75
sg39
I105
sg140
I3
sg134
F0
sS'r'
F27
sg40
S"Lord's"
p189
sS'w'
F1
sg42
g43
((I2009
I6
I12
I0
I0
I0
I4
I163
I-1
t(dtRp190
sg37
S'West Indies'
p191
sa(dp192
g36
I2
sS'b'
F18
sS'e'
F8.6666666666666661
sg39
I93
sg140
I3
sg134
F0
sS'r'
F26
sg40
S'Nottingham'
p193
sS'w'
F1
sg42
g43
((I2009
I6
I6
I0
I0
I0
I5
I157
I-1
t(dtRp194
sg37
S'Bangladesh'
p195
sa(dp196
g36
I2
sS'b'
F17
sS'e'
F13.058823529411764
sg39
I84
sg140
I5
sg134
F0
sS'r'
F37
sg40
S'Christchurch'
p197
sS'w'
F0
sg42
g43
((I2009
I2
I25
I0
I0
I0
I2
I56
I-1
t(dtRp198
sg37
S'New Zealand'
p199
sa(dp200
g36
I1
sS'b'
F24
sS'e'
F5.75
sg39
I82
sg140
I4
sg134
F0
sS'r'
F23
sg40
S'Colombo (RPS)'
p201
sS'w'
F2
sg42
g43
((I2009
I2
I10
I0
I0
I0
I1
I41
I-1
t(dtRp202
sg37
S'Sri Lanka'
p203
sa(dp204
g36
I2
sS'b'
F6
sS'e'
F5
sg39
I46
sg140
I4
sg134
F0
sS'r'
F5
sg40
S'Johannesburg'
p205
sS'w'
F0
sg42
g43
((I2007
I9
I24
I0
I0
I0
I0
I267
I-1
t(dtRp206
sg37
S'Pakistan'
p207
satp208
sS'battingStats'
p209
((dp210
S'a'
F18.153846153846153
sS'0s'
p211
F3
sS'b'
F161
sS'no'
p212
F5
sg30
F2007
sS'hs'
p213
F37
sS'm'
F22
sS'4s'
p214
F11
sg33
F2012
sS'i'
F18
sS'6s'
p215
F17
sg132
F146.58385093167701
sS'r'
F236
sS'100s'
p216
F0
sS'50s'
p217
F0
s(lp218
(dp219
g36
I1
sS'b'
F12
sg37
S'England'
p220
sg132
F83.333333333333329
sg39
I214
sS'dismiss'
p221
S'bowled'
p222
sg214
F1
sg140
I8
sg215
F0
sg40
S'Kolkata'
p223
sg42
g43
((I2011
I10
I29
I0
I0
I0
I5
I302
I-1
t(dtRp224
sS'r'
F10
sS'minutes'
p225
F17
sa(dp226
g36
I1
sS'b'
F6
sg37
S'West Indies'
p227
sg212
I01
sg132
F250
sg39
I200
sg221
S'not out'
p228
sg214
F0
sg140
I7
sg215
F2
sg40
S'Port of Spain'
p229
sg42
g43
((I2011
I6
I4
I0
I0
I0
I5
I155
I-1
t(dtRp230
sS'r'
F15
sg225
F1
sa(dp231
g36
I1
sS'b'
F8
sg37
S'South Africa'
p232
sg132
F75
sg39
I196
sg221
S'bowled'
p233
sg214
F0
sg140
I5
sg215
F0
sg40
S'Durban'
p234
sg42
g43
((I2011
I1
I9
I0
I0
I0
I6
I9
I-1
t(dtRp235
sS'r'
F6
sg225
F16
sa(dp236
g36
I2
sS'b'
F7
sg37
S'Zimbabwe'
p237
sg132
F57.142857142857146
sg39
I183
sg221
S'caught'
p238
sg214
F0
sg140
I4
sg215
F0
sg40
S'Harare'
p239
sg42
g43
((I2010
I6
I13
I0
I0
I0
I6
I164
I-1
t(dtRp240
sS'r'
F4
sg225
F16
sa(dp241
g36
I2
sS'b'
F24
sg37
S'Zimbabwe'
p242
sg212
I01
sg132
F154.16666666666666
sg39
I182
sg221
S'not out'
p243
sg214
F2
sg140
I6
sg215
F3
sg40
S'Harare'
p244
sg42
g43
((I2010
I6
I12
I0
I0
I0
I5
I163
I-1
t(dtRp245
sS'r'
F37
sg225
F27
sa(dp246
g36
I1
sS'b'
F9
sg37
S'Sri Lanka'
p247
sg132
F144.44444444444446
sg39
I173
sg221
S'caught'
p248
sg214
F2
sg140
I6
sg215
F0
sg40
S'Gros Islet'
p249
sg42
g43
((I2010
I5
I11
I0
I0
I0
I1
I131
I-1
t(dtRp250
sS'r'
F13
sg225
F10
sa(dp251
g36
I2
sS'b'
F10
sg37
S'West Indies'
p252
sg132
F170
sg39
I169
sg221
S'caught'
p253
sg214
F0
sg140
I7
sg215
F2
sg40
S'Bridgetown'
p254
sg42
g43
((I2010
I5
I9
I0
I0
I0
I6
I129
I-1
t(dtRp255
sS'r'
F17
sg225
F12
sa(dp256
g36
I2
sS'b'
F5
sg37
S'Australia'
p257
sg132
F20
sg39
I165
sg221
S'caught'
p258
sg214
F0
sg140
I7
sg215
F0
sg40
S'Bridgetown'
p259
sg42
g43
((I2010
I5
I7
I0
I0
I0
I4
I127
I-1
t(dtRp260
sS'r'
F1
sg225
F6
sa(dp261
g36
I1
sS'b'
F7
sg37
S'South Africa'
p262
sg132
F157.14285714285714
sg39
I155
sg221
S'caught'
p263
sg214
F0
sg140
I5
sg215
F1
sg40
S'Gros Islet'
p264
sg42
g43
((I2010
I5
I2
I0
I0
I0
I6
I122
I-1
t(dtRp265
sS'r'
F11
sg225
F11
sa(dp266
g36
I2
sS'b'
F2
sg37
S'Sri Lanka'
p267
sg132
F0
sg39
I126
sg221
S'caught'
p268
sg214
F0
sg140
I7
sg215
F0
sg40
S'Nagpur'
p269
sg42
g43
((I2009
I12
I9
I0
I0
I0
I2
I343
I-1
t(dtRp270
sS'r'
F0
sg225
F-1
sa(dp271
g36
I2
sS'b'
F2
sg37
S'South Africa'
p272
sg132
F0
sg39
I113
sg221
S'caught'
p273
sg214
F0
sg140
I6
sg215
F0
sg40
S'Nottingham'
p274
sg42
g43
((I2009
I6
I16
I0
I0
I0
I1
I167
I-1
t(dtRp275
sS'r'
F0
sg225
F2
sa(dp276
g36
I2
sS'b'
F17
sg37
S'England'
p277
sg212
I01
sg132
F194.11764705882354
sg39
I109
sg221
S'not out'
p278
sg214
F1
sg140
I7
sg215
F2
sg40
S"Lord's"
p279
sg42
g43
((I2009
I6
I14
I0
I0
I0
I6
I165
I-1
t(dtRp280
sS'r'
F33
sg225
F29
sa(dp281
g36
I1
sS'b'
F23
sg37
S'West Indies'
p282
sg132
F134.78260869565219
sg39
I105
sg221
S'bowled'
p283
sg214
F3
sg140
I6
sg215
F1
sg40
S"Lord's"
p284
sg42
g43
((I2009
I6
I12
I0
I0
I0
I4
I163
I-1
t(dtRp285
sS'r'
F31
sg225
F27
sa(dp286
g36
I1
sS'b'
F1
sg37
S'Bangladesh'
p287
sg212
I01
sg132
F100
sg39
I93
sg221
S'not out'
p288
sg214
F0
sg140
I6
sg215
F0
sg40
S'Nottingham'
p289
sg42
g43
((I2009
I6
I6
I0
I0
I0
I5
I157
I-1
t(dtRp290
sS'r'
F1
sg225
F10
sa(dp291
g36
I1
sS'b'
F2
sg37
S'New Zealand'
p292
sg132
F0
sg39
I85
sg221
S'bowled'
p293
sg214
F0
sg140
I6
sg215
F0
sg40
S'Wellington'
p294
sg42
g43
((I2009
I2
I27
I0
I0
I0
I4
I58
I-1
t(dtRp295
sS'r'
F0
sg225
F3
sa(dp296
g36
I1
sS'b'
F8
sg37
S'New Zealand'
p297
sg132
F250
sg39
I84
sg221
S'caught'
p298
sg214
F0
sg140
I7
sg215
F3
sg40
S'Christchurch'
p299
sg42
g43
((I2009
I2
I25
I0
I0
I0
I2
I56
I-1
t(dtRp300
sS'r'
F20
sg225
F7
sa(dp301
g36
I2
sS'b'
F10
sg37
S'Sri Lanka'
p302
sg212
I01
sg132
F220
sg39
I82
sg221
S'not out'
p303
sg214
F1
sg140
I8
sg215
F2
sg40
S'Colombo (RPS)'
p304
sg42
g43
((I2009
I2
I10
I0
I0
I0
I1
I41
I-1
t(dtRp305
sS'r'
F22
sg225
F26
sa(dp306
g36
I1
sS'b'
F8
sg37
S'Pakistan'
p307
sg132
F187.5
sg39
I46
sg221
S'caught'
p308
sg214
F1
sg140
I2
sg215
F1
sg40
S'Johannesburg'
p309
sg42
g43
((I2007
I9
I24
I0
I0
I0
I0
I267
I-1
t(dtRp310
sS'r'
F15
sg225
F12
satp311
ssS'all'
p312
(dp313
g27
(dp314
S'c'
F54
sg29
F0
sS'i'
F151
sS'm'
F151
sS's'
F0
sg31
F54
sg32
F54
ssg130
(dp315
S'a'
F28.337349397590362
sS'b'
F1836
sS'e'
F7.6862745098039218
sS'i'
F110
sg132
F22.120481927710845
sg133
F0
sS'm'
F151
sg134
F0
sS'r'
F2352
sS'w'
F83
sg135
F2
sg136
F10
sg137
F4
ssg209
(dp316
S'a'
F26.336363636363636
sg211
F-1
sS'b'
F1928
sg212
F27
sS'i'
F137
sg213
F100
sS'm'
F151
sg214
F234
sg215
F159
sg132
F150.25933609958506
sS'r'
F2897
sg216
F1
sg217
F14
ssssb.