(iplayer
Player
p1
(dp2
S'is_batsman'
p3
I01
sS'name'
p4
S'Francois du Plessis'
p5
sS'dob'
p6
S'1984/07/13'
p7
sS'price'
p8
S'950000'
p9
sS'is_allrounder'
p10
I01
sS'is_overseas'
p11
I01
sS'team'
p12
S'CSK'
p13
sS'nationality'
p14
S'South African'
p15
sS'is_bowler'
p16
I00
sS'is_keeper'
p17
I00
sS'id'
p18
S'24'
p19
sS'is_uncapped'
p20
I00
sS'tournamentStats'
p21
(lp22
(Vsa-aus-2014
(dp23
S'fieldingStats'
p24
(dp25
Vinns
p26
I4
sVc
I4
sVro
p27
I0
sVm
I5
sVs
I0
ssS'bowlingStats'
p28
(dp29
Vinns
p30
I0
sV10w
p31
I0
sVnb
p32
I0
sVmaid
p33
I0
sVwb
p34
I0
sVbbmw
p35
I0
sV6s
p36
I0
sVbbmr
p37
I0
sVbbir
p38
I0
sVbbiw
p39
I0
sVa
V-
sVb
I0
sVe
V-
sVd
I0
sVwmaid
p40
I0
sV4w
p41
I0
sVm
I5
sV4s
p42
I0
sVr
I0
sVw
I0
sVsr
p43
V-
sVov
p44
V-
sV5w
p45
I0
ssS'battingStats'
p46
(dp47
Va
V35.14
p48
sVb
I476
sVinns
p49
I8
sVno
p50
I1
sVsr
p51
V51.68
p52
sVm
I5
sV4s
p53
I26
sV6s
p54
I3
sVhs
p55
V67
p56
sVr
V246
p57
sV100s
p58
I0
sV50s
p59
I2
ssS'year'
p60
I2014
stp61
a(Vworldt20-2014
(dp62
g24
(dp63
Vinns
p64
I2
sVc
I2
sVro
p65
I0
sVm
I2
sVs
I0
ssg28
(dp66
Vinns
p67
I0
sV10w
p68
I0
sVnb
p69
I0
sVmaid
p70
I0
sVwb
p71
I0
sVbbmw
p72
I0
sV6s
p73
I0
sVbbmr
p74
I0
sVbbir
p75
I0
sVbbiw
p76
I0
sVa
V-
sVb
I0
sVe
V-
sVd
I0
sVwmaid
p77
I0
sV4w
p78
I0
sVm
I2
sV4s
p79
I0
sVr
I0
sVw
I0
sVsr
p80
V-
sVov
p81
V-
sV5w
p82
I0
ssg46
(dp83
Va
V18.50
p84
sVb
I22
sVinns
p85
I2
sVno
p86
I0
sVsr
p87
V168.18
p88
sVm
I2
sV4s
p89
I5
sV6s
p90
I1
sVhs
p91
V24
p92
sVr
V37
p93
sV100s
p94
I0
sV50s
p95
I0
ssg60
I2014
stp96
a(Vsl-sa-2013
(dp97
g24
(dp98
Vinns
p99
I3
sVc
I4
sVro
p100
I0
sVm
I8
sVs
I0
ssg28
(dp101
Vinns
p102
I0
sV10w
p103
I0
sVnb
p104
I0
sVmaid
p105
I0
sVwb
p106
I0
sVbbmw
p107
I0
sV6s
p108
I0
sVbbmr
p109
I0
sVbbir
p110
I0
sVbbiw
p111
I0
sVa
V-
sVb
I0
sVe
V-
sVd
I0
sVwmaid
p112
I0
sV4w
p113
I0
sVm
I8
sV4s
p114
I0
sVr
I0
sVw
I0
sVsr
p115
V-
sVov
p116
V-
sV5w
p117
I0
ssg46
(dp118
Va
V20.25
p119
sVb
I202
sVinns
p120
I8
sVno
p121
I0
sVsr
p122
V80.19
p123
sVm
I8
sV4s
p124
I14
sV6s
p125
I4
sVhs
p126
V85
p127
sVr
V162
p128
sV100s
p129
I0
sV50s
p130
I1
ssg60
I2013
stp131
a(Vsa-ind-2013
(dp132
g24
(dp133
Vinns
p134
I2
sVc
I2
sVro
p135
I0
sVm
I2
sVs
I0
ssg28
(dp136
Vinns
p137
I1
sV10w
p138
I0
sVnb
p139
I0
sVmaid
p140
I0
sVwb
p141
I0
sVbbmw
p142
I0
sV6s
p143
I0
sVbbmr
p144
I0
sVbbir
p145
I1
sVbbiw
p146
I0
sVa
V-
sVb
I6
sVe
V1.00
p147
sVd
I5
sVwmaid
p148
I0
sV4w
p149
I0
sVm
I2
sV4s
p150
I0
sVr
I1
sVw
I0
sVsr
p151
V-
sVov
p152
V1.00
p153
sV5w
p154
I0
ssg46
(dp155
Va
V65.66
p156
sVb
I456
sVinns
p157
I3
sVno
p158
I0
sVsr
p159
V43.20
p160
sVm
I2
sV4s
p161
I20
sV6s
p162
I0
sVhs
p163
V134
p164
sVr
V197
p165
sV100s
p166
I1
sV50s
p167
I0
ssg60
I2013
stp168
a(Vsa-pak-2013
(dp169
g24
(dp170
Vinns
p171
I3
sVc
I3
sVro
p172
I0
sVm
I7
sVs
I0
ssg28
(dp173
Vinns
p174
I0
sV10w
p175
I0
sVnb
p176
I0
sVmaid
p177
I0
sVwb
p178
I0
sVbbmw
p179
I0
sV6s
p180
I0
sVbbmr
p181
I0
sVbbir
p182
I0
sVbbiw
p183
I0
sVa
V-
sVb
I0
sVe
V-
sVd
I0
sVwmaid
p184
I0
sV4w
p185
I0
sVm
I7
sV4s
p186
I0
sVr
I0
sVw
I0
sVsr
p187
V-
sVov
p188
V-
sV5w
p189
I0
ssg46
(dp190
Va
V29.57
p191
sVb
I336
sVinns
p192
I8
sVno
p193
I1
sVsr
p194
V61.60
p195
sVm
I7
sV4s
p196
I25
sV6s
p197
I3
sVhs
p198
V45
p199
sVr
V207
p200
sV100s
p201
I0
sV50s
p202
I0
ssg60
I2013
stp203
a(Vpak-sa-2013
(dp204
g24
(dp205
Vinns
p206
I6
sVc
I6
sVro
p207
I1
sVm
I9
sVs
I0
ssg28
(dp208
Vinns
p209
I1
sV10w
p210
I0
sVnb
p211
I0
sVmaid
p212
I0
sVwb
p213
I0
sVbbmw
p214
I0
sV6s
p215
I0
sVbbmr
p216
I0
sVbbir
p217
I0
sVbbiw
p218
I0
sVa
V-
sVb
I12
sVe
V4.00
p219
sVd
I7
sVwmaid
p220
I0
sV4w
p221
I0
sVm
I9
sV4s
p222
I1
sVr
I8
sVw
I0
sVsr
p223
V-
sVov
p224
V2.00
p225
sV5w
p226
I0
ssg46
(dp227
Va
V36.71
p228
sVb
I449
sVinns
p229
I10
sVno
p230
I3
sVsr
p231
V57.23
p232
sVm
I9
sV4s
p233
I21
sV6s
p234
I4
sVhs
p235
V58*
p236
sVr
V257
p237
sV100s
p238
I0
sV50s
p239
I2
ssg60
I2013
stp240
a(Vchamptrophy-2013-warmups
(dp241
g24
(dp242
Vinns
p243
I0
sVc
I0
sVro
p244
I0
sVm
I1
sVs
I0
ssg28
(dp245
Vinns
p246
I0
sV10w
p247
I0
sVnb
p248
I0
sVmaid
p249
I0
sVwb
p250
I0
sVbbmw
p251
I0
sV6s
p252
I0
sVbbmr
p253
I0
sVbbir
p254
I0
sVbbiw
p255
I0
sVa
V-
sVb
I0
sVe
V-
sVd
I0
sVwmaid
p256
I0
sV4w
p257
I0
sVm
I1
sV4s
p258
I0
sVr
I0
sVw
I0
sVsr
p259
V-
sVov
p260
V-
sV5w
p261
I0
ssg46
(dp262
Va
V7.00
p263
sVb
I16
sVinns
p264
I1
sVno
p265
I0
sVsr
p266
V43.75
p267
sVm
I1
sV4s
p268
I1
sV6s
p269
I0
sVhs
p270
V7
sVr
V7
sV100s
p271
I0
sV50s
p272
I0
ssg60
I2013
stp273
a(Vchamptrophy-2013
(dp274
g24
(dp275
Vinns
p276
I3
sVc
I3
sVro
p277
I0
sVm
I4
sVs
I0
ssg28
(dp278
Vinns
p279
I0
sV10w
p280
I0
sVnb
p281
I0
sVmaid
p282
I0
sVwb
p283
I0
sVbbmw
p284
I0
sV6s
p285
I0
sVbbmr
p286
I0
sVbbir
p287
I0
sVbbiw
p288
I0
sVa
V-
sVb
I0
sVe
V-
sVd
I0
sVwmaid
p289
I0
sV4w
p290
I0
sVm
I4
sV4s
p291
I0
sVr
I0
sVw
I0
sVsr
p292
V-
sVov
p293
V-
sV5w
p294
I0
ssg46
(dp295
Va
V29.75
p296
sVb
I134
sVinns
p297
I4
sVno
p298
I0
sVsr
p299
V88.80
p300
sVm
I4
sV4s
p301
I13
sV6s
p302
I1
sVhs
p303
V35
p304
sVr
V119
p305
sV100s
p306
I0
sV50s
p307
I0
ssg60
I2013
stp308
a(Vsa-pak-2-2013
(dp309
g24
(dp310
Vinns
p311
I0
sVc
I0
sVro
p312
I0
sVm
I2
sVs
I0
ssg28
(dp313
Vinns
p314
I0
sV10w
p315
I0
sVnb
p316
I0
sVmaid
p317
I0
sVwb
p318
I0
sVbbmw
p319
I0
sV6s
p320
I0
sVbbmr
p321
I0
sVbbir
p322
I0
sVbbiw
p323
I0
sVa
V-
sVb
I0
sVe
V-
sVd
I0
sVwmaid
p324
I0
sV4w
p325
I0
sVm
I2
sV4s
p326
I0
sVr
I0
sVw
I0
sVsr
p327
V-
sVov
p328
V-
sV5w
p329
I0
ssg46
(dp330
Va
V14.00
p331
sVb
I32
sVinns
p332
I2
sVno
p333
I0
sVsr
p334
V87.50
p335
sVm
I2
sV4s
p336
I1
sV6s
p337
I0
sVhs
p338
V22
p339
sVr
V28
p340
sV100s
p341
I0
sV50s
p342
I0
ssg60
I2013
stp343
a(Vipl2012
(dp344
g24
(dp345
Vinns
p346
I5
sVc
I4
sVro
p347
I2
sVm
I13
sVs
I0
ssg28
(dp348
Vinns
p349
I1
sV10w
p350
I0
sVnb
p351
I0
sVmaid
p352
I0
sVwb
p353
I0
sVbbmw
p354
I0
sV6s
p355
I2
sVbbmr
p356
I0
sVbbir
p357
I0
sVbbiw
p358
I0
sVa
V-
sVb
I6
sVe
V16.00
p359
sVd
I0
sVwmaid
p360
I0
sV4w
p361
I0
sVm
I13
sV4s
p362
I0
sVr
I16
sVw
I0
sVsr
p363
V-
sVov
p364
V1.00
p365
sV5w
p366
I0
ssg46
(dp367
Va
V33.16
p368
sVb
I304
sVinns
p369
I12
sVno
p370
I0
sVsr
p371
V130.92
p372
sVm
I13
sV4s
p373
I29
sV6s
p374
I17
sVhs
p375
V73
p376
sVr
V398
p377
sV100s
p378
I0
sV50s
p379
I3
ssg60
I2012
stp380
a(Vaus-sa-2012
(dp381
g24
(dp382
Vinns
p383
I2
sVc
I2
sVro
p384
I0
sVm
I2
sVs
I0
ssg28
(dp385
Vinns
p386
I3
sV10w
p387
I0
sVnb
p388
I0
sVmaid
p389
I0
sVwb
p390
I0
sVbbmw
p391
I0
sV6s
p392
I1
sVbbmr
p393
I0
sVbbir
p394
I0
sVbbiw
p395
I0
sVa
V-
sVb
I60
sVe
V6.00
p396
sVd
I26
sVwmaid
p397
I0
sV4w
p398
I0
sVm
I2
sV4s
p399
I5
sVr
I60
sVw
I0
sVsr
p400
V-
sVov
p401
V10.00
p402
sV5w
p403
I0
ssg46
(dp404
Va
V146.50
p405
sVb
I715
sVinns
p406
I4
sVno
p407
I2
sVsr
p408
V40.97
p409
sVm
I2
sV4s
p410
I43
sV6s
p411
I1
sVhs
p412
V110*
p413
sVr
V293
p414
sV100s
p415
I1
sV50s
p416
I2
ssg60
I2012
stp417
a(Vclt20-2012
(dp418
g24
(dp419
Vinns
p420
I1
sVc
I1
sVro
p421
I0
sVm
I4
sVs
I0
ssg28
(dp422
Vinns
p423
I3
sV10w
p424
I0
sVnb
p425
I0
sVmaid
p426
I0
sVwb
p427
I1
sVbbmw
p428
I1
sV6s
p429
I1
sVbbmr
p430
I3
sVbbir
p431
I3
sVbbiw
p432
I1
sVa
V52.00
p433
sVb
I36
sVe
V8.66
p434
sVd
I6
sVwmaid
p435
I0
sV4w
p436
I0
sVm
I4
sV4s
p437
I4
sVr
I52
sVw
I1
sVsr
p438
V36.00
p439
sVov
p440
V6.00
p441
sV5w
p442
I0
ssg46
(dp443
Va
V30.25
p444
sVb
I82
sVinns
p445
I4
sVno
p446
I0
sVsr
p447
V147.56
p448
sVm
I4
sV4s
p449
I13
sV6s
p450
I4
sVhs
p451
V52
p452
sVr
V121
p453
sV100s
p454
I0
sV50s
p455
I1
ssg60
I2012
stp456
a(Vpre-worldt20-2012
(dp457
g24
(dp458
Vinns
p459
I0
sVc
I0
sVro
p460
I0
sVm
I2
sVs
I0
ssg28
(dp461
Vinns
p462
I0
sV10w
p463
I0
sVnb
p464
I0
sVmaid
p465
I0
sVwb
p466
I0
sVbbmw
p467
I0
sV6s
p468
I0
sVbbmr
p469
I0
sVbbir
p470
I0
sVbbiw
p471
I0
sVa
V-
sVb
I0
sVe
V-
sVd
I0
sVwmaid
p472
I0
sV4w
p473
I0
sVm
I2
sV4s
p474
I0
sVr
I0
sVw
I0
sVsr
p475
V-
sVov
p476
V-
sV5w
p477
I0
ssg46
(dp478
Va
V6.00
p479
sVb
I9
sVinns
p480
I2
sVno
p481
I0
sVsr
p482
V133.33
p483
sVm
I2
sV4s
p484
I1
sV6s
p485
I0
sVhs
p486
V8
sVr
V12
p487
sV100s
p488
I0
sV50s
p489
I0
ssg60
I2012
stp490
a(Vbigbash-2012
(dp491
g24
(dp492
Vinns
p493
I1
sVc
I1
sVro
p494
I1
sVm
I1
sVs
I0
ssg28
(dp495
Vinns
p496
I0
sV10w
p497
I0
sVnb
p498
I0
sVmaid
p499
I0
sVwb
p500
I0
sVbbmw
p501
I0
sV6s
p502
I0
sVbbmr
p503
I0
sVbbir
p504
I0
sVbbiw
p505
I0
sVa
V-
sVb
I0
sVe
V-
sVd
I0
sVwmaid
p506
I0
sV4w
p507
I0
sVm
I1
sV4s
p508
I0
sVr
I0
sVw
I0
sVsr
p509
V-
sVov
p510
V-
sV5w
p511
I0
ssg46
(dp512
Va
V14.00
p513
sVb
I17
sVinns
p514
I1
sVno
p515
I0
sVsr
p516
V82.35
p517
sVm
I1
sV4s
p518
I0
sV6s
p519
I0
sVhs
p520
V14
p521
sVr
V14
p522
sV100s
p523
I0
sV50s
p524
I0
ssg60
I2012
stp525
a(Vworldt20-2012
(dp526
g24
(dp527
Vinns
p528
I1
sVc
I1
sVro
p529
I0
sVm
I3
sVs
I0
ssg28
(dp530
Vinns
p531
I2
sV10w
p532
I0
sVnb
p533
I0
sVmaid
p534
I0
sVwb
p535
I0
sVbbmw
p536
I0
sV6s
p537
I1
sVbbmr
p538
I0
sVbbir
p539
I3
sVbbiw
p540
I0
sVa
V-
sVb
I18
sVe
V5.66
p541
sVd
I6
sVwmaid
p542
I0
sV4w
p543
I0
sVm
I3
sV4s
p544
I0
sVr
I17
sVw
I0
sVsr
p545
V-
sVov
p546
V3.00
p547
sV5w
p548
I0
ssg46
(dp549
Va
V34.00
p550
sVb
I69
sVinns
p551
I3
sVno
p552
I0
sVsr
p553
V147.82
p554
sVm
I3
sV4s
p555
I8
sV6s
p556
I3
sVhs
p557
V65
p558
sVr
V102
p559
sV100s
p560
I0
sV50s
p561
I1
ssg60
I2012
stp562
a(Vsa-nz-2012
p563
(dp564
g24
(dp565
Vinns
p566
I1
sVc
I1
sVro
p567
I1
sVm
I7
sVs
I0
ssg28
(dp568
Vinns
p569
I1
sV10w
p570
I0
sVnb
p571
I0
sVmaid
p572
I0
sVwb
p573
I0
sVbbmw
p574
I0
sV6s
p575
I0
sVbbmr
p576
I0
sVbbir
p577
I0
sVbbiw
p578
I0
sVa
V-
sVb
I2
sVe
V0.00
p579
sVd
I2
sVwmaid
p580
I0
sV4w
p581
I0
sVm
I7
sV4s
p582
I0
sVr
I0
sVw
I0
sVsr
p583
V-
sVov
p584
V0.33
p585
sV5w
p586
I0
ssg46
(dp587
Va
V110.00
p588
sVb
I459
sVinns
p589
I7
sVno
p590
I4
sVsr
p591
V71.89
p592
sVm
I7
sV4s
p593
I35
sV6s
p594
I3
sVhs
p595
V137*
p596
sVr
V330
p597
sV100s
p598
I1
sV50s
p599
I2
ssg60
I2012
stp600
asb.