(iplayer
Player
p1
(dp2
S'is_batsman'
p3
I00
sS'name'
p4
S'Dinesh Karthik'
p5
sS'dob'
p6
S'1985/06/01'
p7
sS'price'
p8
S'900000'
p9
sS'is_allrounder'
p10
I00
sS'is_overseas'
p11
I00
sS'team'
p12
S'DD'
p13
sS'nationality'
p14
S'Indian'
p15
sS'is_bowler'
p16
I00
sS'is_keeper'
p17
I01
sS'id'
p18
S'102'
p19
sS'is_uncapped'
p20
I00
sS'tournamentStats'
p21
(lp22
(Vasiacup-2014
(dp23
S'fieldingStats'
p24
(dp25
Vinns
p26
I3
sVc
I3
sVro
p27
I0
sVm
I4
sVs
I1
ssS'bowlingStats'
p28
(dp29
Vinns
p30
I0
sV10w
p31
I0
sVnb
p32
I0
sVmaid
p33
I0
sVwb
p34
I0
sVbbmw
p35
I0
sV6s
p36
I0
sVbbmr
p37
I0
sVbbir
p38
I0
sVbbiw
p39
I0
sVa
V-
sVb
I0
sVe
V-
sVd
I0
sVwmaid
p40
I0
sV4w
p41
I0
sVm
I4
sV4s
p42
I0
sVr
I0
sVw
I0
sVsr
p43
V-
sVov
p44
V-
sV5w
p45
I0
ssS'battingStats'
p46
(dp47
Va
V25.00
p48
sVb
I78
sVinns
p49
I4
sVno
p50
I2
sVsr
p51
V64.10
p52
sVm
I4
sV4s
p53
I5
sV6s
p54
I0
sVhs
p55
V23
p56
sVr
V50
p57
sV100s
p58
I0
sV50s
p59
I0
ssS'year'
p60
I2014
stp61
a(Vzim-ind-2013
(dp62
g24
(dp63
Vinns
p64
I4
sVc
I9
sVro
p65
I0
sVm
I5
sVs
I0
ssg28
(dp66
Vinns
p67
I0
sV10w
p68
I0
sVnb
p69
I0
sVmaid
p70
I0
sVwb
p71
I0
sVbbmw
p72
I0
sV6s
p73
I0
sVbbmr
p74
I0
sVbbir
p75
I0
sVbbiw
p76
I0
sVa
V-
sVb
I0
sVe
V-
sVd
I0
sVwmaid
p77
I0
sV4w
p78
I0
sVm
I5
sV4s
p79
I0
sVr
I0
sVw
I0
sVsr
p80
V-
sVov
p81
V-
sV5w
p82
I0
ssg46
(dp83
Va
V87.00
p84
sVb
I108
sVinns
p85
I3
sVno
p86
I2
sVsr
p87
V80.55
p88
sVm
I5
sV4s
p89
I8
sV6s
p90
I0
sVhs
p91
V69
p92
sVr
V87
p93
sV100s
p94
I0
sV50s
p95
I1
ssg60
I2013
stp96
a(Vtriseries-wi-2013
(dp97
g24
(dp98
Vinns
p99
I3
sVc
I5
sVro
p100
I0
sVm
I5
sVs
I1
ssg28
(dp101
Vinns
p102
I0
sV10w
p103
I0
sVnb
p104
I0
sVmaid
p105
I0
sVwb
p106
I0
sVbbmw
p107
I0
sV6s
p108
I0
sVbbmr
p109
I0
sVbbir
p110
I0
sVbbiw
p111
I0
sVa
V-
sVb
I0
sVe
V-
sVd
I0
sVwmaid
p112
I0
sV4w
p113
I0
sVm
I5
sV4s
p114
I0
sVr
I0
sVw
I0
sVsr
p115
V-
sVov
p116
V-
sV5w
p117
I0
ssg46
(dp118
Va
V17.20
p119
sVb
I159
sVinns
p120
I5
sVno
p121
I0
sVsr
p122
V54.08
p123
sVm
I5
sV4s
p124
I9
sV6s
p125
I1
sVhs
p126
V23
p127
sVr
V86
p128
sV100s
p129
I0
sV50s
p130
I0
ssg60
I2013
stp131
a(Vclt20-2013
(dp132
g24
(dp133
Vinns
p134
I2
sVc
I1
sVro
p135
I0
sVm
I5
sVs
I2
ssg28
(dp136
Vinns
p137
I0
sV10w
p138
I0
sVnb
p139
I0
sVmaid
p140
I0
sVwb
p141
I0
sVbbmw
p142
I0
sV6s
p143
I0
sVbbmr
p144
I0
sVbbir
p145
I0
sVbbiw
p146
I0
sVa
V-
sVb
I0
sVe
V-
sVd
I0
sVwmaid
p147
I0
sV4w
p148
I0
sVm
I5
sV4s
p149
I0
sVr
I0
sVw
I0
sVsr
p150
V-
sVov
p151
V-
sV5w
p152
I0
ssg46
(dp153
Va
V31.50
p154
sVb
I56
sVinns
p155
I4
sVno
p156
I2
sVsr
p157
V112.50
p158
sVm
I5
sV4s
p159
I4
sV6s
p160
I5
sVhs
p161
V33*
p162
sVr
V63
p163
sV100s
p164
I0
sV50s
p165
I0
ssg60
I2013
stp166
a(Vchamptrophy-2013-warmups
(dp167
g24
(dp168
Vinns
p169
I0
sVc
I0
sVro
p170
I0
sVm
I2
sVs
I0
ssg28
(dp171
Vinns
p172
I0
sV10w
p173
I0
sVnb
p174
I0
sVmaid
p175
I0
sVwb
p176
I0
sVbbmw
p177
I0
sV6s
p178
I0
sVbbmr
p179
I0
sVbbir
p180
I0
sVbbiw
p181
I0
sVa
V-
sVb
I0
sVe
V-
sVd
I0
sVwmaid
p182
I0
sV4w
p183
I0
sVm
I2
sV4s
p184
I0
sVr
I0
sVw
I0
sVsr
p185
V-
sVov
p186
V-
sV5w
p187
I0
ssg46
(dp188
Va
V-
sVb
I221
sVinns
p189
I2
sVno
p190
I2
sVsr
p191
V114.02
p192
sVm
I2
sV4s
p193
I29
sV6s
p194
I3
sVhs
p195
V146*
p196
sVr
V252
p197
sV100s
p198
I2
sV50s
p199
I0
ssg60
I2013
stp200
a(Vchamptrophy-2013
(dp201
g24
(dp202
Vinns
p203
I1
sVc
I1
sVro
p204
I0
sVm
I5
sVs
I0
ssg28
(dp205
Vinns
p206
I0
sV10w
p207
I0
sVnb
p208
I0
sVmaid
p209
I0
sVwb
p210
I0
sVbbmw
p211
I0
sV6s
p212
I0
sVbbmr
p213
I0
sVbbir
p214
I0
sVbbiw
p215
I0
sVa
V-
sVb
I0
sVe
V-
sVd
I0
sVwmaid
p216
I0
sV4w
p217
I0
sVm
I5
sV4s
p218
I0
sVr
I0
sVw
I0
sVsr
p219
V-
sVov
p220
V-
sV5w
p221
I0
ssg46
(dp222
Va
V41.00
p223
sVb
I95
sVinns
p224
I4
sVno
p225
I2
sVsr
p226
V86.31
p227
sVm
I5
sV4s
p228
I10
sV6s
p229
I1
sVhs
p230
V51*
p231
sVr
V82
p232
sV100s
p233
I0
sV50s
p234
I1
ssg60
I2013
stp235
a(Vipl2013
p236
(dp237
g24
(dp238
Vinns
p239
I9
sVc
I12
sVro
p240
I0
sVm
I19
sVs
I2
ssg28
(dp241
Vinns
p242
I0
sV10w
p243
I0
sVnb
p244
I0
sVmaid
p245
I0
sVwb
p246
I0
sVbbmw
p247
I0
sV6s
p248
I0
sVbbmr
p249
I0
sVbbir
p250
I0
sVbbiw
p251
I0
sVa
V-
sVb
I0
sVe
V-
sVd
I0
sVwmaid
p252
I0
sV4w
p253
I0
sVm
I19
sV4s
p254
I0
sVr
I0
sVw
I0
sVsr
p255
V-
sVov
p256
V-
sV5w
p257
I0
ssg46
(dp258
Va
V28.33
p259
sVb
I411
sVinns
p260
I19
sVno
p261
I1
sVsr
p262
V124.08
p263
sVm
I19
sV4s
p264
I54
sV6s
p265
I14
sVhs
p266
V86
p267
sVr
V510
p268
sV100s
p269
I0
sV50s
p270
I2
ssg60
I2013
stp271
a(Vipl2012
(dp272
g24
(dp273
Vinns
p274
I6
sVc
I5
sVro
p275
I0
sVm
I17
sVs
I2
ssg28
(dp276
Vinns
p277
I0
sV10w
p278
I0
sVnb
p279
I0
sVmaid
p280
I0
sVwb
p281
I0
sVbbmw
p282
I0
sV6s
p283
I0
sVbbmr
p284
I0
sVbbir
p285
I0
sVbbiw
p286
I0
sVa
V-
sVb
I0
sVe
V-
sVd
I0
sVwmaid
p287
I0
sV4w
p288
I0
sVm
I17
sV4s
p289
I0
sVr
I0
sVw
I0
sVsr
p290
V-
sVov
p291
V-
sV5w
p292
I0
ssg46
(dp293
Va
V18.30
p294
sVb
I213
sVinns
p295
I14
sVno
p296
I1
sVsr
p297
V111.73
p298
sVm
I17
sV4s
p299
I30
sV6s
p300
I2
sVhs
p301
V44
p302
sVr
V238
p303
sV100s
p304
I0
sV50s
p305
I0
ssg60
I2012
stp306
a(Vclt20-2012
(dp307
g24
(dp308
Vinns
p309
I1
sVc
I2
sVro
p310
I1
sVm
I4
sVs
I0
ssg28
(dp311
Vinns
p312
I0
sV10w
p313
I0
sVnb
p314
I0
sVmaid
p315
I0
sVwb
p316
I0
sVbbmw
p317
I0
sV6s
p318
I0
sVbbmr
p319
I0
sVbbir
p320
I0
sVbbiw
p321
I0
sVa
V-
sVb
I0
sVe
V-
sVd
I0
sVwmaid
p322
I0
sV4w
p323
I0
sVm
I4
sV4s
p324
I0
sVr
I0
sVw
I0
sVsr
p325
V-
sVov
p326
V-
sV5w
p327
I0
ssg46
(dp328
Va
V41.00
p329
sVb
I80
sVinns
p330
I4
sVno
p331
I1
sVsr
p332
V153.75
p333
sVm
I4
sV4s
p334
I10
sV6s
p335
I7
sVhs
p336
V74
p337
sVr
V123
p338
sV100s
p339
I0
sV50s
p340
I1
ssg60
I2012
stp341
a(Vipl2011
(dp342
g24
(dp343
Vinns
p344
I6
sVc
I7
sVro
p345
I0
sVm
I14
sVs
I0
ssg28
(dp346
Vinns
p347
I0
sV10w
p348
I0
sVnb
p349
I0
sVmaid
p350
I0
sVwb
p351
I0
sVbbmw
p352
I0
sV6s
p353
I0
sVbbmr
p354
I0
sVbbir
p355
I0
sVbbiw
p356
I0
sVa
V-
sVb
I0
sVe
V-
sVd
I0
sVwmaid
p357
I0
sV4w
p358
I0
sVm
I14
sV4s
p359
I0
sVr
I0
sVw
I0
sVsr
p360
V-
sVov
p361
V-
sV5w
p362
I0
ssg46
(dp363
Va
V25.63
p364
sVb
I220
sVinns
p365
I13
sVno
p366
I2
sVsr
p367
V128.18
p368
sVm
I14
sV4s
p369
I32
sV6s
p370
I7
sVhs
p371
V69
p372
sVr
V282
p373
sV100s
p374
I0
sV50s
p375
I1
ssg60
I2011
stp376
a(Vipl2010
(dp377
g24
(dp378
Vinns
p379
I8
sVc
I6
sVro
p380
I2
sVm
I14
sVs
I6
ssg28
(dp381
Vinns
p382
I0
sV10w
p383
I0
sVnb
p384
I0
sVmaid
p385
I0
sVwb
p386
I0
sVbbmw
p387
I0
sV6s
p388
I0
sVbbmr
p389
I0
sVbbir
p390
I0
sVbbiw
p391
I0
sVa
V-
sVb
I0
sVe
V-
sVd
I0
sVwmaid
p392
I0
sV4w
p393
I0
sVm
I14
sV4s
p394
I0
sVr
I0
sVw
I0
sVsr
p395
V-
sVov
p396
V-
sV5w
p397
I0
ssg46
(dp398
Va
V21.38
p399
sVb
I237
sVinns
p400
I14
sVno
p401
I1
sVsr
p402
V117.29
p403
sVm
I14
sV4s
p404
I26
sV6s
p405
I6
sVhs
p406
V69
p407
sVr
V278
p408
sV100s
p409
I0
sV50s
p410
I1
ssg60
I2010
stp411
a(Vclt20-2009
(dp412
g24
(dp413
Vinns
p414
I0
sVc
I0
sVro
p415
I0
sVm
I4
sVs
I0
ssg28
(dp416
Vinns
p417
I0
sV10w
p418
I0
sVnb
p419
I0
sVmaid
p420
I0
sVwb
p421
I0
sVbbmw
p422
I0
sV6s
p423
I0
sVbbmr
p424
I0
sVbbir
p425
I0
sVbbiw
p426
I0
sVa
V-
sVb
I0
sVe
V-
sVd
I0
sVwmaid
p427
I0
sV4w
p428
I0
sVm
I4
sV4s
p429
I0
sVr
I0
sVw
I0
sVsr
p430
V-
sVov
p431
V-
sV5w
p432
I0
ssg46
(dp433
Va
V23.00
p434
sVb
I76
sVinns
p435
I4
sVno
p436
I0
sVsr
p437
V121.05
p438
sVm
I4
sV4s
p439
I9
sV6s
p440
I3
sVhs
p441
V61
p442
sVr
V92
p443
sV100s
p444
I0
sV50s
p445
I1
ssg60
I2009
stp446
a(Vipl2009
(dp447
g24
(dp448
Vinns
p449
I12
sVc
I12
sVro
p450
I3
sVm
I15
sVs
I5
ssg28
(dp451
Vinns
p452
I0
sV10w
p453
I0
sVnb
p454
I0
sVmaid
p455
I0
sVwb
p456
I0
sVbbmw
p457
I0
sV6s
p458
I0
sVbbmr
p459
I0
sVbbir
p460
I0
sVbbiw
p461
I0
sVa
V-
sVb
I0
sVe
V-
sVd
I0
sVwmaid
p462
I0
sV4w
p463
I0
sVm
I15
sV4s
p464
I0
sVr
I0
sVw
I0
sVsr
p465
V-
sVov
p466
V-
sV5w
p467
I0
ssg46
(dp468
Va
V36.00
p469
sVb
I217
sVinns
p470
I13
sVno
p471
I5
sVsr
p472
V132.71
p473
sVm
I15
sV4s
p474
I20
sV6s
p475
I9
sVhs
p476
V52
p477
sVr
V288
p478
sV100s
p479
I0
sV50s
p480
I1
ssg60
I2009
stp481
a(Vipl2008
(dp482
g24
(dp483
Vinns
p484
I6
sVc
I6
sVro
p485
I1
sVm
I13
sVs
I2
ssg28
(dp486
Vinns
p487
I0
sV10w
p488
I0
sVnb
p489
I0
sVmaid
p490
I0
sVwb
p491
I0
sVbbmw
p492
I0
sV6s
p493
I0
sVbbmr
p494
I0
sVbbir
p495
I0
sVbbiw
p496
I0
sVa
V-
sVb
I0
sVe
V-
sVd
I0
sVwmaid
p497
I0
sV4w
p498
I0
sVm
I13
sV4s
p499
I0
sVr
I0
sVw
I0
sVsr
p500
V-
sVov
p501
V-
sV5w
p502
I0
ssg46
(dp503
Va
V24.16
p504
sVb
I107
sVinns
p505
I8
sVno
p506
I2
sVsr
p507
V135.51
p508
sVm
I13
sV4s
p509
I13
sV6s
p510
I4
sVhs
p511
V56*
p512
sVr
V145
p513
sV100s
p514
I0
sV50s
p515
I1
ssg60
I2008
stp516
asb.