(iplayer
Player
p1
(dp2
S'is_batsman'
p3
I01
sS'name'
p4
S'Srikkanth Anirudha'
p5
sS'dob'
p6
S'1987/04/14'
p7
sS'price'
p8
S'750000'
p9
sS'is_allrounder'
p10
I00
sS'is_overseas'
p11
I00
sS'team'
p12
S'SRH'
p13
sS'nationality'
p14
S'Indian'
p15
sS'is_bowler'
p16
I00
sS'is_keeper'
p17
I00
sS'id'
p18
S'11'
p19
sS'is_uncapped'
p20
I01
sS'tournamentStats'
p21
(lp22
(Vipl2013
p23
(dp24
S'fieldingStats'
p25
(dp26
Vinns
p27
I0
sVc
I0
sVro
p28
I0
sVm
I1
sVs
I0
ssS'bowlingStats'
p29
(dp30
Vinns
p31
I0
sV10w
p32
I0
sVnb
p33
I0
sVmaid
p34
I0
sVwb
p35
I0
sVbbmw
p36
I0
sV6s
p37
I0
sVbbmr
p38
I0
sVbbir
p39
I0
sVbbiw
p40
I0
sVa
V-
sVb
I0
sVe
V-
sVd
I0
sVwmaid
p41
I0
sV4w
p42
I0
sVm
I1
sV4s
p43
I0
sVr
I0
sVw
I0
sVsr
p44
V-
sVov
p45
V-
sV5w
p46
I0
ssS'battingStats'
p47
(dp48
Va
V0.00
p49
sVb
I2
sVinns
p50
I1
sVno
p51
I0
sVsr
p52
V0.00
p53
sVm
I1
sV4s
p54
I0
sV6s
p55
I0
sVhs
p56
V0*
p57
sVr
V0
sV100s
p58
I0
sV50s
p59
I0
ssS'year'
p60
I2013
stp61
a(Vipl2012
(dp62
g25
(dp63
Vinns
p64
I0
sVc
I0
sVro
p65
I0
sVm
I4
sVs
I0
ssg29
(dp66
Vinns
p67
I0
sV10w
p68
I0
sVnb
p69
I0
sVmaid
p70
I0
sVwb
p71
I0
sVbbmw
p72
I0
sV6s
p73
I0
sVbbmr
p74
I0
sVbbir
p75
I0
sVbbiw
p76
I0
sVa
V-
sVb
I0
sVe
V-
sVd
I0
sVwmaid
p77
I0
sV4w
p78
I0
sVm
I4
sV4s
p79
I0
sVr
I0
sVw
I0
sVsr
p80
V-
sVov
p81
V-
sV5w
p82
I0
ssg47
(dp83
Va
V-
sVb
I7
sVinns
p84
I2
sVno
p85
I2
sVsr
p86
V271.42
p87
sVm
I4
sV4s
p88
I1
sV6s
p89
I2
sVhs
p90
V18*
p91
sVr
V19
p92
sV100s
p93
I0
sV50s
p94
I0
ssg60
I2012
stp95
a(Vipl2011
(dp96
g25
(dp97
Vinns
p98
I5
sVc
I8
sVro
p99
I1
sVm
I9
sVs
I0
ssg29
(dp100
Vinns
p101
I0
sV10w
p102
I0
sVnb
p103
I0
sVmaid
p104
I0
sVwb
p105
I0
sVbbmw
p106
I0
sV6s
p107
I0
sVbbmr
p108
I0
sVbbir
p109
I0
sVbbiw
p110
I0
sVa
V-
sVb
I0
sVe
V-
sVd
I0
sVwmaid
p111
I0
sV4w
p112
I0
sVm
I9
sV4s
p113
I0
sVr
I0
sVw
I0
sVsr
p114
V-
sVov
p115
V-
sV5w
p116
I0
ssg47
(dp117
Va
V20.75
p118
sVb
I74
sVinns
p119
I5
sVno
p120
I1
sVsr
p121
V112.16
p122
sVm
I9
sV4s
p123
I6
sV6s
p124
I3
sVhs
p125
V64
p126
sVr
V83
p127
sV100s
p128
I0
sV50s
p129
I1
ssg60
I2011
stp130
a(Vclt20-2010
(dp131
g25
(dp132
Vinns
p133
I3
sVc
I5
sVro
p134
I0
sVm
I6
sVs
I0
ssg29
(dp135
Vinns
p136
I0
sV10w
p137
I0
sVnb
p138
I0
sVmaid
p139
I0
sVwb
p140
I0
sVbbmw
p141
I0
sV6s
p142
I0
sVbbmr
p143
I0
sVbbir
p144
I0
sVbbiw
p145
I0
sVa
V-
sVb
I0
sVe
V-
sVd
I0
sVwmaid
p146
I0
sV4w
p147
I0
sVm
I6
sV4s
p148
I0
sVr
I0
sVw
I0
sVsr
p149
V-
sVov
p150
V-
sV5w
p151
I0
ssg47
(dp152
Va
V17.00
p153
sVb
I45
sVinns
p154
I4
sVno
p155
I1
sVsr
p156
V113.33
p157
sVm
I6
sV4s
p158
I5
sV6s
p159
I1
sVhs
p160
V42
p161
sVr
V51
p162
sV100s
p163
I0
sV50s
p164
I0
ssg60
I2010
stp165
a(Vipl2010
(dp166
g25
(dp167
Vinns
p168
I2
sVc
I3
sVro
p169
I0
sVm
I4
sVs
I0
ssg29
(dp170
Vinns
p171
I0
sV10w
p172
I0
sVnb
p173
I0
sVmaid
p174
I0
sVwb
p175
I0
sVbbmw
p176
I0
sV6s
p177
I0
sVbbmr
p178
I0
sVbbir
p179
I0
sVbbiw
p180
I0
sVa
V-
sVb
I0
sVe
V-
sVd
I0
sVwmaid
p181
I0
sV4w
p182
I0
sVm
I4
sV4s
p183
I0
sVr
I0
sVw
I0
sVsr
p184
V-
sVov
p185
V-
sV5w
p186
I0
ssg47
(dp187
Va
V30.00
p188
sVb
I18
sVinns
p189
I3
sVno
p190
I2
sVsr
p191
V166.66
p192
sVm
I4
sV4s
p193
I2
sV6s
p194
I2
sVhs
p195
V24
p196
sVr
V30
p197
sV100s
p198
I0
sV50s
p199
I0
ssg60
I2010
stp200
a(Vipl2008
(dp201
g25
(dp202
Vinns
p203
I0
sVc
I0
sVro
p204
I0
sVm
I1
sVs
I0
ssg29
(dp205
Vinns
p206
I0
sV10w
p207
I0
sVnb
p208
I0
sVmaid
p209
I0
sVwb
p210
I0
sVbbmw
p211
I0
sV6s
p212
I0
sVbbmr
p213
I0
sVbbir
p214
I0
sVbbiw
p215
I0
sVa
V-
sVb
I0
sVe
V-
sVd
I0
sVwmaid
p216
I0
sV4w
p217
I0
sVm
I1
sV4s
p218
I0
sVr
I0
sVw
I0
sVsr
p219
V-
sVov
p220
V-
sV5w
p221
I0
ssg47
(dp222
Va
V1.00
p223
sVb
I7
sVinns
p224
I1
sVno
p225
I0
sVsr
p226
V14.28
p227
sVm
I1
sV4s
p228
I0
sV6s
p229
I0
sVhs
p230
V1
sVr
V1
sV100s
p231
I0
sV50s
p232
I0
ssg60
I2008
stp233
asb.