(iplayer
Player
p1
(dp2
S'is_batsman'
p3
I00
sS'name'
p4
S'MS Dhoni'
p5
sS'dob'
p6
S'1981/07/07'
p7
sS'price'
p8
S'1050000'
p9
sS'is_allrounder'
p10
I00
sS'is_overseas'
p11
I00
sS'team'
p12
S'CSK'
p13
sS'nationality'
p14
S'Indian'
p15
sS'is_bowler'
p16
I00
sS'is_keeper'
p17
I01
sS'id'
p18
S'1'
sS'is_uncapped'
p19
I00
sS'tournamentStats'
p20
(lp21
(Vnz-ind-2014
(dp22
S'fieldingStats'
p23
(dp24
Vinns
p25
I5
sVc
I11
sVro
p26
I0
sVm
I7
sVs
I1
ssS'bowlingStats'
p27
(dp28
Vinns
p29
I1
sV10w
p30
I0
sVnb
p31
I0
sVmaid
p32
I0
sVwb
p33
I0
sVbbmw
p34
I0
sV6s
p35
I0
sVbbmr
p36
I0
sVbbir
p37
I5
sVbbiw
p38
I0
sVa
V-
sVb
I6
sVe
V5.00
p39
sVd
I2
sVwmaid
p40
I0
sV4w
p41
I0
sVm
I7
sV4s
p42
I0
sVr
I5
sVw
I0
sVsr
p43
V-
sVov
p44
V1.00
p45
sV5w
p46
I0
ssS'battingStats'
p47
(dp48
Va
V55.57
p49
sVb
I450
sVinns
p50
I8
sVno
p51
I1
sVsr
p52
V86.44
p53
sVm
I7
sV4s
p54
I36
sV6s
p55
I10
sVhs
p56
V79*
p57
sVr
V389
p58
sV100s
p59
I0
sV50s
p60
I4
ssS'year'
p61
I2014
stp62
a(Vworldt20-2014
(dp63
g23
(dp64
Vinns
p65
I2
sVc
I0
sVro
p66
I0
sVm
I2
sVs
I2
ssg27
(dp67
Vinns
p68
I0
sV10w
p69
I0
sVnb
p70
I0
sVmaid
p71
I0
sVwb
p72
I0
sVbbmw
p73
I0
sV6s
p74
I0
sVbbmr
p75
I0
sVbbir
p76
I0
sVbbiw
p77
I0
sVa
V-
sVb
I0
sVe
V-
sVd
I0
sVwmaid
p78
I0
sV4w
p79
I0
sVm
I2
sV4s
p80
I0
sVr
I0
sVw
I0
sVsr
p81
V-
sVov
p82
V-
sV5w
p83
I0
ssg47
(dp84
Va
V-
sVinns
p85
I0
sVno
p86
I0
sVsr
p87
V-
sVm
I2
sV4s
p88
I0
sV6s
p89
I0
sVhs
p90
V0*
p91
sVr
V0
sV100s
p92
I0
sV50s
p93
I0
ssg61
I2014
stp94
a(Vtriseries-wi-2013
(dp95
g23
(dp96
Vinns
p97
I1
sVc
I1
sVro
p98
I0
sVm
I2
sVs
I3
ssg27
(dp99
Vinns
p100
I0
sV10w
p101
I0
sVnb
p102
I0
sVmaid
p103
I0
sVwb
p104
I0
sVbbmw
p105
I0
sV6s
p106
I0
sVbbmr
p107
I0
sVbbir
p108
I0
sVbbiw
p109
I0
sVa
V-
sVb
I0
sVe
V-
sVd
I0
sVwmaid
p110
I0
sV4w
p111
I0
sVm
I2
sV4s
p112
I0
sVr
I0
sVw
I0
sVsr
p113
V-
sVov
p114
V-
sV5w
p115
I0
ssg47
(dp116
Va
V72.00
p117
sVb
I87
sVinns
p118
I2
sVno
p119
I1
sVsr
p120
V82.75
p121
sVm
I2
sV4s
p122
I6
sV6s
p123
I2
sVhs
p124
V45*
p125
sVr
V72
p126
sV100s
p127
I0
sV50s
p128
I0
ssg61
I2013
stp129
a(Vind-aus-2-2013
(dp130
g23
(dp131
Vinns
p132
I4
sVc
I4
sVro
p133
I0
sVm
I7
sVs
I1
ssg27
(dp134
Vinns
p135
I0
sV10w
p136
I0
sVnb
p137
I0
sVmaid
p138
I0
sVwb
p139
I0
sVbbmw
p140
I0
sV6s
p141
I0
sVbbmr
p142
I0
sVbbir
p143
I0
sVbbiw
p144
I0
sVa
V-
sVb
I0
sVe
V-
sVd
I0
sVwmaid
p145
I0
sV4w
p146
I0
sVm
I7
sV4s
p147
I0
sVr
I0
sVw
I0
sVsr
p148
V-
sVov
p149
V-
sV5w
p150
I0
ssg47
(dp151
Va
V134.50
p152
sVb
I225
sVinns
p153
I5
sVno
p154
I3
sVsr
p155
V119.55
p156
sVm
I7
sV4s
p157
I25
sV6s
p158
I7
sVhs
p159
V139*
p160
sVr
V269
p161
sV100s
p162
I1
sV50s
p163
I1
ssg61
I2013
stp164
a(Vipl2013
(dp165
g23
(dp166
Vinns
p167
I11
sVc
I15
sVro
p168
I2
sVm
I18
sVs
I2
ssg27
(dp169
Vinns
p170
I0
sV10w
p171
I0
sVnb
p172
I0
sVmaid
p173
I0
sVwb
p174
I0
sVbbmw
p175
I0
sV6s
p176
I0
sVbbmr
p177
I0
sVbbir
p178
I0
sVbbiw
p179
I0
sVa
V-
sVb
I0
sVe
V-
sVd
I0
sVwmaid
p180
I0
sV4w
p181
I0
sVm
I18
sV4s
p182
I0
sVr
I0
sVw
I0
sVsr
p183
V-
sVov
p184
V-
sV5w
p185
I0
ssg47
(dp186
Va
V41.90
p187
sVb
I283
sVinns
p188
I16
sVno
p189
I5
sVsr
p190
V162.89
p191
sVm
I18
sV4s
p192
I32
sV6s
p193
I25
sVhs
p194
V67*
p195
sVr
V461
p196
sV100s
p197
I0
sV50s
p198
I4
ssg61
I2013
stp199
a(Vclt20-2013
(dp200
g23
(dp201
Vinns
p202
I2
sVc
I2
sVro
p203
I0
sVm
I5
sVs
I1
ssg27
(dp204
Vinns
p205
I0
sV10w
p206
I0
sVnb
p207
I0
sVmaid
p208
I0
sVwb
p209
I0
sVbbmw
p210
I0
sV6s
p211
I0
sVbbmr
p212
I0
sVbbir
p213
I0
sVbbiw
p214
I0
sVa
V-
sVb
I0
sVe
V-
sVd
I0
sVwmaid
p215
I0
sV4w
p216
I0
sVm
I5
sV4s
p217
I0
sVr
I0
sVw
I0
sVsr
p218
V-
sVov
p219
V-
sV5w
p220
I0
ssg47
(dp221
Va
V37.00
p222
sVb
I64
sVinns
p223
I5
sVno
p224
I2
sVsr
p225
V173.43
p226
sVm
I5
sV4s
p227
I4
sV6s
p228
I10
sVhs
p229
V63*
p230
sVr
V111
p231
sV100s
p232
I0
sV50s
p233
I1
ssg61
I2013
stp234
a(Vchamptrophy-2013-warmups
(dp235
g23
(dp236
Vinns
p237
I2
sVc
I2
sVro
p238
I0
sVm
I2
sVs
I0
ssg27
(dp239
Vinns
p240
I0
sV10w
p241
I0
sVnb
p242
I0
sVmaid
p243
I0
sVwb
p244
I0
sVbbmw
p245
I0
sV6s
p246
I0
sVbbmr
p247
I0
sVbbir
p248
I0
sVbbiw
p249
I0
sVa
V-
sVb
I0
sVe
V-
sVd
I0
sVwmaid
p250
I0
sV4w
p251
I0
sVm
I2
sV4s
p252
I0
sVr
I0
sVw
I0
sVsr
p253
V-
sVov
p254
V-
sV5w
p255
I0
ssg47
(dp256
Va
V109.00
p257
sVb
I94
sVinns
p258
I2
sVno
p259
I1
sVsr
p260
V115.95
p261
sVm
I2
sV4s
p262
I8
sV6s
p263
I4
sVhs
p264
V91
p265
sVr
V109
p266
sV100s
p267
I0
sV50s
p268
I1
ssg61
I2013
stp269
a(Vsa-ind-2013
(dp270
g23
(dp271
Vinns
p272
I3
sVc
I4
sVro
p273
I0
sVm
I5
sVs
I1
ssg27
(dp274
Vinns
p275
I1
sV10w
p276
I0
sVnb
p277
I0
sVmaid
p278
I0
sVwb
p279
I0
sVbbmw
p280
I0
sV6s
p281
I0
sVbbmr
p282
I0
sVbbir
p283
I0
sVbbiw
p284
I0
sVa
V-
sVb
I12
sVe
V2.00
p285
sVd
I8
sVwmaid
p286
I0
sV4w
p287
I0
sVm
I5
sV4s
p288
I0
sVr
I4
sVw
I0
sVsr
p289
V-
sVov
p290
V2.00
p291
sV5w
p292
I0
ssg47
(dp293
Va
V28.50
p294
sVb
I287
sVinns
p295
I6
sVno
p296
I0
sVsr
p297
V59.58
p298
sVm
I5
sV4s
p299
I19
sV6s
p300
I1
sVhs
p301
V65
p302
sVr
V171
p303
sV100s
p304
I0
sV50s
p305
I1
ssg61
I2013
stp306
a(Vind-aus-2013
(dp307
g23
(dp308
Vinns
p309
I7
sVc
I9
sVro
p310
I0
sVm
I4
sVs
I5
ssg27
(dp311
Vinns
p312
I0
sV10w
p313
I0
sVnb
p314
I0
sVmaid
p315
I0
sVwb
p316
I0
sVbbmw
p317
I0
sV6s
p318
I0
sVbbmr
p319
I0
sVbbir
p320
I0
sVbbiw
p321
I0
sVa
V-
sVb
I0
sVe
V-
sVd
I0
sVwmaid
p322
I0
sV4w
p323
I0
sVm
I4
sV4s
p324
I0
sVr
I0
sVw
I0
sVsr
p325
V-
sVov
p326
V-
sV5w
p327
I0
ssg47
(dp328
Va
V81.50
p329
sVb
I376
sVinns
p330
I6
sVno
p331
I2
sVsr
p332
V86.70
p333
sVm
I4
sV4s
p334
I40
sV6s
p335
I6
sVhs
p336
V224
p337
sVr
V326
p338
sV100s
p339
I1
sV50s
p340
I0
ssg61
I2013
stp341
a(Vind-wi-2013
(dp342
g23
(dp343
Vinns
p344
I6
sVc
I8
sVro
p345
I1
sVm
I5
sVs
I3
ssg27
(dp346
Vinns
p347
I0
sV10w
p348
I0
sVnb
p349
I0
sVmaid
p350
I0
sVwb
p351
I0
sVbbmw
p352
I0
sV6s
p353
I0
sVbbmr
p354
I0
sVbbir
p355
I0
sVbbiw
p356
I0
sVa
V-
sVb
I0
sVe
V-
sVd
I0
sVwmaid
p357
I0
sV4w
p358
I0
sVm
I5
sV4s
p359
I0
sVr
I0
sVw
I0
sVsr
p360
V-
sVov
p361
V-
sV5w
p362
I0
ssg47
(dp363
Va
V66.50
p364
sVb
I143
sVinns
p365
I5
sVno
p366
I3
sVsr
p367
V93.00
p368
sVm
I5
sV4s
p369
I14
sV6s
p370
I4
sVhs
p371
V51*
p372
sVr
V133
p373
sV100s
p374
I0
sV50s
p375
I1
ssg61
I2013
stp376
a(Vchamptrophy-2013
p377
(dp378
g23
(dp379
Vinns
p380
I5
sVc
I5
sVro
p381
I0
sVm
I5
sVs
I4
ssg27
(dp382
Vinns
p383
I1
sV10w
p384
I0
sVnb
p385
I0
sVmaid
p386
I0
sVwb
p387
I1
sVbbmw
p388
I0
sV6s
p389
I0
sVbbmr
p390
I0
sVbbir
p391
I0
sVbbiw
p392
I0
sVa
V-
sVb
I24
sVe
V4.25
p393
sVd
I12
sVwmaid
p394
I0
sV4w
p395
I0
sVm
I5
sV4s
p396
I1
sVr
I17
sVw
I0
sVsr
p397
V-
sVov
p398
V4.00
p399
sV5w
p400
I0
ssg47
(dp401
Va
V13.50
p402
sVb
I30
sVinns
p403
I2
sVno
p404
I0
sVsr
p405
V90.00
p406
sVm
I5
sV4s
p407
I3
sV6s
p408
I0
sVhs
p409
V27
p410
sVr
V27
p411
sV100s
p412
I0
sV50s
p413
I0
ssg61
I2013
stp414
a(Vipl2012
(dp415
g23
(dp416
Vinns
p417
I10
sVc
I12
sVro
p418
I3
sVm
I19
sVs
I2
ssg27
(dp419
Vinns
p420
I0
sV10w
p421
I0
sVnb
p422
I0
sVmaid
p423
I0
sVwb
p424
I0
sVbbmw
p425
I0
sV6s
p426
I0
sVbbmr
p427
I0
sVbbir
p428
I0
sVbbiw
p429
I0
sVa
V-
sVb
I0
sVe
V-
sVd
I0
sVwmaid
p430
I0
sV4w
p431
I0
sVm
I19
sV4s
p432
I0
sVr
I0
sVw
I0
sVsr
p433
V-
sVov
p434
V-
sV5w
p435
I0
ssg47
(dp436
Va
V29.83
p437
sVb
I278
sVinns
p438
I17
sVno
p439
I5
sVsr
p440
V128.77
p441
sVm
I19
sV4s
p442
I26
sV6s
p443
I9
sVhs
p444
V51*
p445
sVr
V358
p446
sV100s
p447
I0
sV50s
p448
I1
ssg61
I2012
stp449
a(Vpre-worldt20-2012
(dp450
g23
(dp451
Vinns
p452
I0
sVc
I0
sVro
p453
I0
sVm
I2
sVs
I0
ssg27
(dp454
Vinns
p455
I0
sV10w
p456
I0
sVnb
p457
I0
sVmaid
p458
I0
sVwb
p459
I0
sVbbmw
p460
I0
sV6s
p461
I0
sVbbmr
p462
I0
sVbbir
p463
I0
sVbbiw
p464
I0
sVa
V-
sVb
I0
sVe
V-
sVd
I0
sVwmaid
p465
I0
sV4w
p466
I0
sVm
I2
sV4s
p467
I0
sVr
I0
sVw
I0
sVsr
p468
V-
sVov
p469
V-
sV5w
p470
I0
ssg47
(dp471
Va
V-
sVb
I23
sVinns
p472
I1
sVno
p473
I1
sVsr
p474
V95.65
p475
sVm
I2
sV4s
p476
I2
sV6s
p477
I0
sVhs
p478
V22*
p479
sVr
V22
p480
sV100s
p481
I0
sV50s
p482
I0
ssg61
I2012
stp483
a(Vind-eng-2012-13
(dp484
g23
(dp485
Vinns
p486
I9
sVc
I15
sVro
p487
I1
sVm
I11
sVs
I2
ssg27
(dp488
Vinns
p489
I0
sV10w
p490
I0
sVnb
p491
I0
sVmaid
p492
I0
sVwb
p493
I0
sVbbmw
p494
I0
sV6s
p495
I0
sVbbmr
p496
I0
sVbbir
p497
I0
sVbbiw
p498
I0
sVa
V-
sVb
I0
sVe
V-
sVd
I0
sVwmaid
p499
I0
sV4w
p500
I0
sVm
I11
sV4s
p501
I0
sVr
I0
sVw
I0
sVsr
p502
V-
sVov
p503
V-
sV5w
p504
I0
ssg47
(dp505
Va
V36.45
p506
sVb
I667
sVinns
p507
I13
sVno
p508
I2
sVsr
p509
V60.11
p510
sVm
I11
sV4s
p511
I35
sV6s
p512
I11
sVhs
p513
V99
p514
sVr
V401
p515
sV100s
p516
I0
sV50s
p517
I3
ssg61
I2012
stp518
a(Vind-pak-2012-13
(dp519
g23
(dp520
Vinns
p521
I4
sVc
I2
sVro
p522
I1
sVm
I5
sVs
I3
ssg27
(dp523
Vinns
p524
I0
sV10w
p525
I0
sVnb
p526
I0
sVmaid
p527
I0
sVwb
p528
I0
sVbbmw
p529
I0
sV6s
p530
I0
sVbbmr
p531
I0
sVbbir
p532
I0
sVbbiw
p533
I0
sVa
V-
sVb
I0
sVe
V-
sVd
I0
sVwmaid
p534
I0
sV4w
p535
I0
sVm
I5
sV4s
p536
I0
sVr
I0
sVw
I0
sVsr
p537
V-
sVov
p538
V-
sV5w
p539
I0
ssg47
(dp540
Va
V79.00
p541
sVb
I294
sVinns
p542
I5
sVno
p543
I2
sVsr
p544
V80.61
p545
sVm
I5
sV4s
p546
I16
sV6s
p547
I7
sVhs
p548
V113*
p549
sVr
V237
p550
sV100s
p551
I1
sV50s
p552
I1
ssg61
I2012
stp553
a(Vworldt20-2012
(dp554
g23
(dp555
Vinns
p556
I4
sVc
I8
sVro
p557
I1
sVm
I7
sVs
I1
ssg27
(dp558
Vinns
p559
I0
sV10w
p560
I0
sVnb
p561
I0
sVmaid
p562
I0
sVwb
p563
I0
sVbbmw
p564
I0
sV6s
p565
I0
sVbbmr
p566
I0
sVbbir
p567
I0
sVbbiw
p568
I0
sVa
V-
sVb
I0
sVe
V-
sVd
I0
sVwmaid
p569
I0
sV4w
p570
I0
sVm
I7
sV4s
p571
I0
sVr
I0
sVw
I0
sVsr
p572
V-
sVov
p573
V-
sV5w
p574
I0
ssg47
(dp575
Va
V60.00
p576
sVb
I93
sVinns
p577
I5
sVno
p578
I3
sVsr
p579
V129.03
p580
sVm
I7
sV4s
p581
I12
sV6s
p582
I4
sVhs
p583
V55*
p584
sVr
V120
p585
sV100s
p586
I0
sV50s
p587
I1
ssg61
I2012
stp588
a(Vclt20-2012
(dp589
g23
(dp590
Vinns
p591
I1
sVc
I2
sVro
p592
I0
sVm
I4
sVs
I0
ssg27
(dp593
Vinns
p594
I1
sV10w
p595
I0
sVnb
p596
I0
sVmaid
p597
I0
sVwb
p598
I2
sVbbmw
p599
I0
sV6s
p600
I2
sVbbmr
p601
I0
sVbbir
p602
I25
sVbbiw
p603
I0
sVa
V-
sVb
I12
sVe
V12.50
p604
sVd
I1
sVwmaid
p605
I0
sV4w
p606
I0
sVm
I4
sV4s
p607
I0
sVr
I25
sVw
I0
sVsr
p608
V-
sVov
p609
V2.00
p610
sV5w
p611
I0
ssg47
(dp612
Va
V27.00
p613
sVb
I76
sVinns
p614
I4
sVno
p615
I0
sVsr
p616
V142.10
p617
sVm
I4
sV4s
p618
I8
sV6s
p619
I6
sVhs
p620
V35
p621
sVr
V108
p622
sV100s
p623
I0
sV50s
p624
I0
ssg61
I2012
stp625
a(Vclt20-2011
(dp626
g23
(dp627
Vinns
p628
I2
sVc
I3
sVro
p629
I0
sVm
I4
sVs
I2
ssg27
(dp630
Vinns
p631
I0
sV10w
p632
I0
sVnb
p633
I0
sVmaid
p634
I0
sVwb
p635
I0
sVbbmw
p636
I0
sV6s
p637
I0
sVbbmr
p638
I0
sVbbir
p639
I0
sVbbiw
p640
I0
sVa
V-
sVb
I0
sVe
V-
sVd
I0
sVwmaid
p641
I0
sV4w
p642
I0
sVm
I4
sV4s
p643
I0
sVr
I0
sVw
I0
sVsr
p644
V-
sVov
p645
V-
sV5w
p646
I0
ssg47
(dp647
Va
V15.33
p648
sVb
I56
sVinns
p649
I4
sVno
p650
I1
sVsr
p651
V82.14
p652
sVm
I4
sV4s
p653
I3
sV6s
p654
I0
sVhs
p655
V22*
p656
sVr
V46
p657
sV100s
p658
I0
sV50s
p659
I0
ssg61
I2011
stp660
a(Vipl2011
(dp661
g23
(dp662
Vinns
p663
I9
sVc
I5
sVro
p664
I4
sVm
I16
sVs
I5
ssg27
(dp665
Vinns
p666
I0
sV10w
p667
I0
sVnb
p668
I0
sVmaid
p669
I0
sVwb
p670
I0
sVbbmw
p671
I0
sV6s
p672
I0
sVbbmr
p673
I0
sVbbir
p674
I0
sVbbiw
p675
I0
sVa
V-
sVb
I0
sVe
V-
sVd
I0
sVwmaid
p676
I0
sV4w
p677
I0
sVm
I16
sV4s
p678
I0
sVr
I0
sVw
I0
sVsr
p679
V-
sVov
p680
V-
sV5w
p681
I0
ssg47
(dp682
Va
V43.55
p683
sVb
I247
sVinns
p684
I13
sVno
p685
I4
sVsr
p686
V158.70
p687
sVm
I16
sV4s
p688
I25
sV6s
p689
I23
sVhs
p690
V70*
p691
sVr
V392
p692
sV100s
p693
I0
sV50s
p694
I2
ssg61
I2011
stp695
a(Vclt20-2010
(dp696
g23
(dp697
Vinns
p698
I4
sVc
I5
sVro
p699
I2
sVm
I6
sVs
I6
ssg27
(dp700
Vinns
p701
I0
sV10w
p702
I0
sVnb
p703
I0
sVmaid
p704
I0
sVwb
p705
I0
sVbbmw
p706
I0
sV6s
p707
I0
sVbbmr
p708
I0
sVbbir
p709
I0
sVbbiw
p710
I0
sVa
V-
sVb
I0
sVe
V-
sVd
I0
sVwmaid
p711
I0
sV4w
p712
I0
sVm
I6
sV4s
p713
I0
sVr
I0
sVw
I0
sVsr
p714
V-
sVov
p715
V-
sV5w
p716
I0
ssg47
(dp717
Va
V45.50
p718
sVb
I70
sVinns
p719
I5
sVno
p720
I3
sVsr
p721
V130.00
p722
sVm
I6
sV4s
p723
I9
sV6s
p724
I2
sVhs
p725
V31*
p726
sVr
V91
p727
sV100s
p728
I0
sV50s
p729
I0
ssg61
I2010
stp730
a(Vipl2010
(dp731
g23
(dp732
Vinns
p733
I9
sVc
I5
sVro
p734
I2
sVm
I13
sVs
I6
ssg27
(dp735
Vinns
p736
I0
sV10w
p737
I0
sVnb
p738
I0
sVmaid
p739
I0
sVwb
p740
I0
sVbbmw
p741
I0
sV6s
p742
I0
sVbbmr
p743
I0
sVbbir
p744
I0
sVbbiw
p745
I0
sVa
V-
sVb
I0
sVe
V-
sVd
I0
sVwmaid
p746
I0
sV4w
p747
I0
sVm
I13
sV4s
p748
I0
sVr
I0
sVw
I0
sVsr
p749
V-
sVov
p750
V-
sV5w
p751
I0
ssg47
(dp752
Va
V31.88
p753
sVb
I210
sVinns
p754
I11
sVno
p755
I2
sVsr
p756
V136.66
p757
sVm
I13
sV4s
p758
I26
sV6s
p759
I8
sVhs
p760
V66*
p761
sVr
V287
p762
sV100s
p763
I0
sV50s
p764
I2
ssg61
I2010
stp765
a(Vipl2009
(dp766
g23
(dp767
Vinns
p768
I7
sVc
I4
sVro
p769
I0
sVm
I14
sVs
I4
ssg27
(dp770
Vinns
p771
I0
sV10w
p772
I0
sVnb
p773
I0
sVmaid
p774
I0
sVwb
p775
I0
sVbbmw
p776
I0
sV6s
p777
I0
sVbbmr
p778
I0
sVbbir
p779
I0
sVbbiw
p780
I0
sVa
V-
sVb
I0
sVe
V-
sVd
I0
sVwmaid
p781
I0
sV4w
p782
I0
sVm
I14
sV4s
p783
I0
sVr
I0
sVw
I0
sVsr
p784
V-
sVov
p785
V-
sV5w
p786
I0
ssg47
(dp787
Va
V41.50
p788
sVb
I261
sVinns
p789
I13
sVno
p790
I5
sVsr
p791
V127.20
p792
sVm
I14
sV4s
p793
I22
sV6s
p794
I9
sVhs
p795
V58*
p796
sVr
V332
p797
sV100s
p798
I0
sV50s
p799
I2
ssg61
I2009
stp800
a(Vipl2008
(dp801
g23
(dp802
Vinns
p803
I6
sVc
I6
sVro
p804
I2
sVm
I16
sVs
I0
ssg27
(dp805
Vinns
p806
I0
sV10w
p807
I0
sVnb
p808
I0
sVmaid
p809
I0
sVwb
p810
I0
sVbbmw
p811
I0
sV6s
p812
I0
sVbbmr
p813
I0
sVbbir
p814
I0
sVbbiw
p815
I0
sVa
V-
sVb
I0
sVe
V-
sVd
I0
sVwmaid
p816
I0
sV4w
p817
I0
sVm
I16
sV4s
p818
I0
sVr
I0
sVw
I0
sVsr
p819
V-
sVov
p820
V-
sV5w
p821
I0
ssg47
(dp822
Va
V41.40
p823
sVb
I310
sVinns
p824
I14
sVno
p825
I4
sVsr
p826
V133.54
p827
sVm
I16
sV4s
p828
I38
sV6s
p829
I15
sVhs
p830
V65
p831
sVr
V414
p832
sV100s
p833
I0
sV50s
p834
I2
ssg61
I2008
stp835
asb.