(iplayer
Player
p1
(dp2
S'is_batsman'
p3
I01
sS'name'
p4
S'Venugopal Rao'
p5
sS'dob'
p6
S'1982/02/26'
p7
sS'price'
p8
S'800000'
p9
sS'is_allrounder'
p10
I01
sS'is_overseas'
p11
I00
sS'team'
p12
S'SRH'
p13
sS'nationality'
p14
S'Indian'
p15
sS'is_bowler'
p16
I00
sS'is_keeper'
p17
I00
sS'id'
p18
S'62'
p19
sS'is_uncapped'
p20
I00
sS'tournamentStats'
p21
(lp22
(Vipl2013
p23
(dp24
S'fieldingStats'
p25
(dp26
Vinns
p27
I0
sVc
I0
sVro
p28
I0
sVm
I1
sVs
I0
ssS'bowlingStats'
p29
(dp30
Vinns
p31
I0
sV10w
p32
I0
sVnb
p33
I0
sVmaid
p34
I0
sVwb
p35
I0
sVbbmw
p36
I0
sV6s
p37
I0
sVbbmr
p38
I0
sVbbir
p39
I0
sVbbiw
p40
I0
sVa
V-
sVb
I0
sVe
V-
sVd
I0
sVwmaid
p41
I0
sV4w
p42
I0
sVm
I1
sV4s
p43
I0
sVr
I0
sVw
I0
sVsr
p44
V-
sVov
p45
V-
sV5w
p46
I0
ssS'battingStats'
p47
(dp48
Va
V-
sVinns
p49
I0
sVno
p50
I0
sVsr
p51
V-
sVm
I1
sV4s
p52
I0
sV6s
p53
I0
sVhs
p54
V0*
p55
sVr
V0
sV100s
p56
I0
sV50s
p57
I0
ssS'year'
p58
I2013
stp59
a(Vipl2012
(dp60
g25
(dp61
Vinns
p62
I1
sVc
I0
sVro
p63
I1
sVm
I10
sVs
I0
ssg29
(dp64
Vinns
p65
I2
sV10w
p66
I0
sVnb
p67
I0
sVmaid
p68
I0
sVwb
p69
I0
sVbbmw
p70
I0
sV6s
p71
I1
sVbbmr
p72
I0
sVbbir
p73
I0
sVbbiw
p74
I0
sVa
V-
sVb
I12
sVe
V13.00
p75
sVd
I3
sVwmaid
p76
I0
sV4w
p77
I0
sVm
I10
sV4s
p78
I4
sVr
I26
sVw
I0
sVsr
p79
V-
sVov
p80
V2.00
p81
sV5w
p82
I0
ssg47
(dp83
Va
V22.00
p84
sVb
I126
sVinns
p85
I7
sVno
p86
I1
sVsr
p87
V104.76
p88
sVm
I10
sV4s
p89
I8
sV6s
p90
I5
sVhs
p91
V36
p92
sVr
V132
p93
sV100s
p94
I0
sV50s
p95
I0
ssg58
I2012
stp96
a(Vipl2011
(dp97
g25
(dp98
Vinns
p99
I4
sVc
I4
sVro
p100
I0
sVm
I14
sVs
I0
ssg29
(dp101
Vinns
p102
I2
sV10w
p103
I0
sVnb
p104
I0
sVmaid
p105
I0
sVwb
p106
I0
sVbbmw
p107
I0
sV6s
p108
I2
sVbbmr
p109
I0
sVbbir
p110
I0
sVbbiw
p111
I0
sVa
V-
sVb
I12
sVe
V13.00
p112
sVd
I3
sVwmaid
p113
I0
sV4w
p114
I0
sVm
I14
sV4s
p115
I2
sVr
I26
sVw
I0
sVsr
p116
V-
sVov
p117
V2.00
p118
sV5w
p119
I0
ssg47
(dp120
Va
V28.00
p121
sVb
I280
sVinns
p122
I14
sVno
p123
I2
sVsr
p124
V120.00
p125
sVm
I14
sV4s
p126
I30
sV6s
p127
I13
sVhs
p128
V60
p129
sVr
V336
p130
sV100s
p131
I0
sV50s
p132
I1
ssg58
I2011
stp133
a(Vipl2010
(dp134
g25
(dp135
Vinns
p136
I1
sVc
I1
sVro
p137
I0
sVm
I6
sVs
I0
ssg29
(dp138
Vinns
p139
I1
sV10w
p140
I0
sVnb
p141
I0
sVmaid
p142
I0
sVwb
p143
I0
sVbbmw
p144
I0
sV6s
p145
I0
sVbbmr
p146
I0
sVbbir
p147
I0
sVbbiw
p148
I0
sVa
V-
sVb
I6
sVe
V10.00
p149
sVd
I1
sVwmaid
p150
I0
sV4w
p151
I0
sVm
I6
sV4s
p152
I1
sVr
I10
sVw
I0
sVsr
p153
V-
sVov
p154
V1.00
p155
sV5w
p156
I0
ssg47
(dp157
Va
V8.50
p158
sVb
I43
sVinns
p159
I5
sVno
p160
I1
sVsr
p161
V79.06
p162
sVm
I6
sV4s
p163
I3
sV6s
p164
I1
sVhs
p165
V24
p166
sVr
V34
p167
sV100s
p168
I0
sV50s
p169
I0
ssg58
I2010
stp170
a(Vclt20-2009
(dp171
g25
(dp172
Vinns
p173
I1
sVc
I1
sVro
p174
I0
sVm
I2
sVs
I0
ssg29
(dp175
Vinns
p176
I1
sV10w
p177
I0
sVnb
p178
I0
sVmaid
p179
I0
sVwb
p180
I0
sVbbmw
p181
I0
sV6s
p182
I1
sVbbmr
p183
I0
sVbbir
p184
I0
sVbbiw
p185
I0
sVa
V-
sVb
I6
sVe
V9.00
p186
sVd
I1
sVwmaid
p187
I0
sV4w
p188
I0
sVm
I2
sV4s
p189
I0
sVr
I9
sVw
I0
sVsr
p190
V-
sVov
p191
V1.00
p192
sV5w
p193
I0
ssg47
(dp194
Va
V26.00
p195
sVb
I31
sVinns
p196
I2
sVno
p197
I0
sVsr
p198
V167.74
p199
sVm
I2
sV4s
p200
I3
sV6s
p201
I4
sVhs
p202
V30
p203
sVr
V52
p204
sV100s
p205
I0
sV50s
p206
I0
ssg58
I2009
stp207
a(Vipl2009
(dp208
g25
(dp209
Vinns
p210
I5
sVc
I7
sVro
p211
I0
sVm
I16
sVs
I0
ssg29
(dp212
Vinns
p213
I6
sV10w
p214
I0
sVnb
p215
I0
sVmaid
p216
I0
sVwb
p217
I2
sVbbmw
p218
I2
sV6s
p219
I7
sVbbmr
p220
I23
sVbbir
p221
I23
sVbbiw
p222
I2
sVa
V30.50
p223
sVb
I90
sVe
V8.13
p224
sVd
I27
sVwmaid
p225
I0
sV4w
p226
I0
sVm
I16
sV4s
p227
I6
sVr
I122
sVw
I4
sVsr
p228
V22.50
p229
sVov
p230
V15.00
p231
sV5w
p232
I0
ssg47
(dp233
Va
V11.27
p234
sVb
I114
sVinns
p235
I13
sVno
p236
I2
sVsr
p237
V108.77
p238
sVm
I16
sV4s
p239
I6
sV6s
p240
I3
sVhs
p241
V32
p242
sVr
V124
p243
sV100s
p244
I0
sV50s
p245
I0
ssg58
I2009
stp246
a(Vipl2008
(dp247
g25
(dp248
Vinns
p249
I0
sVc
I0
sVro
p250
I0
sVm
I11
sVs
I0
ssg29
(dp251
Vinns
p252
I7
sV10w
p253
I0
sVnb
p254
I0
sVmaid
p255
I0
sVwb
p256
I4
sVbbmw
p257
I2
sV6s
p258
I3
sVbbmr
p259
I25
sVbbir
p260
I25
sVbbiw
p261
I2
sVa
V68.50
p262
sVb
I84
sVe
V9.78
p263
sVd
I22
sVwmaid
p264
I0
sV4w
p265
I0
sVm
I11
sV4s
p266
I15
sVr
I137
sVw
I2
sVsr
p267
V42.00
p268
sVov
p269
V14.00
p270
sV5w
p271
I0
ssg47
(dp272
Va
V36.00
p273
sVb
I210
sVinns
p274
I10
sVno
p275
I2
sVsr
p276
V137.14
p277
sVm
I11
sV4s
p278
I22
sV6s
p279
I15
sVhs
p280
V71*
p281
sVr
V288
p282
sV100s
p283
I0
sV50s
p284
I2
ssg58
I2008
stp285
asb.