(iplayer
Player
p1
(dp2
S'is_batsman'
p3
I00
sS'name'
p4
S'Lasith Malinga'
p5
sS'dob'
p6
S'1983/08/28'
p7
sS'price'
p8
S'950000'
p9
sS'is_allrounder'
p10
I00
sS'is_overseas'
p11
I01
sS'team'
p12
S'MI'
p13
sS'nationality'
p14
S'Sri Lankan'
p15
sS'is_bowler'
p16
I01
sS'is_keeper'
p17
I00
sS'id'
p18
S'211'
p19
sS'is_uncapped'
p20
I00
sS'tournamentStats'
p21
(lp22
(Vban-sl-2014
(dp23
S'fieldingStats'
p24
(dp25
Vinns
p26
I1
sVc
I0
sVro
p27
I2
sVm
I4
sVs
I0
ssS'bowlingStats'
p28
(dp29
Vinns
p30
I4
sV10w
p31
I0
sVnb
p32
I3
sVmaid
p33
I3
sVwb
p34
I5
sVbbmw
p35
I3
sV6s
p36
I2
sVbbmr
p37
I20
sVbbir
p38
I20
sVbbiw
p39
I3
sVa
V19.42
p40
sVb
I143
sVe
V5.70
p41
sVd
I84
sVwmaid
p42
I0
sV4w
p43
I0
sVm
I4
sV4s
p44
I18
sVr
I136
sVw
I7
sVsr
p45
V20.42
p46
sVov
p47
V23.83
p48
sV5w
p49
I0
ssS'battingStats'
p50
(dp51
Va
V0.00
p52
sVb
I10
sVinns
p53
I1
sVno
p54
I0
sVsr
p55
V0.00
p56
sVm
I4
sV4s
p57
I0
sV6s
p58
I0
sVhs
p59
V0*
p60
sVr
V0
sV100s
p61
I0
sV50s
p62
I0
ssS'year'
p63
I2014
stp64
a(Vasiacup-2014
(dp65
g24
(dp66
Vinns
p67
I0
sVc
I0
sVro
p68
I0
sVm
I4
sVs
I0
ssg28
(dp69
Vinns
p70
I4
sV10w
p71
I0
sVnb
p72
I0
sVmaid
p73
I0
sVwb
p74
I6
sVbbmw
p75
I5
sV6s
p76
I0
sVbbmr
p77
I52
sVbbir
p78
I52
sVbbiw
p79
I5
sVa
V17.18
p80
sVb
I209
sVe
V5.42
p81
sVd
I99
sVwmaid
p82
I0
sV4w
p83
I0
sVm
I4
sV4s
p84
I20
sVr
I189
sVw
I11
sVsr
p85
V19.00
p86
sVov
p87
V34.83
p88
sV5w
p89
I2
ssg50
(dp90
Va
V-
sVinns
p91
I0
sVno
p92
I0
sVsr
p93
V-
sVm
I4
sV4s
p94
I0
sV6s
p95
I0
sVhs
p96
V0*
p97
sVr
V0
sV100s
p98
I0
sV50s
p99
I0
ssg63
I2014
stp100
a(Vworldt20-2014
(dp101
g24
(dp102
Vinns
p103
I1
sVc
I1
sVro
p104
I0
sVm
I3
sVs
I0
ssg28
(dp105
Vinns
p106
I3
sV10w
p107
I0
sVnb
p108
I1
sVmaid
p109
I0
sVwb
p110
I2
sVbbmw
p111
I2
sV6s
p112
I1
sVbbmr
p113
I5
sVbbir
p114
I5
sVbbiw
p115
I2
sVa
V21.66
p116
sVb
I60
sVe
V6.50
p117
sVd
I27
sVwmaid
p118
I0
sV4w
p119
I0
sVm
I3
sV4s
p120
I7
sVr
I65
sVw
I3
sVsr
p121
V20.00
p122
sVov
p123
V10.00
p124
sV5w
p125
I0
ssg50
(dp126
Va
V-
sVinns
p127
I0
sVno
p128
I0
sVsr
p129
V-
sVm
I3
sV4s
p130
I0
sV6s
p131
I0
sVhs
p132
V0*
p133
sVr
V0
sV100s
p134
I0
sV50s
p135
I0
ssg63
I2014
stp136
a(Vsl-sa-2013
(dp137
g24
(dp138
Vinns
p139
I0
sVc
I0
sVro
p140
I0
sVm
I6
sVs
I0
ssg28
(dp141
Vinns
p142
I6
sV10w
p143
I0
sVnb
p144
I0
sVmaid
p145
I1
sVwb
p146
I4
sVbbmw
p147
I3
sV6s
p148
I2
sVbbmr
p149
I52
sVbbir
p150
I52
sVbbiw
p151
I3
sVa
V25.50
p152
sVb
I204
sVe
V6.00
p153
sVd
I94
sVwmaid
p154
I0
sV4w
p155
I0
sVm
I6
sV4s
p156
I21
sVr
I204
sVw
I8
sVsr
p157
V25.50
p158
sVov
p159
V34.00
p160
sV5w
p161
I0
ssg50
(dp162
Va
V0.00
p163
sVb
I3
sVinns
p164
I3
sVno
p165
I1
sVsr
p166
V0.00
p167
sVm
I6
sV4s
p168
I0
sV6s
p169
I0
sVhs
p170
V0*
p171
sVr
V0
sV100s
p172
I0
sV50s
p173
I0
ssg63
I2013
stp174
a(Vtriseries-wi-2013
(dp175
g24
(dp176
Vinns
p177
I3
sVc
I3
sVro
p178
I1
sVm
I5
sVs
I0
ssg28
(dp179
Vinns
p180
I5
sV10w
p181
I0
sVnb
p182
I0
sVmaid
p183
I4
sVwb
p184
I7
sVbbmw
p185
I2
sV6s
p186
I2
sVbbmr
p187
I40
sVbbir
p188
I40
sVbbiw
p189
I2
sVa
V36.20
p190
sVb
I215
sVe
V5.05
p191
sVd
I125
sVwmaid
p192
I1
sV4w
p193
I0
sVm
I5
sV4s
p194
I21
sVr
I181
sVw
I5
sVsr
p195
V43.00
p196
sVov
p197
V35.83
p198
sV5w
p199
I0
ssg50
(dp200
Va
V5.00
p201
sVb
I16
sVinns
p202
I3
sVno
p203
I0
sVsr
p204
V93.75
p205
sVm
I5
sV4s
p206
I1
sV6s
p207
I1
sVhs
p208
V8
sVr
V15
p209
sV100s
p210
I0
sV50s
p211
I0
ssg63
I2013
stp212
a(Vpak-sl-2013
(dp213
g24
(dp214
Vinns
p215
I2
sVc
I1
sVro
p216
I1
sVm
I7
sVs
I0
ssg28
(dp217
Vinns
p218
I7
sV10w
p219
I0
sVnb
p220
I5
sVmaid
p221
I1
sVwb
p222
I5
sVbbmw
p223
I4
sV6s
p224
I7
sVbbmr
p225
I57
sVbbir
p226
I57
sVbbiw
p227
I4
sVa
V34.80
p228
sVb
I330
sVe
V6.32
p229
sVd
I134
sVwmaid
p230
I0
sV4w
p231
I1
sVm
I7
sV4s
p232
I25
sVr
I348
sVw
I10
sVsr
p233
V33.00
p234
sVov
p235
V55.00
p236
sV5w
p237
I0
ssg50
(dp238
Va
V4.75
p239
sVb
I33
sVinns
p240
I4
sVno
p241
I0
sVsr
p242
V57.57
p243
sVm
I7
sV4s
p244
I4
sV6s
p245
I0
sVhs
p246
V19
p247
sVr
V19
p248
sV100s
p249
I0
sV50s
p250
I0
ssg63
I2013
stp251
a(Vsl-nz-2013
(dp252
g24
(dp253
Vinns
p254
I0
sVc
I0
sVro
p255
I0
sVm
I4
sVs
I0
ssg28
(dp256
Vinns
p257
I4
sV10w
p258
I0
sVnb
p259
I0
sVmaid
p260
I0
sVwb
p261
I5
sVbbmw
p262
I1
sV6s
p263
I2
sVbbmr
p264
I8
sVbbir
p265
I8
sVbbiw
p266
I1
sVa
V57.00
p267
sVb
I86
sVe
V7.95
p268
sVd
I30
sVwmaid
p269
I0
sV4w
p270
I0
sVm
I4
sV4s
p271
I9
sVr
I114
sVw
I2
sVsr
p272
V43.00
p273
sVov
p274
V14.33
p275
sV5w
p276
I0
ssg50
(dp277
Va
V0.00
p278
sVb
I1
sVinns
p279
I1
sVno
p280
I0
sVsr
p281
V0.00
p282
sVm
I4
sV4s
p283
I0
sV6s
p284
I0
sVhs
p285
V0*
p286
sVr
V0
sV100s
p287
I0
sV50s
p288
I0
ssg63
I2013
stp289
a(Vchamptrophy-2013-warmups
(dp290
g24
(dp291
Vinns
p292
I0
sVc
I0
sVro
p293
I0
sVm
I3
sVs
I0
ssg28
(dp294
Vinns
p295
I1
sV10w
p296
I0
sVnb
p297
I1
sVmaid
p298
I0
sVwb
p299
I3
sVbbmw
p300
I1
sV6s
p301
I2
sVbbmr
p302
I68
sVbbir
p303
I68
sVbbiw
p304
I1
sVa
V68.00
p305
sVb
I48
sVe
V8.50
p306
sVd
I22
sVwmaid
p307
I0
sV4w
p308
I0
sVm
I3
sV4s
p309
I6
sVr
I68
sVw
I1
sVsr
p310
V48.00
p311
sVov
p312
V8.00
p313
sV5w
p314
I0
ssg50
(dp315
Va
V-
sVinns
p316
I0
sVno
p317
I0
sVsr
p318
V-
sVm
I3
sV4s
p319
I0
sV6s
p320
I0
sVhs
p321
V0*
p322
sVr
V0
sV100s
p323
I0
sV50s
p324
I0
ssg63
I2013
stp325
a(Vbigbash-2013
(dp326
g24
(dp327
Vinns
p328
I1
sVc
I0
sVro
p329
I1
sVm
I6
sVs
I0
ssg28
(dp330
Vinns
p331
I6
sV10w
p332
I0
sVnb
p333
I1
sVmaid
p334
I0
sVwb
p335
I4
sVbbmw
p336
I2
sV6s
p337
I2
sVbbmr
p338
I8
sVbbir
p339
I8
sVbbiw
p340
I2
sVa
V26.20
p341
sVb
I132
sVe
V5.95
p342
sVd
I55
sVwmaid
p343
I0
sV4w
p344
I0
sVm
I6
sV4s
p345
I10
sVr
I131
sVw
I5
sVsr
p346
V26.40
p347
sVov
p348
V22.00
p349
sV5w
p350
I0
ssg50
(dp351
Va
V-
sVinns
p352
I1
sVno
p353
I1
sVsr
p354
V-
sVm
I6
sV4s
p355
I0
sV6s
p356
I0
sVhs
p357
V0*
p358
sVr
V0
sV100s
p359
I0
sV50s
p360
I0
ssg63
I2013
stp361
a(Vchamptrophy-2013
(dp362
g24
(dp363
Vinns
p364
I0
sVc
I0
sVro
p365
I0
sVm
I4
sVs
I0
ssg28
(dp366
Vinns
p367
I4
sV10w
p368
I0
sVnb
p369
I1
sVmaid
p370
I4
sVwb
p371
I9
sVbbmw
p372
I4
sV6s
p373
I1
sVbbmr
p374
I34
sVbbir
p375
I34
sVbbiw
p376
I4
sVa
V29.42
p377
sVb
I222
sVe
V5.56
p378
sVd
I116
sVwmaid
p379
I0
sV4w
p380
I1
sVm
I4
sV4s
p381
I22
sVr
I206
sVw
I7
sVsr
p382
V31.71
p383
sVov
p384
V37.00
p385
sV5w
p386
I0
ssg50
(dp387
Va
V11.00
p388
sVb
I6
sVinns
p389
I3
sVno
p390
I2
sVsr
p391
V183.33
p392
sVm
I4
sV4s
p393
I1
sV6s
p394
I0
sVhs
p395
V7*
p396
sVr
V11
p397
sV100s
p398
I0
sV50s
p399
I0
ssg63
I2013
stp400
a(Vipl2013
(dp401
g24
(dp402
Vinns
p403
I3
sVc
I3
sVro
p404
I0
sVm
I17
sVs
I0
ssg28
(dp405
Vinns
p406
I17
sV10w
p407
I0
sVnb
p408
I2
sVmaid
p409
I0
sVwb
p410
I8
sVbbmw
p411
I3
sV6s
p412
I9
sVbbmr
p413
I39
sVbbir
p414
I39
sVbbiw
p415
I3
sVa
V23.40
p416
sVb
I392
sVe
V7.16
p417
sVd
I147
sVwmaid
p418
I0
sV4w
p419
I0
sVm
I17
sV4s
p420
I53
sVr
I468
sVw
I20
sVsr
p421
V19.60
p422
sVov
p423
V65.33
p424
sV5w
p425
I0
ssg50
(dp426
Va
V2.25
p427
sVb
I18
sVinns
p428
I6
sVno
p429
I2
sVsr
p430
V50.00
p431
sVm
I17
sV4s
p432
I1
sV6s
p433
I0
sVhs
p434
V7
sVr
V9
sV100s
p435
I0
sV50s
p436
I0
ssg63
I2013
stp437
a(Vipl2012
(dp438
g24
(dp439
Vinns
p440
I6
sVc
I6
sVro
p441
I0
sVm
I14
sVs
I0
ssg28
(dp442
Vinns
p443
I14
sV10w
p444
I0
sVnb
p445
I1
sVmaid
p446
I1
sVwb
p447
I17
sVbbmw
p448
I4
sV6s
p449
I5
sVbbmr
p450
I16
sVbbir
p451
I16
sVbbiw
p452
I4
sVa
V15.90
p453
sVb
I333
sVe
V6.30
p454
sVd
I145
sVwmaid
p455
I1
sV4w
p456
I1
sVm
I14
sV4s
p457
I31
sVr
I350
sVw
I22
sVsr
p458
V15.13
p459
sVov
p460
V55.50
p461
sV5w
p462
I0
ssg50
(dp463
Va
V9.16
p464
sVb
I53
sVinns
p465
I6
sVno
p466
I0
sVsr
p467
V103.77
p468
sVm
I14
sV4s
p469
I4
sV6s
p470
I3
sVhs
p471
V17
p472
sVr
V55
p473
sV100s
p474
I0
sV50s
p475
I0
ssg63
I2012
stp476
a(Vclt20-2012
(dp477
g24
(dp478
Vinns
p479
I1
sVc
I0
sVro
p480
I1
sVm
I4
sVs
I0
ssg28
(dp481
Vinns
p482
I3
sV10w
p483
I0
sVnb
p484
I0
sVmaid
p485
I1
sVwb
p486
I1
sVbbmw
p487
I5
sV6s
p488
I2
sVbbmr
p489
I32
sVbbir
p490
I32
sVbbiw
p491
I5
sVa
V10.75
p492
sVb
I71
sVe
V7.26
p493
sVd
I36
sVwmaid
p494
I0
sV4w
p495
I0
sVm
I4
sV4s
p496
I10
sVr
I86
sVw
I8
sVsr
p497
V8.87
p498
sVov
p499
V11.83
p500
sV5w
p501
I1
ssg50
(dp502
Va
V1.00
p503
sVb
I4
sVinns
p504
I2
sVno
p505
I1
sVsr
p506
V25.00
p507
sVm
I4
sV4s
p508
I0
sV6s
p509
I0
sVhs
p510
V1
sVr
V1
sV100s
p511
I0
sV50s
p512
I0
ssg63
I2012
stp513
a(Vbigbash-2012
(dp514
g24
(dp515
Vinns
p516
I0
sVc
I0
sVro
p517
I0
sVm
I7
sVs
I0
ssg28
(dp518
Vinns
p519
I7
sV10w
p520
I0
sVnb
p521
I0
sVmaid
p522
I2
sVwb
p523
I9
sVbbmw
p524
I6
sV6s
p525
I2
sVbbmr
p526
I7
sVbbir
p527
I7
sVbbiw
p528
I6
sVa
V10.69
p529
sVb
I168
sVe
V4.96
p530
sVd
I81
sVwmaid
p531
I2
sV4w
p532
I0
sVm
I7
sV4s
p533
I4
sVr
I139
sVw
I13
sVsr
p534
V12.92
p535
sVov
p536
V28.00
p537
sV5w
p538
I1
ssg50
(dp539
Va
V4.00
p540
sVb
I8
sVinns
p541
I2
sVno
p542
I1
sVsr
p543
V50.00
p544
sVm
I7
sV4s
p545
I0
sV6s
p546
I0
sVhs
p547
V2*
p548
sVr
V4
sV100s
p549
I0
sV50s
p550
I0
ssg63
I2012
stp551
a(Vaus-sl-2012
(dp552
g24
(dp553
Vinns
p554
I0
sVc
I0
sVro
p555
I0
sVm
I7
sVs
I0
ssg28
(dp556
Vinns
p557
I7
sV10w
p558
I0
sVnb
p559
I0
sVmaid
p560
I6
sVwb
p561
I4
sVbbmw
p562
I3
sV6s
p563
I0
sVbbmr
p564
I14
sVbbir
p565
I14
sVbbiw
p566
I3
sVa
V23.40
p567
sVb
I318
sVe
V4.41
p568
sVd
I175
sVwmaid
p569
I2
sV4w
p570
I0
sVm
I7
sV4s
p571
I23
sVr
I234
sVw
I10
sVsr
p572
V31.80
p573
sVov
p574
V53.00
p575
sV5w
p576
I0
ssg50
(dp577
Va
V3.00
p578
sVb
I7
sVinns
p579
I2
sVno
p580
I1
sVsr
p581
V42.85
p582
sVm
I7
sV4s
p583
I0
sV6s
p584
I0
sVhs
p585
V2
sVr
V3
sV100s
p586
I0
sV50s
p587
I0
ssg63
I2012
stp588
a(Vworldt20-2012
(dp589
g24
(dp590
Vinns
p591
I1
sVc
I1
sVro
p592
I0
sVm
I9
sVs
I0
ssg28
(dp593
Vinns
p594
I9
sV10w
p595
I0
sVnb
p596
I1
sVmaid
p597
I0
sVwb
p598
I9
sVbbmw
p599
I5
sV6s
p600
I9
sVbbmr
p601
I31
sVbbir
p602
I31
sVbbiw
p603
I5
sVa
V28.40
p604
sVb
I195
sVe
V8.73
p605
sVd
I68
sVwmaid
p606
I0
sV4w
p607
I0
sVm
I9
sV4s
p608
I28
sVr
I284
sVw
I10
sVsr
p609
V19.50
p610
sVov
p611
V32.50
p612
sV5w
p613
I1
ssg50
(dp614
Va
V2.50
p615
sVb
I15
sVinns
p616
I2
sVno
p617
I0
sVsr
p618
V33.33
p619
sVm
I9
sV4s
p620
I0
sV6s
p621
I0
sVhs
p622
V5
sVr
V5
sV100s
p623
I0
sV50s
p624
I0
ssg63
I2012
stp625
a(Vipl2011
(dp626
g24
(dp627
Vinns
p628
I5
sVc
I4
sVro
p629
I2
sVm
I16
sVs
I0
ssg28
(dp630
Vinns
p631
I16
sV10w
p632
I0
sVnb
p633
I3
sVmaid
p634
I2
sVwb
p635
I16
sVbbmw
p636
I5
sV6s
p637
I6
sVbbmr
p638
I13
sVbbir
p639
I13
sVbbiw
p640
I5
sVa
V13.39
p641
sVb
I378
sVe
V5.95
p642
sVd
I183
sVwmaid
p643
I1
sV4w
p644
I0
sVm
I16
sV4s
p645
I39
sVr
I375
sVw
I28
sVsr
p646
V13.50
p647
sVov
p648
V63.00
p649
sV5w
p650
I1
ssg50
(dp651
Va
V2.66
p652
sVb
I9
sVinns
p653
I4
sVno
p654
I1
sVsr
p655
V88.88
p656
sVm
I16
sV4s
p657
I0
sV6s
p658
I1
sVhs
p659
V7
sVr
V8
sV100s
p660
I0
sV50s
p661
I0
ssg63
I2011
stp662
a(Vclt20-2011
p663
(dp664
g24
(dp665
Vinns
p666
I0
sVc
I0
sVro
p667
I0
sVm
I6
sVs
I0
ssg28
(dp668
Vinns
p669
I5
sV10w
p670
I0
sVnb
p671
I1
sVmaid
p672
I0
sVwb
p673
I5
sVbbmw
p674
I4
sV6s
p675
I0
sVbbmr
p676
I20
sVbbir
p677
I20
sVbbiw
p678
I4
sVa
V11.70
p679
sVb
I120
sVe
V5.85
p680
sVd
I62
sVwmaid
p681
I0
sV4w
p682
I1
sVm
I6
sV4s
p683
I15
sVr
I117
sVw
I10
sVsr
p684
V12.00
p685
sVov
p686
V20.00
p687
sV5w
p688
I0
ssg50
(dp689
Va
V34.00
p690
sVb
I37
sVinns
p691
I4
sVno
p692
I2
sVsr
p693
V183.78
p694
sVm
I6
sV4s
p695
I4
sV6s
p696
I6
sVhs
p697
V37*
p698
sVr
V68
p699
sV100s
p700
I0
sV50s
p701
I0
ssg63
I2011
stp702
a(Vclt20-2010
(dp703
g24
(dp704
Vinns
p705
I1
sVc
I1
sVro
p706
I0
sVm
I4
sVs
I0
ssg28
(dp707
Vinns
p708
I4
sV10w
p709
I0
sVnb
p710
I0
sVmaid
p711
I0
sVwb
p712
I4
sVbbmw
p713
I3
sV6s
p714
I1
sVbbmr
p715
I33
sVbbir
p716
I33
sVbbiw
p717
I3
sVa
V19.66
p718
sVb
I96
sVe
V7.37
p719
sVd
I36
sVwmaid
p720
I0
sV4w
p721
I0
sVm
I4
sV4s
p722
I13
sVr
I118
sVw
I6
sVsr
p723
V16.00
p724
sVov
p725
V16.00
p726
sV5w
p727
I0
ssg50
(dp728
Va
V-
sVinns
p729
I0
sVno
p730
I0
sVsr
p731
V-
sVm
I4
sV4s
p732
I0
sV6s
p733
I0
sVhs
p734
V0*
p735
sVr
V0
sV100s
p736
I0
sV50s
p737
I0
ssg63
I2010
stp738
a(Vipl2010
(dp739
g24
(dp740
Vinns
p741
I4
sVc
I2
sVro
p742
I2
sVm
I13
sVs
I0
ssg28
(dp743
Vinns
p744
I13
sV10w
p745
I0
sVnb
p746
I0
sVmaid
p747
I1
sVwb
p748
I16
sVbbmw
p749
I4
sV6s
p750
I5
sVbbmr
p751
I22
sVbbir
p752
I22
sVbbiw
p753
I4
sVa
V22.93
p754
sVb
I294
sVe
V7.02
p755
sVd
I116
sVwmaid
p756
I1
sV4w
p757
I1
sVm
I13
sV4s
p758
I36
sVr
I344
sVw
I15
sVsr
p759
V19.60
p760
sVov
p761
V49.00
p762
sV5w
p763
I0
ssg50
(dp764
Va
V-
sVb
I1
sVinns
p765
I2
sVno
p766
I2
sVsr
p767
V100.00
p768
sVm
I13
sV4s
p769
I0
sV6s
p770
I0
sVhs
p771
V1*
p772
sVr
V1
sV100s
p773
I0
sV50s
p774
I0
ssg63
I2010
stp775
a(Vipl2009
(dp776
g24
(dp777
Vinns
p778
I3
sVc
I2
sVro
p779
I1
sVm
I13
sVs
I0
ssg28
(dp780
Vinns
p781
I13
sV10w
p782
I0
sVnb
p783
I3
sVmaid
p784
I3
sVwb
p785
I26
sVbbmw
p786
I3
sV6s
p787
I7
sVbbmr
p788
I11
sVbbir
p789
I11
sVbbiw
p790
I3
sVa
V17.33
p791
sVb
I297
sVe
V6.30
p792
sVd
I140
sVwmaid
p793
I1
sV4w
p794
I0
sVm
I13
sV4s
p795
I25
sVr
I312
sVw
I18
sVsr
p796
V16.50
p797
sVov
p798
V49.50
p799
sV5w
p800
I0
ssg50
(dp801
Va
V0.00
p802
sVb
I1
sVinns
p803
I3
sVno
p804
I1
sVsr
p805
V0.00
p806
sVm
I13
sV4s
p807
I0
sV6s
p808
I0
sVhs
p809
V0*
p810
sVr
V0
sV100s
p811
I0
sV50s
p812
I0
ssg63
I2009
stp813
asb.