(iplayer
Player
p1
(dp2
S'is_batsman'
p3
I01
sS'name'
p4
S'Nic Maddinson'
p5
sS'dob'
p6
S'1991/12/21'
p7
sS'price'
p8
S'800000'
p9
sS'is_allrounder'
p10
I00
sS'is_overseas'
p11
I01
sS'team'
p12
S'RCB'
p13
sS'nationality'
p14
S'Australian'
p15
sS'is_bowler'
p16
I00
sS'is_keeper'
p17
I00
sS'id'
p18
S'858'
p19
sS'is_uncapped'
p20
I00
sS'tournamentStats'
p21
(lp22
(Vbigbash-2013
(dp23
S'fieldingStats'
p24
(dp25
Vinns
p26
I1
sVc
I1
sVro
p27
I0
sVm
I9
sVs
I0
ssS'bowlingStats'
p28
(dp29
Vinns
p30
I0
sV10w
p31
I0
sVnb
p32
I0
sVmaid
p33
I0
sVwb
p34
I0
sVbbmw
p35
I0
sV6s
p36
I0
sVbbmr
p37
I0
sVbbir
p38
I0
sVbbiw
p39
I0
sVa
V-
sVb
I0
sVe
V-
sVd
I0
sVwmaid
p40
I0
sV4w
p41
I0
sVm
I9
sV4s
p42
I0
sVr
I0
sVw
I0
sVsr
p43
V-
sVov
p44
V-
sV5w
p45
I0
ssS'battingStats'
p46
(dp47
Va
V26.37
p48
sVb
I163
sVinns
p49
I9
sVno
p50
I1
sVsr
p51
V129.44
p52
sVm
I9
sV4s
p53
I27
sV6s
p54
I7
sVhs
p55
V61
p56
sVr
V211
p57
sV100s
p58
I0
sV50s
p59
I2
ssS'year'
p60
I2013
stp61
a(Vind-aus-2-2013
(dp62
g24
(dp63
Vinns
p64
I0
sVc
I0
sVro
p65
I0
sVm
I1
sVs
I0
ssg28
(dp66
Vinns
p67
I0
sV10w
p68
I0
sVnb
p69
I0
sVmaid
p70
I0
sVwb
p71
I0
sVbbmw
p72
I0
sV6s
p73
I0
sVbbmr
p74
I0
sVbbir
p75
I0
sVbbiw
p76
I0
sVa
V-
sVb
I0
sVe
V-
sVd
I0
sVwmaid
p77
I0
sV4w
p78
I0
sVm
I1
sV4s
p79
I0
sVr
I0
sVw
I0
sVsr
p80
V-
sVov
p81
V-
sV5w
p82
I0
ssg46
(dp83
Va
V34.00
p84
sVb
I16
sVinns
p85
I1
sVno
p86
I0
sVsr
p87
V212.50
p88
sVm
I1
sV4s
p89
I6
sV6s
p90
I1
sVhs
p91
V34
p92
sVr
V34
p93
sV100s
p94
I0
sV50s
p95
I0
ssg60
I2013
stp96
a(Vclt20-2012
(dp97
g24
(dp98
Vinns
p99
I0
sVc
I0
sVro
p100
I0
sVm
I5
sVs
I0
ssg28
(dp101
Vinns
p102
I0
sV10w
p103
I0
sVnb
p104
I0
sVmaid
p105
I0
sVwb
p106
I0
sVbbmw
p107
I0
sV6s
p108
I0
sVbbmr
p109
I0
sVbbir
p110
I0
sVbbiw
p111
I0
sVa
V-
sVb
I0
sVe
V-
sVd
I0
sVwmaid
p112
I0
sV4w
p113
I0
sVm
I5
sV4s
p114
I0
sVr
I0
sVw
I0
sVsr
p115
V-
sVov
p116
V-
sV5w
p117
I0
ssg46
(dp118
Va
V19.66
p119
sVb
I45
sVinns
p120
I4
sVno
p121
I1
sVsr
p122
V131.11
p123
sVm
I5
sV4s
p124
I5
sV6s
p125
I3
sVhs
p126
V27
p127
sVr
V59
p128
sV100s
p129
I0
sV50s
p130
I0
ssg60
I2012
stp131
a(Vbigbash-2012
p132
(dp133
g24
(dp134
Vinns
p135
I0
sVc
I0
sVro
p136
I0
sVm
I4
sVs
I0
ssg28
(dp137
Vinns
p138
I0
sV10w
p139
I0
sVnb
p140
I0
sVmaid
p141
I0
sVwb
p142
I0
sVbbmw
p143
I0
sV6s
p144
I0
sVbbmr
p145
I0
sVbbir
p146
I0
sVbbiw
p147
I0
sVa
V-
sVb
I0
sVe
V-
sVd
I0
sVwmaid
p148
I0
sV4w
p149
I0
sVm
I4
sV4s
p150
I0
sVr
I0
sVw
I0
sVsr
p151
V-
sVov
p152
V-
sV5w
p153
I0
ssg46
(dp154
Va
V18.00
p155
sVb
I63
sVinns
p156
I4
sVno
p157
I0
sVsr
p158
V114.28
p159
sVm
I4
sV4s
p160
I14
sV6s
p161
I1
sVhs
p162
V39
p163
sVr
V72
p164
sV100s
p165
I0
sV50s
p166
I0
ssg60
I2012
stp167
asb.