(iplayer
Player
p1
(dp2
S'is_batsman'
p3
I00
sS'name'
p4
S'Irfan Pathan'
p5
sS'dob'
p6
S'1984/10/27'
p7
sS'price'
p8
S'900000'
p9
sS'is_allrounder'
p10
I01
sS'is_overseas'
p11
I00
sS'team'
p12
S'SRH'
p13
sS'nationality'
p14
S'Indian'
p15
sS'is_bowler'
p16
I00
sS'is_keeper'
p17
I00
sS'id'
p18
S'49'
p19
sS'is_uncapped'
p20
I00
sS'tournamentStats'
p21
(lp22
(Vchamptrophy-2013-warmups
(dp23
S'fieldingStats'
p24
(dp25
Vinns
p26
I1
sVc
I1
sVro
p27
I0
sVm
I2
sVs
I0
ssS'bowlingStats'
p28
(dp29
Vinns
p30
I1
sV10w
p31
I0
sVnb
p32
I0
sVmaid
p33
I0
sVwb
p34
I1
sVbbmw
p35
I0
sV6s
p36
I2
sVbbmr
p37
I0
sVbbir
p38
I0
sVbbiw
p39
I0
sVa
V-
sVb
I30
sVe
V9.00
p40
sVd
I10
sVwmaid
p41
I0
sV4w
p42
I0
sVm
I2
sV4s
p43
I4
sVr
I45
sVw
I0
sVsr
p44
V-
sVov
p45
V5.00
p46
sV5w
p47
I0
ssS'battingStats'
p48
(dp49
Va
V-
sVinns
p50
I0
sVno
p51
I0
sVsr
p52
V-
sVm
I2
sV4s
p53
I0
sV6s
p54
I0
sVhs
p55
V0*
p56
sVr
V0
sV100s
p57
I0
sV50s
p58
I0
ssS'year'
p59
I2013
stp60
a(Vipl2013
p61
(dp62
g24
(dp63
Vinns
p64
I4
sVc
I4
sVro
p65
I2
sVm
I15
sVs
I0
ssg28
(dp66
Vinns
p67
I15
sV10w
p68
I0
sVnb
p69
I0
sVmaid
p70
I3
sVwb
p71
I7
sVbbmw
p72
I2
sV6s
p73
I8
sVbbmr
p74
I29
sVbbir
p75
I29
sVbbiw
p76
I2
sVa
V38.20
p77
sVb
I308
sVe
V7.44
p78
sVd
I134
sVwmaid
p79
I1
sV4w
p80
I0
sVm
I15
sV4s
p81
I48
sVr
I382
sVw
I10
sVsr
p82
V30.80
p83
sVov
p84
V51.33
p85
sV5w
p86
I0
ssg48
(dp87
Va
V17.75
p88
sVb
I152
sVinns
p89
I13
sVno
p90
I5
sVsr
p91
V93.42
p92
sVm
I15
sV4s
p93
I9
sV6s
p94
I3
sVhs
p95
V24
p96
sVr
V142
p97
sV100s
p98
I0
sV50s
p99
I0
ssg59
I2013
stp100
a(Vipl2012
(dp101
g24
(dp102
Vinns
p103
I7
sVc
I8
sVro
p104
I1
sVm
I17
sVs
I0
ssg28
(dp105
Vinns
p106
I17
sV10w
p107
I0
sVnb
p108
I0
sVmaid
p109
I2
sVwb
p110
I6
sVbbmw
p111
I2
sV6s
p112
I14
sVbbmr
p113
I46
sVbbir
p114
I46
sVbbiw
p115
I2
sVa
V58.12
p116
sVb
I360
sVe
V7.75
p117
sVd
I145
sVwmaid
p118
I0
sV4w
p119
I0
sVm
I17
sV4s
p120
I56
sVr
I465
sVw
I8
sVsr
p121
V45.00
p122
sVov
p123
V60.00
p124
sV5w
p125
I0
ssg48
(dp126
Va
V25.14
p127
sVb
I126
sVinns
p128
I12
sVno
p129
I5
sVsr
p130
V139.68
p131
sVm
I17
sV4s
p132
I14
sV6s
p133
I6
sVhs
p134
V42*
p135
sVr
V176
p136
sV100s
p137
I0
sV50s
p138
I0
ssg59
I2012
stp139
a(Vclt20-2012
(dp140
g24
(dp141
Vinns
p142
I0
sVc
I0
sVro
p143
I0
sVm
I4
sVs
I0
ssg28
(dp144
Vinns
p145
I3
sV10w
p146
I0
sVnb
p147
I0
sVmaid
p148
I0
sVwb
p149
I1
sVbbmw
p150
I2
sV6s
p151
I4
sVbbmr
p152
I19
sVbbir
p153
I19
sVbbiw
p154
I2
sVa
V33.00
p155
sVb
I66
sVe
V6.00
p156
sVd
I34
sVwmaid
p157
I0
sV4w
p158
I0
sVm
I4
sV4s
p159
I4
sVr
I66
sVw
I2
sVsr
p160
V33.00
p161
sVov
p162
V11.00
p163
sV5w
p164
I0
ssg48
(dp165
Va
V11.00
p166
sVb
I26
sVinns
p167
I3
sVno
p168
I1
sVsr
p169
V84.61
p170
sVm
I4
sV4s
p171
I1
sV6s
p172
I0
sVhs
p173
V14
p174
sVr
V22
p175
sV100s
p176
I0
sV50s
p177
I0
ssg59
I2012
stp178
a(Vpre-worldt20-2012
(dp179
g24
(dp180
Vinns
p181
I0
sVc
I0
sVro
p182
I0
sVm
I1
sVs
I0
ssg28
(dp183
Vinns
p184
I1
sV10w
p185
I0
sVnb
p186
I0
sVmaid
p187
I0
sVwb
p188
I0
sVbbmw
p189
I3
sV6s
p190
I1
sVbbmr
p191
I31
sVbbir
p192
I31
sVbbiw
p193
I3
sVa
V10.33
p194
sVb
I24
sVe
V7.75
p195
sVd
I10
sVwmaid
p196
I0
sV4w
p197
I0
sVm
I1
sV4s
p198
I4
sVr
I31
sVw
I3
sVsr
p199
V8.00
p200
sVov
p201
V4.00
p202
sV5w
p203
I0
ssg48
(dp204
Va
V-
sVinns
p205
I0
sVno
p206
I0
sVsr
p207
V-
sVm
I1
sV4s
p208
I0
sV6s
p209
I0
sVhs
p210
V0*
p211
sVr
V0
sV100s
p212
I0
sV50s
p213
I0
ssg59
I2012
stp214
a(Vworldt20-2012
(dp215
g24
(dp216
Vinns
p217
I0
sVc
I0
sVro
p218
I0
sVm
I7
sVs
I0
ssg28
(dp219
Vinns
p220
I7
sV10w
p221
I0
sVnb
p222
I1
sVmaid
p223
I0
sVwb
p224
I6
sVbbmw
p225
I5
sV6s
p226
I6
sVbbmr
p227
I25
sVbbir
p228
I25
sVbbiw
p229
I5
sVa
V18.60
p230
sVb
I127
sVe
V8.78
p231
sVd
I57
sVwmaid
p232
I0
sV4w
p233
I0
sVm
I7
sV4s
p234
I19
sVr
I186
sVw
I10
sVsr
p235
V12.70
p236
sVov
p237
V21.16
p238
sV5w
p239
I1
ssg48
(dp240
Va
V20.50
p241
sVb
I40
sVinns
p242
I3
sVno
p243
I1
sVsr
p244
V102.50
p245
sVm
I7
sV4s
p246
I3
sV6s
p247
I1
sVhs
p248
V31
p249
sVr
V41
p250
sV100s
p251
I0
sV50s
p252
I0
ssg59
I2012
stp253
a(Vipl2011
(dp254
g24
(dp255
Vinns
p256
I3
sVc
I4
sVro
p257
I0
sVm
I14
sVs
I0
ssg28
(dp258
Vinns
p259
I13
sV10w
p260
I0
sVnb
p261
I1
sVmaid
p262
I2
sVwb
p263
I12
sVbbmw
p264
I3
sV6s
p265
I10
sVbbmr
p266
I28
sVbbir
p267
I28
sVbbiw
p268
I3
sVa
V31.27
p269
sVb
I275
sVe
V7.50
p270
sVd
I124
sVwmaid
p271
I2
sV4w
p272
I0
sVm
I14
sV4s
p273
I41
sVr
I344
sVw
I11
sVsr
p274
V25.00
p275
sVov
p276
V45.83
p277
sV5w
p278
I0
ssg48
(dp279
Va
V18.75
p280
sVb
I138
sVinns
p281
I12
sVno
p282
I4
sVsr
p283
V108.69
p284
sVm
I14
sV4s
p285
I12
sV6s
p286
I6
sVhs
p287
V44*
p288
sVr
V150
p289
sV100s
p290
I0
sV50s
p291
I0
ssg59
I2011
stp292
a(Vipl2010
(dp293
g24
(dp294
Vinns
p295
I4
sVc
I4
sVro
p296
I0
sVm
I14
sVs
I0
ssg28
(dp297
Vinns
p298
I14
sV10w
p299
I0
sVnb
p300
I0
sVmaid
p301
I0
sVwb
p302
I12
sVbbmw
p303
I3
sV6s
p304
I11
sVbbmr
p305
I24
sVbbir
p306
I24
sVbbiw
p307
I3
sVa
V28.40
p308
sVb
I278
sVe
V9.19
p309
sVd
I98
sVwmaid
p310
I0
sV4w
p311
I0
sVm
I14
sV4s
p312
I54
sVr
I426
sVw
I15
sVsr
p313
V18.53
p314
sVov
p315
V46.33
p316
sV5w
p317
I0
ssg48
(dp318
Va
V34.50
p319
sVb
I186
sVinns
p320
I13
sVno
p321
I5
sVsr
p322
V148.38
p323
sVm
I14
sV4s
p324
I21
sV6s
p325
I10
sVhs
p326
V60
p327
sVr
V276
p328
sV100s
p329
I0
sV50s
p330
I1
ssg59
I2010
stp331
a(Vipl2009
(dp332
g24
(dp333
Vinns
p334
I3
sVc
I4
sVro
p335
I0
sVm
I14
sVs
I0
ssg28
(dp336
Vinns
p337
I14
sV10w
p338
I0
sVnb
p339
I0
sVmaid
p340
I1
sVwb
p341
I12
sVbbmw
p342
I3
sV6s
p343
I11
sVbbmr
p344
I35
sVbbir
p345
I35
sVbbiw
p346
I3
sVa
V22.94
p347
sVb
I302
sVe
V7.74
p348
sVd
I121
sVwmaid
p349
I0
sV4w
p350
I0
sVm
I14
sV4s
p351
I41
sVr
I390
sVw
I17
sVsr
p352
V17.76
p353
sVov
p354
V50.33
p355
sV5w
p356
I0
ssg48
(dp357
Va
V19.60
p358
sVb
I158
sVinns
p359
I12
sVno
p360
I2
sVsr
p361
V124.05
p362
sVm
I14
sV4s
p363
I17
sV6s
p364
I6
sVhs
p365
V39
p366
sVr
V196
p367
sV100s
p368
I0
sV50s
p369
I0
ssg59
I2009
stp370
a(Vipl2008
(dp371
g24
(dp372
Vinns
p373
I6
sVc
I4
sVro
p374
I2
sVm
I14
sVs
I0
ssg28
(dp375
Vinns
p376
I14
sV10w
p377
I0
sVnb
p378
I0
sVmaid
p379
I2
sVwb
p380
I18
sVbbmw
p381
I2
sV6s
p382
I13
sVbbmr
p383
I18
sVbbir
p384
I18
sVbbiw
p385
I2
sVa
V23.33
p386
sVb
I318
sVe
V6.60
p387
sVd
I150
sVwmaid
p388
I0
sV4w
p389
I0
sVm
I14
sV4s
p390
I32
sVr
I350
sVw
I15
sVsr
p391
V21.20
p392
sVov
p393
V53.00
p394
sV5w
p395
I0
ssg48
(dp396
Va
V21.83
p397
sVb
I116
sVinns
p398
I10
sVno
p399
I4
sVsr
p400
V112.93
p401
sVm
I14
sV4s
p402
I9
sV6s
p403
I6
sVhs
p404
V40
p405
sVr
V131
p406
sV100s
p407
I0
sV50s
p408
I0
ssg59
I2008
stp409
asb.