(iplayer
Player
p1
(dp2
S'is_batsman'
p3
I01
sS'name'
p4
S'Ross Taylor'
p5
sS'dob'
p6
S'1984/03/08'
p7
sS'price'
p8
S'950000'
p9
sS'is_allrounder'
p10
I00
sS'is_overseas'
p11
I01
sS'team'
p12
S'DD'
p13
sS'nationality'
p14
S'New Zealander'
p15
sS'is_bowler'
p16
I00
sS'is_keeper'
p17
I00
sS'id'
p18
S'226'
p19
sS'is_uncapped'
p20
I00
sS'tournamentStats'
p21
(lp22
(Vnz-ind-2014
(dp23
S'fieldingStats'
p24
(dp25
Vinns
p26
I4
sVc
I4
sVro
p27
I0
sVm
I6
sVs
I0
ssS'bowlingStats'
p28
(dp29
Vinns
p30
I0
sV10w
p31
I0
sVnb
p32
I0
sVmaid
p33
I0
sVwb
p34
I0
sVbbmw
p35
I0
sV6s
p36
I0
sVbbmr
p37
I0
sVbbir
p38
I0
sVbbiw
p39
I0
sVa
V-
sVb
I0
sVe
V-
sVd
I0
sVwmaid
p40
I0
sV4w
p41
I0
sVm
I6
sV4s
p42
I0
sVr
I0
sVw
I0
sVsr
p43
V-
sVov
p44
V-
sV5w
p45
I0
ssS'battingStats'
p46
(dp47
Va
V64.50
p48
sVb
I477
sVinns
p49
I7
sVno
p50
I1
sVsr
p51
V81.13
p52
sVm
I6
sV4s
p53
I39
sV6s
p54
I2
sVhs
p55
V112*
p56
sVr
V387
p57
sV100s
p58
I2
sV50s
p59
I2
ssS'year'
p60
I2014
stp61
a(Vworldt20-2014
(dp62
g24
(dp63
Vinns
p64
I0
sVc
I0
sVro
p65
I0
sVm
I2
sVs
I0
ssg28
(dp66
Vinns
p67
I0
sV10w
p68
I0
sVnb
p69
I0
sVmaid
p70
I0
sVwb
p71
I0
sVbbmw
p72
I0
sV6s
p73
I0
sVbbmr
p74
I0
sVbbir
p75
I0
sVbbiw
p76
I0
sVa
V-
sVb
I0
sVe
V-
sVd
I0
sVwmaid
p77
I0
sV4w
p78
I0
sVm
I2
sV4s
p79
I0
sVr
I0
sVw
I0
sVsr
p80
V-
sVov
p81
V-
sV5w
p82
I0
ssg46
(dp83
Va
V62.00
p84
sVb
I37
sVinns
p85
I1
sVno
p86
I0
sVsr
p87
V167.56
p88
sVm
I2
sV4s
p89
I4
sV6s
p90
I3
sVhs
p91
V62
p92
sVr
V62
p93
sV100s
p94
I0
sV50s
p95
I1
ssg60
I2014
stp96
a(Vnz-wi-2013
(dp97
g24
(dp98
Vinns
p99
I6
sVc
I8
sVro
p100
I0
sVm
I9
sVs
I0
ssg28
(dp101
Vinns
p102
I0
sV10w
p103
I0
sVnb
p104
I0
sVmaid
p105
I0
sVwb
p106
I0
sVbbmw
p107
I0
sV6s
p108
I0
sVbbmr
p109
I0
sVbbir
p110
I0
sVbbiw
p111
I0
sVa
V-
sVb
I0
sVe
V-
sVd
I0
sVwmaid
p112
I0
sV4w
p113
I0
sVm
I9
sV4s
p114
I0
sVr
I0
sVw
I0
sVsr
p115
V-
sVov
p116
V-
sV5w
p117
I0
ssg46
(dp118
Va
V76.12
p119
sVb
I1004
sVinns
p120
I11
sVno
p121
I3
sVsr
p122
V60.65
p123
sVm
I9
sV4s
p124
I65
sV6s
p125
I2
sVhs
p126
V217*
p127
sVr
V609
p128
sV100s
p129
I3
sV50s
p130
I0
ssg60
I2013
stp131
a(Vban-nz-2013
(dp132
g24
(dp133
Vinns
p134
I6
sVc
I10
sVro
p135
I0
sVm
I6
sVs
I0
ssg28
(dp136
Vinns
p137
I1
sV10w
p138
I0
sVnb
p139
I0
sVmaid
p140
I0
sVwb
p141
I0
sVbbmw
p142
I0
sV6s
p143
I0
sVbbmr
p144
I0
sVbbir
p145
I0
sVbbiw
p146
I0
sVa
V-
sVb
I6
sVe
V5.00
p147
sVd
I2
sVwmaid
p148
I0
sV4w
p149
I0
sVm
I6
sV4s
p150
I0
sVr
I5
sVw
I0
sVsr
p151
V-
sVov
p152
V1.00
p153
sV5w
p154
I0
ssg46
(dp155
Va
V64.60
p156
sVb
I446
sVinns
p157
I7
sVno
p158
I2
sVsr
p159
V72.42
p160
sVm
I6
sV4s
p161
I27
sV6s
p162
I5
sVhs
p163
V107*
p164
sVr
V323
p165
sV100s
p166
I1
sV50s
p167
I2
ssg60
I2013
stp168
a(Veng-nz-2013
(dp169
g24
(dp170
Vinns
p171
I4
sVc
I4
sVro
p172
I0
sVm
I6
sVs
I0
ssg28
(dp173
Vinns
p174
I0
sV10w
p175
I0
sVnb
p176
I0
sVmaid
p177
I0
sVwb
p178
I0
sVbbmw
p179
I0
sV6s
p180
I0
sVbbmr
p181
I0
sVbbir
p182
I0
sVbbiw
p183
I0
sVa
V-
sVb
I0
sVe
V-
sVd
I0
sVwmaid
p184
I0
sV4w
p185
I0
sVm
I6
sV4s
p186
I0
sVr
I0
sVw
I0
sVsr
p187
V-
sVov
p188
V-
sV5w
p189
I0
ssg46
(dp190
Va
V51.28
p191
sVb
I441
sVinns
p192
I8
sVno
p193
I1
sVsr
p194
V81.40
p195
sVm
I6
sV4s
p196
I39
sV6s
p197
I6
sVhs
p198
V71
p199
sVr
V359
p200
sV100s
p201
I0
sV50s
p202
I5
ssg60
I2013
stp203
a(Vchamptrophy-2013
(dp204
g24
(dp205
Vinns
p206
I1
sVc
I1
sVro
p207
I0
sVm
I3
sVs
I0
ssg28
(dp208
Vinns
p209
I0
sV10w
p210
I0
sVnb
p211
I0
sVmaid
p212
I0
sVwb
p213
I0
sVbbmw
p214
I0
sV6s
p215
I0
sVbbmr
p216
I0
sVbbir
p217
I0
sVbbiw
p218
I0
sVa
V-
sVb
I0
sVe
V-
sVd
I0
sVwmaid
p219
I0
sV4w
p220
I0
sVm
I3
sV4s
p221
I0
sVr
I0
sVw
I0
sVsr
p222
V-
sVov
p223
V-
sV5w
p224
I0
ssg46
(dp225
Va
V6.00
p226
sVb
I33
sVinns
p227
I3
sVno
p228
I1
sVsr
p229
V36.36
p230
sVm
I3
sV4s
p231
I0
sV6s
p232
I0
sVhs
p233
V9*
p234
sVr
V12
p235
sV100s
p236
I0
sV50s
p237
I0
ssg60
I2013
stp238
a(Vipl2013
p239
(dp240
g24
(dp241
Vinns
p242
I2
sVc
I2
sVro
p243
I0
sVm
I5
sVs
I0
ssg28
(dp244
Vinns
p245
I0
sV10w
p246
I0
sVnb
p247
I0
sVmaid
p248
I0
sVwb
p249
I0
sVbbmw
p250
I0
sV6s
p251
I0
sVbbmr
p252
I0
sVbbir
p253
I0
sVbbiw
p254
I0
sVa
V-
sVb
I0
sVe
V-
sVd
I0
sVwmaid
p255
I0
sV4w
p256
I0
sVm
I5
sV4s
p257
I0
sVr
I0
sVw
I0
sVsr
p258
V-
sVov
p259
V-
sV5w
p260
I0
ssg46
(dp261
Va
V12.60
p262
sVb
I76
sVinns
p263
I5
sVno
p264
I0
sVsr
p265
V82.89
p266
sVm
I5
sV4s
p267
I2
sV6s
p268
I1
sVhs
p269
V19
p270
sVr
V63
p271
sV100s
p272
I0
sV50s
p273
I0
ssg60
I2013
stp274
a(Vipl2012
(dp275
g24
(dp276
Vinns
p277
I2
sVc
I3
sVro
p278
I0
sVm
I12
sVs
I0
ssg28
(dp279
Vinns
p280
I0
sV10w
p281
I0
sVnb
p282
I0
sVmaid
p283
I0
sVwb
p284
I0
sVbbmw
p285
I0
sV6s
p286
I0
sVbbmr
p287
I0
sVbbir
p288
I0
sVbbiw
p289
I0
sVa
V-
sVb
I0
sVe
V-
sVd
I0
sVwmaid
p290
I0
sV4w
p291
I0
sVm
I12
sV4s
p292
I0
sVr
I0
sVw
I0
sVsr
p293
V-
sVov
p294
V-
sV5w
p295
I0
ssg46
(dp296
Va
V19.70
p297
sVb
I171
sVinns
p298
I12
sVno
p299
I2
sVsr
p300
V115.20
p301
sVm
I12
sV4s
p302
I12
sV6s
p303
I7
sVhs
p304
V55
p305
sVr
V197
p306
sV100s
p307
I0
sV50s
p308
I1
ssg60
I2012
stp309
a(Vclt20-2012
(dp310
g24
(dp311
Vinns
p312
I1
sVc
I1
sVro
p313
I0
sVm
I4
sVs
I0
ssg28
(dp314
Vinns
p315
I0
sV10w
p316
I0
sVnb
p317
I0
sVmaid
p318
I0
sVwb
p319
I0
sVbbmw
p320
I0
sV6s
p321
I0
sVbbmr
p322
I0
sVbbir
p323
I0
sVbbiw
p324
I0
sVa
V-
sVb
I0
sVe
V-
sVd
I0
sVwmaid
p325
I0
sV4w
p326
I0
sVm
I4
sV4s
p327
I0
sVr
I0
sVw
I0
sVsr
p328
V-
sVov
p329
V-
sV5w
p330
I0
ssg46
(dp331
Va
V14.00
p332
sVb
I37
sVinns
p333
I3
sVno
p334
I0
sVsr
p335
V113.51
p336
sVm
I4
sV4s
p337
I1
sV6s
p338
I2
sVhs
p339
V36
p340
sVr
V42
p341
sV100s
p342
I0
sV50s
p343
I0
ssg60
I2012
stp344
a(Vpre-worldt20-2012
(dp345
g24
(dp346
Vinns
p347
I1
sVc
I1
sVro
p348
I0
sVm
I2
sVs
I0
ssg28
(dp349
Vinns
p350
I0
sV10w
p351
I0
sVnb
p352
I0
sVmaid
p353
I0
sVwb
p354
I0
sVbbmw
p355
I0
sV6s
p356
I0
sVbbmr
p357
I0
sVbbir
p358
I0
sVbbiw
p359
I0
sVa
V-
sVb
I0
sVe
V-
sVd
I0
sVwmaid
p360
I0
sV4w
p361
I0
sVm
I2
sV4s
p362
I0
sVr
I0
sVw
I0
sVsr
p363
V-
sVov
p364
V-
sV5w
p365
I0
ssg46
(dp366
Va
V-
sVb
I38
sVinns
p367
I2
sVno
p368
I2
sVsr
p369
V131.57
p370
sVm
I2
sV4s
p371
I0
sV6s
p372
I2
sVhs
p373
V25*
p374
sVr
V50
p375
sV100s
p376
I0
sV50s
p377
I0
ssg60
I2012
stp378
a(Vworldt20-2012
(dp379
g24
(dp380
Vinns
p381
I3
sVc
I4
sVro
p382
I0
sVm
I7
sVs
I0
ssg28
(dp383
Vinns
p384
I0
sV10w
p385
I0
sVnb
p386
I0
sVmaid
p387
I0
sVwb
p388
I0
sVbbmw
p389
I0
sV6s
p390
I0
sVbbmr
p391
I0
sVbbir
p392
I0
sVbbiw
p393
I0
sVa
V-
sVb
I0
sVe
V-
sVd
I0
sVwmaid
p394
I0
sV4w
p395
I0
sVm
I7
sV4s
p396
I0
sVr
I0
sVw
I0
sVsr
p397
V-
sVov
p398
V-
sV5w
p399
I0
ssg46
(dp400
Va
V48.80
p401
sVb
I163
sVinns
p402
I7
sVno
p403
I2
sVsr
p404
V149.69
p405
sVm
I7
sV4s
p406
I16
sV6s
p407
I12
sVhs
p408
V75
p409
sVr
V244
p410
sV100s
p411
I0
sV50s
p412
I2
ssg60
I2012
stp413
a(Vipl2011
(dp414
g24
(dp415
Vinns
p416
I4
sVc
I4
sVro
p417
I0
sVm
I12
sVs
I0
ssg28
(dp418
Vinns
p419
I1
sV10w
p420
I0
sVnb
p421
I0
sVmaid
p422
I0
sVwb
p423
I0
sVbbmw
p424
I0
sV6s
p425
I1
sVbbmr
p426
I0
sVbbir
p427
I0
sVbbiw
p428
I0
sVa
V-
sVb
I6
sVe
V11.00
p429
sVd
I0
sVwmaid
p430
I0
sV4w
p431
I0
sVm
I12
sV4s
p432
I0
sVr
I11
sVw
I0
sVsr
p433
V-
sVov
p434
V1.00
p435
sV5w
p436
I0
ssg46
(dp437
Va
V36.20
p438
sVb
I152
sVinns
p439
I11
sVno
p440
I6
sVsr
p441
V119.07
p442
sVm
I12
sV4s
p443
I11
sV6s
p444
I7
sVhs
p445
V47*
p446
sVr
V181
p447
sV100s
p448
I0
sV50s
p449
I0
ssg60
I2011
stp450
a(Vclt20-2010
(dp451
g24
(dp452
Vinns
p453
I2
sVc
I2
sVro
p454
I0
sVm
I5
sVs
I0
ssg28
(dp455
Vinns
p456
I0
sV10w
p457
I0
sVnb
p458
I0
sVmaid
p459
I0
sVwb
p460
I0
sVbbmw
p461
I0
sV6s
p462
I0
sVbbmr
p463
I0
sVbbir
p464
I0
sVbbiw
p465
I0
sVa
V-
sVb
I0
sVe
V-
sVd
I0
sVwmaid
p466
I0
sV4w
p467
I0
sVm
I5
sV4s
p468
I0
sVr
I0
sVw
I0
sVsr
p469
V-
sVov
p470
V-
sV5w
p471
I0
ssg46
(dp472
Va
V16.00
p473
sVb
I49
sVinns
p474
I4
sVno
p475
I0
sVsr
p476
V130.61
p477
sVm
I5
sV4s
p478
I10
sV6s
p479
I1
sVhs
p480
V46
p481
sVr
V64
p482
sV100s
p483
I0
sV50s
p484
I0
ssg60
I2010
stp485
a(Vipl2010
(dp486
g24
(dp487
Vinns
p488
I4
sVc
I4
sVro
p489
I0
sVm
I7
sVs
I0
ssg28
(dp490
Vinns
p491
I0
sV10w
p492
I0
sVnb
p493
I0
sVmaid
p494
I0
sVwb
p495
I0
sVbbmw
p496
I0
sV6s
p497
I0
sVbbmr
p498
I0
sVbbir
p499
I0
sVbbiw
p500
I0
sVa
V-
sVb
I0
sVe
V-
sVd
I0
sVwmaid
p501
I0
sV4w
p502
I0
sVm
I7
sV4s
p503
I0
sVr
I0
sVw
I0
sVsr
p504
V-
sVov
p505
V-
sV5w
p506
I0
ssg46
(dp507
Va
V22.00
p508
sVb
I75
sVinns
p509
I7
sVno
p510
I3
sVsr
p511
V117.33
p512
sVm
I7
sV4s
p513
I2
sV6s
p514
I6
sVhs
p515
V31*
p516
sVr
V88
p517
sV100s
p518
I0
sV50s
p519
I0
ssg60
I2010
stp520
a(Vipl2009
(dp521
g24
(dp522
Vinns
p523
I2
sVc
I3
sVro
p524
I0
sVm
I11
sVs
I0
ssg28
(dp525
Vinns
p526
I1
sV10w
p527
I0
sVnb
p528
I0
sVmaid
p529
I0
sVwb
p530
I1
sVbbmw
p531
I0
sV6s
p532
I1
sVbbmr
p533
I0
sVbbir
p534
I0
sVbbiw
p535
I0
sVa
V-
sVb
I6
sVe
V13.00
p536
sVd
I0
sVwmaid
p537
I0
sV4w
p538
I0
sVm
I11
sV4s
p539
I0
sVr
I13
sVw
I0
sVsr
p540
V-
sVov
p541
V1.00
p542
sV5w
p543
I0
ssg46
(dp544
Va
V31.11
p545
sVb
I208
sVinns
p546
I11
sVno
p547
I2
sVsr
p548
V134.61
p549
sVm
I11
sV4s
p550
I20
sV6s
p551
I15
sVhs
p552
V81*
p553
sVr
V280
p554
sV100s
p555
I0
sV50s
p556
I1
ssg60
I2009
stp557
a(Vclt20-2009
(dp558
g24
(dp559
Vinns
p560
I0
sVc
I0
sVro
p561
I0
sVm
I4
sVs
I0
ssg28
(dp562
Vinns
p563
I0
sV10w
p564
I0
sVnb
p565
I0
sVmaid
p566
I0
sVwb
p567
I0
sVbbmw
p568
I0
sV6s
p569
I0
sVbbmr
p570
I0
sVbbir
p571
I0
sVbbiw
p572
I0
sVa
V-
sVb
I0
sVe
V-
sVd
I0
sVwmaid
p573
I0
sV4w
p574
I0
sVm
I4
sV4s
p575
I0
sVr
I0
sVw
I0
sVsr
p576
V-
sVov
p577
V-
sV5w
p578
I0
ssg46
(dp579
Va
V76.00
p580
sVb
I80
sVinns
p581
I4
sVno
p582
I2
sVsr
p583
V190.00
p584
sVm
I4
sV4s
p585
I12
sV6s
p586
I11
sVhs
p587
V65
p588
sVr
V152
p589
sV100s
p590
I0
sV50s
p591
I2
ssg60
I2009
stp592
a(Vipl2008
(dp593
g24
(dp594
Vinns
p595
I1
sVc
I0
sVro
p596
I1
sVm
I4
sVs
I0
ssg28
(dp597
Vinns
p598
I0
sV10w
p599
I0
sVnb
p600
I0
sVmaid
p601
I0
sVwb
p602
I0
sVbbmw
p603
I0
sV6s
p604
I0
sVbbmr
p605
I0
sVbbir
p606
I0
sVbbiw
p607
I0
sVa
V-
sVb
I0
sVe
V-
sVd
I0
sVwmaid
p608
I0
sV4w
p609
I0
sVm
I4
sV4s
p610
I0
sVr
I0
sVw
I0
sVsr
p611
V-
sVov
p612
V-
sV5w
p613
I0
ssg46
(dp614
Va
V37.25
p615
sVb
I81
sVinns
p616
I4
sVno
p617
I0
sVsr
p618
V183.95
p619
sVm
I4
sV4s
p620
I13
sV6s
p621
I10
sVhs
p622
V53
p623
sVr
V149
p624
sV100s
p625
I0
sV50s
p626
I1
ssg60
I2008
stp627
asb.