(iplayer
Player
p1
(dp2
S'is_batsman'
p3
I01
sS'name'
p4
S'Chris Lynn'
p5
sS'dob'
p6
S'1990/04/10'
p7
sS'price'
p8
S'800000'
p9
sS'is_allrounder'
p10
I00
sS'is_overseas'
p11
I01
sS'team'
p12
S'KKR'
p13
sS'nationality'
p14
S'Australian'
p15
sS'is_bowler'
p16
I00
sS'is_keeper'
p17
I00
sS'id'
p18
S'179'
p19
sS'is_uncapped'
p20
I00
sS'tournamentStats'
p21
(lp22
(Vbigbash-2013
(dp23
S'fieldingStats'
p24
(dp25
Vinns
p26
I4
sVc
I7
sVro
p27
I0
sVm
I8
sVs
I0
ssS'bowlingStats'
p28
(dp29
Vinns
p30
I0
sV10w
p31
I0
sVnb
p32
I0
sVmaid
p33
I0
sVwb
p34
I0
sVbbmw
p35
I0
sV6s
p36
I0
sVbbmr
p37
I0
sVbbir
p38
I0
sVbbiw
p39
I0
sVa
V-
sVb
I0
sVe
V-
sVd
I0
sVwmaid
p40
I0
sV4w
p41
I0
sVm
I8
sV4s
p42
I0
sVr
I0
sVw
I0
sVsr
p43
V-
sVov
p44
V-
sV5w
p45
I0
ssS'battingStats'
p46
(dp47
Va
V28.28
p48
sVb
I137
sVinns
p49
I8
sVno
p50
I1
sVsr
p51
V144.52
p52
sVm
I8
sV4s
p53
I9
sV6s
p54
I14
sVhs
p55
V81
p56
sVr
V198
p57
sV100s
p58
I0
sV50s
p59
I2
ssS'year'
p60
I2013
stp61
a(Vclt20-2013
(dp62
g24
(dp63
Vinns
p64
I1
sVc
I1
sVro
p65
I0
sVm
I3
sVs
I0
ssg28
(dp66
Vinns
p67
I1
sV10w
p68
I0
sVnb
p69
I0
sVmaid
p70
I0
sVwb
p71
I0
sVbbmw
p72
I0
sV6s
p73
I0
sVbbmr
p74
I0
sVbbir
p75
I0
sVbbiw
p76
I0
sVa
V-
sVb
I6
sVe
V12.00
p77
sVd
I0
sVwmaid
p78
I0
sV4w
p79
I0
sVm
I3
sV4s
p80
I2
sVr
I12
sVw
I0
sVsr
p81
V-
sVov
p82
V1.00
p83
sV5w
p84
I0
ssg46
(dp85
Va
V15.66
p86
sVb
I46
sVinns
p87
I3
sVno
p88
I0
sVsr
p89
V102.17
p90
sVm
I3
sV4s
p91
I5
sV6s
p92
I1
sVhs
p93
V29
p94
sVr
V47
p95
sV100s
p96
I0
sV50s
p97
I0
ssg60
I2013
stp98
a(Vaus-eng-2013
p99
(dp100
g24
(dp101
Vinns
p102
I1
sVc
I1
sVro
p103
I0
sVm
I2
sVs
I0
ssg28
(dp104
Vinns
p105
I0
sV10w
p106
I0
sVnb
p107
I0
sVmaid
p108
I0
sVwb
p109
I0
sVbbmw
p110
I0
sV6s
p111
I0
sVbbmr
p112
I0
sVbbir
p113
I0
sVbbiw
p114
I0
sVa
V-
sVb
I0
sVe
V-
sVd
I0
sVwmaid
p115
I0
sV4w
p116
I0
sVm
I2
sV4s
p117
I0
sVr
I0
sVw
I0
sVsr
p118
V-
sVov
p119
V-
sV5w
p120
I0
ssg46
(dp121
Va
V-
sVb
I19
sVinns
p122
I1
sVno
p123
I1
sVsr
p124
V173.68
p125
sVm
I2
sV4s
p126
I1
sV6s
p127
I3
sVhs
p128
V33*
p129
sVr
V33
p130
sV100s
p131
I0
sV50s
p132
I0
ssg60
I2013
stp133
a(Vipl2012
(dp134
g24
(dp135
Vinns
p136
I1
sVc
I1
sVro
p137
I0
sVm
I1
sVs
I0
ssg28
(dp138
Vinns
p139
I0
sV10w
p140
I0
sVnb
p141
I0
sVmaid
p142
I0
sVwb
p143
I0
sVbbmw
p144
I0
sV6s
p145
I0
sVbbmr
p146
I0
sVbbir
p147
I0
sVbbiw
p148
I0
sVa
V-
sVb
I0
sVe
V-
sVd
I0
sVwmaid
p149
I0
sV4w
p150
I0
sVm
I1
sV4s
p151
I0
sVr
I0
sVw
I0
sVsr
p152
V-
sVov
p153
V-
sV5w
p154
I0
ssg46
(dp155
Va
V6.00
p156
sVb
I9
sVinns
p157
I1
sVno
p158
I0
sVsr
p159
V66.66
p160
sVm
I1
sV4s
p161
I1
sV6s
p162
I0
sVhs
p163
V6
sVr
V6
sV100s
p164
I0
sV50s
p165
I0
ssg60
I2012
stp166
a(Vbigbash-2012
(dp167
g24
(dp168
Vinns
p169
I1
sVc
I1
sVro
p170
I0
sVm
I9
sVs
I0
ssg28
(dp171
Vinns
p172
I3
sV10w
p173
I0
sVnb
p174
I0
sVmaid
p175
I0
sVwb
p176
I1
sVbbmw
p177
I2
sV6s
p178
I2
sVbbmr
p179
I15
sVbbir
p180
I15
sVbbiw
p181
I2
sVa
V16.33
p182
sVb
I42
sVe
V7.00
p183
sVd
I11
sVwmaid
p184
I0
sV4w
p185
I0
sVm
I9
sV4s
p186
I0
sVr
I49
sVw
I3
sVsr
p187
V14.00
p188
sVov
p189
V7.00
p190
sV5w
p191
I0
ssg46
(dp192
Va
V35.00
p193
sVb
I121
sVinns
p194
I8
sVno
p195
I3
sVsr
p196
V144.62
p197
sVm
I9
sV4s
p198
I12
sV6s
p199
I10
sVhs
p200
V51*
p201
sVr
V175
p202
sV100s
p203
I0
sV50s
p204
I2
ssg60
I2012
stp205
asb.