(iplayer
Player
p1
(dp2
S'is_batsman'
p3
I00
sS'name'
p4
S'Mohammed Shami'
p5
sS'dob'
p6
S'1990/03/09'
p7
sS'price'
p8
S'850000'
p9
sS'is_allrounder'
p10
I00
sS'is_overseas'
p11
I00
sS'team'
p12
S'DD'
p13
sS'nationality'
p14
S'Indian'
p15
sS'is_bowler'
p16
I01
sS'is_keeper'
p17
I00
sS'id'
p18
S'94'
p19
sS'is_uncapped'
p20
I00
sS'tournamentStats'
p21
(lp22
(Vasiacup-2014
(dp23
S'fieldingStats'
p24
(dp25
Vinns
p26
I1
sVc
I1
sVro
p27
I0
sVm
I4
sVs
I0
ssS'bowlingStats'
p28
(dp29
Vinns
p30
I4
sV10w
p31
I0
sVnb
p32
I0
sVmaid
p33
I1
sVwb
p34
I4
sVbbmw
p35
I4
sV6s
p36
I4
sVbbmr
p37
I50
sVbbir
p38
I50
sVbbiw
p39
I4
sVa
V25.55
p40
sVb
I224
sVe
V6.16
p41
sVd
I120
sVwmaid
p42
I0
sV4w
p43
I1
sVm
I4
sV4s
p44
I29
sVr
I230
sVw
I9
sVsr
p45
V24.88
p46
sVov
p47
V37.33
p48
sV5w
p49
I0
ssS'battingStats'
p50
(dp51
Va
V14.00
p52
sVb
I10
sVinns
p53
I2
sVno
p54
I1
sVsr
p55
V140.00
p56
sVm
I4
sV4s
p57
I0
sV6s
p58
I2
sVhs
p59
V14*
p60
sVr
V14
p61
sV100s
p62
I0
sV50s
p63
I0
ssS'year'
p64
I2014
stp65
a(Vnz-ind-2014
(dp66
g24
(dp67
Vinns
p68
I3
sVc
I4
sVro
p69
I0
sVm
I7
sVs
I0
ssg28
(dp70
Vinns
p71
I9
sV10w
p72
I0
sVnb
p73
I1
sVmaid
p74
I20
sVwb
p75
I13
sVbbmw
p76
I6
sV6s
p77
I14
sVbbmr
p78
I219
sVbbir
p79
I55
sVbbiw
p80
I4
sVa
V31.76
p81
sVb
I863
sVe
V4.63
p82
sVd
I567
sVwmaid
p83
I1
sV4w
p84
I2
sVm
I7
sV4s
p85
I78
sVr
I667
sVw
I21
sVsr
p86
V41.09
p87
sVov
p88
V143.83
p89
sV5w
p90
I0
ssg50
(dp91
Va
V13.00
p92
sVb
I31
sVinns
p93
I7
sVno
p94
I5
sVsr
p95
V83.87
p96
sVm
I7
sV4s
p97
I1
sV6s
p98
I1
sVhs
p99
V14*
p100
sVr
V26
p101
sV100s
p102
I0
sV50s
p103
I0
ssg64
I2014
stp104
a(Vworldt20-2014
(dp105
g24
(dp106
Vinns
p107
I1
sVc
I0
sVro
p108
I1
sVm
I2
sVs
I0
ssg28
(dp109
Vinns
p110
I2
sV10w
p111
I0
sVnb
p112
I0
sVmaid
p113
I0
sVwb
p114
I5
sVbbmw
p115
I1
sV6s
p116
I2
sVbbmr
p117
I31
sVbbir
p118
I31
sVbbiw
p119
I1
sVa
V58.00
p120
sVb
I42
sVe
V8.28
p121
sVd
I21
sVwmaid
p122
I0
sV4w
p123
I0
sVm
I2
sV4s
p124
I6
sVr
I58
sVw
I1
sVsr
p125
V42.00
p126
sVov
p127
V7.00
p128
sV5w
p129
I0
ssg50
(dp130
Va
V-
sVinns
p131
I0
sVno
p132
I0
sVsr
p133
V-
sVm
I2
sV4s
p134
I0
sV6s
p135
I0
sVhs
p136
V0*
p137
sVr
V0
sV100s
p138
I0
sV50s
p139
I0
ssg64
I2014
stp140
a(Vind-wi-2013
(dp141
g24
(dp142
Vinns
p143
I2
sVc
I1
sVro
p144
I1
sVm
I5
sVs
I0
ssg28
(dp145
Vinns
p146
I7
sV10w
p147
I0
sVnb
p148
I0
sVmaid
p149
I5
sVwb
p150
I2
sVbbmw
p151
I9
sV6s
p152
I4
sVbbmr
p153
I118
sVbbir
p154
I47
sVbbiw
p155
I5
sVa
V20.93
p156
sVb
I433
sVe
V4.35
p157
sVd
I281
sVwmaid
p158
I1
sV4w
p159
I1
sVm
I5
sV4s
p160
I44
sVr
I314
sVw
I15
sVsr
p161
V28.86
p162
sVov
p163
V72.16
p164
sV5w
p165
I1
ssg50
(dp166
Va
V6.00
p167
sVb
I36
sVinns
p168
I2
sVno
p169
I0
sVsr
p170
V33.33
p171
sVm
I5
sV4s
p172
I2
sV6s
p173
I0
sVhs
p174
V11
p175
sVr
V12
p176
sV100s
p177
I0
sV50s
p178
I0
ssg64
I2013
stp179
a(Vsa-ind-2013
(dp180
g24
(dp181
Vinns
p182
I0
sVc
I0
sVro
p183
I0
sVm
I5
sVs
I0
ssg28
(dp184
Vinns
p185
I7
sV10w
p186
I0
sVnb
p187
I0
sVmaid
p188
I12
sVwb
p189
I10
sVbbmw
p190
I5
sV6s
p191
I8
sVbbmr
p192
I155
sVbbir
p193
I48
sVbbiw
p194
I3
sVa
V29.86
p195
sVb
I618
sVe
V4.34
p196
sVd
I388
sVwmaid
p197
I0
sV4w
p198
I0
sVm
I5
sV4s
p199
I50
sVr
I448
sVw
I15
sVsr
p200
V41.20
p201
sVov
p202
V103.00
p203
sV5w
p204
I0
ssg50
(dp205
Va
V2.80
p206
sVb
I33
sVinns
p207
I6
sVno
p208
I1
sVsr
p209
V42.42
p210
sVm
I5
sV4s
p211
I1
sV6s
p212
I0
sVhs
p213
V8
sVr
V14
p214
sV100s
p215
I0
sV50s
p216
I0
ssg64
I2013
stp217
a(Vzim-ind-2013
(dp218
g24
(dp219
Vinns
p220
I2
sVc
I2
sVro
p221
I0
sVm
I5
sVs
I0
ssg28
(dp222
Vinns
p223
I5
sV10w
p224
I0
sVnb
p225
I0
sVmaid
p226
I3
sVwb
p227
I7
sVbbmw
p228
I2
sV6s
p229
I2
sVbbmr
p230
I25
sVbbir
p231
I25
sVbbiw
p232
I2
sVa
V30.50
p233
sVb
I264
sVe
V4.15
p234
sVd
I167
sVwmaid
p235
I1
sV4w
p236
I0
sVm
I5
sV4s
p237
I19
sVr
I183
sVw
I6
sVsr
p238
V44.00
p239
sVov
p240
V44.00
p241
sV5w
p242
I0
ssg50
(dp243
Va
V-
sVb
I1
sVinns
p244
I1
sVno
p245
I1
sVsr
p246
V600.00
p247
sVm
I5
sV4s
p248
I0
sV6s
p249
I1
sVhs
p250
V6*
p251
sVr
V6
sV100s
p252
I0
sV50s
p253
I0
ssg64
I2013
stp254
a(Vtriseries-wi-2013
(dp255
g24
(dp256
Vinns
p257
I0
sVc
I0
sVro
p258
I0
sVm
I1
sVs
I0
ssg28
(dp259
Vinns
p260
I1
sV10w
p261
I0
sVnb
p262
I0
sVmaid
p263
I0
sVwb
p264
I3
sVbbmw
p265
I0
sV6s
p266
I1
sVbbmr
p267
I68
sVbbir
p268
I68
sVbbiw
p269
I0
sVa
V-
sVb
I60
sVe
V6.80
p270
sVd
I25
sVwmaid
p271
I0
sV4w
p272
I0
sVm
I1
sV4s
p273
I5
sVr
I68
sVw
I0
sVsr
p274
V-
sVov
p275
V10.00
p276
sV5w
p277
I0
ssg50
(dp278
Va
V0.00
p279
sVb
I1
sVinns
p280
I1
sVno
p281
I0
sVsr
p282
V0.00
p283
sVm
I1
sV4s
p284
I0
sV6s
p285
I0
sVhs
p286
V0*
p287
sVr
V0
sV100s
p288
I0
sV50s
p289
I0
ssg64
I2013
stp290
a(Vind-aus-2-2013
(dp291
g24
(dp292
Vinns
p293
I1
sVc
I1
sVro
p294
I0
sVm
I3
sVs
I0
ssg28
(dp295
Vinns
p296
I3
sV10w
p297
I0
sVnb
p298
I1
sVmaid
p299
I2
sVwb
p300
I1
sVbbmw
p301
I3
sV6s
p302
I5
sVbbmr
p303
I42
sVbbir
p304
I42
sVbbiw
p305
I3
sVa
V22.85
p306
sVb
I145
sVe
V6.62
p307
sVd
I83
sVwmaid
p308
I0
sV4w
p309
I0
sVm
I3
sV4s
p310
I21
sVr
I160
sVw
I7
sVsr
p311
V20.71
p312
sVov
p313
V24.16
p314
sV5w
p315
I0
ssg50
(dp316
Va
V-
sVinns
p317
I0
sVno
p318
I0
sVsr
p319
V-
sVm
I3
sV4s
p320
I0
sV6s
p321
I0
sVhs
p322
V0*
p323
sVr
V0
sV100s
p324
I0
sV50s
p325
I0
ssg64
I2013
stp326
a(Vipl2013
(dp327
g24
(dp328
Vinns
p329
I1
sVc
I0
sVro
p330
I1
sVm
I3
sVs
I0
ssg28
(dp331
Vinns
p332
I3
sV10w
p333
I0
sVnb
p334
I0
sVmaid
p335
I0
sVwb
p336
I3
sVbbmw
p337
I1
sV6s
p338
I2
sVbbmr
p339
I32
sVbbir
p340
I32
sVbbiw
p341
I1
sVa
V78.00
p342
sVb
I54
sVe
V8.66
p343
sVd
I21
sVwmaid
p344
I0
sV4w
p345
I0
sVm
I3
sV4s
p346
I10
sVr
I78
sVw
I1
sVsr
p347
V54.00
p348
sVov
p349
V9.00
p350
sV5w
p351
I0
ssg50
(dp352
Va
V5.00
p353
sVb
I10
sVinns
p354
I1
sVno
p355
I0
sVsr
p356
V50.00
p357
sVm
I3
sV4s
p358
I0
sV6s
p359
I0
sVhs
p360
V5
sVr
V5
sV100s
p361
I0
sV50s
p362
I0
ssg64
I2013
stp363
a(Vind-eng-2012-13
(dp364
g24
(dp365
Vinns
p366
I0
sVc
I0
sVro
p367
I0
sVm
I4
sVs
I0
ssg28
(dp368
Vinns
p369
I4
sV10w
p370
I0
sVnb
p371
I0
sVmaid
p372
I2
sVwb
p373
I7
sVbbmw
p374
I1
sV6s
p375
I2
sVbbmr
p376
I23
sVbbir
p377
I23
sVbbiw
p378
I1
sVa
V50.33
p379
sVb
I174
sVe
V5.20
p380
sVd
I108
sVwmaid
p381
I0
sV4w
p382
I0
sVm
I4
sV4s
p383
I22
sVr
I151
sVw
I3
sVsr
p384
V58.00
p385
sVov
p386
V29.00
p387
sV5w
p388
I0
ssg50
(dp389
Va
V1.00
p390
sVb
I6
sVinns
p391
I1
sVno
p392
I0
sVsr
p393
V16.66
p394
sVm
I4
sV4s
p395
I0
sV6s
p396
I0
sVhs
p397
V1
sVr
V1
sV100s
p398
I0
sV50s
p399
I0
ssg64
I2012
stp400
a(Vind-pak-2012-13
p401
(dp402
g24
(dp403
Vinns
p404
I0
sVc
I0
sVro
p405
I0
sVm
I1
sVs
I0
ssg28
(dp406
Vinns
p407
I1
sV10w
p408
I0
sVnb
p409
I0
sVmaid
p410
I4
sVwb
p411
I0
sVbbmw
p412
I1
sV6s
p413
I0
sVbbmr
p414
I23
sVbbir
p415
I23
sVbbiw
p416
I1
sVa
V23.00
p417
sVb
I54
sVe
V2.55
p418
sVd
I45
sVwmaid
p419
I1
sV4w
p420
I0
sVm
I1
sV4s
p421
I4
sVr
I23
sVw
I1
sVsr
p422
V54.00
p423
sVov
p424
V9.00
p425
sV5w
p426
I0
ssg50
(dp427
Va
V-
sVb
I5
sVinns
p428
I1
sVno
p429
I1
sVsr
p430
V0.00
p431
sVm
I1
sV4s
p432
I0
sV6s
p433
I0
sVhs
p434
V0*
p435
sVr
V0
sV100s
p436
I0
sV50s
p437
I0
ssg64
I2012
stp438
a(Vclt20-2011
(dp439
g24
(dp440
Vinns
p441
I1
sVc
I1
sVro
p442
I0
sVm
I1
sVs
I0
ssg28
(dp443
Vinns
p444
I1
sV10w
p445
I0
sVnb
p446
I0
sVmaid
p447
I0
sVwb
p448
I0
sVbbmw
p449
I0
sV6s
p450
I0
sVbbmr
p451
I10
sVbbir
p452
I10
sVbbiw
p453
I0
sVa
V-
sVb
I6
sVe
V10.00
p454
sVd
I1
sVwmaid
p455
I0
sV4w
p456
I0
sVm
I1
sV4s
p457
I1
sVr
I10
sVw
I0
sVsr
p458
V-
sVov
p459
V1.00
p460
sV5w
p461
I0
ssg50
(dp462
Va
V-
sVinns
p463
I0
sVno
p464
I0
sVsr
p465
V-
sVm
I1
sV4s
p466
I0
sV6s
p467
I0
sVhs
p468
V0*
p469
sVr
V0
sV100s
p470
I0
sV50s
p471
I0
ssg64
I2011
stp472
a(Vipl2009
(dp473
g24
(dp474
Vinns
p475
I4
sVc
I4
sVro
p476
I0
sVm
I8
sVs
I0
ssg28
(dp477
Vinns
p478
I7
sV10w
p479
I0
sVnb
p480
I0
sVmaid
p481
I0
sVwb
p482
I1
sVbbmw
p483
I2
sV6s
p484
I7
sVbbmr
p485
I20
sVbbir
p486
I20
sVbbiw
p487
I2
sVa
V30.40
p488
sVb
I102
sVe
V8.94
p489
sVd
I33
sVwmaid
p490
I0
sV4w
p491
I0
sVm
I8
sV4s
p492
I14
sVr
I152
sVw
I5
sVsr
p493
V20.40
p494
sVov
p495
V17.00
p496
sV5w
p497
I0
ssg50
(dp498
Va
V0.50
p499
sVb
I6
sVinns
p500
I3
sVno
p501
I1
sVsr
p502
V16.66
p503
sVm
I8
sV4s
p504
I0
sV6s
p505
I0
sVhs
p506
V1*
p507
sVr
V1
sV100s
p508
I0
sV50s
p509
I0
ssg64
I2009
stp510
asb.