(iplayer
Player
p1
(dp2
S'is_batsman'
p3
I00
sS'name'
p4
S'Parthiv Patel'
p5
sS'dob'
p6
S'1985/03/09'
p7
sS'price'
p8
S'850000'
p9
sS'is_allrounder'
p10
I00
sS'is_overseas'
p11
I00
sS'team'
p12
S'RCB'
p13
sS'nationality'
p14
S'Indian'
p15
sS'is_bowler'
p16
I00
sS'is_keeper'
p17
I01
sS'id'
p18
S'44'
p19
sS'is_uncapped'
p20
I00
sS'tournamentStats'
p21
(lp22
(Vclt20-2013
(dp23
S'fieldingStats'
p24
(dp25
Vinns
p26
I4
sVc
I8
sVro
p27
I0
sVm
I6
sVs
I0
ssS'bowlingStats'
p28
(dp29
Vinns
p30
I0
sV10w
p31
I0
sVnb
p32
I0
sVmaid
p33
I0
sVwb
p34
I0
sVbbmw
p35
I0
sV6s
p36
I0
sVbbmr
p37
I0
sVbbir
p38
I0
sVbbiw
p39
I0
sVa
V-
sVb
I0
sVe
V-
sVd
I0
sVwmaid
p40
I0
sV4w
p41
I0
sVm
I6
sV4s
p42
I0
sVr
I0
sVw
I0
sVsr
p43
V-
sVov
p44
V-
sV5w
p45
I0
ssS'battingStats'
p46
(dp47
Va
V27.83
p48
sVb
I142
sVinns
p49
I6
sVno
p50
I0
sVsr
p51
V117.60
p52
sVm
I6
sV4s
p53
I22
sV6s
p54
I3
sVhs
p55
V52
p56
sVr
V167
p57
sV100s
p58
I0
sV50s
p59
I1
ssS'year'
p60
I2013
stp61
a(Vipl2013
p62
(dp63
g24
(dp64
Vinns
p65
I6
sVc
I5
sVro
p66
I0
sVm
I13
sVs
I3
ssg28
(dp67
Vinns
p68
I0
sV10w
p69
I0
sVnb
p70
I0
sVmaid
p71
I0
sVwb
p72
I0
sVbbmw
p73
I0
sV6s
p74
I0
sVbbmr
p75
I0
sVbbir
p76
I0
sVbbiw
p77
I0
sVa
V-
sVb
I0
sVe
V-
sVd
I0
sVwmaid
p78
I0
sV4w
p79
I0
sVm
I13
sV4s
p80
I0
sVr
I0
sVw
I0
sVsr
p81
V-
sVov
p82
V-
sV5w
p83
I0
ssg46
(dp84
Va
V22.61
p85
sVb
I255
sVinns
p86
I13
sVno
p87
I0
sVsr
p88
V115.29
p89
sVm
I13
sV4s
p90
I37
sV6s
p91
I4
sVhs
p92
V61
p93
sVr
V294
p94
sV100s
p95
I0
sV50s
p96
I1
ssg60
I2013
stp97
a(Vipl2012
(dp98
g24
(dp99
Vinns
p100
I6
sVc
I5
sVro
p101
I2
sVm
I14
sVs
I1
ssg28
(dp102
Vinns
p103
I0
sV10w
p104
I0
sVnb
p105
I0
sVmaid
p106
I0
sVwb
p107
I0
sVbbmw
p108
I0
sV6s
p109
I0
sVbbmr
p110
I0
sVbbir
p111
I0
sVbbiw
p112
I0
sVa
V-
sVb
I0
sVe
V-
sVd
I0
sVwmaid
p113
I0
sV4w
p114
I0
sVm
I14
sV4s
p115
I0
sVr
I0
sVw
I0
sVsr
p116
V-
sVov
p117
V-
sV5w
p118
I0
ssg46
(dp119
Va
V17.63
p120
sVb
I165
sVinns
p121
I13
sVno
p122
I2
sVsr
p123
V117.57
p124
sVm
I14
sV4s
p125
I19
sV6s
p126
I4
sVhs
p127
V45
p128
sVr
V194
p129
sV100s
p130
I0
sV50s
p131
I0
ssg60
I2012
stp132
a(Vipl2011
(dp133
g24
(dp134
Vinns
p135
I8
sVc
I8
sVro
p136
I3
sVm
I14
sVs
I1
ssg28
(dp137
Vinns
p138
I0
sV10w
p139
I0
sVnb
p140
I0
sVmaid
p141
I0
sVwb
p142
I0
sVbbmw
p143
I0
sV6s
p144
I0
sVbbmr
p145
I0
sVbbir
p146
I0
sVbbiw
p147
I0
sVa
V-
sVb
I0
sVe
V-
sVd
I0
sVwmaid
p148
I0
sV4w
p149
I0
sVm
I14
sV4s
p150
I0
sVr
I0
sVw
I0
sVsr
p151
V-
sVov
p152
V-
sV5w
p153
I0
ssg46
(dp154
Va
V20.20
p155
sVb
I183
sVinns
p156
I13
sVno
p157
I3
sVsr
p158
V110.38
p159
sVm
I14
sV4s
p160
I25
sV6s
p161
I2
sVhs
p162
V37*
p163
sVr
V202
p164
sV100s
p165
I0
sV50s
p166
I0
ssg60
I2011
stp167
a(Vipl2010
(dp168
g24
(dp169
Vinns
p170
I2
sVc
I0
sVro
p171
I0
sVm
I4
sVs
I2
ssg28
(dp172
Vinns
p173
I0
sV10w
p174
I0
sVnb
p175
I0
sVmaid
p176
I0
sVwb
p177
I0
sVbbmw
p178
I0
sV6s
p179
I0
sVbbmr
p180
I0
sVbbir
p181
I0
sVbbiw
p182
I0
sVa
V-
sVb
I0
sVe
V-
sVd
I0
sVwmaid
p183
I0
sV4w
p184
I0
sVm
I4
sV4s
p185
I0
sVr
I0
sVw
I0
sVsr
p186
V-
sVov
p187
V-
sV5w
p188
I0
ssg46
(dp189
Va
V18.00
p190
sVb
I79
sVinns
p191
I4
sVno
p192
I0
sVsr
p193
V91.13
p194
sVm
I4
sV4s
p195
I6
sV6s
p196
I2
sVhs
p197
V57
p198
sVr
V72
p199
sV100s
p200
I0
sV50s
p201
I1
ssg60
I2010
stp202
a(Vipl2009
(dp203
g24
(dp204
Vinns
p205
I3
sVc
I3
sVro
p206
I0
sVm
I9
sVs
I0
ssg28
(dp207
Vinns
p208
I0
sV10w
p209
I0
sVnb
p210
I0
sVmaid
p211
I0
sVwb
p212
I0
sVbbmw
p213
I0
sV6s
p214
I0
sVbbmr
p215
I0
sVbbir
p216
I0
sVbbiw
p217
I0
sVa
V-
sVb
I0
sVe
V-
sVd
I0
sVwmaid
p218
I0
sV4w
p219
I0
sVm
I9
sV4s
p220
I0
sVr
I0
sVw
I0
sVsr
p221
V-
sVov
p222
V-
sV5w
p223
I0
ssg46
(dp224
Va
V15.77
p225
sVb
I126
sVinns
p226
I9
sVno
p227
I0
sVsr
p228
V112.69
p229
sVm
I9
sV4s
p230
I19
sV6s
p231
I2
sVhs
p232
V36
p233
sVr
V142
p234
sV100s
p235
I0
sV50s
p236
I0
ssg60
I2009
stp237
a(Vipl2008
(dp238
g24
(dp239
Vinns
p240
I3
sVc
I6
sVro
p241
I0
sVm
I13
sVs
I0
ssg28
(dp242
Vinns
p243
I0
sV10w
p244
I0
sVnb
p245
I0
sVmaid
p246
I0
sVwb
p247
I0
sVbbmw
p248
I0
sV6s
p249
I0
sVbbmr
p250
I0
sVbbir
p251
I0
sVbbiw
p252
I0
sVa
V-
sVb
I0
sVe
V-
sVd
I0
sVwmaid
p253
I0
sV4w
p254
I0
sVm
I13
sV4s
p255
I0
sVr
I0
sVw
I0
sVsr
p256
V-
sVov
p257
V-
sV5w
p258
I0
ssg46
(dp259
Va
V27.45
p260
sVb
I297
sVinns
p261
I13
sVno
p262
I2
sVsr
p263
V101.68
p264
sVm
I13
sV4s
p265
I42
sV6s
p266
I3
sVhs
p267
V54
p268
sVr
V302
p269
sV100s
p270
I0
sV50s
p271
I2
ssg60
I2008
stp272
asb.