(iplayer
Player
p1
(dp2
S'is_batsman'
p3
I00
sS'name'
p4
S'Thisara Perera'
p5
sS'dob'
p6
S'1989/04/03'
p7
sS'price'
p8
S'950000'
p9
sS'is_allrounder'
p10
I01
sS'is_overseas'
p11
I01
sS'team'
p12
S'KXIP'
p13
sS'nationality'
p14
S'Sri Lankan'
p15
sS'is_bowler'
p16
I00
sS'is_keeper'
p17
I00
sS'id'
p18
S'215'
p19
sS'is_uncapped'
p20
I00
sS'tournamentStats'
p21
(lp22
(Vban-sl-2014
(dp23
S'fieldingStats'
p24
(dp25
Vinns
p26
I2
sVc
I3
sVro
p27
I1
sVm
I5
sVs
I0
ssS'bowlingStats'
p28
(dp29
Vinns
p30
I4
sV10w
p31
I0
sVnb
p32
I0
sVmaid
p33
I1
sVwb
p34
I5
sVbbmw
p35
I2
sV6s
p36
I4
sVbbmr
p37
I40
sVbbir
p38
I40
sVbbiw
p39
I2
sVa
V26.00
p40
sVb
I168
sVe
V5.57
p41
sVd
I90
sVwmaid
p42
I1
sV4w
p43
I0
sVm
I5
sV4s
p44
I15
sVr
I156
sVw
I6
sVsr
p45
V28.00
p46
sVov
p47
V28.00
p48
sV5w
p49
I0
ssS'battingStats'
p50
(dp51
Va
V134.00
p52
sVb
I104
sVinns
p53
I4
sVno
p54
I3
sVsr
p55
V128.84
p56
sVm
I5
sV4s
p57
I7
sV6s
p58
I6
sVhs
p59
V80*
p60
sVr
V134
p61
sV100s
p62
I0
sV50s
p63
I1
ssS'year'
p64
I2014
stp65
a(Vworldt20-2014
(dp66
g24
(dp67
Vinns
p68
I2
sVc
I0
sVro
p69
I2
sVm
I3
sVs
I0
ssg28
(dp70
Vinns
p71
I2
sV10w
p72
I0
sVnb
p73
I0
sVmaid
p74
I0
sVwb
p75
I0
sVbbmw
p76
I0
sV6s
p77
I1
sVbbmr
p78
I0
sVbbir
p79
I0
sVbbiw
p80
I0
sVa
V-
sVb
I18
sVe
V10.66
p81
sVd
I6
sVwmaid
p82
I0
sV4w
p83
I0
sVm
I3
sV4s
p84
I5
sVr
I32
sVw
I0
sVsr
p85
V-
sVov
p86
V3.00
p87
sV5w
p88
I0
ssg50
(dp89
Va
V31.00
p90
sVb
I18
sVinns
p91
I2
sVno
p92
I1
sVsr
p93
V172.22
p94
sVm
I3
sV4s
p95
I3
sV6s
p96
I1
sVhs
p97
V23*
p98
sVr
V31
p99
sV100s
p100
I0
sV50s
p101
I0
ssg64
I2014
stp102
a(Vasiacup-2014
(dp103
g24
(dp104
Vinns
p105
I2
sVc
I2
sVro
p106
I0
sVm
I5
sVs
I0
ssg28
(dp107
Vinns
p108
I5
sV10w
p109
I0
sVnb
p110
I0
sVmaid
p111
I3
sVwb
p112
I3
sVbbmw
p113
I3
sV6s
p114
I5
sVbbmr
p115
I29
sVbbir
p116
I29
sVbbiw
p117
I3
sVa
V40.00
p118
sVb
I244
sVe
V4.91
p119
sVd
I127
sVwmaid
p120
I1
sV4w
p121
I0
sVm
I5
sV4s
p122
I16
sVr
I200
sVw
I5
sVsr
p123
V48.80
p124
sVov
p125
V40.66
p126
sV5w
p127
I0
ssg50
(dp128
Va
V25.50
p129
sVb
I73
sVinns
p130
I4
sVno
p131
I2
sVsr
p132
V69.86
p133
sVm
I5
sV4s
p134
I0
sV6s
p135
I0
sVhs
p136
V19*
p137
sVr
V51
p138
sV100s
p139
I0
sV50s
p140
I0
ssg64
I2014
stp141
a(Vsl-sa-2013
(dp142
g24
(dp143
Vinns
p144
I1
sVc
I1
sVro
p145
I0
sVm
I8
sVs
I0
ssg28
(dp146
Vinns
p147
I7
sV10w
p148
I0
sVnb
p149
I0
sVmaid
p150
I1
sVwb
p151
I2
sVbbmw
p152
I3
sV6s
p153
I4
sVbbmr
p154
I31
sVbbir
p155
I31
sVbbiw
p156
I3
sVa
V23.57
p157
sVb
I174
sVe
V5.68
p158
sVd
I90
sVwmaid
p159
I1
sV4w
p160
I0
sVm
I8
sV4s
p161
I17
sVr
I165
sVw
I7
sVsr
p162
V24.85
p163
sVov
p164
V29.00
p165
sV5w
p166
I0
ssg50
(dp167
Va
V52.00
p168
sVb
I118
sVinns
p169
I7
sVno
p170
I4
sVsr
p171
V132.20
p172
sVm
I8
sV4s
p173
I15
sV6s
p174
I7
sVhs
p175
V65
p176
sVr
V156
p177
sV100s
p178
I0
sV50s
p179
I1
ssg64
I2013
stp180
a(Vpak-sl-2013
(dp181
g24
(dp182
Vinns
p183
I2
sVc
I1
sVro
p184
I1
sVm
I5
sVs
I0
ssg28
(dp185
Vinns
p186
I5
sV10w
p187
I0
sVnb
p188
I0
sVmaid
p189
I0
sVwb
p190
I2
sVbbmw
p191
I2
sV6s
p192
I7
sVbbmr
p193
I36
sVbbir
p194
I36
sVbbiw
p195
I2
sVa
V32.16
p196
sVb
I136
sVe
V8.51
p197
sVd
I50
sVwmaid
p198
I0
sV4w
p199
I0
sVm
I5
sV4s
p200
I19
sVr
I193
sVw
I6
sVsr
p201
V22.66
p202
sVov
p203
V22.66
p204
sV5w
p205
I0
ssg50
(dp206
Va
V5.00
p207
sVb
I28
sVinns
p208
I4
sVno
p209
I1
sVsr
p210
V53.57
p211
sVm
I5
sV4s
p212
I1
sV6s
p213
I0
sVhs
p214
V6
sVr
V15
p215
sV100s
p216
I0
sV50s
p217
I0
ssg64
I2013
stp218
a(Vclt20-2013
(dp219
g24
(dp220
Vinns
p221
I3
sVc
I3
sVro
p222
I0
sVm
I5
sVs
I0
ssg28
(dp223
Vinns
p224
I5
sV10w
p225
I0
sVnb
p226
I1
sVmaid
p227
I0
sVwb
p228
I5
sVbbmw
p229
I2
sV6s
p230
I9
sVbbmr
p231
I26
sVbbir
p232
I26
sVbbiw
p233
I2
sVa
V63.66
p234
sVb
I105
sVe
V10.91
p235
sVd
I27
sVwmaid
p236
I0
sV4w
p237
I0
sVm
I5
sV4s
p238
I16
sVr
I191
sVw
I3
sVsr
p239
V35.00
p240
sVov
p241
V17.50
p242
sV5w
p243
I0
ssg50
(dp244
Va
V56.00
p245
sVb
I70
sVinns
p246
I4
sVno
p247
I2
sVsr
p248
V160.00
p249
sVm
I5
sV4s
p250
I8
sV6s
p251
I7
sVhs
p252
V57*
p253
sVr
V112
p254
sV100s
p255
I0
sV50s
p256
I1
ssg64
I2013
stp257
a(Vsl-nz-2013
(dp258
g24
(dp259
Vinns
p260
I0
sVc
I0
sVro
p261
I0
sVm
I2
sVs
I0
ssg28
(dp262
Vinns
p263
I1
sV10w
p264
I0
sVnb
p265
I0
sVmaid
p266
I0
sVwb
p267
I0
sVbbmw
p268
I1
sV6s
p269
I1
sVbbmr
p270
I13
sVbbir
p271
I0
sVbbiw
p272
I0
sVa
V13.00
p273
sVb
I12
sVe
V6.50
p274
sVd
I6
sVwmaid
p275
I0
sV4w
p276
I0
sVm
I2
sV4s
p277
I1
sVr
I13
sVw
I1
sVsr
p278
V12.00
p279
sVov
p280
V2.00
p281
sV5w
p282
I0
ssg50
(dp283
Va
V8.00
p284
sVb
I14
sVinns
p285
I1
sVno
p286
I0
sVsr
p287
V57.14
p288
sVm
I2
sV4s
p289
I0
sV6s
p290
I0
sVhs
p291
V8
sVr
V8
sV100s
p292
I0
sV50s
p293
I0
ssg64
I2013
stp294
a(Vchamptrophy-2013-warmups
(dp295
g24
(dp296
Vinns
p297
I1
sVc
I1
sVro
p298
I0
sVm
I2
sVs
I0
ssg28
(dp299
Vinns
p300
I2
sV10w
p301
I0
sVnb
p302
I0
sVmaid
p303
I1
sVwb
p304
I1
sVbbmw
p305
I2
sV6s
p306
I1
sVbbmr
p307
I48
sVbbir
p308
I48
sVbbiw
p309
I2
sVa
V27.33
p310
sVb
I90
sVe
V5.46
p311
sVd
I45
sVwmaid
p312
I1
sV4w
p313
I0
sVm
I2
sV4s
p314
I10
sVr
I82
sVw
I3
sVsr
p315
V30.00
p316
sVov
p317
V15.00
p318
sV5w
p319
I0
ssg50
(dp320
Va
V46.00
p321
sVb
I31
sVinns
p322
I2
sVno
p323
I1
sVsr
p324
V148.38
p325
sVm
I2
sV4s
p326
I4
sV6s
p327
I2
sVhs
p328
V26*
p329
sVr
V46
p330
sV100s
p331
I0
sV50s
p332
I0
ssg64
I2013
stp333
a(Vchamptrophy-2013
(dp334
g24
(dp335
Vinns
p336
I1
sVc
I0
sVro
p337
I1
sVm
I2
sVs
I0
ssg28
(dp338
Vinns
p339
I2
sV10w
p340
I0
sVnb
p341
I0
sVmaid
p342
I0
sVwb
p343
I0
sVbbmw
p344
I0
sV6s
p345
I0
sVbbmr
p346
I0
sVbbir
p347
I0
sVbbiw
p348
I0
sVa
V-
sVb
I48
sVe
V3.62
p349
sVd
I29
sVwmaid
p350
I0
sV4w
p351
I0
sVm
I2
sV4s
p352
I3
sVr
I29
sVw
I0
sVsr
p353
V-
sVov
p354
V8.00
p355
sV5w
p356
I0
ssg50
(dp357
Va
V7.50
p358
sVb
I33
sVinns
p359
I2
sVno
p360
I0
sVsr
p361
V45.45
p362
sVm
I2
sV4s
p363
I2
sV6s
p364
I0
sVhs
p365
V15
p366
sVr
V15
p367
sV100s
p368
I0
sV50s
p369
I0
ssg64
I2013
stp370
a(Vipl2013
p371
(dp372
g24
(dp373
Vinns
p374
I5
sVc
I5
sVro
p375
I2
sVm
I16
sVs
I0
ssg28
(dp376
Vinns
p377
I16
sV10w
p378
I0
sVnb
p379
I3
sVmaid
p380
I0
sVwb
p381
I8
sVbbmw
p382
I3
sV6s
p383
I13
sVbbmr
p384
I20
sVbbir
p385
I20
sVbbiw
p386
I3
sVa
V25.15
p387
sVb
I358
sVe
V8.01
p388
sVd
I136
sVwmaid
p389
I0
sV4w
p390
I0
sVm
I16
sV4s
p391
I53
sVr
I478
sVw
I19
sVsr
p392
V18.84
p393
sVov
p394
V59.66
p395
sV5w
p396
I0
ssg50
(dp397
Va
V23.30
p398
sVb
I163
sVinns
p399
I14
sVno
p400
I4
sVsr
p401
V142.94
p402
sVm
I16
sV4s
p403
I12
sV6s
p404
I14
sVhs
p405
V40
p406
sVr
V233
p407
sV100s
p408
I0
sV50s
p409
I0
ssg64
I2013
stp410
a(Vipl2012
(dp411
g24
(dp412
Vinns
p413
I2
sVc
I2
sVro
p414
I0
sVm
I2
sVs
I0
ssg28
(dp415
Vinns
p416
I2
sV10w
p417
I0
sVnb
p418
I0
sVmaid
p419
I0
sVwb
p420
I0
sVbbmw
p421
I0
sV6s
p422
I1
sVbbmr
p423
I0
sVbbir
p424
I0
sVbbiw
p425
I0
sVa
V-
sVb
I15
sVe
V10.80
p426
sVd
I2
sVwmaid
p427
I0
sV4w
p428
I0
sVm
I2
sV4s
p429
I2
sVr
I27
sVw
I0
sVsr
p430
V-
sVov
p431
V2.50
p432
sV5w
p433
I0
ssg50
(dp434
Va
V4.00
p435
sVb
I9
sVinns
p436
I2
sVno
p437
I1
sVsr
p438
V44.44
p439
sVm
I2
sV4s
p440
I0
sV6s
p441
I0
sVhs
p442
V4*
p443
sVr
V4
sV100s
p444
I0
sV50s
p445
I0
ssg64
I2012
stp446
a(Vclt20-2012
(dp447
g24
(dp448
Vinns
p449
I1
sVc
I1
sVro
p450
I0
sVm
I1
sVs
I0
ssg28
(dp451
Vinns
p452
I1
sV10w
p453
I0
sVnb
p454
I0
sVmaid
p455
I0
sVwb
p456
I0
sVbbmw
p457
I1
sV6s
p458
I0
sVbbmr
p459
I22
sVbbir
p460
I22
sVbbiw
p461
I1
sVa
V22.00
p462
sVb
I18
sVe
V7.33
p463
sVd
I4
sVwmaid
p464
I0
sV4w
p465
I0
sVm
I1
sV4s
p466
I2
sVr
I22
sVw
I1
sVsr
p467
V18.00
p468
sVov
p469
V3.00
p470
sV5w
p471
I0
ssg50
(dp472
Va
V2.00
p473
sVb
I4
sVinns
p474
I1
sVno
p475
I0
sVsr
p476
V50.00
p477
sVm
I1
sV4s
p478
I0
sV6s
p479
I0
sVhs
p480
V2
sVr
V2
sV100s
p481
I0
sV50s
p482
I0
ssg64
I2012
stp483
a(Vbigbash-2012
(dp484
g24
(dp485
Vinns
p486
I1
sVc
I0
sVro
p487
I1
sVm
I6
sVs
I0
ssg28
(dp488
Vinns
p489
I6
sV10w
p490
I0
sVnb
p491
I0
sVmaid
p492
I0
sVwb
p493
I3
sVbbmw
p494
I3
sV6s
p495
I5
sVbbmr
p496
I18
sVbbir
p497
I18
sVbbiw
p498
I3
sVa
V21.66
p499
sVb
I86
sVe
V9.06
p500
sVd
I21
sVwmaid
p501
I0
sV4w
p502
I0
sVm
I6
sV4s
p503
I10
sVr
I130
sVw
I6
sVsr
p504
V14.33
p505
sVov
p506
V14.33
p507
sV5w
p508
I0
ssg50
(dp509
Va
V22.75
p510
sVb
I51
sVinns
p511
I5
sVno
p512
I1
sVsr
p513
V178.43
p514
sVm
I6
sV4s
p515
I7
sV6s
p516
I6
sVhs
p517
V38
p518
sVr
V91
p519
sV100s
p520
I0
sV50s
p521
I0
ssg64
I2012
stp522
a(Vaus-sl-2012
(dp523
g24
(dp524
Vinns
p525
I3
sVc
I3
sVro
p526
I1
sVm
I7
sVs
I0
ssg28
(dp527
Vinns
p528
I7
sV10w
p529
I0
sVnb
p530
I1
sVmaid
p531
I0
sVwb
p532
I2
sVbbmw
p533
I2
sV6s
p534
I4
sVbbmr
p535
I40
sVbbir
p536
I40
sVbbiw
p537
I2
sVa
V34.14
p538
sVb
I234
sVe
V6.12
p539
sVd
I111
sVwmaid
p540
I0
sV4w
p541
I0
sVm
I7
sV4s
p542
I24
sVr
I239
sVw
I7
sVsr
p543
V33.42
p544
sVov
p545
V39.00
p546
sV5w
p547
I0
ssg50
(dp548
Va
V34.50
p549
sVb
I43
sVinns
p550
I5
sVno
p551
I3
sVsr
p552
V160.46
p553
sVm
I7
sV4s
p554
I5
sV6s
p555
I4
sVhs
p556
V35*
p557
sVr
V69
p558
sV100s
p559
I0
sV50s
p560
I0
ssg64
I2012
stp561
a(Vworldt20-2012
(dp562
g24
(dp563
Vinns
p564
I2
sVc
I2
sVro
p565
I1
sVm
I9
sVs
I0
ssg28
(dp566
Vinns
p567
I5
sV10w
p568
I0
sVnb
p569
I0
sVmaid
p570
I0
sVwb
p571
I0
sVbbmw
p572
I1
sV6s
p573
I2
sVbbmr
p574
I12
sVbbir
p575
I12
sVbbiw
p576
I1
sVa
V72.00
p577
sVb
I54
sVe
V8.00
p578
sVd
I18
sVwmaid
p579
I0
sV4w
p580
I0
sVm
I9
sV4s
p581
I8
sVr
I72
sVw
I1
sVsr
p582
V54.00
p583
sVov
p584
V9.00
p585
sV5w
p586
I0
ssg50
(dp587
Va
V15.50
p588
sVb
I49
sVinns
p589
I7
sVno
p590
I3
sVsr
p591
V126.53
p592
sVm
I9
sV4s
p593
I3
sV6s
p594
I3
sVhs
p595
V26*
p596
sVr
V62
p597
sV100s
p598
I0
sV50s
p599
I0
ssg64
I2012
stp600
a(Vipl2011
(dp601
g24
(dp602
Vinns
p603
I1
sVc
I0
sVro
p604
I1
sVm
I4
sVs
I0
ssg28
(dp605
Vinns
p606
I4
sV10w
p607
I0
sVnb
p608
I0
sVmaid
p609
I0
sVwb
p610
I2
sVbbmw
p611
I1
sV6s
p612
I2
sVbbmr
p613
I30
sVbbir
p614
I30
sVbbiw
p615
I1
sVa
V55.50
p616
sVb
I84
sVe
V7.92
p617
sVd
I24
sVwmaid
p618
I0
sV4w
p619
I0
sVm
I4
sV4s
p620
I12
sVr
I111
sVw
I2
sVsr
p621
V42.00
p622
sVov
p623
V14.00
p624
sV5w
p625
I0
ssg50
(dp626
Va
V11.50
p627
sVb
I27
sVinns
p628
I2
sVno
p629
I0
sVsr
p630
V85.18
p631
sVm
I4
sV4s
p632
I4
sV6s
p633
I0
sVhs
p634
V22
p635
sVr
V23
p636
sV100s
p637
I0
sV50s
p638
I0
ssg64
I2011
stp639
a(Vclt20-2010
(dp640
g24
(dp641
Vinns
p642
I1
sVc
I1
sVro
p643
I0
sVm
I4
sVs
I0
ssg28
(dp644
Vinns
p645
I4
sV10w
p646
I0
sVnb
p647
I1
sVmaid
p648
I0
sVwb
p649
I3
sVbbmw
p650
I1
sV6s
p651
I1
sVbbmr
p652
I13
sVbbir
p653
I13
sVbbiw
p654
I1
sVa
V41.50
p655
sVb
I57
sVe
V8.73
p656
sVd
I23
sVwmaid
p657
I0
sV4w
p658
I0
sVm
I4
sV4s
p659
I12
sVr
I83
sVw
I2
sVsr
p660
V28.50
p661
sVov
p662
V9.50
p663
sV5w
p664
I0
ssg50
(dp665
Va
V9.00
p666
sVb
I19
sVinns
p667
I4
sVno
p668
I1
sVsr
p669
V142.10
p670
sVm
I4
sV4s
p671
I3
sV6s
p672
I2
sVhs
p673
V12*
p674
sVr
V27
p675
sV100s
p676
I0
sV50s
p677
I0
ssg64
I2010
stp678
a(Vipl2010
(dp679
g24
(dp680
Vinns
p681
I0
sVc
I0
sVro
p682
I0
sVm
I1
sVs
I0
ssg28
(dp683
Vinns
p684
I1
sV10w
p685
I0
sVnb
p686
I0
sVmaid
p687
I0
sVwb
p688
I0
sVbbmw
p689
I0
sV6s
p690
I0
sVbbmr
p691
I19
sVbbir
p692
I19
sVbbiw
p693
I0
sVa
V-
sVb
I6
sVe
V19.00
p694
sVd
I0
sVwmaid
p695
I0
sV4w
p696
I0
sVm
I1
sV4s
p697
I4
sVr
I19
sVw
I0
sVsr
p698
V-
sVov
p699
V1.00
p700
sV5w
p701
I0
ssg50
(dp702
Va
V-
sVinns
p703
I0
sVno
p704
I0
sVsr
p705
V-
sVm
I1
sV4s
p706
I0
sV6s
p707
I0
sVhs
p708
V0*
p709
sVr
V0
sV100s
p710
I0
sV50s
p711
I0
ssg64
I2010
stp712
a(Vclt20-2009
(dp713
g24
(dp714
Vinns
p715
I1
sVc
I1
sVro
p716
I0
sVm
I1
sVs
I0
ssg28
(dp717
Vinns
p718
I1
sV10w
p719
I0
sVnb
p720
I0
sVmaid
p721
I0
sVwb
p722
I0
sVbbmw
p723
I0
sV6s
p724
I1
sVbbmr
p725
I10
sVbbir
p726
I10
sVbbiw
p727
I0
sVa
V-
sVb
I18
sVe
V3.33
p728
sVd
I11
sVwmaid
p729
I0
sV4w
p730
I0
sVm
I1
sV4s
p731
I0
sVr
I10
sVw
I0
sVsr
p732
V-
sVov
p733
V3.00
p734
sV5w
p735
I0
ssg50
(dp736
Va
V6.00
p737
sVb
I2
sVinns
p738
I1
sVno
p739
I0
sVsr
p740
V300.00
p741
sVm
I1
sV4s
p742
I0
sV6s
p743
I1
sVhs
p744
V6
sVr
V6
sV100s
p745
I0
sV50s
p746
I0
ssg64
I2009
stp747
asb.