(iplayer
Player
p1
(dp2
S'is_batsman'
p3
I00
sS'name'
p4
S'Iqbal Abdulla'
p5
sS'dob'
p6
S'1989/12/02'
p7
sS'price'
p8
S'800000'
p9
sS'is_allrounder'
p10
I00
sS'is_overseas'
p11
I00
sS'team'
p12
S'RR'
p13
sS'nationality'
p14
S'Indian'
p15
sS'is_bowler'
p16
I01
sS'is_keeper'
p17
I00
sS'id'
p18
S'85'
p19
sS'is_uncapped'
p20
I01
sS'tournamentStats'
p21
(lp22
(Vipl2013
(dp23
S'fieldingStats'
p24
(dp25
Vinns
p26
I0
sVc
I0
sVro
p27
I0
sVm
I5
sVs
I0
ssS'bowlingStats'
p28
(dp29
Vinns
p30
I5
sV10w
p31
I0
sVnb
p32
I0
sVmaid
p33
I0
sVwb
p34
I0
sVbbmw
p35
I3
sV6s
p36
I8
sVbbmr
p37
I29
sVbbir
p38
I29
sVbbiw
p39
I3
sVa
V20.28
p40
sVb
I113
sVe
V7.53
p41
sVd
I41
sVwmaid
p42
I0
sV4w
p43
I0
sVm
I5
sV4s
p44
I8
sVr
I142
sVw
I7
sVsr
p45
V16.14
p46
sVov
p47
V18.83
p48
sV5w
p49
I0
ssS'battingStats'
p50
(dp51
Va
V-
sVb
I14
sVinns
p52
I2
sVno
p53
I2
sVsr
p54
V57.14
p55
sVm
I5
sV4s
p56
I0
sV6s
p57
I0
sVhs
p58
V6*
p59
sVr
V8
sV100s
p60
I0
sV50s
p61
I0
ssS'year'
p62
I2013
stp63
a(Vipl2012
(dp64
g24
(dp65
Vinns
p66
I5
sVc
I5
sVro
p67
I1
sVm
I9
sVs
I0
ssg28
(dp68
Vinns
p69
I8
sV10w
p70
I0
sVnb
p71
I0
sVmaid
p72
I0
sVwb
p73
I2
sVbbmw
p74
I1
sV6s
p75
I4
sVbbmr
p76
I20
sVbbir
p77
I20
sVbbiw
p78
I1
sVa
V36.00
p79
sVb
I132
sVe
V6.54
p80
sVd
I46
sVwmaid
p81
I0
sV4w
p82
I0
sVm
I9
sV4s
p83
I9
sVr
I144
sVw
I4
sVsr
p84
V33.00
p85
sVov
p86
V22.00
p87
sV5w
p88
I0
ssg50
(dp89
Va
V-
sVb
I3
sVinns
p90
I2
sVno
p91
I2
sVsr
p92
V66.66
p93
sVm
I9
sV4s
p94
I0
sV6s
p95
I0
sVhs
p96
V1*
p97
sVr
V2
sV100s
p98
I0
sV50s
p99
I0
ssg62
I2012
stp100
a(Vclt20-2012
(dp101
g24
(dp102
Vinns
p103
I1
sVc
I1
sVro
p104
I0
sVm
I2
sVs
I0
ssg28
(dp105
Vinns
p106
I1
sV10w
p107
I0
sVnb
p108
I0
sVmaid
p109
I0
sVwb
p110
I0
sVbbmw
p111
I2
sV6s
p112
I0
sVbbmr
p113
I20
sVbbir
p114
I20
sVbbiw
p115
I2
sVa
V10.00
p116
sVb
I24
sVe
V5.00
p117
sVd
I11
sVwmaid
p118
I0
sV4w
p119
I0
sVm
I2
sV4s
p120
I1
sVr
I20
sVw
I2
sVsr
p121
V12.00
p122
sVov
p123
V4.00
p124
sV5w
p125
I0
ssg50
(dp126
Va
V-
sVinns
p127
I0
sVno
p128
I0
sVsr
p129
V-
sVm
I2
sV4s
p130
I0
sV6s
p131
I0
sVhs
p132
V0*
p133
sVr
V0
sV100s
p134
I0
sV50s
p135
I0
ssg62
I2012
stp136
a(Vipl2011
(dp137
g24
(dp138
Vinns
p139
I4
sVc
I3
sVro
p140
I1
sVm
I15
sVs
I0
ssg28
(dp141
Vinns
p142
I15
sV10w
p143
I0
sVnb
p144
I0
sVmaid
p145
I0
sVwb
p146
I5
sVbbmw
p147
I3
sV6s
p148
I6
sVbbmr
p149
I24
sVbbir
p150
I24
sVbbiw
p151
I3
sVa
V19.06
p152
sVb
I300
sVe
V6.10
p153
sVd
I131
sVwmaid
p154
I0
sV4w
p155
I0
sVm
I15
sV4s
p156
I31
sVr
I305
sVw
I16
sVsr
p157
V18.75
p158
sVov
p159
V50.00
p160
sV5w
p161
I0
ssg50
(dp162
Va
V-
sVb
I12
sVinns
p163
I2
sVno
p164
I2
sVsr
p165
V125.00
p166
sVm
I15
sV4s
p167
I1
sV6s
p168
I0
sVhs
p169
V12*
p170
sVr
V15
p171
sV100s
p172
I0
sV50s
p173
I0
ssg62
I2011
stp174
a(Vclt20-2011
p175
(dp176
g24
(dp177
Vinns
p178
I2
sVc
I3
sVro
p179
I0
sVm
I6
sVs
I0
ssg28
(dp180
Vinns
p181
I6
sV10w
p182
I0
sVnb
p183
I0
sVmaid
p184
I0
sVwb
p185
I1
sVbbmw
p186
I2
sV6s
p187
I4
sVbbmr
p188
I20
sVbbir
p189
I20
sVbbiw
p190
I2
sVa
V49.00
p191
sVb
I120
sVe
V7.35
p192
sVd
I46
sVwmaid
p193
I0
sV4w
p194
I0
sVm
I6
sV4s
p195
I16
sVr
I147
sVw
I3
sVsr
p196
V40.00
p197
sVov
p198
V20.00
p199
sV5w
p200
I0
ssg50
(dp201
Va
V-
sVb
I3
sVinns
p202
I2
sVno
p203
I2
sVsr
p204
V366.66
p205
sVm
I6
sV4s
p206
I1
sV6s
p207
I1
sVhs
p208
V10*
p209
sVr
V11
p210
sV100s
p211
I0
sV50s
p212
I0
ssg62
I2011
stp213
a(Vipl2010
(dp214
g24
(dp215
Vinns
p216
I1
sVc
I0
sVro
p217
I1
sVm
I3
sVs
I0
ssg28
(dp218
Vinns
p219
I3
sV10w
p220
I0
sVnb
p221
I0
sVmaid
p222
I0
sVwb
p223
I0
sVbbmw
p224
I1
sV6s
p225
I2
sVbbmr
p226
I28
sVbbir
p227
I28
sVbbiw
p228
I1
sVa
V61.00
p229
sVb
I51
sVe
V7.17
p230
sVd
I18
sVwmaid
p231
I0
sV4w
p232
I0
sVm
I3
sV4s
p233
I5
sVr
I61
sVw
I1
sVsr
p234
V51.00
p235
sVov
p236
V8.50
p237
sV5w
p238
I0
ssg50
(dp239
Va
V-
sVb
I1
sVinns
p240
I1
sVno
p241
I1
sVsr
p242
V0.00
p243
sVm
I3
sV4s
p244
I0
sV6s
p245
I0
sVhs
p246
V0*
p247
sVr
V0
sV100s
p248
I0
sV50s
p249
I0
ssg62
I2010
stp250
a(Vipl2008
(dp251
g24
(dp252
Vinns
p253
I0
sVc
I0
sVro
p254
I0
sVm
I1
sVs
I0
ssg28
(dp255
Vinns
p256
I1
sV10w
p257
I0
sVnb
p258
I0
sVmaid
p259
I0
sVwb
p260
I0
sVbbmw
p261
I0
sV6s
p262
I0
sVbbmr
p263
I22
sVbbir
p264
I22
sVbbiw
p265
I0
sVa
V-
sVb
I18
sVe
V7.33
p266
sVd
I6
sVwmaid
p267
I0
sV4w
p268
I0
sVm
I1
sV4s
p269
I3
sVr
I22
sVw
I0
sVsr
p270
V-
sVov
p271
V3.00
p272
sV5w
p273
I0
ssg50
(dp274
Va
V-
sVb
I2
sVinns
p275
I1
sVno
p276
I1
sVsr
p277
V50.00
p278
sVm
I1
sV4s
p279
I0
sV6s
p280
I0
sVhs
p281
V1*
p282
sVr
V1
sV100s
p283
I0
sV50s
p284
I0
ssg62
I2008
stp285
asb.