(iplayer
Player
p1
(dp2
S'is_batsman'
p3
I01
sS'name'
p4
S'Debabrata Das'
p5
sS'dob'
p6
S'1986/09/22'
p7
sS'price'
p8
S'750000'
p9
sS'is_allrounder'
p10
I00
sS'is_overseas'
p11
I00
sS'team'
p12
S'KKR'
p13
sS'nationality'
p14
S'Indian'
p15
sS'is_bowler'
p16
I00
sS'is_keeper'
p17
I00
sS'id'
p18
S'259'
p19
sS'is_uncapped'
p20
I01
sS'tournamentStats'
p21
(lp22
(Vipl2013
(dp23
S'fieldingStats'
p24
(dp25
Vinns
p26
I2
sVc
I2
sVro
p27
I1
sVm
I10
sVs
I0
ssS'bowlingStats'
p28
(dp29
Vinns
p30
I0
sV10w
p31
I0
sVnb
p32
I0
sVmaid
p33
I0
sVwb
p34
I0
sVbbmw
p35
I0
sV6s
p36
I0
sVbbmr
p37
I0
sVbbir
p38
I0
sVbbiw
p39
I0
sVa
V-
sVb
I0
sVe
V-
sVd
I0
sVwmaid
p40
I0
sV4w
p41
I0
sVm
I10
sV4s
p42
I0
sVr
I0
sVw
I0
sVsr
p43
V-
sVov
p44
V-
sV5w
p45
I0
ssS'battingStats'
p46
(dp47
Va
V15.00
p48
sVb
I74
sVinns
p49
I6
sVno
p50
I1
sVsr
p51
V101.35
p52
sVm
I10
sV4s
p53
I5
sV6s
p54
I5
sVhs
p55
V23
p56
sVr
V75
p57
sV100s
p58
I0
sV50s
p59
I0
ssS'year'
p60
I2013
stp61
a(Vipl2012
(dp62
g24
(dp63
Vinns
p64
I4
sVc
I5
sVro
p65
I0
sVm
I15
sVs
I0
ssg28
(dp66
Vinns
p67
I0
sV10w
p68
I0
sVnb
p69
I0
sVmaid
p70
I0
sVwb
p71
I0
sVbbmw
p72
I0
sV6s
p73
I0
sVbbmr
p74
I0
sVbbir
p75
I0
sVbbiw
p76
I0
sVa
V-
sVb
I0
sVe
V-
sVd
I0
sVwmaid
p77
I0
sV4w
p78
I0
sVm
I15
sV4s
p79
I0
sVr
I0
sVw
I0
sVsr
p80
V-
sVov
p81
V-
sV5w
p82
I0
ssg46
(dp83
Va
V42.00
p84
sVb
I93
sVinns
p85
I10
sVno
p86
I7
sVsr
p87
V135.48
p88
sVm
I15
sV4s
p89
I9
sV6s
p90
I6
sVhs
p91
V35*
p92
sVr
V126
p93
sV100s
p94
I0
sV50s
p95
I0
ssg60
I2012
stp96
a(Vclt20-2012
(dp97
g24
(dp98
Vinns
p99
I0
sVc
I0
sVro
p100
I0
sVm
I2
sVs
I0
ssg28
(dp101
Vinns
p102
I0
sV10w
p103
I0
sVnb
p104
I0
sVmaid
p105
I0
sVwb
p106
I0
sVbbmw
p107
I0
sV6s
p108
I0
sVbbmr
p109
I0
sVbbir
p110
I0
sVbbiw
p111
I0
sVa
V-
sVb
I0
sVe
V-
sVd
I0
sVwmaid
p112
I0
sV4w
p113
I0
sVm
I2
sV4s
p114
I0
sVr
I0
sVw
I0
sVsr
p115
V-
sVov
p116
V-
sV5w
p117
I0
ssg46
(dp118
Va
V-
sVb
I19
sVinns
p119
I1
sVno
p120
I1
sVsr
p121
V226.31
p122
sVm
I2
sV4s
p123
I6
sV6s
p124
I2
sVhs
p125
V43*
p126
sVr
V43
p127
sV100s
p128
I0
sV50s
p129
I0
ssg60
I2012
stp130
a(Vipl2008
p131
(dp132
g24
(dp133
Vinns
p134
I1
sVc
I0
sVro
p135
I1
sVm
I6
sVs
I0
ssg28
(dp136
Vinns
p137
I0
sV10w
p138
I0
sVnb
p139
I0
sVmaid
p140
I0
sVwb
p141
I0
sVbbmw
p142
I0
sV6s
p143
I0
sVbbmr
p144
I0
sVbbir
p145
I0
sVbbiw
p146
I0
sVa
V-
sVb
I0
sVe
V-
sVd
I0
sVwmaid
p147
I0
sV4w
p148
I0
sVm
I6
sV4s
p149
I0
sVr
I0
sVw
I0
sVsr
p150
V-
sVov
p151
V-
sV5w
p152
I0
ssg46
(dp153
Va
V17.16
p154
sVb
I94
sVinns
p155
I6
sVno
p156
I0
sVsr
p157
V109.57
p158
sVm
I6
sV4s
p159
I9
sV6s
p160
I5
sVhs
p161
V31
p162
sVr
V103
p163
sV100s
p164
I0
sV50s
p165
I0
ssg60
I2008
stp166
asb.