(iplayer
Player
p1
(dp2
S'is_batsman'
p3
I00
sS'name'
p4
S'Manvinder Bisla'
p5
sS'dob'
p6
S'1984/12/27'
p7
sS'price'
p8
S'750000'
p9
sS'is_allrounder'
p10
I00
sS'is_overseas'
p11
I00
sS'team'
p12
S'KKR'
p13
sS'nationality'
p14
S'Indian'
p15
sS'is_bowler'
p16
I00
sS'is_keeper'
p17
I01
sS'id'
p18
S'90'
p19
sS'is_uncapped'
p20
I01
sS'tournamentStats'
p21
(lp22
(Vipl2013
(dp23
S'fieldingStats'
p24
(dp25
Vinns
p26
I7
sVc
I7
sVro
p27
I1
sVm
I14
sVs
I3
ssS'bowlingStats'
p28
(dp29
Vinns
p30
I0
sV10w
p31
I0
sVnb
p32
I0
sVmaid
p33
I0
sVwb
p34
I0
sVbbmw
p35
I0
sV6s
p36
I0
sVbbmr
p37
I0
sVbbir
p38
I0
sVbbiw
p39
I0
sVa
V-
sVb
I0
sVe
V-
sVd
I0
sVwmaid
p40
I0
sV4w
p41
I0
sVm
I14
sV4s
p42
I0
sVr
I0
sVw
I0
sVsr
p43
V-
sVov
p44
V-
sV5w
p45
I0
ssS'battingStats'
p46
(dp47
Va
V19.61
p48
sVb
I236
sVinns
p49
I14
sVno
p50
I1
sVsr
p51
V108.05
p52
sVm
I14
sV4s
p53
I36
sV6s
p54
I6
sVhs
p55
V92
p56
sVr
V255
p57
sV100s
p58
I0
sV50s
p59
I2
ssS'year'
p60
I2013
stp61
a(Vipl2012
(dp62
g24
(dp63
Vinns
p64
I4
sVc
I6
sVro
p65
I0
sVm
I7
sVs
I2
ssg28
(dp66
Vinns
p67
I0
sV10w
p68
I0
sVnb
p69
I0
sVmaid
p70
I0
sVwb
p71
I0
sVbbmw
p72
I0
sV6s
p73
I0
sVbbmr
p74
I0
sVbbir
p75
I0
sVbbiw
p76
I0
sVa
V-
sVb
I0
sVe
V-
sVd
I0
sVwmaid
p77
I0
sV4w
p78
I0
sVm
I7
sV4s
p79
I0
sVr
I0
sVw
I0
sVsr
p80
V-
sVov
p81
V-
sV5w
p82
I0
ssg46
(dp83
Va
V30.42
p84
sVb
I160
sVinns
p85
I7
sVno
p86
I0
sVsr
p87
V133.12
p88
sVm
I7
sV4s
p89
I16
sV6s
p90
I10
sVhs
p91
V89
p92
sVr
V213
p93
sV100s
p94
I0
sV50s
p95
I1
ssg60
I2012
stp96
a(Vclt20-2012
(dp97
g24
(dp98
Vinns
p99
I2
sVc
I2
sVro
p100
I0
sVm
I4
sVs
I2
ssg28
(dp101
Vinns
p102
I0
sV10w
p103
I0
sVnb
p104
I0
sVmaid
p105
I0
sVwb
p106
I0
sVbbmw
p107
I0
sV6s
p108
I0
sVbbmr
p109
I0
sVbbir
p110
I0
sVbbiw
p111
I0
sVa
V-
sVb
I0
sVe
V-
sVd
I0
sVwmaid
p112
I0
sV4w
p113
I0
sVm
I4
sV4s
p114
I0
sVr
I0
sVw
I0
sVsr
p115
V-
sVov
p116
V-
sV5w
p117
I0
ssg46
(dp118
Va
V22.00
p119
sVb
I42
sVinns
p120
I3
sVno
p121
I0
sVsr
p122
V157.14
p123
sVm
I4
sV4s
p124
I9
sV6s
p125
I3
sVhs
p126
V38
p127
sVr
V66
p128
sV100s
p129
I0
sV50s
p130
I0
ssg60
I2012
stp131
a(Vipl2011
(dp132
g24
(dp133
Vinns
p134
I2
sVc
I1
sVro
p135
I0
sVm
I5
sVs
I2
ssg28
(dp136
Vinns
p137
I0
sV10w
p138
I0
sVnb
p139
I0
sVmaid
p140
I0
sVwb
p141
I0
sVbbmw
p142
I0
sV6s
p143
I0
sVbbmr
p144
I0
sVbbir
p145
I0
sVbbiw
p146
I0
sVa
V-
sVb
I0
sVe
V-
sVd
I0
sVwmaid
p147
I0
sV4w
p148
I0
sVm
I5
sV4s
p149
I0
sVr
I0
sVw
I0
sVsr
p150
V-
sVov
p151
V-
sV5w
p152
I0
ssg46
(dp153
Va
V14.40
p154
sVb
I89
sVinns
p155
I5
sVno
p156
I0
sVsr
p157
V80.89
p158
sVm
I5
sV4s
p159
I8
sV6s
p160
I0
sVhs
p161
V27
p162
sVr
V72
p163
sV100s
p164
I0
sV50s
p165
I0
ssg60
I2011
stp166
a(Vclt20-2011
p167
(dp168
g24
(dp169
Vinns
p170
I3
sVc
I2
sVro
p171
I2
sVm
I5
sVs
I0
ssg28
(dp172
Vinns
p173
I0
sV10w
p174
I0
sVnb
p175
I0
sVmaid
p176
I0
sVwb
p177
I0
sVbbmw
p178
I0
sV6s
p179
I0
sVbbmr
p180
I0
sVbbir
p181
I0
sVbbiw
p182
I0
sVa
V-
sVb
I0
sVe
V-
sVd
I0
sVwmaid
p183
I0
sV4w
p184
I0
sVm
I5
sV4s
p185
I0
sVr
I0
sVw
I0
sVsr
p186
V-
sVov
p187
V-
sV5w
p188
I0
ssg46
(dp189
Va
V20.40
p190
sVb
I73
sVinns
p191
I5
sVno
p192
I0
sVsr
p193
V139.72
p194
sVm
I5
sV4s
p195
I14
sV6s
p196
I4
sVhs
p197
V45
p198
sVr
V102
p199
sV100s
p200
I0
sV50s
p201
I0
ssg60
I2011
stp202
a(Vipl2010
(dp203
g24
(dp204
Vinns
p205
I4
sVc
I5
sVro
p206
I0
sVm
I10
sVs
I0
ssg28
(dp207
Vinns
p208
I0
sV10w
p209
I0
sVnb
p210
I0
sVmaid
p211
I0
sVwb
p212
I0
sVbbmw
p213
I0
sV6s
p214
I0
sVbbmr
p215
I0
sVbbir
p216
I0
sVbbiw
p217
I0
sVa
V-
sVb
I0
sVe
V-
sVd
I0
sVwmaid
p218
I0
sV4w
p219
I0
sVm
I10
sV4s
p220
I0
sVr
I0
sVw
I0
sVsr
p221
V-
sVov
p222
V-
sV5w
p223
I0
ssg46
(dp224
Va
V21.80
p225
sVb
I178
sVinns
p226
I10
sVno
p227
I0
sVsr
p228
V122.47
p229
sVm
I10
sV4s
p230
I27
sV6s
p231
I6
sVhs
p232
V75
p233
sVr
V218
p234
sV100s
p235
I0
sV50s
p236
I1
ssg60
I2010
stp237
asb.