(iplayer
Player
p1
(dp2
S'is_batsman'
p3
I00
sS'name'
p4
S'Jason Holder'
p5
sS'dob'
p6
S'1991/11/05'
p7
sS'price'
p8
S'850000'
p9
sS'is_allrounder'
p10
I00
sS'is_overseas'
p11
I01
sS'team'
p12
S'SRH'
p13
sS'nationality'
p14
S'West Indian'
p15
sS'is_bowler'
p16
I01
sS'is_keeper'
p17
I00
sS'id'
p18
S'1075'
p19
sS'is_uncapped'
p20
I00
sS'tournamentStats'
p21
(lp22
(Vwi-eng-2014
(dp23
S'fieldingStats'
p24
(dp25
Vinns
p26
I1
sVc
I1
sVro
p27
I0
sVm
I1
sVs
I0
ssS'bowlingStats'
p28
(dp29
Vinns
p30
I1
sV10w
p31
I0
sVnb
p32
I0
sVmaid
p33
I0
sVwb
p34
I2
sVbbmw
p35
I0
sV6s
p36
I1
sVbbmr
p37
I27
sVbbir
p38
I27
sVbbiw
p39
I0
sVa
V-
sVb
I24
sVe
V6.75
p40
sVd
I14
sVwmaid
p41
I0
sV4w
p42
I0
sVm
I1
sV4s
p43
I2
sVr
I27
sVw
I0
sVsr
p44
V-
sVov
p45
V4.00
p46
sV5w
p47
I0
ssS'battingStats'
p48
(dp49
Va
V-
sVinns
p50
I0
sVno
p51
I0
sVsr
p52
V-
sVm
I1
sV4s
p53
I0
sV6s
p54
I0
sVhs
p55
V0*
p56
sVr
V0
sV100s
p57
I0
sV50s
p58
I0
ssS'year'
p59
I2014
stp60
a(Vind-wi-2013
(dp61
g24
(dp62
Vinns
p63
I2
sVc
I2
sVro
p64
I0
sVm
I3
sVs
I0
ssg28
(dp65
Vinns
p66
I3
sV10w
p67
I0
sVnb
p68
I1
sVmaid
p69
I0
sVwb
p70
I4
sVbbmw
p71
I2
sV6s
p72
I3
sVbbmr
p73
I48
sVbbir
p74
I48
sVbbiw
p75
I2
sVa
V52.66
p76
sVb
I144
sVe
V6.58
p77
sVd
I66
sVwmaid
p78
I0
sV4w
p79
I0
sVm
I3
sV4s
p80
I18
sVr
I158
sVw
I3
sVsr
p81
V48.00
p82
sVov
p83
V24.00
p84
sV5w
p85
I0
ssg48
(dp86
Va
V23.00
p87
sVb
I32
sVinns
p88
I2
sVno
p89
I1
sVsr
p90
V71.87
p91
sVm
I3
sV4s
p92
I3
sV6s
p93
I0
sVhs
p94
V16*
p95
sVr
V23
p96
sV100s
p97
I0
sV50s
p98
I0
ssg59
I2013
stp99
a(Vwi-pak-2013
(dp100
g24
(dp101
Vinns
p102
I2
sVc
I2
sVro
p103
I0
sVm
I5
sVs
I0
ssg28
(dp104
Vinns
p105
I5
sV10w
p106
I0
sVnb
p107
I1
sVmaid
p108
I6
sVwb
p109
I9
sVbbmw
p110
I4
sV6s
p111
I4
sVbbmr
p112
I13
sVbbir
p113
I13
sVbbiw
p114
I4
sVa
V21.37
p115
sVb
I251
sVe
V4.08
p116
sVd
I171
sVwmaid
p117
I0
sV4w
p118
I1
sVm
I5
sV4s
p119
I16
sVr
I171
sVw
I8
sVsr
p120
V31.37
p121
sVov
p122
V41.83
p123
sV5w
p124
I0
ssg48
(dp125
Va
V19.00
p126
sVb
I13
sVinns
p127
I2
sVno
p128
I1
sVsr
p129
V146.15
p130
sVm
I5
sV4s
p131
I1
sV6s
p132
I1
sVhs
p133
V19*
p134
sVr
V19
p135
sV100s
p136
I0
sV50s
p137
I0
ssg59
I2013
stp138
a(Vnz-wi-2013
(dp139
g24
(dp140
Vinns
p141
I3
sVc
I0
sVro
p142
I3
sVm
I4
sVs
I0
ssg28
(dp143
Vinns
p144
I4
sV10w
p145
I0
sVnb
p146
I0
sVmaid
p147
I3
sVwb
p148
I5
sVbbmw
p149
I2
sV6s
p150
I5
sVbbmr
p151
I21
sVbbir
p152
I21
sVbbiw
p153
I2
sVa
V23.14
p154
sVb
I157
sVe
V6.19
p155
sVd
I83
sVwmaid
p156
I0
sV4w
p157
I0
sVm
I4
sV4s
p158
I15
sVr
I162
sVw
I7
sVsr
p159
V22.42
p160
sVov
p161
V26.16
p162
sV5w
p163
I0
ssg48
(dp164
Va
V10.00
p165
sVb
I9
sVinns
p166
I1
sVno
p167
I0
sVsr
p168
V111.11
p169
sVm
I4
sV4s
p170
I1
sV6s
p171
I0
sVhs
p172
V10
p173
sVr
V10
p174
sV100s
p175
I0
sV50s
p176
I0
ssg59
I2013
stp177
a(Vtriseries-wi-2013
(dp178
g24
(dp179
Vinns
p180
I0
sVc
I0
sVro
p181
I0
sVm
I1
sVs
I0
ssg28
(dp182
Vinns
p183
I1
sV10w
p184
I0
sVnb
p185
I2
sVmaid
p186
I0
sVwb
p187
I4
sVbbmw
p188
I2
sV6s
p189
I1
sVbbmr
p190
I50
sVbbir
p191
I50
sVbbiw
p192
I2
sVa
V25.00
p193
sVb
I48
sVe
V6.25
p194
sVd
I25
sVwmaid
p195
I0
sV4w
p196
I0
sVm
I1
sV4s
p197
I4
sVr
I50
sVw
I2
sVsr
p198
V24.00
p199
sVov
p200
V8.00
p201
sV5w
p202
I0
ssg48
(dp203
Va
V0.00
p204
sVb
I1
sVinns
p205
I1
sVno
p206
I0
sVsr
p207
V0.00
p208
sVm
I1
sV4s
p209
I0
sV6s
p210
I0
sVhs
p211
V0*
p212
sVr
V0
sV100s
p213
I0
sV50s
p214
I0
ssg59
I2013
stp215
a(Vclt20-2013
(dp216
g24
(dp217
Vinns
p218
I3
sVc
I5
sVro
p219
I0
sVm
I5
sVs
I0
ssg28
(dp220
Vinns
p221
I5
sV10w
p222
I0
sVnb
p223
I1
sVmaid
p224
I0
sVwb
p225
I3
sVbbmw
p226
I2
sV6s
p227
I6
sVbbmr
p228
I35
sVbbir
p229
I35
sVbbiw
p230
I2
sVa
V35.50
p231
sVb
I96
sVe
V8.87
p232
sVd
I33
sVwmaid
p233
I0
sV4w
p234
I0
sVm
I5
sV4s
p235
I14
sVr
I142
sVw
I4
sVsr
p236
V24.00
p237
sVov
p238
V16.00
p239
sV5w
p240
I0
ssg48
(dp241
Va
V0.00
p242
sVb
I1
sVinns
p243
I2
sVno
p244
I1
sVsr
p245
V0.00
p246
sVm
I5
sV4s
p247
I0
sV6s
p248
I0
sVhs
p249
V0*
p250
sVr
V0
sV100s
p251
I0
sV50s
p252
I0
ssg59
I2013
stp253
a(Vchamptrophy-2013-warmups
(dp254
g24
(dp255
Vinns
p256
I1
sVc
I1
sVro
p257
I0
sVm
I2
sVs
I0
ssg28
(dp258
Vinns
p259
I1
sV10w
p260
I0
sVnb
p261
I0
sVmaid
p262
I0
sVwb
p263
I0
sVbbmw
p264
I0
sV6s
p265
I1
sVbbmr
p266
I0
sVbbir
p267
I0
sVbbiw
p268
I0
sVa
V-
sVb
I36
sVe
V6.16
p269
sVd
I20
sVwmaid
p270
I0
sV4w
p271
I0
sVm
I2
sV4s
p272
I5
sVr
I37
sVw
I0
sVsr
p273
V-
sVov
p274
V6.00
p275
sV5w
p276
I0
ssg48
(dp277
Va
V4.00
p278
sVb
I9
sVinns
p279
I1
sVno
p280
I0
sVsr
p281
V44.44
p282
sVm
I2
sV4s
p283
I0
sV6s
p284
I0
sVhs
p285
V4
sVr
V4
sV100s
p286
I0
sV50s
p287
I0
ssg59
I2013
stp288
a(Vaus-wi-2013
(dp289
g24
(dp290
Vinns
p291
I0
sVc
I0
sVro
p292
I0
sVm
I2
sVs
I0
ssg28
(dp293
Vinns
p294
I2
sV10w
p295
I0
sVnb
p296
I0
sVmaid
p297
I1
sVwb
p298
I6
sVbbmw
p299
I1
sV6s
p300
I1
sVbbmr
p301
I18
sVbbir
p302
I18
sVbbiw
p303
I1
sVa
V37.00
p304
sVb
I86
sVe
V5.16
p305
sVd
I55
sVwmaid
p306
I1
sV4w
p307
I0
sVm
I2
sV4s
p308
I9
sVr
I74
sVw
I2
sVsr
p309
V43.00
p310
sVov
p311
V14.33
p312
sV5w
p313
I0
ssg48
(dp314
Va
V8.00
p315
sVb
I47
sVinns
p316
I2
sVno
p317
I0
sVsr
p318
V34.04
p319
sVm
I2
sV4s
p320
I1
sV6s
p321
I0
sVhs
p322
V9
sVr
V16
p323
sV100s
p324
I0
sV50s
p325
I0
ssg59
I2013
stp326
a(Vipl2013
p327
(dp328
g24
(dp329
Vinns
p330
I2
sVc
I3
sVro
p331
I0
sVm
I6
sVs
I0
ssg28
(dp332
Vinns
p333
I6
sV10w
p334
I0
sVnb
p335
I0
sVmaid
p336
I0
sVwb
p337
I5
sVbbmw
p338
I2
sV6s
p339
I6
sVbbmr
p340
I20
sVbbir
p341
I20
sVbbiw
p342
I2
sVa
V84.00
p343
sVb
I120
sVe
V8.40
p344
sVd
I47
sVwmaid
p345
I0
sV4w
p346
I0
sVm
I6
sV4s
p347
I17
sVr
I168
sVw
I2
sVsr
p348
V60.00
p349
sVov
p350
V20.00
p351
sV5w
p352
I0
ssg48
(dp353
Va
V-
sVinns
p354
I0
sVno
p355
I0
sVsr
p356
V-
sVm
I6
sV4s
p357
I0
sV6s
p358
I0
sVhs
p359
V0*
p360
sVr
V0
sV100s
p361
I0
sV50s
p362
I0
ssg59
I2013
stp363
asb.