(iplayer
Player
p1
(dp2
S'is_batsman'
p3
I01
sS'name'
p4
S'Cheteshwar Pujara'
p5
sS'dob'
p6
S'1988/01/25'
p7
sS'price'
p8
S'800000'
p9
sS'is_allrounder'
p10
I00
sS'is_overseas'
p11
I00
sS'team'
p12
S'KXIP'
p13
sS'nationality'
p14
S'Indian'
p15
sS'is_bowler'
p16
I00
sS'is_keeper'
p17
I00
sS'id'
p18
S'156'
p19
sS'is_uncapped'
p20
I00
sS'tournamentStats'
p21
(lp22
(Vnz-ind-2014
(dp23
S'fieldingStats'
p24
(dp25
Vinns
p26
I3
sVc
I3
sVro
p27
I0
sVm
I2
sVs
I0
ssS'bowlingStats'
p28
(dp29
Vinns
p30
I0
sV10w
p31
I0
sVnb
p32
I0
sVmaid
p33
I0
sVwb
p34
I0
sVbbmw
p35
I0
sV6s
p36
I0
sVbbmr
p37
I0
sVbbir
p38
I0
sVbbiw
p39
I0
sVa
V-
sVb
I0
sVe
V-
sVd
I0
sVwmaid
p40
I0
sV4w
p41
I0
sVm
I2
sV4s
p42
I0
sVr
I0
sVw
I0
sVsr
p43
V-
sVov
p44
V-
sV5w
p45
I0
ssS'battingStats'
p46
(dp47
Va
V15.00
p48
sVb
I183
sVinns
p49
I4
sVno
p50
I0
sVsr
p51
V32.78
p52
sVm
I2
sV4s
p53
I6
sV6s
p54
I1
sVhs
p55
V23
p56
sVr
V60
p57
sV100s
p58
I0
sV50s
p59
I0
ssS'year'
p60
I2014
stp61
a(Vind-wi-2013
(dp62
g24
(dp63
Vinns
p64
I0
sVc
I0
sVro
p65
I0
sVm
I2
sVs
I0
ssg28
(dp66
Vinns
p67
I0
sV10w
p68
I0
sVnb
p69
I0
sVmaid
p70
I0
sVwb
p71
I0
sVbbmw
p72
I0
sV6s
p73
I0
sVbbmr
p74
I0
sVbbir
p75
I0
sVbbiw
p76
I0
sVa
V-
sVb
I0
sVe
V-
sVd
I0
sVwmaid
p77
I0
sV4w
p78
I0
sVm
I2
sV4s
p79
I0
sVr
I0
sVw
I0
sVsr
p80
V-
sVov
p81
V-
sV5w
p82
I0
ssg46
(dp83
Va
V65.00
p84
sVb
I203
sVinns
p85
I2
sVno
p86
I0
sVsr
p87
V64.03
p88
sVm
I2
sV4s
p89
I14
sV6s
p90
I0
sVhs
p91
V113
p92
sVr
V130
p93
sV100s
p94
I1
sV50s
p95
I0
ssg60
I2013
stp96
a(Vsa-ind-2013
(dp97
g24
(dp98
Vinns
p99
I0
sVc
I0
sVro
p100
I0
sVm
I2
sVs
I0
ssg28
(dp101
Vinns
p102
I0
sV10w
p103
I0
sVnb
p104
I0
sVmaid
p105
I0
sVwb
p106
I0
sVbbmw
p107
I0
sV6s
p108
I0
sVbbmr
p109
I0
sVbbir
p110
I0
sVbbiw
p111
I0
sVa
V-
sVb
I0
sVe
V-
sVd
I0
sVwmaid
p112
I0
sV4w
p113
I0
sVm
I2
sV4s
p114
I0
sVr
I0
sVw
I0
sVsr
p115
V-
sVov
p116
V-
sV5w
p117
I0
ssg46
(dp118
Va
V70.00
p119
sVb
I600
sVinns
p120
I4
sVno
p121
I0
sVsr
p122
V46.66
p123
sVm
I2
sV4s
p124
I36
sV6s
p125
I0
sVhs
p126
V153
p127
sVr
V280
p128
sV100s
p129
I1
sV50s
p130
I1
ssg60
I2013
stp131
a(Vzim-ind-2013
(dp132
g24
(dp133
Vinns
p134
I0
sVc
I0
sVro
p135
I0
sVm
I2
sVs
I0
ssg28
(dp136
Vinns
p137
I0
sV10w
p138
I0
sVnb
p139
I0
sVmaid
p140
I0
sVwb
p141
I0
sVbbmw
p142
I0
sV6s
p143
I0
sVbbmr
p144
I0
sVbbir
p145
I0
sVbbiw
p146
I0
sVa
V-
sVb
I0
sVe
V-
sVd
I0
sVwmaid
p147
I0
sV4w
p148
I0
sVm
I2
sV4s
p149
I0
sVr
I0
sVw
I0
sVsr
p150
V-
sVov
p151
V-
sV5w
p152
I0
ssg46
(dp153
Va
V6.50
p154
sVb
I28
sVinns
p155
I2
sVno
p156
I0
sVsr
p157
V46.42
p158
sVm
I2
sV4s
p159
I2
sV6s
p160
I0
sVhs
p161
V13
p162
sVr
V13
p163
sV100s
p164
I0
sV50s
p165
I0
ssg60
I2013
stp166
a(Vind-aus-2013
(dp167
g24
(dp168
Vinns
p169
I1
sVc
I1
sVro
p170
I0
sVm
I4
sVs
I0
ssg28
(dp171
Vinns
p172
I0
sV10w
p173
I0
sVnb
p174
I0
sVmaid
p175
I0
sVwb
p176
I0
sVbbmw
p177
I0
sV6s
p178
I0
sVbbmr
p179
I0
sVbbir
p180
I0
sVbbiw
p181
I0
sVa
V-
sVb
I0
sVe
V-
sVd
I0
sVwmaid
p182
I0
sV4w
p183
I0
sVm
I4
sV4s
p184
I0
sVr
I0
sVw
I0
sVsr
p185
V-
sVov
p186
V-
sV5w
p187
I0
ssg46
(dp188
Va
V83.80
p189
sVb
I671
sVinns
p190
I7
sVno
p191
I2
sVsr
p192
V62.44
p193
sVm
I4
sV4s
p194
I57
sV6s
p195
I1
sVhs
p196
V204
p197
sVr
V419
p198
sV100s
p199
I1
sV50s
p200
I2
ssg60
I2013
stp201
a(Vipl2013
p202
(dp203
g24
(dp204
Vinns
p205
I1
sVc
I1
sVro
p206
I0
sVm
I4
sVs
I0
ssg28
(dp207
Vinns
p208
I0
sV10w
p209
I0
sVnb
p210
I0
sVmaid
p211
I0
sVwb
p212
I0
sVbbmw
p213
I0
sV6s
p214
I0
sVbbmr
p215
I0
sVbbir
p216
I0
sVbbiw
p217
I0
sVa
V-
sVb
I0
sVe
V-
sVd
I0
sVwmaid
p218
I0
sV4w
p219
I0
sVm
I4
sV4s
p220
I0
sVr
I0
sVw
I0
sVsr
p221
V-
sVov
p222
V-
sV5w
p223
I0
ssg46
(dp224
Va
V23.00
p225
sVb
I99
sVinns
p226
I4
sVno
p227
I0
sVsr
p228
V92.92
p229
sVm
I4
sV4s
p230
I14
sV6s
p231
I0
sVhs
p232
V51
p233
sVr
V92
p234
sV100s
p235
I0
sV50s
p236
I1
ssg60
I2013
stp237
a(Vipl2012
(dp238
g24
(dp239
Vinns
p240
I2
sVc
I2
sVro
p241
I0
sVm
I3
sVs
I0
ssg28
(dp242
Vinns
p243
I0
sV10w
p244
I0
sVnb
p245
I0
sVmaid
p246
I0
sVwb
p247
I0
sVbbmw
p248
I0
sV6s
p249
I0
sVbbmr
p250
I0
sVbbir
p251
I0
sVbbiw
p252
I0
sVa
V-
sVb
I0
sVe
V-
sVd
I0
sVwmaid
p253
I0
sV4w
p254
I0
sVm
I3
sV4s
p255
I0
sVr
I0
sVw
I0
sVsr
p256
V-
sVov
p257
V-
sV5w
p258
I0
ssg46
(dp259
Va
V5.66
p260
sVb
I22
sVinns
p261
I3
sVno
p262
I0
sVsr
p263
V77.27
p264
sVm
I3
sV4s
p265
I1
sV6s
p266
I1
sVhs
p267
V11
p268
sVr
V17
p269
sV100s
p270
I0
sV50s
p271
I0
ssg60
I2012
stp272
a(Vind-eng-2012-13
(dp273
g24
(dp274
Vinns
p275
I3
sVc
I3
sVro
p276
I0
sVm
I4
sVs
I0
ssg28
(dp277
Vinns
p278
I0
sV10w
p279
I0
sVnb
p280
I0
sVmaid
p281
I0
sVwb
p282
I0
sVbbmw
p283
I0
sV6s
p284
I0
sVbbmr
p285
I0
sVbbir
p286
I0
sVbbiw
p287
I0
sVa
V-
sVb
I0
sVe
V-
sVd
I0
sVwmaid
p288
I0
sV4w
p289
I0
sVm
I4
sV4s
p290
I0
sVr
I0
sVw
I0
sVsr
p291
V-
sVov
p292
V-
sV5w
p293
I0
ssg46
(dp294
Va
V87.60
p295
sVb
I937
sVinns
p296
I7
sVno
p297
I2
sVsr
p298
V46.74
p299
sVm
I4
sV4s
p300
I49
sV6s
p301
I0
sVhs
p302
V206*
p303
sVr
V438
p304
sV100s
p305
I2
sV50s
p306
I0
ssg60
I2012
stp307
a(Vipl2011
(dp308
g24
(dp309
Vinns
p310
I1
sVc
I1
sVro
p311
I0
sVm
I7
sVs
I0
ssg28
(dp312
Vinns
p313
I0
sV10w
p314
I0
sVnb
p315
I0
sVmaid
p316
I0
sVwb
p317
I0
sVbbmw
p318
I0
sV6s
p319
I0
sVbbmr
p320
I0
sVbbir
p321
I0
sVbbiw
p322
I0
sVa
V-
sVb
I0
sVe
V-
sVd
I0
sVwmaid
p323
I0
sV4w
p324
I0
sVm
I7
sV4s
p325
I0
sVr
I0
sVw
I0
sVsr
p326
V-
sVov
p327
V-
sV5w
p328
I0
ssg46
(dp329
Va
V11.33
p330
sVb
I31
sVinns
p331
I3
sVno
p332
I0
sVsr
p333
V109.67
p334
sVm
I7
sV4s
p335
I4
sV6s
p336
I0
sVhs
p337
V25
p338
sVr
V34
p339
sV100s
p340
I0
sV50s
p341
I0
ssg60
I2011
stp342
a(Vipl2010
(dp343
g24
(dp344
Vinns
p345
I2
sVc
I2
sVro
p346
I0
sVm
I10
sVs
I0
ssg28
(dp347
Vinns
p348
I0
sV10w
p349
I0
sVnb
p350
I0
sVmaid
p351
I0
sVwb
p352
I0
sVbbmw
p353
I0
sV6s
p354
I0
sVbbmr
p355
I0
sVbbir
p356
I0
sVbbiw
p357
I0
sVa
V-
sVb
I0
sVe
V-
sVd
I0
sVwmaid
p358
I0
sV4w
p359
I0
sVm
I10
sV4s
p360
I0
sVr
I0
sVw
I0
sVsr
p361
V-
sVov
p362
V-
sV5w
p363
I0
ssg46
(dp364
Va
V30.50
p365
sVb
I115
sVinns
p366
I6
sVno
p367
I2
sVsr
p368
V106.08
p369
sVm
I10
sV4s
p370
I14
sV6s
p371
I3
sVhs
p372
V45*
p373
sVr
V122
p374
sV100s
p375
I0
sV50s
p376
I0
ssg60
I2010
stp377
asb.