(iplayer
Player
p1
(dp2
S'is_batsman'
p3
I01
sS'name'
p4
S'Shikhar Dhawan'
p5
sS'dob'
p6
S'1985/12/05'
p7
sS'price'
p8
S'950000'
p9
sS'is_allrounder'
p10
I00
sS'is_overseas'
p11
I00
sS'team'
p12
S'SRH'
p13
sS'nationality'
p14
S'Indian'
p15
sS'is_bowler'
p16
I00
sS'is_keeper'
p17
I00
sS'id'
p18
S'41'
p19
sS'is_uncapped'
p20
I00
sS'tournamentStats'
p21
(lp22
(Vworldt20-2014
(dp23
S'fieldingStats'
p24
(dp25
Vinns
p26
I1
sVc
I1
sVro
p27
I0
sVm
I2
sVs
I0
ssS'bowlingStats'
p28
(dp29
Vinns
p30
I0
sV10w
p31
I0
sVnb
p32
I0
sVmaid
p33
I0
sVwb
p34
I0
sVbbmw
p35
I0
sV6s
p36
I0
sVbbmr
p37
I0
sVbbir
p38
I0
sVbbiw
p39
I0
sVa
V-
sVb
I0
sVe
V-
sVd
I0
sVwmaid
p40
I0
sV4w
p41
I0
sVm
I2
sV4s
p42
I0
sVr
I0
sVw
I0
sVsr
p43
V-
sVov
p44
V-
sV5w
p45
I0
ssS'battingStats'
p46
(dp47
Va
V15.00
p48
sVb
I31
sVinns
p49
I2
sVno
p50
I0
sVsr
p51
V96.77
p52
sVm
I2
sV4s
p53
I5
sV6s
p54
I0
sVhs
p55
V30
p56
sVr
V30
p57
sV100s
p58
I0
sV50s
p59
I0
ssS'year'
p60
I2014
stp61
a(Vnz-ind-2014
(dp62
g24
(dp63
Vinns
p64
I4
sVc
I3
sVro
p65
I1
sVm
I6
sVs
I0
ssg28
(dp66
Vinns
p67
I1
sV10w
p68
I0
sVnb
p69
I0
sVmaid
p70
I0
sVwb
p71
I0
sVbbmw
p72
I0
sV6s
p73
I0
sVbbmr
p74
I0
sVbbir
p75
I3
sVbbiw
p76
I0
sVa
V-
sVb
I6
sVe
V3.00
p77
sVd
I3
sVwmaid
p78
I0
sV4w
p79
I0
sVm
I6
sV4s
p80
I0
sVr
I3
sVw
I0
sVsr
p81
V-
sVov
p82
V1.00
p83
sV5w
p84
I0
ssg46
(dp85
Va
V37.00
p86
sVb
I472
sVinns
p87
I8
sVno
p88
I0
sVsr
p89
V62.71
p90
sVm
I6
sV4s
p91
I36
sV6s
p92
I3
sVhs
p93
V115
p94
sVr
V296
p95
sV100s
p96
I1
sV50s
p97
I1
ssg60
I2014
stp98
a(Vasiacup-2014
(dp99
g24
(dp100
Vinns
p101
I0
sVc
I0
sVro
p102
I0
sVm
I4
sVs
I0
ssg28
(dp103
Vinns
p104
I0
sV10w
p105
I0
sVnb
p106
I0
sVmaid
p107
I0
sVwb
p108
I0
sVbbmw
p109
I0
sV6s
p110
I0
sVbbmr
p111
I0
sVbbir
p112
I0
sVbbiw
p113
I0
sVa
V-
sVb
I0
sVe
V-
sVd
I0
sVwmaid
p114
I0
sV4w
p115
I0
sVm
I4
sV4s
p116
I0
sVr
I0
sVw
I0
sVsr
p117
V-
sVov
p118
V-
sV5w
p119
I0
ssg46
(dp120
Va
V48.00
p121
sVb
I249
sVinns
p122
I4
sVno
p123
I0
sVsr
p124
V77.10
p125
sVm
I4
sV4s
p126
I18
sV6s
p127
I2
sVhs
p128
V94
p129
sVr
V192
p130
sV100s
p131
I0
sV50s
p132
I2
ssg60
I2014
stp133
a(Vind-wi-2013
(dp134
g24
(dp135
Vinns
p136
I4
sVc
I4
sVro
p137
I0
sVm
I5
sVs
I0
ssg28
(dp138
Vinns
p139
I0
sV10w
p140
I0
sVnb
p141
I0
sVmaid
p142
I0
sVwb
p143
I0
sVbbmw
p144
I0
sV6s
p145
I0
sVbbmr
p146
I0
sVbbir
p147
I0
sVbbiw
p148
I0
sVa
V-
sVb
I0
sVe
V-
sVd
I0
sVwmaid
p149
I0
sV4w
p150
I0
sVm
I5
sV4s
p151
I0
sVr
I0
sVw
I0
sVsr
p152
V-
sVov
p153
V-
sV5w
p154
I0
ssg46
(dp155
Va
V43.00
p156
sVb
I200
sVinns
p157
I5
sVno
p158
I0
sVsr
p159
V107.50
p160
sVm
I5
sV4s
p161
I37
sV6s
p162
I0
sVhs
p163
V119
p164
sVr
V215
p165
sV100s
p166
I1
sV50s
p167
I0
ssg60
I2013
stp168
a(Vsa-ind-2013
(dp169
g24
(dp170
Vinns
p171
I1
sVc
I1
sVro
p172
I0
sVm
I5
sVs
I0
ssg28
(dp173
Vinns
p174
I0
sV10w
p175
I0
sVnb
p176
I0
sVmaid
p177
I0
sVwb
p178
I0
sVbbmw
p179
I0
sV6s
p180
I0
sVbbmr
p181
I0
sVbbir
p182
I0
sVbbiw
p183
I0
sVa
V-
sVb
I0
sVe
V-
sVd
I0
sVwmaid
p184
I0
sV4w
p185
I0
sVm
I5
sV4s
p186
I0
sVr
I0
sVw
I0
sVsr
p187
V-
sVov
p188
V-
sV5w
p189
I0
ssg46
(dp190
Va
V14.66
p191
sVb
I199
sVinns
p192
I6
sVno
p193
I0
sVsr
p194
V44.22
p195
sVm
I5
sV4s
p196
I12
sV6s
p197
I0
sVhs
p198
V29
p199
sVr
V88
p200
sV100s
p201
I0
sV50s
p202
I0
ssg60
I2013
stp203
a(Vzim-ind-2013
(dp204
g24
(dp205
Vinns
p206
I3
sVc
I3
sVro
p207
I0
sVm
I4
sVs
I0
ssg28
(dp208
Vinns
p209
I0
sV10w
p210
I0
sVnb
p211
I0
sVmaid
p212
I0
sVwb
p213
I0
sVbbmw
p214
I0
sV6s
p215
I0
sVbbmr
p216
I0
sVbbir
p217
I0
sVbbiw
p218
I0
sVa
V-
sVb
I0
sVe
V-
sVd
I0
sVwmaid
p219
I0
sV4w
p220
I0
sVm
I4
sV4s
p221
I0
sVr
I0
sVw
I0
sVsr
p222
V-
sVov
p223
V-
sV5w
p224
I0
ssg46
(dp225
Va
V52.25
p226
sVb
I218
sVinns
p227
I4
sVno
p228
I0
sVsr
p229
V95.87
p230
sVm
I4
sV4s
p231
I24
sV6s
p232
I3
sVhs
p233
V116
p234
sVr
V209
p235
sV100s
p236
I1
sV50s
p237
I0
ssg60
I2013
stp238
a(Vind-aus-2-2013
(dp239
g24
(dp240
Vinns
p241
I3
sVc
I2
sVro
p242
I1
sVm
I7
sVs
I0
ssg28
(dp243
Vinns
p244
I0
sV10w
p245
I0
sVnb
p246
I0
sVmaid
p247
I0
sVwb
p248
I0
sVbbmw
p249
I0
sV6s
p250
I0
sVbbmr
p251
I0
sVbbir
p252
I0
sVbbiw
p253
I0
sVa
V-
sVb
I0
sVe
V-
sVd
I0
sVwmaid
p254
I0
sV4w
p255
I0
sVm
I7
sV4s
p256
I0
sVr
I0
sVw
I0
sVsr
p257
V-
sVov
p258
V-
sV5w
p259
I0
ssg46
(dp260
Va
V52.66
p261
sVb
I297
sVinns
p262
I7
sVno
p263
I1
sVsr
p264
V106.39
p265
sVm
I7
sV4s
p266
I45
sV6s
p267
I0
sVhs
p268
V100
p269
sVr
V316
p270
sV100s
p271
I1
sV50s
p272
I2
ssg60
I2013
stp273
a(Vtriseries-wi-2013
(dp274
g24
(dp275
Vinns
p276
I1
sVc
I2
sVro
p277
I0
sVm
I5
sVs
I0
ssg28
(dp278
Vinns
p279
I0
sV10w
p280
I0
sVnb
p281
I0
sVmaid
p282
I0
sVwb
p283
I0
sVbbmw
p284
I0
sV6s
p285
I0
sVbbmr
p286
I0
sVbbir
p287
I0
sVbbiw
p288
I0
sVa
V-
sVb
I0
sVe
V-
sVd
I0
sVwmaid
p289
I0
sV4w
p290
I0
sVm
I5
sV4s
p291
I0
sVr
I0
sVw
I0
sVsr
p292
V-
sVov
p293
V-
sV5w
p294
I0
ssg46
(dp295
Va
V27.00
p296
sVb
I180
sVinns
p297
I5
sVno
p298
I0
sVsr
p299
V75.00
p300
sVm
I5
sV4s
p301
I17
sV6s
p302
I2
sVhs
p303
V69
p304
sVr
V135
p305
sV100s
p306
I0
sV50s
p307
I1
ssg60
I2013
stp308
a(Vclt20-2013
(dp309
g24
(dp310
Vinns
p311
I3
sVc
I3
sVro
p312
I0
sVm
I6
sVs
I0
ssg28
(dp313
Vinns
p314
I0
sV10w
p315
I0
sVnb
p316
I0
sVmaid
p317
I0
sVwb
p318
I0
sVbbmw
p319
I0
sV6s
p320
I0
sVbbmr
p321
I0
sVbbir
p322
I0
sVbbiw
p323
I0
sVa
V-
sVb
I0
sVe
V-
sVd
I0
sVwmaid
p324
I0
sV4w
p325
I0
sVm
I6
sV4s
p326
I0
sVr
I0
sVw
I0
sVsr
p327
V-
sVov
p328
V-
sV5w
p329
I0
ssg46
(dp330
Va
V41.66
p331
sVb
I186
sVinns
p332
I6
sVno
p333
I0
sVsr
p334
V134.40
p335
sVm
I6
sV4s
p336
I34
sV6s
p337
I5
sVhs
p338
V71
p339
sVr
V250
p340
sV100s
p341
I0
sV50s
p342
I2
ssg60
I2013
stp343
a(Vind-aus-2013
(dp344
g24
(dp345
Vinns
p346
I0
sVc
I0
sVro
p347
I0
sVm
I1
sVs
I0
ssg28
(dp348
Vinns
p349
I0
sV10w
p350
I0
sVnb
p351
I0
sVmaid
p352
I0
sVwb
p353
I0
sVbbmw
p354
I0
sV6s
p355
I0
sVbbmr
p356
I0
sVbbir
p357
I0
sVbbiw
p358
I0
sVa
V-
sVb
I0
sVe
V-
sVd
I0
sVwmaid
p359
I0
sV4w
p360
I0
sVm
I1
sV4s
p361
I0
sVr
I0
sVw
I0
sVsr
p362
V-
sVov
p363
V-
sV5w
p364
I0
ssg46
(dp365
Va
V187.00
p366
sVb
I174
sVinns
p367
I1
sVno
p368
I0
sVsr
p369
V107.47
p370
sVm
I1
sV4s
p371
I33
sV6s
p372
I2
sVhs
p373
V187
p374
sVr
V187
p375
sV100s
p376
I1
sV50s
p377
I0
ssg60
I2013
stp378
a(Vchamptrophy-2013-warmups
(dp379
g24
(dp380
Vinns
p381
I1
sVc
I0
sVro
p382
I1
sVm
I2
sVs
I0
ssg28
(dp383
Vinns
p384
I0
sV10w
p385
I0
sVnb
p386
I0
sVmaid
p387
I0
sVwb
p388
I0
sVbbmw
p389
I0
sV6s
p390
I0
sVbbmr
p391
I0
sVbbir
p392
I0
sVbbiw
p393
I0
sVa
V-
sVb
I0
sVe
V-
sVd
I0
sVwmaid
p394
I0
sV4w
p395
I0
sVm
I2
sV4s
p396
I0
sVr
I0
sVw
I0
sVsr
p397
V-
sVov
p398
V-
sV5w
p399
I0
ssg46
(dp400
Va
V9.00
p401
sVb
I43
sVinns
p402
I2
sVno
p403
I0
sVsr
p404
V41.86
p405
sVm
I2
sV4s
p406
I2
sV6s
p407
I0
sVhs
p408
V17
p409
sVr
V18
p410
sV100s
p411
I0
sV50s
p412
I0
ssg60
I2013
stp413
a(Vchamptrophy-2013
(dp414
g24
(dp415
Vinns
p416
I1
sVc
I1
sVro
p417
I0
sVm
I5
sVs
I0
ssg28
(dp418
Vinns
p419
I0
sV10w
p420
I0
sVnb
p421
I0
sVmaid
p422
I0
sVwb
p423
I0
sVbbmw
p424
I0
sV6s
p425
I0
sVbbmr
p426
I0
sVbbir
p427
I0
sVbbiw
p428
I0
sVa
V-
sVb
I0
sVe
V-
sVd
I0
sVwmaid
p429
I0
sV4w
p430
I0
sVm
I5
sV4s
p431
I0
sVr
I0
sVw
I0
sVsr
p432
V-
sVov
p433
V-
sV5w
p434
I0
ssg46
(dp435
Va
V90.75
p436
sVb
I358
sVinns
p437
I5
sVno
p438
I1
sVsr
p439
V101.39
p440
sVm
I5
sV4s
p441
I35
sV6s
p442
I4
sVhs
p443
V114
p444
sVr
V363
p445
sV100s
p446
I2
sV50s
p447
I1
ssg60
I2013
stp448
a(Vipl2013
p449
(dp450
g24
(dp451
Vinns
p452
I3
sVc
I3
sVro
p453
I0
sVm
I10
sVs
I0
ssg28
(dp454
Vinns
p455
I0
sV10w
p456
I0
sVnb
p457
I0
sVmaid
p458
I0
sVwb
p459
I0
sVbbmw
p460
I0
sV6s
p461
I0
sVbbmr
p462
I0
sVbbir
p463
I0
sVbbiw
p464
I0
sVa
V-
sVb
I0
sVe
V-
sVd
I0
sVwmaid
p465
I0
sV4w
p466
I0
sVm
I10
sV4s
p467
I0
sVr
I0
sVw
I0
sVsr
p468
V-
sVov
p469
V-
sV5w
p470
I0
ssg46
(dp471
Va
V38.87
p472
sVb
I253
sVinns
p473
I10
sVno
p474
I2
sVsr
p475
V122.92
p476
sVm
I10
sV4s
p477
I37
sV6s
p478
I5
sVhs
p479
V73*
p480
sVr
V311
p481
sV100s
p482
I0
sV50s
p483
I3
ssg60
I2013
stp484
a(Vipl2012
(dp485
g24
(dp486
Vinns
p487
I4
sVc
I5
sVro
p488
I1
sVm
I15
sVs
I0
ssg28
(dp489
Vinns
p490
I4
sV10w
p491
I0
sVnb
p492
I0
sVmaid
p493
I0
sVwb
p494
I1
sVbbmw
p495
I1
sV6s
p496
I2
sVbbmr
p497
I8
sVbbir
p498
I8
sVbbiw
p499
I1
sVa
V18.33
p500
sVb
I36
sVe
V9.16
p501
sVd
I12
sVwmaid
p502
I0
sV4w
p503
I0
sVm
I15
sV4s
p504
I7
sVr
I55
sVw
I3
sVsr
p505
V12.00
p506
sVov
p507
V6.00
p508
sV5w
p509
I0
ssg46
(dp510
Va
V40.64
p511
sVb
I439
sVinns
p512
I15
sVno
p513
I1
sVsr
p514
V129.61
p515
sVm
I15
sV4s
p516
I58
sV6s
p517
I18
sVhs
p518
V84
p519
sVr
V569
p520
sV100s
p521
I0
sV50s
p522
I5
ssg60
I2012
stp523
a(Vipl2011
(dp524
g24
(dp525
Vinns
p526
I6
sVc
I6
sVro
p527
I0
sVm
I14
sVs
I0
ssg28
(dp528
Vinns
p529
I2
sV10w
p530
I0
sVnb
p531
I0
sVmaid
p532
I0
sVwb
p533
I0
sVbbmw
p534
I1
sV6s
p535
I1
sVbbmr
p536
I7
sVbbir
p537
I7
sVbbiw
p538
I1
sVa
V11.00
p539
sVb
I12
sVe
V5.50
p540
sVd
I5
sVwmaid
p541
I0
sV4w
p542
I0
sVm
I14
sV4s
p543
I0
sVr
I11
sVw
I1
sVsr
p544
V12.00
p545
sVov
p546
V2.00
p547
sV5w
p548
I0
ssg46
(dp549
Va
V33.33
p550
sVb
I310
sVinns
p551
I14
sVno
p552
I2
sVsr
p553
V129.03
p554
sVm
I14
sV4s
p555
I47
sV6s
p556
I7
sVhs
p557
V95*
p558
sVr
V400
p559
sV100s
p560
I0
sV50s
p561
I2
ssg60
I2011
stp562
a(Vclt20-2010
(dp563
g24
(dp564
Vinns
p565
I3
sVc
I2
sVro
p566
I1
sVm
I4
sVs
I0
ssg28
(dp567
Vinns
p568
I0
sV10w
p569
I0
sVnb
p570
I0
sVmaid
p571
I0
sVwb
p572
I0
sVbbmw
p573
I0
sV6s
p574
I0
sVbbmr
p575
I0
sVbbir
p576
I0
sVbbiw
p577
I0
sVa
V-
sVb
I0
sVe
V-
sVd
I0
sVwmaid
p578
I0
sV4w
p579
I0
sVm
I4
sV4s
p580
I0
sVr
I0
sVw
I0
sVsr
p581
V-
sVov
p582
V-
sV5w
p583
I0
ssg46
(dp584
Va
V28.50
p585
sVb
I111
sVinns
p586
I4
sVno
p587
I0
sVsr
p588
V102.70
p589
sVm
I4
sV4s
p590
I7
sV6s
p591
I5
sVhs
p592
V41
p593
sVr
V114
p594
sV100s
p595
I0
sV50s
p596
I0
ssg60
I2010
stp597
a(Vipl2010
(dp598
g24
(dp599
Vinns
p600
I5
sVc
I5
sVro
p601
I0
sVm
I10
sVs
I0
ssg28
(dp602
Vinns
p603
I0
sV10w
p604
I0
sVnb
p605
I0
sVmaid
p606
I0
sVwb
p607
I0
sVbbmw
p608
I0
sV6s
p609
I0
sVbbmr
p610
I0
sVbbir
p611
I0
sVbbiw
p612
I0
sVa
V-
sVb
I0
sVe
V-
sVd
I0
sVwmaid
p613
I0
sV4w
p614
I0
sVm
I10
sV4s
p615
I0
sVr
I0
sVw
I0
sVsr
p616
V-
sVov
p617
V-
sV5w
p618
I0
ssg46
(dp619
Va
V19.10
p620
sVb
I170
sVinns
p621
I10
sVno
p622
I0
sVsr
p623
V112.35
p624
sVm
I10
sV4s
p625
I23
sV6s
p626
I3
sVhs
p627
V56
p628
sVr
V191
p629
sV100s
p630
I0
sV50s
p631
I2
ssg60
I2010
stp632
a(Vipl2009
(dp633
g24
(dp634
Vinns
p635
I2
sVc
I2
sVro
p636
I0
sVm
I5
sVs
I0
ssg28
(dp637
Vinns
p638
I0
sV10w
p639
I0
sVnb
p640
I0
sVmaid
p641
I0
sVwb
p642
I0
sVbbmw
p643
I0
sV6s
p644
I0
sVbbmr
p645
I0
sVbbir
p646
I0
sVbbiw
p647
I0
sVa
V-
sVb
I0
sVe
V-
sVd
I0
sVwmaid
p648
I0
sV4w
p649
I0
sVm
I5
sV4s
p650
I0
sVr
I0
sVw
I0
sVsr
p651
V-
sVov
p652
V-
sV5w
p653
I0
ssg46
(dp654
Va
V10.00
p655
sVb
I45
sVinns
p656
I4
sVno
p657
I0
sVsr
p658
V88.88
p659
sVm
I5
sV4s
p660
I3
sV6s
p661
I0
sVhs
p662
V22
p663
sVr
V40
p664
sV100s
p665
I0
sV50s
p666
I0
ssg60
I2009
stp667
a(Vipl2008
(dp668
g24
(dp669
Vinns
p670
I7
sVc
I8
sVro
p671
I1
sVm
I14
sVs
I0
ssg28
(dp672
Vinns
p673
I0
sV10w
p674
I0
sVnb
p675
I0
sVmaid
p676
I0
sVwb
p677
I0
sVbbmw
p678
I0
sV6s
p679
I0
sVbbmr
p680
I0
sVbbir
p681
I0
sVbbiw
p682
I0
sVa
V-
sVb
I0
sVe
V-
sVd
I0
sVwmaid
p683
I0
sV4w
p684
I0
sVm
I14
sV4s
p685
I0
sVr
I0
sVw
I0
sVsr
p686
V-
sVov
p687
V-
sV5w
p688
I0
ssg46
(dp689
Va
V37.77
p690
sVb
I295
sVinns
p691
I14
sVno
p692
I5
sVsr
p693
V115.25
p694
sVm
I14
sV4s
p695
I35
sV6s
p696
I8
sVhs
p697
V68*
p698
sVr
V340
p699
sV100s
p700
I0
sV50s
p701
I4
ssg60
I2008
stp702
asb.