(iplayer
Player
p1
(dp2
S'is_batsman'
p3
I01
sS'name'
p4
S'Brad Hodge'
p5
sS'dob'
p6
S'1974/01/29'
p7
sS'price'
p8
S'1000000'
p9
sS'is_allrounder'
p10
I00
sS'is_overseas'
p11
I01
sS'team'
p12
S'RR'
p13
sS'nationality'
p14
S'Australian'
p15
sS'is_bowler'
p16
I00
sS'is_keeper'
p17
I00
sS'id'
p18
S'229'
p19
sS'is_uncapped'
p20
I00
sS'tournamentStats'
p21
(lp22
(Vsa-aus-2014
(dp23
S'fieldingStats'
p24
(dp25
Vinns
p26
I1
sVc
I1
sVro
p27
I0
sVm
I2
sVs
I0
ssS'bowlingStats'
p28
(dp29
Vinns
p30
I0
sV10w
p31
I0
sVnb
p32
I0
sVmaid
p33
I0
sVwb
p34
I0
sVbbmw
p35
I0
sV6s
p36
I0
sVbbmr
p37
I0
sVbbir
p38
I0
sVbbiw
p39
I0
sVa
V-
sVb
I0
sVe
V-
sVd
I0
sVwmaid
p40
I0
sV4w
p41
I0
sVm
I2
sV4s
p42
I0
sVr
I0
sVw
I0
sVsr
p43
V-
sVov
p44
V-
sV5w
p45
I0
ssS'battingStats'
p46
(dp47
Va
V-
sVb
I13
sVinns
p48
I2
sVno
p49
I2
sVsr
p50
V246.15
p51
sVm
I2
sV4s
p52
I1
sV6s
p53
I3
sVhs
p54
V21*
p55
sVr
V32
p56
sV100s
p57
I0
sV50s
p58
I0
ssS'year'
p59
I2014
stp60
a(Vworldt20-2014
(dp61
g24
(dp62
Vinns
p63
I0
sVc
I0
sVro
p64
I0
sVm
I1
sVs
I0
ssg28
(dp65
Vinns
p66
I0
sV10w
p67
I0
sVnb
p68
I0
sVmaid
p69
I0
sVwb
p70
I0
sVbbmw
p71
I0
sV6s
p72
I0
sVbbmr
p73
I0
sVbbir
p74
I0
sVbbiw
p75
I0
sVa
V-
sVb
I0
sVe
V-
sVd
I0
sVwmaid
p76
I0
sV4w
p77
I0
sVm
I1
sV4s
p78
I0
sVr
I0
sVw
I0
sVsr
p79
V-
sVov
p80
V-
sV5w
p81
I0
ssg46
(dp82
Va
V2.00
p83
sVb
I3
sVinns
p84
I1
sVno
p85
I0
sVsr
p86
V66.66
p87
sVm
I1
sV4s
p88
I0
sV6s
p89
I0
sVhs
p90
V2
sVr
V2
sV100s
p91
I0
sV50s
p92
I0
ssg59
I2014
stp93
a(Vbigbash-2013
(dp94
g24
(dp95
Vinns
p96
I2
sVc
I3
sVro
p97
I0
sVm
I9
sVs
I0
ssg28
(dp98
Vinns
p99
I0
sV10w
p100
I0
sVnb
p101
I0
sVmaid
p102
I0
sVwb
p103
I0
sVbbmw
p104
I0
sV6s
p105
I0
sVbbmr
p106
I0
sVbbir
p107
I0
sVbbiw
p108
I0
sVa
V-
sVb
I0
sVe
V-
sVd
I0
sVwmaid
p109
I0
sV4w
p110
I0
sVm
I9
sV4s
p111
I0
sVr
I0
sVw
I0
sVsr
p112
V-
sVov
p113
V-
sV5w
p114
I0
ssg46
(dp115
Va
V36.50
p116
sVb
I165
sVinns
p117
I7
sVno
p118
I1
sVsr
p119
V132.72
p120
sVm
I9
sV4s
p121
I19
sV6s
p122
I9
sVhs
p123
V64*
p124
sVr
V219
p125
sV100s
p126
I0
sV50s
p127
I3
ssg59
I2013
stp128
a(Vclt20-2013
(dp129
g24
(dp130
Vinns
p131
I1
sVc
I1
sVro
p132
I0
sVm
I5
sVs
I0
ssg28
(dp133
Vinns
p134
I0
sV10w
p135
I0
sVnb
p136
I0
sVmaid
p137
I0
sVwb
p138
I0
sVbbmw
p139
I0
sV6s
p140
I0
sVbbmr
p141
I0
sVbbir
p142
I0
sVbbiw
p143
I0
sVa
V-
sVb
I0
sVe
V-
sVd
I0
sVwmaid
p144
I0
sV4w
p145
I0
sVm
I5
sV4s
p146
I0
sVr
I0
sVw
I0
sVsr
p147
V-
sVov
p148
V-
sV5w
p149
I0
ssg46
(dp150
Va
V109.00
p151
sVb
I55
sVinns
p152
I3
sVno
p153
I2
sVsr
p154
V198.18
p155
sVm
I5
sV4s
p156
I12
sV6s
p157
I5
sVhs
p158
V52*
p159
sVr
V109
p160
sV100s
p161
I0
sV50s
p162
I1
ssg59
I2013
stp163
a(Vaus-eng-2013
(dp164
g24
(dp165
Vinns
p166
I1
sVc
I1
sVro
p167
I1
sVm
I2
sVs
I0
ssg28
(dp168
Vinns
p169
I1
sV10w
p170
I0
sVnb
p171
I0
sVmaid
p172
I0
sVwb
p173
I0
sVbbmw
p174
I0
sV6s
p175
I0
sVbbmr
p176
I0
sVbbir
p177
I0
sVbbiw
p178
I0
sVa
V-
sVb
I6
sVe
V10.00
p179
sVd
I2
sVwmaid
p180
I0
sV4w
p181
I0
sVm
I2
sV4s
p182
I2
sVr
I10
sVw
I0
sVsr
p183
V-
sVov
p184
V1.00
p185
sV5w
p186
I0
ssg46
(dp187
Va
V7.00
p188
sVb
I7
sVinns
p189
I1
sVno
p190
I0
sVsr
p191
V100.00
p192
sVm
I2
sV4s
p193
I1
sV6s
p194
I0
sVhs
p195
V7
sVr
V7
sV100s
p196
I0
sV50s
p197
I0
ssg59
I2013
stp198
a(Vipl2013
p199
(dp200
g24
(dp201
Vinns
p202
I6
sVc
I6
sVro
p203
I1
sVm
I17
sVs
I0
ssg28
(dp204
Vinns
p205
I1
sV10w
p206
I0
sVnb
p207
I0
sVmaid
p208
I0
sVwb
p209
I0
sVbbmw
p210
I0
sV6s
p211
I0
sVbbmr
p212
I0
sVbbir
p213
I0
sVbbiw
p214
I0
sVa
V-
sVb
I6
sVe
V3.00
p215
sVd
I3
sVwmaid
p216
I0
sV4w
p217
I0
sVm
I17
sV4s
p218
I0
sVr
I3
sVw
I0
sVsr
p219
V-
sVov
p220
V1.00
p221
sV5w
p222
I0
ssg46
(dp223
Va
V41.85
p224
sVb
I218
sVinns
p225
I14
sVno
p226
I7
sVsr
p227
V134.40
p228
sVm
I17
sV4s
p229
I27
sV6s
p230
I9
sVhs
p231
V54*
p232
sVr
V293
p233
sV100s
p234
I0
sV50s
p235
I1
ssg59
I2013
stp236
a(Vipl2012
(dp237
g24
(dp238
Vinns
p239
I6
sVc
I7
sVro
p240
I0
sVm
I12
sVs
I0
ssg28
(dp241
Vinns
p242
I2
sV10w
p243
I0
sVnb
p244
I0
sVmaid
p245
I0
sVwb
p246
I0
sVbbmw
p247
I1
sV6s
p248
I1
sVbbmr
p249
I13
sVbbir
p250
I13
sVbbiw
p251
I1
sVa
V21.00
p252
sVb
I12
sVe
V10.50
p253
sVd
I2
sVwmaid
p254
I0
sV4w
p255
I0
sVm
I12
sV4s
p256
I2
sVr
I21
sVw
I1
sVsr
p257
V12.00
p258
sVov
p259
V2.00
p260
sV5w
p261
I0
ssg46
(dp262
Va
V30.62
p263
sVb
I175
sVinns
p264
I12
sVno
p265
I4
sVsr
p266
V140.00
p267
sVm
I12
sV4s
p268
I18
sV6s
p269
I9
sVhs
p270
V48*
p271
sVr
V245
p272
sV100s
p273
I0
sV50s
p274
I0
ssg59
I2012
stp275
a(Vbigbash-2012
(dp276
g24
(dp277
Vinns
p278
I3
sVc
I5
sVro
p279
I0
sVm
I9
sVs
I0
ssg28
(dp280
Vinns
p281
I0
sV10w
p282
I0
sVnb
p283
I0
sVmaid
p284
I0
sVwb
p285
I0
sVbbmw
p286
I0
sV6s
p287
I0
sVbbmr
p288
I0
sVbbir
p289
I0
sVbbiw
p290
I0
sVa
V-
sVb
I0
sVe
V-
sVd
I0
sVwmaid
p291
I0
sV4w
p292
I0
sVm
I9
sV4s
p293
I0
sVr
I0
sVw
I0
sVsr
p294
V-
sVov
p295
V-
sV5w
p296
I0
ssg46
(dp297
Va
V48.85
p298
sVb
I236
sVinns
p299
I8
sVno
p300
I1
sVsr
p301
V144.91
p302
sVm
I9
sV4s
p303
I31
sV6s
p304
I13
sVhs
p305
V88
p306
sVr
V342
p307
sV100s
p308
I0
sV50s
p309
I3
ssg59
I2012
stp310
a(Vipl2011
(dp311
g24
(dp312
Vinns
p313
I1
sVc
I1
sVro
p314
I0
sVm
I14
sVs
I0
ssg28
(dp315
Vinns
p316
I4
sV10w
p317
I0
sVnb
p318
I0
sVmaid
p319
I0
sVwb
p320
I1
sVbbmw
p321
I4
sV6s
p322
I3
sVbbmr
p323
I13
sVbbir
p324
I13
sVbbiw
p325
I4
sVa
V11.00
p326
sVb
I66
sVe
V7.00
p327
sVd
I28
sVwmaid
p328
I0
sV4w
p329
I1
sVm
I14
sV4s
p330
I6
sVr
I77
sVw
I7
sVsr
p331
V9.42
p332
sVov
p333
V11.00
p334
sV5w
p335
I0
ssg46
(dp336
Va
V35.62
p337
sVb
I236
sVinns
p338
I14
sVno
p339
I6
sVsr
p340
V120.76
p341
sVm
I14
sV4s
p342
I26
sV6s
p343
I9
sVhs
p344
V51*
p345
sVr
V285
p346
sV100s
p347
I0
sV50s
p348
I1
ssg59
I2011
stp349
a(Vclt20-2010
(dp350
g24
(dp351
Vinns
p352
I0
sVc
I0
sVro
p353
I0
sVm
I3
sVs
I0
ssg28
(dp354
Vinns
p355
I0
sV10w
p356
I0
sVnb
p357
I0
sVmaid
p358
I0
sVwb
p359
I0
sVbbmw
p360
I0
sV6s
p361
I0
sVbbmr
p362
I0
sVbbir
p363
I0
sVbbiw
p364
I0
sVa
V-
sVb
I0
sVe
V-
sVd
I0
sVwmaid
p365
I0
sV4w
p366
I0
sVm
I3
sV4s
p367
I0
sVr
I0
sVw
I0
sVsr
p368
V-
sVov
p369
V-
sV5w
p370
I0
ssg46
(dp371
Va
V10.00
p372
sVb
I28
sVinns
p373
I3
sVno
p374
I0
sVsr
p375
V107.14
p376
sVm
I3
sV4s
p377
I5
sV6s
p378
I0
sVhs
p379
V16
p380
sVr
V30
p381
sV100s
p382
I0
sV50s
p383
I0
ssg59
I2010
stp384
a(Vipl2010
(dp385
g24
(dp386
Vinns
p387
I3
sVc
I3
sVro
p388
I0
sVm
I4
sVs
I0
ssg28
(dp389
Vinns
p390
I4
sV10w
p391
I0
sVnb
p392
I0
sVmaid
p393
I0
sVwb
p394
I0
sVbbmw
p395
I1
sV6s
p396
I2
sVbbmr
p397
I4
sVbbir
p398
I4
sVbbiw
p399
I1
sVa
V20.50
p400
sVb
I30
sVe
V8.20
p401
sVd
I8
sVwmaid
p402
I0
sV4w
p403
I0
sVm
I4
sV4s
p404
I2
sVr
I41
sVw
I2
sVsr
p405
V15.00
p406
sVov
p407
V5.00
p408
sV5w
p409
I0
ssg46
(dp410
Va
V24.75
p411
sVb
I90
sVinns
p412
I4
sVno
p413
I0
sVsr
p414
V110.00
p415
sVm
I4
sV4s
p416
I11
sV6s
p417
I1
sVhs
p418
V50
p419
sVr
V99
p420
sV100s
p421
I0
sV50s
p422
I1
ssg59
I2010
stp423
a(Vipl2009
(dp424
g24
(dp425
Vinns
p426
I3
sVc
I2
sVro
p427
I1
sVm
I12
sVs
I0
ssg28
(dp428
Vinns
p429
I9
sV10w
p430
I0
sVnb
p431
I0
sVmaid
p432
I0
sVwb
p433
I3
sVbbmw
p434
I3
sV6s
p435
I8
sVbbmr
p436
I29
sVbbir
p437
I29
sVbbiw
p438
I3
sVa
V23.00
p439
sVb
I120
sVe
V8.05
p440
sVd
I34
sVwmaid
p441
I0
sV4w
p442
I0
sVm
I12
sV4s
p443
I8
sVr
I161
sVw
I7
sVsr
p444
V17.14
p445
sVov
p446
V20.00
p447
sV5w
p448
I0
ssg46
(dp449
Va
V40.55
p450
sVb
I310
sVinns
p451
I12
sVno
p452
I3
sVsr
p453
V117.74
p454
sVm
I12
sV4s
p455
I34
sV6s
p456
I9
sVhs
p457
V73
p458
sVr
V365
p459
sV100s
p460
I0
sV50s
p461
I3
ssg59
I2009
stp462
a(Vclt20-2009
(dp463
g24
(dp464
Vinns
p465
I0
sVc
I0
sVro
p466
I0
sVm
I5
sVs
I0
ssg28
(dp467
Vinns
p468
I2
sV10w
p469
I0
sVnb
p470
I0
sVmaid
p471
I0
sVwb
p472
I0
sVbbmw
p473
I0
sV6s
p474
I0
sVbbmr
p475
I0
sVbbir
p476
I0
sVbbiw
p477
I0
sVa
V-
sVb
I18
sVe
V8.33
p478
sVd
I5
sVwmaid
p479
I0
sV4w
p480
I0
sVm
I5
sV4s
p481
I4
sVr
I25
sVw
I0
sVsr
p482
V-
sVov
p483
V3.00
p484
sV5w
p485
I0
ssg46
(dp486
Va
V19.50
p487
sVb
I95
sVinns
p488
I5
sVno
p489
I1
sVsr
p490
V82.10
p491
sVm
I5
sV4s
p492
I8
sV6s
p493
I1
sVhs
p494
V44*
p495
sVr
V78
p496
sV100s
p497
I0
sV50s
p498
I0
ssg59
I2009
stp499
a(Vipl2008
(dp500
g24
(dp501
Vinns
p502
I2
sVc
I1
sVro
p503
I1
sVm
I3
sVs
I0
ssg28
(dp504
Vinns
p505
I0
sV10w
p506
I0
sVnb
p507
I0
sVmaid
p508
I0
sVwb
p509
I0
sVbbmw
p510
I0
sV6s
p511
I0
sVbbmr
p512
I0
sVbbir
p513
I0
sVbbiw
p514
I0
sVa
V-
sVb
I0
sVe
V-
sVd
I0
sVwmaid
p515
I0
sV4w
p516
I0
sVm
I3
sV4s
p517
I0
sVr
I0
sVw
I0
sVsr
p518
V-
sVov
p519
V-
sV5w
p520
I0
ssg46
(dp521
Va
V4.00
p522
sVb
I17
sVinns
p523
I3
sVno
p524
I0
sVsr
p525
V70.58
p526
sVm
I3
sV4s
p527
I2
sV6s
p528
I0
sVhs
p529
V10
p530
sVr
V12
p531
sV100s
p532
I0
sV50s
p533
I0
ssg59
I2008
stp534
asb.