(iplayer
Player
p1
(dp2
S'is_batsman'
p3
I00
sS'name'
p4
S'John Hastings'
p5
sS'dob'
p6
S'1985/11/04'
p7
sS'price'
p8
S'800000'
p9
sS'is_allrounder'
p10
I01
sS'is_overseas'
p11
I01
sS'team'
p12
S'CSK'
p13
sS'nationality'
p14
S'Australian'
p15
sS'is_bowler'
p16
I00
sS'is_keeper'
p17
I00
sS'id'
p18
S'748'
p19
sS'is_uncapped'
p20
I00
sS'tournamentStats'
p21
(lp22
(Vbigbash-2013
(dp23
S'fieldingStats'
p24
(dp25
Vinns
p26
I4
sVc
I3
sVro
p27
I1
sVm
I9
sVs
I0
ssS'bowlingStats'
p28
(dp29
Vinns
p30
I9
sV10w
p31
I0
sVnb
p32
I0
sVmaid
p33
I1
sVwb
p34
I7
sVbbmw
p35
I3
sV6s
p36
I5
sVbbmr
p37
I20
sVbbir
p38
I20
sVbbiw
p39
I3
sVa
V15.69
p40
sVb
I199
sVe
V6.15
p41
sVd
I89
sVwmaid
p42
I1
sV4w
p43
I0
sVm
I9
sV4s
p44
I15
sVr
I204
sVw
I13
sVsr
p45
V15.30
p46
sVov
p47
V33.16
p48
sV5w
p49
I0
ssS'battingStats'
p50
(dp51
Va
V14.50
p52
sVb
I23
sVinns
p53
I4
sVno
p54
I2
sVsr
p55
V126.08
p56
sVm
I9
sV4s
p57
I1
sV6s
p58
I2
sVhs
p59
V13*
p60
sVr
V29
p61
sV100s
p62
I0
sV50s
p63
I0
ssS'year'
p64
I2013
stp65
a(Vaus-sa-2012
(dp66
g24
(dp67
Vinns
p68
I1
sVc
I1
sVro
p69
I0
sVm
I1
sVs
I0
ssg28
(dp70
Vinns
p71
I2
sV10w
p72
I0
sVnb
p73
I0
sVmaid
p74
I3
sVwb
p75
I1
sVbbmw
p76
I1
sV6s
p77
I0
sVbbmr
p78
I153
sVbbir
p79
I51
sVbbiw
p80
I1
sVa
V153.00
p81
sVb
I234
sVe
V3.92
p82
sVd
I167
sVwmaid
p83
I0
sV4w
p84
I0
sVm
I1
sV4s
p85
I21
sVr
I153
sVw
I1
sVsr
p86
V234.00
p87
sVov
p88
V39.00
p89
sV5w
p90
I0
ssg50
(dp91
Va
V26.00
p92
sVb
I88
sVinns
p93
I2
sVno
p94
I0
sVsr
p95
V59.09
p96
sVm
I1
sV4s
p97
I5
sV6s
p98
I2
sVhs
p99
V32
p100
sVr
V52
p101
sV100s
p102
I0
sV50s
p103
I0
ssg64
I2012
stp104
a(Vbigbash-2012
(dp105
g24
(dp106
Vinns
p107
I0
sVc
I0
sVro
p108
I0
sVm
I5
sVs
I0
ssg28
(dp109
Vinns
p110
I5
sV10w
p111
I0
sVnb
p112
I1
sVmaid
p113
I0
sVwb
p114
I3
sVbbmw
p115
I1
sV6s
p116
I4
sVbbmr
p117
I22
sVbbir
p118
I22
sVbbiw
p119
I1
sVa
V51.66
p120
sVb
I107
sVe
V8.69
p121
sVd
I34
sVwmaid
p122
I0
sV4w
p123
I0
sVm
I5
sV4s
p124
I17
sVr
I155
sVw
I3
sVsr
p125
V35.66
p126
sVov
p127
V17.83
p128
sV5w
p129
I0
ssg50
(dp130
Va
V7.75
p131
sVb
I24
sVinns
p132
I4
sVno
p133
I0
sVsr
p134
V129.16
p135
sVm
I5
sV4s
p136
I1
sV6s
p137
I2
sVhs
p138
V22
p139
sVr
V31
p140
sV100s
p141
I0
sV50s
p142
I0
ssg64
I2012
stp143
a(Vclt20-2010
p144
(dp145
g24
(dp146
Vinns
p147
I2
sVc
I2
sVro
p148
I0
sVm
I4
sVs
I0
ssg28
(dp149
Vinns
p150
I4
sV10w
p151
I0
sVnb
p152
I1
sVmaid
p153
I0
sVwb
p154
I1
sVbbmw
p155
I2
sV6s
p156
I3
sVbbmr
p157
I22
sVbbir
p158
I22
sVbbiw
p159
I2
sVa
V30.66
p160
sVb
I66
sVe
V8.36
p161
sVd
I18
sVwmaid
p162
I0
sV4w
p163
I0
sVm
I4
sV4s
p164
I9
sVr
I92
sVw
I3
sVsr
p165
V22.00
p166
sVov
p167
V11.00
p168
sV5w
p169
I0
ssg50
(dp170
Va
V3.50
p171
sVb
I9
sVinns
p172
I2
sVno
p173
I0
sVsr
p174
V77.77
p175
sVm
I4
sV4s
p176
I0
sV6s
p177
I0
sVhs
p178
V6
sVr
V7
sV100s
p179
I0
sV50s
p180
I0
ssg64
I2010
stp181
asb.