(iplayer
Player
p1
(dp2
S'is_batsman'
p3
I00
sS'name'
p4
S'Stuart Binny'
p5
sS'dob'
p6
S'1984/06/03'
p7
sS'price'
p8
S'850000'
p9
sS'is_allrounder'
p10
I01
sS'is_overseas'
p11
I00
sS'team'
p12
S'RR'
p13
sS'nationality'
p14
S'Indian'
p15
sS'is_bowler'
p16
I00
sS'is_keeper'
p17
I00
sS'id'
p18
S'148'
p19
sS'is_uncapped'
p20
I00
sS'tournamentStats'
p21
(lp22
(Vasiacup-2014
(dp23
S'fieldingStats'
p24
(dp25
Vinns
p26
I0
sVc
I0
sVro
p27
I0
sVm
I1
sVs
I0
ssS'bowlingStats'
p28
(dp29
Vinns
p30
I1
sV10w
p31
I0
sVnb
p32
I0
sVmaid
p33
I0
sVwb
p34
I0
sVbbmw
p35
I0
sV6s
p36
I1
sVbbmr
p37
I22
sVbbir
p38
I22
sVbbiw
p39
I0
sVa
V-
sVb
I24
sVe
V5.50
p40
sVd
I7
sVwmaid
p41
I0
sV4w
p42
I0
sVm
I1
sV4s
p43
I0
sVr
I22
sVw
I0
sVsr
p44
V-
sVov
p45
V4.00
p46
sV5w
p47
I0
ssS'battingStats'
p48
(dp49
Va
V0.00
p50
sVb
I4
sVinns
p51
I1
sVno
p52
I0
sVsr
p53
V0.00
p54
sVm
I1
sV4s
p55
I0
sV6s
p56
I0
sVhs
p57
V0*
p58
sVr
V0
sV100s
p59
I0
sV50s
p60
I0
ssS'year'
p61
I2014
stp62
a(Vnz-ind-2014
(dp63
g24
(dp64
Vinns
p65
I0
sVc
I0
sVro
p66
I0
sVm
I1
sVs
I0
ssg28
(dp67
Vinns
p68
I1
sV10w
p69
I0
sVnb
p70
I0
sVmaid
p71
I0
sVwb
p72
I0
sVbbmw
p73
I0
sV6s
p74
I0
sVbbmr
p75
I8
sVbbir
p76
I8
sVbbiw
p77
I0
sVa
V-
sVb
I6
sVe
V8.00
p78
sVd
I2
sVwmaid
p79
I0
sV4w
p80
I0
sVm
I1
sV4s
p81
I1
sVr
I8
sVw
I0
sVsr
p82
V-
sVov
p83
V1.00
p84
sV5w
p85
I0
ssg48
(dp86
Va
V-
sVinns
p87
I0
sVno
p88
I0
sVsr
p89
V-
sVm
I1
sV4s
p90
I0
sV6s
p91
I0
sVhs
p92
V0*
p93
sVr
V0
sV100s
p94
I0
sV50s
p95
I0
ssg61
I2014
stp96
a(Vclt20-2013
(dp97
g24
(dp98
Vinns
p99
I4
sVc
I3
sVro
p100
I1
sVm
I6
sVs
I0
ssg28
(dp101
Vinns
p102
I5
sV10w
p103
I0
sVnb
p104
I1
sVmaid
p105
I0
sVwb
p106
I2
sVbbmw
p107
I1
sV6s
p108
I2
sVbbmr
p109
I13
sVbbir
p110
I13
sVbbiw
p111
I1
sVa
V55.00
p112
sVb
I42
sVe
V7.85
p113
sVd
I19
sVwmaid
p114
I0
sV4w
p115
I0
sVm
I6
sV4s
p116
I5
sVr
I55
sVw
I1
sVsr
p117
V42.00
p118
sVov
p119
V7.00
p120
sV5w
p121
I0
ssg48
(dp122
Va
V20.25
p123
sVb
I49
sVinns
p124
I5
sVno
p125
I1
sVsr
p126
V165.30
p127
sVm
I6
sV4s
p128
I8
sV6s
p129
I3
sVhs
p130
V38
p131
sVr
V81
p132
sV100s
p133
I0
sV50s
p134
I0
ssg61
I2013
stp135
a(Vipl2013
p136
(dp137
g24
(dp138
Vinns
p139
I3
sVc
I3
sVro
p140
I0
sVm
I17
sVs
I0
ssg28
(dp141
Vinns
p142
I14
sV10w
p143
I0
sVnb
p144
I0
sVmaid
p145
I0
sVwb
p146
I5
sVbbmw
p147
I2
sV6s
p148
I5
sVbbmr
p149
I14
sVbbir
p150
I14
sVbbiw
p151
I2
sVa
V27.00
p152
sVb
I144
sVe
V6.75
p153
sVd
I57
sVwmaid
p154
I0
sV4w
p155
I0
sVm
I17
sV4s
p156
I11
sVr
I162
sVw
I6
sVsr
p157
V24.00
p158
sVov
p159
V24.00
p160
sV5w
p161
I0
ssg48
(dp162
Va
V32.55
p163
sVb
I199
sVinns
p164
I16
sVno
p165
I7
sVsr
p166
V147.23
p167
sVm
I17
sV4s
p168
I25
sV6s
p169
I12
sVhs
p170
V41*
p171
sVr
V293
p172
sV100s
p173
I0
sV50s
p174
I0
ssg61
I2013
stp175
a(Vipl2012
(dp176
g24
(dp177
Vinns
p178
I1
sVc
I1
sVro
p179
I0
sVm
I8
sVs
I0
ssg28
(dp180
Vinns
p181
I6
sV10w
p182
I0
sVnb
p183
I0
sVmaid
p184
I0
sVwb
p185
I0
sVbbmw
p186
I1
sV6s
p187
I0
sVbbmr
p188
I8
sVbbir
p189
I8
sVbbiw
p190
I1
sVa
V26.00
p191
sVb
I60
sVe
V7.80
p192
sVd
I15
sVwmaid
p193
I0
sV4w
p194
I0
sVm
I8
sV4s
p195
I8
sVr
I78
sVw
I3
sVsr
p196
V20.00
p197
sVov
p198
V10.00
p199
sV5w
p200
I0
ssg48
(dp201
Va
V22.50
p202
sVb
I67
sVinns
p203
I6
sVno
p204
I2
sVsr
p205
V134.32
p206
sVm
I8
sV4s
p207
I9
sV6s
p208
I3
sVhs
p209
V30
p210
sVr
V90
p211
sV100s
p212
I0
sV50s
p213
I0
ssg61
I2012
stp214
a(Vipl2011
(dp215
g24
(dp216
Vinns
p217
I3
sVc
I2
sVro
p218
I1
sVm
I6
sVs
I0
ssg28
(dp219
Vinns
p220
I3
sV10w
p221
I0
sVnb
p222
I0
sVmaid
p223
I0
sVwb
p224
I1
sVbbmw
p225
I0
sV6s
p226
I1
sVbbmr
p227
I0
sVbbir
p228
I0
sVbbiw
p229
I0
sVa
V-
sVb
I24
sVe
V11.00
p230
sVd
I1
sVwmaid
p231
I0
sV4w
p232
I0
sVm
I6
sV4s
p233
I4
sVr
I44
sVw
I0
sVsr
p234
V-
sVov
p235
V4.00
p236
sV5w
p237
I0
ssg48
(dp238
Va
V37.00
p239
sVb
I31
sVinns
p240
I2
sVno
p241
I1
sVsr
p242
V119.35
p243
sVm
I6
sV4s
p244
I2
sV6s
p245
I1
sVhs
p246
V30
p247
sVr
V37
p248
sV100s
p249
I0
sV50s
p250
I0
ssg61
I2011
stp251
a(Vipl2010
(dp252
g24
(dp253
Vinns
p254
I0
sVc
I0
sVro
p255
I0
sVm
I1
sVs
I0
ssg28
(dp256
Vinns
p257
I1
sV10w
p258
I0
sVnb
p259
I0
sVmaid
p260
I0
sVwb
p261
I0
sVbbmw
p262
I0
sV6s
p263
I0
sVbbmr
p264
I9
sVbbir
p265
I9
sVbbiw
p266
I0
sVa
V-
sVb
I6
sVe
V9.00
p267
sVd
I0
sVwmaid
p268
I0
sV4w
p269
I0
sVm
I1
sV4s
p270
I1
sVr
I9
sVw
I0
sVsr
p271
V-
sVov
p272
V1.00
p273
sV5w
p274
I0
ssg48
(dp275
Va
V8.00
p276
sVb
I5
sVinns
p277
I1
sVno
p278
I0
sVsr
p279
V160.00
p280
sVm
I1
sV4s
p281
I1
sV6s
p282
I0
sVhs
p283
V8
sVr
V8
sV100s
p284
I0
sV50s
p285
I0
ssg61
I2010
stp286
asb.