(iplayer
Player
p1
(dp2
S'is_batsman'
p3
I00
sS'name'
p4
S'Wriddhiman Saha'
p5
sS'dob'
p6
S'1984/10/24'
p7
sS'price'
p8
S'800000'
p9
sS'is_allrounder'
p10
I00
sS'is_overseas'
p11
I00
sS'team'
p12
S'KXIP'
p13
sS'nationality'
p14
S'Indian'
p15
sS'is_bowler'
p16
I00
sS'is_keeper'
p17
I01
sS'id'
p18
S'16'
p19
sS'is_uncapped'
p20
I00
sS'tournamentStats'
p21
(lp22
(Vipl2013
(dp23
S'fieldingStats'
p24
(dp25
Vinns
p26
I0
sVc
I0
sVro
p27
I0
sVm
I3
sVs
I0
ssS'bowlingStats'
p28
(dp29
Vinns
p30
I0
sV10w
p31
I0
sVnb
p32
I0
sVmaid
p33
I0
sVwb
p34
I0
sVbbmw
p35
I0
sV6s
p36
I0
sVbbmr
p37
I0
sVbbir
p38
I0
sVbbiw
p39
I0
sVa
V-
sVb
I0
sVe
V-
sVd
I0
sVwmaid
p40
I0
sV4w
p41
I0
sVm
I3
sV4s
p42
I0
sVr
I0
sVw
I0
sVsr
p43
V-
sVov
p44
V-
sV5w
p45
I0
ssS'battingStats'
p46
(dp47
Va
V23.33
p48
sVb
I56
sVinns
p49
I3
sVno
p50
I0
sVsr
p51
V125.00
p52
sVm
I3
sV4s
p53
I6
sV6s
p54
I4
sVhs
p55
V39
p56
sVr
V70
p57
sV100s
p58
I0
sV50s
p59
I0
ssS'year'
p60
I2013
stp61
a(Vipl2012
(dp62
g24
(dp63
Vinns
p64
I0
sVc
I0
sVro
p65
I0
sVm
I4
sVs
I0
ssg28
(dp66
Vinns
p67
I0
sV10w
p68
I0
sVnb
p69
I0
sVmaid
p70
I0
sVwb
p71
I0
sVbbmw
p72
I0
sV6s
p73
I0
sVbbmr
p74
I0
sVbbir
p75
I0
sVbbiw
p76
I0
sVa
V-
sVb
I0
sVe
V-
sVd
I0
sVwmaid
p77
I0
sV4w
p78
I0
sVm
I4
sV4s
p79
I0
sVr
I0
sVw
I0
sVsr
p80
V-
sVov
p81
V-
sV5w
p82
I0
ssg46
(dp83
Va
V6.00
p84
sVb
I14
sVinns
p85
I1
sVno
p86
I0
sVsr
p87
V42.85
p88
sVm
I4
sV4s
p89
I0
sV6s
p90
I0
sVhs
p91
V6
sVr
V6
sV100s
p92
I0
sV50s
p93
I0
ssg60
I2012
stp94
a(Vclt20-2012
(dp95
g24
(dp96
Vinns
p97
I2
sVc
I3
sVro
p98
I1
sVm
I3
sVs
I0
ssg28
(dp99
Vinns
p100
I0
sV10w
p101
I0
sVnb
p102
I0
sVmaid
p103
I0
sVwb
p104
I0
sVbbmw
p105
I0
sV6s
p106
I0
sVbbmr
p107
I0
sVbbir
p108
I0
sVbbiw
p109
I0
sVa
V-
sVb
I0
sVe
V-
sVd
I0
sVwmaid
p110
I0
sV4w
p111
I0
sVm
I3
sV4s
p112
I0
sVr
I0
sVw
I0
sVsr
p113
V-
sVov
p114
V-
sV5w
p115
I0
ssg46
(dp116
Va
V6.00
p117
sVb
I8
sVinns
p118
I3
sVno
p119
I2
sVsr
p120
V75.00
p121
sVm
I3
sV4s
p122
I0
sV6s
p123
I0
sVhs
p124
V5
sVr
V6
sV100s
p125
I0
sV50s
p126
I0
ssg60
I2012
stp127
a(Vipl2011
(dp128
g24
(dp129
Vinns
p130
I2
sVc
I2
sVro
p131
I1
sVm
I7
sVs
I0
ssg28
(dp132
Vinns
p133
I0
sV10w
p134
I0
sVnb
p135
I0
sVmaid
p136
I0
sVwb
p137
I0
sVbbmw
p138
I0
sV6s
p139
I0
sVbbmr
p140
I0
sVbbir
p141
I0
sVbbiw
p142
I0
sVa
V-
sVb
I0
sVe
V-
sVd
I0
sVwmaid
p143
I0
sV4w
p144
I0
sVm
I7
sV4s
p145
I0
sVr
I0
sVw
I0
sVsr
p146
V-
sVov
p147
V-
sV5w
p148
I0
ssg46
(dp149
Va
V68.00
p150
sVb
I63
sVinns
p151
I3
sVno
p152
I2
sVsr
p153
V107.93
p154
sVm
I7
sV4s
p155
I2
sV6s
p156
I4
sVhs
p157
V46*
p158
sVr
V68
p159
sV100s
p160
I0
sV50s
p161
I0
ssg60
I2011
stp162
a(Vclt20-2011
p163
(dp164
g24
(dp165
Vinns
p166
I2
sVc
I1
sVro
p167
I1
sVm
I4
sVs
I0
ssg28
(dp168
Vinns
p169
I0
sV10w
p170
I0
sVnb
p171
I0
sVmaid
p172
I0
sVwb
p173
I0
sVbbmw
p174
I0
sV6s
p175
I0
sVbbmr
p176
I0
sVbbir
p177
I0
sVbbiw
p178
I0
sVa
V-
sVb
I0
sVe
V-
sVd
I0
sVwmaid
p179
I0
sV4w
p180
I0
sVm
I4
sV4s
p181
I0
sVr
I0
sVw
I0
sVsr
p182
V-
sVov
p183
V-
sV5w
p184
I0
ssg46
(dp185
Va
V4.66
p186
sVb
I19
sVinns
p187
I3
sVno
p188
I0
sVsr
p189
V73.68
p190
sVm
I4
sV4s
p191
I0
sV6s
p192
I0
sVhs
p193
V8
sVr
V14
p194
sV100s
p195
I0
sV50s
p196
I0
ssg60
I2011
stp197
a(Vipl2010
(dp198
g24
(dp199
Vinns
p200
I5
sVc
I3
sVro
p201
I0
sVm
I13
sVs
I3
ssg28
(dp202
Vinns
p203
I0
sV10w
p204
I0
sVnb
p205
I0
sVmaid
p206
I0
sVwb
p207
I0
sVbbmw
p208
I0
sV6s
p209
I0
sVbbmr
p210
I0
sVbbir
p211
I0
sVbbiw
p212
I0
sVa
V-
sVb
I0
sVe
V-
sVd
I0
sVwmaid
p213
I0
sV4w
p214
I0
sVm
I13
sV4s
p215
I0
sVr
I0
sVw
I0
sVsr
p216
V-
sVov
p217
V-
sV5w
p218
I0
ssg46
(dp219
Va
V22.33
p220
sVb
I53
sVinns
p221
I7
sVno
p222
I4
sVsr
p223
V126.41
p224
sVm
I13
sV4s
p225
I9
sV6s
p226
I1
sVhs
p227
V22
p228
sVr
V67
p229
sV100s
p230
I0
sV50s
p231
I0
ssg60
I2010
stp232
a(Vipl2009
(dp233
g24
(dp234
Vinns
p235
I2
sVc
I2
sVro
p236
I0
sVm
I8
sVs
I0
ssg28
(dp237
Vinns
p238
I0
sV10w
p239
I0
sVnb
p240
I0
sVmaid
p241
I0
sVwb
p242
I0
sVbbmw
p243
I0
sV6s
p244
I0
sVbbmr
p245
I0
sVbbir
p246
I0
sVbbiw
p247
I0
sVa
V-
sVb
I0
sVe
V-
sVd
I0
sVwmaid
p248
I0
sV4w
p249
I0
sVm
I8
sV4s
p250
I0
sVr
I0
sVw
I0
sVsr
p251
V-
sVov
p252
V-
sV5w
p253
I0
ssg46
(dp254
Va
V24.00
p255
sVb
I41
sVinns
p256
I7
sVno
p257
I4
sVsr
p258
V175.60
p259
sVm
I8
sV4s
p260
I3
sV6s
p261
I4
sVhs
p262
V25*
p263
sVr
V72
p264
sV100s
p265
I0
sV50s
p266
I0
ssg60
I2009
stp267
a(Vipl2008
(dp268
g24
(dp269
Vinns
p270
I8
sVc
I8
sVro
p271
I1
sVm
I12
sVs
I2
ssg28
(dp272
Vinns
p273
I0
sV10w
p274
I0
sVnb
p275
I0
sVmaid
p276
I0
sVwb
p277
I0
sVbbmw
p278
I0
sV6s
p279
I0
sVbbmr
p280
I0
sVbbir
p281
I0
sVbbiw
p282
I0
sVa
V-
sVb
I0
sVe
V-
sVd
I0
sVwmaid
p283
I0
sV4w
p284
I0
sVm
I12
sV4s
p285
I0
sVr
I0
sVw
I0
sVsr
p286
V-
sVov
p287
V-
sV5w
p288
I0
ssg46
(dp289
Va
V31.80
p290
sVb
I119
sVinns
p291
I10
sVno
p292
I5
sVsr
p293
V133.61
p294
sVm
I12
sV4s
p295
I12
sV6s
p296
I7
sVhs
p297
V59*
p298
sVr
V159
p299
sV100s
p300
I0
sV50s
p301
I1
ssg60
I2008
stp302
asb.