(iplayer
Player
p1
(dp2
S'is_batsman'
p3
I00
sS'name'
p4
S'James Faulkner'
p5
sS'dob'
p6
S'1990/04/29'
p7
sS'price'
p8
S'950000'
p9
sS'is_allrounder'
p10
I01
sS'is_overseas'
p11
I01
sS'team'
p12
S'RR'
p13
sS'nationality'
p14
S'Australian'
p15
sS'is_bowler'
p16
I01
sS'is_keeper'
p17
I00
sS'id'
p18
S'193'
p19
sS'is_uncapped'
p20
I00
sS'tournamentStats'
p21
(lp22
(Vaus-wi-t20-2013
(dp23
S'fieldingStats'
p24
(dp25
Vinns
p26
I0
sVc
I0
sVro
p27
I0
sVm
I1
sVs
I0
ssS'bowlingStats'
p28
(dp29
Vinns
p30
I1
sV10w
p31
I0
sVnb
p32
I0
sVmaid
p33
I0
sVwb
p34
I1
sVbbmw
p35
I3
sV6s
p36
I2
sVbbmr
p37
I28
sVbbir
p38
I28
sVbbiw
p39
I3
sVa
V9.33
p40
sVb
I24
sVe
V7.00
p41
sVd
I12
sVwmaid
p42
I0
sV4w
p43
I0
sVm
I1
sV4s
p44
I1
sVr
I28
sVw
I3
sVsr
p45
V8.00
p46
sVov
p47
V4.00
p48
sV5w
p49
I0
ssS'battingStats'
p50
(dp51
Va
V7.00
p52
sVb
I6
sVinns
p53
I1
sVno
p54
I0
sVsr
p55
V116.66
p56
sVm
I1
sV4s
p57
I0
sV6s
p58
I0
sVhs
p59
V7
sVr
V7
sV100s
p60
I0
sV50s
p61
I0
ssS'year'
p62
I2013
stp63
a(Veng-aus-2013
(dp64
g24
(dp65
Vinns
p66
I1
sVc
I1
sVro
p67
I0
sVm
I7
sVs
I0
ssg28
(dp68
Vinns
p69
I8
sV10w
p70
I0
sVnb
p71
I0
sVmaid
p72
I6
sVwb
p73
I1
sVbbmw
p74
I6
sV6s
p75
I4
sVbbmr
p76
I98
sVbbir
p77
I51
sVbbiw
p78
I4
sVa
V21.21
p79
sVb
I382
sVe
V4.66
p80
sVd
I221
sVwmaid
p81
I2
sV4w
p82
I1
sVm
I7
sV4s
p83
I29
sVr
I297
sVw
I14
sVsr
p84
V27.28
p85
sVov
p86
V63.66
p87
sV5w
p88
I0
ssg50
(dp89
Va
V14.00
p90
sVb
I84
sVinns
p91
I7
sVno
p92
I1
sVsr
p93
V100.00
p94
sVm
I7
sV4s
p95
I7
sV6s
p96
I2
sVhs
p97
V23
p98
sVr
V84
p99
sV100s
p100
I0
sV50s
p101
I0
ssg62
I2013
stp102
a(Vind-aus-2-2013
(dp103
g24
(dp104
Vinns
p105
I2
sVc
I2
sVro
p106
I0
sVm
I7
sVs
I0
ssg28
(dp107
Vinns
p108
I6
sV10w
p109
I0
sVnb
p110
I0
sVmaid
p111
I0
sVwb
p112
I4
sVbbmw
p113
I3
sV6s
p114
I10
sVbbmr
p115
I47
sVbbir
p116
I47
sVbbiw
p117
I3
sVa
V50.85
p118
sVb
I291
sVe
V7.34
p119
sVd
I113
sVwmaid
p120
I0
sV4w
p121
I0
sVm
I7
sV4s
p122
I37
sVr
I356
sVw
I7
sVsr
p123
V41.57
p124
sVov
p125
V48.50
p126
sV5w
p127
I0
ssg50
(dp128
Va
V120.00
p129
sVb
I158
sVinns
p130
I5
sVno
p131
I3
sVsr
p132
V151.89
p133
sVm
I7
sV4s
p134
I14
sV6s
p135
I15
sVhs
p136
V116
p137
sVr
V240
p138
sV100s
p139
I1
sV50s
p140
I1
ssg62
I2013
stp141
a(Vclt20-2013
(dp142
g24
(dp143
Vinns
p144
I2
sVc
I2
sVro
p145
I0
sVm
I6
sVs
I0
ssg28
(dp146
Vinns
p147
I6
sV10w
p148
I0
sVnb
p149
I2
sVmaid
p150
I0
sVwb
p151
I4
sVbbmw
p152
I2
sV6s
p153
I6
sVbbmr
p154
I16
sVbbir
p155
I16
sVbbiw
p156
I2
sVa
V29.83
p157
sVb
I143
sVe
V7.51
p158
sVd
I62
sVwmaid
p159
I0
sV4w
p160
I0
sVm
I6
sV4s
p161
I17
sVr
I179
sVw
I6
sVsr
p162
V23.83
p163
sVov
p164
V23.83
p165
sV5w
p166
I0
ssg50
(dp167
Va
V2.50
p168
sVb
I9
sVinns
p169
I3
sVno
p170
I1
sVsr
p171
V55.55
p172
sVm
I6
sV4s
p173
I0
sV6s
p174
I0
sVhs
p175
V2
sVr
V5
sV100s
p176
I0
sV50s
p177
I0
ssg62
I2013
stp178
a(Vaus-eng-2013
(dp179
g24
(dp180
Vinns
p181
I1
sVc
I1
sVro
p182
I0
sVm
I5
sVs
I0
ssg28
(dp183
Vinns
p184
I5
sV10w
p185
I0
sVnb
p186
I0
sVmaid
p187
I0
sVwb
p188
I4
sVbbmw
p189
I4
sV6s
p190
I7
sVbbmr
p191
I67
sVbbir
p192
I67
sVbbiw
p193
I4
sVa
V25.45
p194
sVb
I276
sVe
V6.08
p195
sVd
I126
sVwmaid
p196
I0
sV4w
p197
I1
sVm
I5
sV4s
p198
I23
sVr
I280
sVw
I11
sVsr
p199
V25.09
p200
sVov
p201
V46.00
p202
sV5w
p203
I0
ssg50
(dp204
Va
V49.00
p205
sVb
I85
sVinns
p206
I3
sVno
p207
I1
sVsr
p208
V115.29
p209
sVm
I5
sV4s
p210
I5
sV6s
p211
I5
sVhs
p212
V69*
p213
sVr
V98
p214
sV100s
p215
I0
sV50s
p216
I1
ssg62
I2013
stp217
a(Vchamptrophy-2013-warmups
(dp218
g24
(dp219
Vinns
p220
I1
sVc
I1
sVro
p221
I0
sVm
I2
sVs
I0
ssg28
(dp222
Vinns
p223
I2
sV10w
p224
I0
sVnb
p225
I1
sVmaid
p226
I1
sVwb
p227
I2
sVbbmw
p228
I1
sV6s
p229
I1
sVbbmr
p230
I68
sVbbir
p231
I68
sVbbiw
p232
I1
sVa
V120.00
p233
sVb
I120
sVe
V6.00
p234
sVd
I57
sVwmaid
p235
I0
sV4w
p236
I0
sVm
I2
sV4s
p237
I14
sVr
I120
sVw
I1
sVsr
p238
V120.00
p239
sVov
p240
V20.00
p241
sV5w
p242
I0
ssg50
(dp243
Va
V8.00
p244
sVb
I18
sVinns
p245
I2
sVno
p246
I1
sVsr
p247
V44.44
p248
sVm
I2
sV4s
p249
I0
sV6s
p250
I0
sVhs
p251
V7
sVr
V8
sV100s
p252
I0
sV50s
p253
I0
ssg62
I2013
stp254
a(Vchamptrophy-2013
(dp255
g24
(dp256
Vinns
p257
I0
sVc
I0
sVro
p258
I0
sVm
I3
sVs
I0
ssg28
(dp259
Vinns
p260
I3
sV10w
p261
I0
sVnb
p262
I1
sVmaid
p263
I0
sVwb
p264
I2
sVbbmw
p265
I2
sV6s
p266
I0
sVbbmr
p267
I48
sVbbir
p268
I48
sVbbiw
p269
I2
sVa
V38.33
p270
sVb
I132
sVe
V5.22
p271
sVd
I57
sVwmaid
p272
I0
sV4w
p273
I0
sVm
I3
sV4s
p274
I9
sVr
I115
sVw
I3
sVsr
p275
V44.00
p276
sVov
p277
V22.00
p278
sV5w
p279
I0
ssg50
(dp280
Va
V38.50
p281
sVb
I68
sVinns
p282
I3
sVno
p283
I1
sVsr
p284
V113.23
p285
sVm
I3
sV4s
p286
I8
sV6s
p287
I1
sVhs
p288
V54*
p289
sVr
V77
p290
sV100s
p291
I0
sV50s
p292
I1
ssg62
I2013
stp293
a(Vbigbash-2013
(dp294
g24
(dp295
Vinns
p296
I2
sVc
I2
sVro
p297
I0
sVm
I3
sVs
I0
ssg28
(dp298
Vinns
p299
I3
sV10w
p300
I0
sVnb
p301
I2
sVmaid
p302
I1
sVwb
p303
I1
sVbbmw
p304
I3
sV6s
p305
I1
sVbbmr
p306
I9
sVbbir
p307
I9
sVbbiw
p308
I3
sVa
V14.25
p309
sVb
I72
sVe
V4.75
p310
sVd
I38
sVwmaid
p311
I0
sV4w
p312
I0
sVm
I3
sV4s
p313
I1
sVr
I57
sVw
I4
sVsr
p314
V18.00
p315
sVov
p316
V12.00
p317
sV5w
p318
I0
ssg50
(dp319
Va
V-
sVb
I6
sVinns
p320
I1
sVno
p321
I1
sVsr
p322
V150.00
p323
sVm
I3
sV4s
p324
I0
sV6s
p325
I1
sVhs
p326
V9*
p327
sVr
V9
sV100s
p328
I0
sV50s
p329
I0
ssg62
I2013
stp330
a(Vaus-wi-2013
(dp331
g24
(dp332
Vinns
p333
I2
sVc
I2
sVro
p334
I0
sVm
I5
sVs
I0
ssg28
(dp335
Vinns
p336
I5
sV10w
p337
I0
sVnb
p338
I0
sVmaid
p339
I3
sVwb
p340
I8
sVbbmw
p341
I4
sV6s
p342
I3
sVbbmr
p343
I48
sVbbir
p344
I48
sVbbiw
p345
I4
sVa
V26.37
p346
sVb
I241
sVe
V5.25
p347
sVd
I128
sVwmaid
p348
I0
sV4w
p349
I1
sVm
I5
sV4s
p350
I18
sVr
I211
sVw
I8
sVsr
p351
V30.12
p352
sVov
p353
V40.16
p354
sV5w
p355
I0
ssg50
(dp356
Va
V36.00
p357
sVb
I95
sVinns
p358
I3
sVno
p359
I1
sVsr
p360
V75.78
p361
sVm
I5
sV4s
p362
I5
sV6s
p363
I0
sVhs
p364
V39
p365
sVr
V72
p366
sV100s
p367
I0
sV50s
p368
I0
ssg62
I2013
stp369
a(Vipl2013
p370
(dp371
g24
(dp372
Vinns
p373
I4
sVc
I3
sVro
p374
I3
sVm
I16
sVs
I0
ssg28
(dp375
Vinns
p376
I16
sV10w
p377
I0
sVnb
p378
I0
sVmaid
p379
I2
sVwb
p380
I16
sVbbmw
p381
I5
sV6s
p382
I9
sVbbmr
p383
I16
sVbbir
p384
I16
sVbbiw
p385
I5
sVa
V15.25
p386
sVb
I379
sVe
V6.75
p387
sVd
I161
sVwmaid
p388
I2
sV4w
p389
I0
sVm
I16
sV4s
p390
I41
sVr
I427
sVw
I28
sVsr
p391
V13.53
p392
sVov
p393
V63.16
p394
sV5w
p395
I2
ssg50
(dp396
Va
V11.40
p397
sVb
I57
sVinns
p398
I9
sVno
p399
I4
sVsr
p400
V100.00
p401
sVm
I16
sV4s
p402
I5
sV6s
p403
I2
sVhs
p404
V19*
p405
sVr
V57
p406
sV100s
p407
I0
sV50s
p408
I0
ssg62
I2013
stp409
a(Vipl2012
(dp410
g24
(dp411
Vinns
p412
I1
sVc
I1
sVro
p413
I0
sVm
I2
sVs
I0
ssg28
(dp414
Vinns
p415
I2
sV10w
p416
I0
sVnb
p417
I0
sVmaid
p418
I0
sVwb
p419
I1
sVbbmw
p420
I2
sV6s
p421
I3
sVbbmr
p422
I41
sVbbir
p423
I41
sVbbiw
p424
I2
sVa
V24.00
p425
sVb
I48
sVe
V9.00
p426
sVd
I14
sVwmaid
p427
I0
sV4w
p428
I0
sVm
I2
sV4s
p429
I7
sVr
I72
sVw
I3
sVsr
p430
V16.00
p431
sVov
p432
V8.00
p433
sV5w
p434
I0
ssg50
(dp435
Va
V14.00
p436
sVb
I13
sVinns
p437
I2
sVno
p438
I1
sVsr
p439
V107.69
p440
sVm
I2
sV4s
p441
I0
sV6s
p442
I0
sVhs
p443
V11*
p444
sVr
V14
p445
sV100s
p446
I0
sV50s
p447
I0
ssg62
I2012
stp448
a(Vbigbash-2012
(dp449
g24
(dp450
Vinns
p451
I3
sVc
I4
sVro
p452
I0
sVm
I9
sVs
I0
ssg28
(dp453
Vinns
p454
I9
sV10w
p455
I0
sVnb
p456
I2
sVmaid
p457
I1
sVwb
p458
I8
sVbbmw
p459
I3
sV6s
p460
I3
sVbbmr
p461
I24
sVbbir
p462
I24
sVbbiw
p463
I3
sVa
V21.27
p464
sVb
I192
sVe
V7.31
p465
sVd
I92
sVwmaid
p466
I0
sV4w
p467
I0
sVm
I9
sV4s
p468
I27
sVr
I234
sVw
I11
sVsr
p469
V17.45
p470
sVov
p471
V32.00
p472
sV5w
p473
I0
ssg50
(dp474
Va
V23.66
p475
sVb
I59
sVinns
p476
I7
sVno
p477
I4
sVsr
p478
V120.33
p479
sVm
I9
sV4s
p480
I2
sV6s
p481
I3
sVhs
p482
V23
p483
sVr
V71
p484
sV100s
p485
I0
sV50s
p486
I0
ssg62
I2012
stp487
a(Vaus-sl-2012
(dp488
g24
(dp489
Vinns
p490
I1
sVc
I1
sVro
p491
I0
sVm
I1
sVs
I0
ssg28
(dp492
Vinns
p493
I1
sV10w
p494
I0
sVnb
p495
I0
sVmaid
p496
I0
sVwb
p497
I0
sVbbmw
p498
I1
sV6s
p499
I1
sVbbmr
p500
I24
sVbbir
p501
I24
sVbbiw
p502
I1
sVa
V24.00
p503
sVb
I24
sVe
V6.00
p504
sVd
I9
sVwmaid
p505
I0
sV4w
p506
I0
sVm
I1
sV4s
p507
I1
sVr
I24
sVw
I1
sVsr
p508
V24.00
p509
sVov
p510
V4.00
p511
sV5w
p512
I0
ssg50
(dp513
Va
V-
sVinns
p514
I0
sVno
p515
I0
sVsr
p516
V-
sVm
I1
sV4s
p517
I0
sV6s
p518
I0
sVhs
p519
V0*
p520
sVr
V0
sV100s
p521
I0
sV50s
p522
I0
ssg62
I2012
stp523
a(Vipl2011
(dp524
g24
(dp525
Vinns
p526
I0
sVc
I0
sVro
p527
I0
sVm
I1
sVs
I0
ssg28
(dp528
Vinns
p529
I1
sV10w
p530
I0
sVnb
p531
I0
sVmaid
p532
I1
sVwb
p533
I0
sVbbmw
p534
I1
sV6s
p535
I1
sVbbmr
p536
I9
sVbbir
p537
I9
sVbbiw
p538
I1
sVa
V9.00
p539
sVb
I12
sVe
V4.50
p540
sVd
I7
sVwmaid
p541
I0
sV4w
p542
I0
sVm
I1
sV4s
p543
I0
sVr
I9
sVw
I1
sVsr
p544
V12.00
p545
sVov
p546
V2.00
p547
sV5w
p548
I0
ssg50
(dp549
Va
V-
sVinns
p550
I0
sVno
p551
I0
sVsr
p552
V-
sVm
I1
sV4s
p553
I0
sV6s
p554
I0
sVhs
p555
V0*
p556
sVr
V0
sV100s
p557
I0
sV50s
p558
I0
ssg62
I2011
stp559
asb.