(iplayer
Player
p1
(dp2
S'is_batsman'
p3
I00
sS'name'
p4
S'Laxmi Ratan Shukla'
p5
sS'dob'
p6
S'1981/05/06'
p7
sS'price'
p8
S'800000'
p9
sS'is_allrounder'
p10
I01
sS'is_overseas'
p11
I00
sS'team'
p12
S'DD'
p13
sS'nationality'
p14
S'Indian'
p15
sS'is_bowler'
p16
I00
sS'is_keeper'
p17
I00
sS'id'
p18
S'88'
p19
sS'is_uncapped'
p20
I00
sS'tournamentStats'
p21
(lp22
(Vipl2013
p23
(dp24
S'fieldingStats'
p25
(dp26
Vinns
p27
I1
sVc
I2
sVro
p28
I0
sVm
I4
sVs
I0
ssS'bowlingStats'
p29
(dp30
Vinns
p31
I2
sV10w
p32
I0
sVnb
p33
I0
sVmaid
p34
I0
sVwb
p35
I0
sVbbmw
p36
I1
sV6s
p37
I0
sVbbmr
p38
I14
sVbbir
p39
I14
sVbbiw
p40
I1
sVa
V22.00
p41
sVb
I18
sVe
V7.33
p42
sVd
I7
sVwmaid
p43
I0
sV4w
p44
I0
sVm
I4
sV4s
p45
I3
sVr
I22
sVw
I1
sVsr
p46
V18.00
p47
sVov
p48
V3.00
p49
sV5w
p50
I0
ssS'battingStats'
p51
(dp52
Va
V1.50
p53
sVb
I12
sVinns
p54
I2
sVno
p55
I0
sVsr
p56
V25.00
p57
sVm
I4
sV4s
p58
I0
sV6s
p59
I0
sVhs
p60
V2
sVr
V3
sV100s
p61
I0
sV50s
p62
I0
ssS'year'
p63
I2013
stp64
a(Vipl2012
(dp65
g25
(dp66
Vinns
p67
I3
sVc
I6
sVro
p68
I1
sVm
I11
sVs
I0
ssg29
(dp69
Vinns
p70
I2
sV10w
p71
I0
sVnb
p72
I0
sVmaid
p73
I0
sVwb
p74
I0
sVbbmw
p75
I1
sV6s
p76
I0
sVbbmr
p77
I5
sVbbir
p78
I5
sVbbiw
p79
I1
sVa
V12.00
p80
sVb
I12
sVe
V6.00
p81
sVd
I5
sVwmaid
p82
I0
sV4w
p83
I0
sVm
I11
sV4s
p84
I1
sVr
I12
sVw
I1
sVsr
p85
V12.00
p86
sVov
p87
V2.00
p88
sV5w
p89
I0
ssg51
(dp90
Va
V12.50
p91
sVb
I57
sVinns
p92
I8
sVno
p93
I2
sVsr
p94
V131.57
p95
sVm
I11
sV4s
p96
I4
sV6s
p97
I5
sVhs
p98
V26
p99
sVr
V75
p100
sV100s
p101
I0
sV50s
p102
I0
ssg63
I2012
stp103
a(Vipl2011
(dp104
g25
(dp105
Vinns
p106
I0
sVc
I0
sVro
p107
I0
sVm
I1
sVs
I0
ssg29
(dp108
Vinns
p109
I0
sV10w
p110
I0
sVnb
p111
I0
sVmaid
p112
I0
sVwb
p113
I0
sVbbmw
p114
I0
sV6s
p115
I0
sVbbmr
p116
I0
sVbbir
p117
I0
sVbbiw
p118
I0
sVa
V-
sVb
I0
sVe
V-
sVd
I0
sVwmaid
p119
I0
sV4w
p120
I0
sVm
I1
sV4s
p121
I0
sVr
I0
sVw
I0
sVsr
p122
V-
sVov
p123
V-
sV5w
p124
I0
ssg51
(dp125
Va
V14.00
p126
sVb
I10
sVinns
p127
I1
sVno
p128
I0
sVsr
p129
V140.00
p130
sVm
I1
sV4s
p131
I2
sV6s
p132
I0
sVhs
p133
V14
p134
sVr
V14
p135
sV100s
p136
I0
sV50s
p137
I0
ssg63
I2011
stp138
a(Vipl2010
(dp139
g25
(dp140
Vinns
p141
I2
sVc
I2
sVro
p142
I0
sVm
I4
sVs
I0
ssg29
(dp143
Vinns
p144
I4
sV10w
p145
I0
sVnb
p146
I0
sVmaid
p147
I0
sVwb
p148
I0
sVbbmw
p149
I1
sV6s
p150
I5
sVbbmr
p151
I30
sVbbir
p152
I30
sVbbiw
p153
I1
sVa
V35.33
p154
sVb
I72
sVe
V8.83
p155
sVd
I19
sVwmaid
p156
I0
sV4w
p157
I0
sVm
I4
sV4s
p158
I7
sVr
I106
sVw
I3
sVsr
p159
V24.00
p160
sVov
p161
V12.00
p162
sV5w
p163
I0
ssg51
(dp164
Va
V18.00
p165
sVb
I26
sVinns
p166
I2
sVno
p167
I0
sVsr
p168
V138.46
p169
sVm
I4
sV4s
p170
I3
sV6s
p171
I2
sVhs
p172
V19
p173
sVr
V36
p174
sV100s
p175
I0
sV50s
p176
I0
ssg63
I2010
stp177
a(Vipl2009
(dp178
g25
(dp179
Vinns
p180
I4
sVc
I1
sVro
p181
I4
sVm
I9
sVs
I0
ssg29
(dp182
Vinns
p183
I5
sV10w
p184
I0
sVnb
p185
I0
sVmaid
p186
I0
sVwb
p187
I4
sVbbmw
p188
I3
sV6s
p189
I3
sVbbmr
p190
I25
sVbbir
p191
I25
sVbbiw
p192
I3
sVa
V33.33
p193
sVb
I84
sVe
V7.14
p194
sVd
I38
sVwmaid
p195
I0
sV4w
p196
I0
sVm
I9
sV4s
p197
I10
sVr
I100
sVw
I3
sVsr
p198
V28.00
p199
sVov
p200
V14.00
p201
sV5w
p202
I0
ssg51
(dp203
Va
V16.60
p204
sVb
I85
sVinns
p205
I6
sVno
p206
I1
sVsr
p207
V97.64
p208
sVm
I9
sV4s
p209
I5
sV6s
p210
I3
sVhs
p211
V48*
p212
sVr
V83
p213
sV100s
p214
I0
sV50s
p215
I0
ssg63
I2009
stp216
a(Vipl2008
(dp217
g25
(dp218
Vinns
p219
I3
sVc
I2
sVro
p220
I1
sVm
I13
sVs
I0
ssg29
(dp221
Vinns
p222
I9
sV10w
p223
I0
sVnb
p224
I2
sVmaid
p225
I0
sVwb
p226
I4
sVbbmw
p227
I3
sV6s
p228
I4
sVbbmr
p229
I6
sVbbir
p230
I6
sVbbiw
p231
I3
sVa
V20.66
p232
sVb
I72
sVe
V10.33
p233
sVd
I18
sVwmaid
p234
I0
sV4w
p235
I0
sVm
I13
sV4s
p236
I11
sVr
I124
sVw
I6
sVsr
p237
V12.00
p238
sVov
p239
V12.00
p240
sV5w
p241
I0
ssg51
(dp242
Va
V20.37
p243
sVb
I122
sVinns
p244
I12
sVno
p245
I4
sVsr
p246
V133.60
p247
sVm
I13
sV4s
p248
I17
sV6s
p249
I5
sVhs
p250
V42
p251
sVr
V163
p252
sV100s
p253
I0
sV50s
p254
I0
ssg63
I2008
stp255
asb.