(iplayer
Player
p1
(dp2
S'is_batsman'
p3
I00
sS'name'
p4
S'Umesh Yadav'
p5
sS'dob'
p6
S'1987/10/25'
p7
sS'price'
p8
S'850000'
p9
sS'is_allrounder'
p10
I00
sS'is_overseas'
p11
I00
sS'team'
p12
S'KKR'
p13
sS'nationality'
p14
S'Indian'
p15
sS'is_bowler'
p16
I01
sS'is_keeper'
p17
I00
sS'id'
p18
S'59'
p19
sS'is_uncapped'
p20
I00
sS'tournamentStats'
p21
(lp22
(Vsa-ind-2013
(dp23
S'fieldingStats'
p24
(dp25
Vinns
p26
I2
sVc
I1
sVro
p27
I1
sVm
I2
sVs
I0
ssS'bowlingStats'
p28
(dp29
Vinns
p30
I2
sV10w
p31
I0
sVnb
p32
I0
sVmaid
p33
I0
sVwb
p34
I0
sVbbmw
p35
I1
sV6s
p36
I2
sVbbmr
p37
I57
sVbbir
p38
I57
sVbbiw
p39
I1
sVa
V102.00
p40
sVb
I90
sVe
V6.80
p41
sVd
I41
sVwmaid
p42
I0
sV4w
p43
I0
sVm
I2
sV4s
p44
I13
sVr
I102
sVw
I1
sVsr
p45
V90.00
p46
sVov
p47
V15.00
p48
sV5w
p49
I0
ssS'battingStats'
p50
(dp51
Va
V1.00
p52
sVb
I5
sVinns
p53
I1
sVno
p54
I0
sVsr
p55
V20.00
p56
sVm
I2
sV4s
p57
I0
sV6s
p58
I0
sVhs
p59
V1
sVr
V1
sV100s
p60
I0
sV50s
p61
I0
ssS'year'
p62
I2013
stp63
a(Vtriseries-wi-2013
(dp64
g24
(dp65
Vinns
p66
I1
sVc
I1
sVro
p67
I0
sVm
I4
sVs
I0
ssg28
(dp68
Vinns
p69
I4
sV10w
p70
I0
sVnb
p71
I0
sVmaid
p72
I3
sVwb
p73
I12
sVbbmw
p74
I3
sV6s
p75
I3
sVbbmr
p76
I32
sVbbir
p77
I32
sVbbiw
p78
I3
sVa
V23.85
p79
sVb
I183
sVe
V5.47
p80
sVd
I114
sVwmaid
p81
I1
sV4w
p82
I0
sVm
I4
sV4s
p83
I23
sVr
I167
sVw
I7
sVsr
p84
V26.14
p85
sVov
p86
V30.50
p87
sV5w
p88
I0
ssg50
(dp89
Va
V0.00
p90
sVb
I6
sVinns
p91
I1
sVno
p92
I0
sVsr
p93
V0.00
p94
sVm
I4
sV4s
p95
I0
sV6s
p96
I0
sVhs
p97
V0*
p98
sVr
V0
sV100s
p99
I0
sV50s
p100
I0
ssg62
I2013
stp101
a(Vchamptrophy-2013-warmups
(dp102
g24
(dp103
Vinns
p104
I0
sVc
I0
sVro
p105
I0
sVm
I2
sVs
I0
ssg28
(dp106
Vinns
p107
I1
sV10w
p108
I0
sVnb
p109
I0
sVmaid
p110
I0
sVwb
p111
I1
sVbbmw
p112
I5
sV6s
p113
I0
sVbbmr
p114
I18
sVbbir
p115
I18
sVbbiw
p116
I5
sVa
V3.60
p117
sVb
I30
sVe
V3.60
p118
sVd
I22
sVwmaid
p119
I0
sV4w
p120
I0
sVm
I2
sV4s
p121
I3
sVr
I18
sVw
I5
sVsr
p122
V6.00
p123
sVov
p124
V5.00
p125
sV5w
p126
I1
ssg50
(dp127
Va
V-
sVinns
p128
I0
sVno
p129
I0
sVsr
p130
V-
sVm
I2
sV4s
p131
I0
sV6s
p132
I0
sVhs
p133
V0*
p134
sVr
V0
sV100s
p135
I0
sV50s
p136
I0
ssg62
I2013
stp137
a(Vchamptrophy-2013
(dp138
g24
(dp139
Vinns
p140
I1
sVc
I0
sVro
p141
I1
sVm
I5
sVs
I0
ssg28
(dp142
Vinns
p143
I5
sV10w
p144
I0
sVnb
p145
I0
sVmaid
p146
I2
sVwb
p147
I3
sVbbmw
p148
I2
sV6s
p149
I1
sVbbmr
p150
I75
sVbbir
p151
I75
sVbbiw
p152
I2
sVa
V49.50
p153
sVb
I214
sVe
V5.55
p154
sVd
I120
sVwmaid
p155
I0
sV4w
p156
I0
sVm
I5
sV4s
p157
I26
sVr
I198
sVw
I4
sVsr
p158
V53.50
p159
sVov
p160
V35.66
p161
sV5w
p162
I0
ssg50
(dp163
Va
V-
sVinns
p164
I0
sVno
p165
I0
sVsr
p166
V-
sVm
I5
sV4s
p167
I0
sV6s
p168
I0
sVhs
p169
V0*
p170
sVr
V0
sV100s
p171
I0
sV50s
p172
I0
ssg62
I2013
stp173
a(Vipl2013
p174
(dp175
g24
(dp176
Vinns
p177
I5
sVc
I5
sVro
p178
I1
sVm
I16
sVs
I0
ssg28
(dp179
Vinns
p180
I16
sV10w
p181
I0
sVnb
p182
I1
sVmaid
p183
I0
sVwb
p184
I15
sVbbmw
p185
I4
sV6s
p186
I13
sVbbmr
p187
I24
sVbbir
p188
I24
sVbbiw
p189
I4
sVa
V31.75
p190
sVb
I347
sVe
V8.78
p191
sVd
I126
sVwmaid
p192
I0
sV4w
p193
I1
sVm
I16
sV4s
p194
I59
sVr
I508
sVw
I16
sVsr
p195
V21.68
p196
sVov
p197
V57.83
p198
sV5w
p199
I0
ssg50
(dp200
Va
V38.00
p201
sVb
I38
sVinns
p202
I8
sVno
p203
I7
sVsr
p204
V100.00
p205
sVm
I16
sV4s
p206
I3
sV6s
p207
I1
sVhs
p208
V12*
p209
sVr
V38
p210
sV100s
p211
I0
sV50s
p212
I0
ssg62
I2013
stp213
a(Vipl2012
(dp214
g24
(dp215
Vinns
p216
I4
sVc
I3
sVro
p217
I1
sVm
I17
sVs
I0
ssg28
(dp218
Vinns
p219
I17
sV10w
p220
I0
sVnb
p221
I3
sVmaid
p222
I2
sVwb
p223
I14
sVbbmw
p224
I3
sV6s
p225
I12
sVbbmr
p226
I19
sVbbir
p227
I19
sVbbiw
p228
I3
sVa
V23.84
p229
sVb
I366
sVe
V7.42
p230
sVd
I145
sVwmaid
p231
I1
sV4w
p232
I0
sVm
I17
sV4s
p233
I45
sVr
I453
sVw
I19
sVsr
p234
V19.26
p235
sVov
p236
V61.00
p237
sV5w
p238
I0
ssg50
(dp239
Va
V1.00
p240
sVb
I7
sVinns
p241
I3
sVno
p242
I1
sVsr
p243
V28.57
p244
sVm
I17
sV4s
p245
I0
sV6s
p246
I0
sVhs
p247
V1*
p248
sVr
V2
sV100s
p249
I0
sV50s
p250
I0
ssg62
I2012
stp251
a(Vclt20-2012
(dp252
g24
(dp253
Vinns
p254
I0
sVc
I0
sVro
p255
I0
sVm
I4
sVs
I0
ssg28
(dp256
Vinns
p257
I3
sV10w
p258
I0
sVnb
p259
I0
sVmaid
p260
I1
sVwb
p261
I3
sVbbmw
p262
I2
sV6s
p263
I0
sVbbmr
p264
I13
sVbbir
p265
I13
sVbbiw
p266
I2
sVa
V14.25
p267
sVb
I72
sVe
V4.75
p268
sVd
I34
sVwmaid
p269
I1
sV4w
p270
I0
sVm
I4
sV4s
p271
I4
sVr
I57
sVw
I4
sVsr
p272
V18.00
p273
sVov
p274
V12.00
p275
sV5w
p276
I0
ssg50
(dp277
Va
V-
sVb
I2
sVinns
p278
I1
sVno
p279
I1
sVsr
p280
V50.00
p281
sVm
I4
sV4s
p282
I0
sV6s
p283
I0
sVhs
p284
V1*
p285
sVr
V1
sV100s
p286
I0
sV50s
p287
I0
ssg62
I2012
stp288
a(Vind-eng-2012-13
(dp289
g24
(dp290
Vinns
p291
I1
sVc
I1
sVro
p292
I0
sVm
I1
sVs
I0
ssg28
(dp293
Vinns
p294
I2
sV10w
p295
I0
sVnb
p296
I0
sVmaid
p297
I4
sVwb
p298
I1
sVbbmw
p299
I4
sV6s
p300
I0
sVbbmr
p301
I84
sVbbir
p302
I70
sVbbiw
p303
I3
sVa
V21.00
p304
sVb
I180
sVe
V2.80
p305
sVd
I134
sVwmaid
p306
I0
sV4w
p307
I0
sVm
I1
sV4s
p308
I11
sVr
I84
sVw
I4
sVsr
p309
V45.00
p310
sVov
p311
V30.00
p312
sV5w
p313
I0
ssg50
(dp314
Va
V-
sVinns
p315
I0
sVno
p316
I0
sVsr
p317
V-
sVm
I1
sV4s
p318
I0
sV6s
p319
I0
sVhs
p320
V0*
p321
sVr
V0
sV100s
p322
I0
sV50s
p323
I0
ssg62
I2012
stp324
a(Vipl2011
(dp325
g24
(dp326
Vinns
p327
I3
sVc
I3
sVro
p328
I0
sVm
I7
sVs
I0
ssg28
(dp329
Vinns
p330
I6
sV10w
p331
I0
sVnb
p332
I2
sVmaid
p333
I0
sVwb
p334
I3
sVbbmw
p335
I2
sV6s
p336
I5
sVbbmr
p337
I29
sVbbir
p338
I29
sVbbiw
p339
I2
sVa
V84.50
p340
sVb
I108
sVe
V9.38
p341
sVd
I36
sVwmaid
p342
I0
sV4w
p343
I0
sVm
I7
sV4s
p344
I20
sVr
I169
sVw
I2
sVsr
p345
V54.00
p346
sVov
p347
V18.00
p348
sV5w
p349
I0
ssg50
(dp350
Va
V1.00
p351
sVb
I5
sVinns
p352
I2
sVno
p353
I1
sVsr
p354
V20.00
p355
sVm
I7
sV4s
p356
I0
sV6s
p357
I0
sVhs
p358
V1*
p359
sVr
V1
sV100s
p360
I0
sV50s
p361
I0
ssg62
I2011
stp362
a(Vipl2010
(dp363
g24
(dp364
Vinns
p365
I2
sVc
I1
sVro
p366
I1
sVm
I7
sVs
I0
ssg28
(dp367
Vinns
p368
I7
sV10w
p369
I0
sVnb
p370
I2
sVmaid
p371
I0
sVwb
p372
I6
sVbbmw
p373
I2
sV6s
p374
I2
sVbbmr
p375
I24
sVbbir
p376
I24
sVbbiw
p377
I2
sVa
V30.66
p378
sVb
I144
sVe
V7.66
p379
sVd
I55
sVwmaid
p380
I0
sV4w
p381
I0
sVm
I7
sV4s
p382
I25
sVr
I184
sVw
I6
sVsr
p383
V24.00
p384
sVov
p385
V24.00
p386
sV5w
p387
I0
ssg50
(dp388
Va
V-
sVb
I4
sVinns
p389
I1
sVno
p390
I1
sVsr
p391
V75.00
p392
sVm
I7
sV4s
p393
I0
sV6s
p394
I0
sVhs
p395
V3*
p396
sVr
V3
sV100s
p397
I0
sV50s
p398
I0
ssg62
I2010
stp399
asb.