(iplayer
Player
p1
(dp2
S'is_batsman'
p3
I00
sS'name'
p4
S'Samuel Badree'
p5
sS'dob'
p6
S'1981/03/09'
p7
sS'price'
p8
S'900000'
p9
sS'is_allrounder'
p10
I00
sS'is_overseas'
p11
I01
sS'team'
p12
S'CSK'
p13
sS'nationality'
p14
S'West Indian'
p15
sS'is_bowler'
p16
I01
sS'is_keeper'
p17
I00
sS'id'
p18
S'590'
p19
sS'is_uncapped'
p20
I00
sS'tournamentStats'
p21
(lp22
(Vwi-eng-2014
(dp23
S'fieldingStats'
p24
(dp25
Vinns
p26
I0
sVc
I0
sVro
p27
I0
sVm
I2
sVs
I0
ssS'bowlingStats'
p28
(dp29
Vinns
p30
I2
sV10w
p31
I0
sVnb
p32
I0
sVmaid
p33
I0
sVwb
p34
I0
sVbbmw
p35
I3
sV6s
p36
I0
sVbbmr
p37
I17
sVbbir
p38
I17
sVbbiw
p39
I3
sVa
V8.25
p40
sVb
I48
sVe
V4.12
p41
sVd
I25
sVwmaid
p42
I0
sV4w
p43
I0
sVm
I2
sV4s
p44
I4
sVr
I33
sVw
I4
sVsr
p45
V12.00
p46
sVov
p47
V8.00
p48
sV5w
p49
I0
ssS'battingStats'
p50
(dp51
Va
V-
sVinns
p52
I0
sVno
p53
I0
sVsr
p54
V-
sVm
I2
sV4s
p55
I0
sV6s
p56
I0
sVhs
p57
V0*
p58
sVr
V0
sV100s
p59
I0
sV50s
p60
I0
ssS'year'
p61
I2014
stp62
a(Vworldt20-2014
(dp63
g24
(dp64
Vinns
p65
I0
sVc
I0
sVro
p66
I0
sVm
I2
sVs
I0
ssg28
(dp67
Vinns
p68
I2
sV10w
p69
I0
sVnb
p70
I0
sVmaid
p71
I0
sVwb
p72
I0
sVbbmw
p73
I4
sV6s
p74
I1
sVbbmr
p75
I15
sVbbir
p76
I15
sVbbiw
p77
I4
sVa
V8.60
p78
sVb
I48
sVe
V5.37
p79
sVd
I25
sVwmaid
p80
I0
sV4w
p81
I1
sVm
I2
sV4s
p82
I5
sVr
I43
sVw
I5
sVsr
p83
V9.60
p84
sVov
p85
V8.00
p86
sV5w
p87
I0
ssg50
(dp88
Va
V-
sVinns
p89
I0
sVno
p90
I0
sVsr
p91
V-
sVm
I2
sV4s
p92
I0
sV6s
p93
I0
sVhs
p94
V0*
p95
sVr
V0
sV100s
p96
I0
sV50s
p97
I0
ssg61
I2014
stp98
a(Vwi-pak-2013
(dp99
g24
(dp100
Vinns
p101
I1
sVc
I1
sVro
p102
I0
sVm
I2
sVs
I0
ssg28
(dp103
Vinns
p104
I2
sV10w
p105
I0
sVnb
p106
I0
sVmaid
p107
I0
sVwb
p108
I0
sVbbmw
p109
I2
sV6s
p110
I0
sVbbmr
p111
I16
sVbbir
p112
I16
sVbbiw
p113
I2
sVa
V14.33
p114
sVb
I42
sVe
V6.14
p115
sVd
I22
sVwmaid
p116
I0
sV4w
p117
I0
sVm
I2
sV4s
p118
I7
sVr
I43
sVw
I3
sVsr
p119
V14.00
p120
sVov
p121
V7.00
p122
sV5w
p123
I0
ssg50
(dp124
Va
V-
sVb
I1
sVinns
p125
I1
sVno
p126
I1
sVsr
p127
V100.00
p128
sVm
I2
sV4s
p129
I0
sV6s
p130
I0
sVhs
p131
V1*
p132
sVr
V1
sV100s
p133
I0
sV50s
p134
I0
ssg61
I2013
stp135
a(Vwi-zim-2013
(dp136
g24
(dp137
Vinns
p138
I0
sVc
I0
sVro
p139
I0
sVm
I2
sVs
I0
ssg28
(dp140
Vinns
p141
I2
sV10w
p142
I0
sVnb
p143
I0
sVmaid
p144
I0
sVwb
p145
I1
sVbbmw
p146
I3
sV6s
p147
I0
sVbbmr
p148
I17
sVbbir
p149
I17
sVbbiw
p150
I3
sVa
V11.00
p151
sVb
I48
sVe
V5.50
p152
sVd
I23
sVwmaid
p153
I0
sV4w
p154
I0
sVm
I2
sV4s
p155
I6
sVr
I44
sVw
I4
sVsr
p156
V12.00
p157
sVov
p158
V8.00
p159
sV5w
p160
I0
ssg50
(dp161
Va
V-
sVinns
p162
I0
sVno
p163
I0
sVsr
p164
V-
sVm
I2
sV4s
p165
I0
sV6s
p166
I0
sVhs
p167
V0*
p168
sVr
V0
sV100s
p169
I0
sV50s
p170
I0
ssg61
I2013
stp171
a(Vclt20-2013
(dp172
g24
(dp173
Vinns
p174
I2
sVc
I2
sVro
p175
I0
sVm
I5
sVs
I0
ssg28
(dp176
Vinns
p177
I5
sV10w
p178
I0
sVnb
p179
I0
sVmaid
p180
I0
sVwb
p181
I1
sVbbmw
p182
I1
sV6s
p183
I2
sVbbmr
p184
I16
sVbbir
p185
I16
sVbbiw
p186
I1
sVa
V61.50
p187
sVb
I114
sVe
V6.47
p188
sVd
I46
sVwmaid
p189
I0
sV4w
p190
I0
sVm
I5
sV4s
p191
I13
sVr
I123
sVw
I2
sVsr
p192
V57.00
p193
sVov
p194
V19.00
p195
sV5w
p196
I0
ssg50
(dp197
Va
V-
sVb
I8
sVinns
p198
I2
sVno
p199
I2
sVsr
p200
V200.00
p201
sVm
I5
sV4s
p202
I0
sV6s
p203
I2
sVhs
p204
V15*
p205
sVr
V16
p206
sV100s
p207
I0
sV50s
p208
I0
ssg61
I2013
stp209
a(Vnz-wi-2013
(dp210
g24
(dp211
Vinns
p212
I0
sVc
I0
sVro
p213
I0
sVm
I1
sVs
I0
ssg28
(dp214
Vinns
p215
I1
sV10w
p216
I0
sVnb
p217
I0
sVmaid
p218
I0
sVwb
p219
I1
sVbbmw
p220
I0
sV6s
p221
I0
sVbbmr
p222
I25
sVbbir
p223
I25
sVbbiw
p224
I0
sVa
V-
sVb
I24
sVe
V6.25
p225
sVd
I8
sVwmaid
p226
I0
sV4w
p227
I0
sVm
I1
sV4s
p228
I2
sVr
I25
sVw
I0
sVsr
p229
V-
sVov
p230
V4.00
p231
sV5w
p232
I0
ssg50
(dp233
Va
V-
sVb
I22
sVinns
p234
I1
sVno
p235
I1
sVsr
p236
V63.63
p237
sVm
I1
sV4s
p238
I1
sV6s
p239
I0
sVhs
p240
V14*
p241
sVr
V14
p242
sV100s
p243
I0
sV50s
p244
I0
ssg61
I2013
stp245
a(Vipl2013
(dp246
g24
(dp247
Vinns
p248
I0
sVc
I0
sVro
p249
I0
sVm
I1
sVs
I0
ssg28
(dp250
Vinns
p251
I1
sV10w
p252
I0
sVnb
p253
I0
sVmaid
p254
I0
sVwb
p255
I1
sVbbmw
p256
I0
sV6s
p257
I1
sVbbmr
p258
I34
sVbbir
p259
I34
sVbbiw
p260
I0
sVa
V-
sVb
I24
sVe
V8.50
p261
sVd
I7
sVwmaid
p262
I0
sV4w
p263
I0
sVm
I1
sV4s
p264
I3
sVr
I34
sVw
I0
sVsr
p265
V-
sVov
p266
V4.00
p267
sV5w
p268
I0
ssg50
(dp269
Va
V-
sVinns
p270
I0
sVno
p271
I0
sVsr
p272
V-
sVm
I1
sV4s
p273
I0
sV6s
p274
I0
sVhs
p275
V0*
p276
sVr
V0
sV100s
p277
I0
sV50s
p278
I0
ssg61
I2013
stp279
a(Vclt20-2012
(dp280
g24
(dp281
Vinns
p282
I0
sVc
I0
sVro
p283
I0
sVm
I1
sVs
I0
ssg28
(dp284
Vinns
p285
I1
sV10w
p286
I0
sVnb
p287
I0
sVmaid
p288
I0
sVwb
p289
I1
sVbbmw
p290
I1
sV6s
p291
I0
sVbbmr
p292
I22
sVbbir
p293
I22
sVbbiw
p294
I1
sVa
V22.00
p295
sVb
I24
sVe
V5.50
p296
sVd
I13
sVwmaid
p297
I0
sV4w
p298
I0
sVm
I1
sV4s
p299
I3
sVr
I22
sVw
I1
sVsr
p300
V24.00
p301
sVov
p302
V4.00
p303
sV5w
p304
I0
ssg50
(dp305
Va
V-
sVinns
p306
I0
sVno
p307
I0
sVsr
p308
V-
sVm
I1
sV4s
p309
I0
sV6s
p310
I0
sVhs
p311
V0*
p312
sVr
V0
sV100s
p313
I0
sV50s
p314
I0
ssg61
I2012
stp315
a(Vworldt20-2012
(dp316
g24
(dp317
Vinns
p318
I3
sVc
I3
sVro
p319
I0
sVm
I6
sVs
I0
ssg28
(dp320
Vinns
p321
I5
sV10w
p322
I0
sVnb
p323
I0
sVmaid
p324
I0
sVwb
p325
I0
sVbbmw
p326
I2
sV6s
p327
I1
sVbbmr
p328
I27
sVbbir
p329
I27
sVbbiw
p330
I2
sVa
V26.00
p331
sVb
I108
sVe
V5.77
p332
sVd
I48
sVwmaid
p333
I0
sV4w
p334
I0
sVm
I6
sV4s
p335
I11
sVr
I104
sVw
I4
sVsr
p336
V27.00
p337
sVov
p338
V18.00
p339
sV5w
p340
I0
ssg50
(dp341
Va
V1.00
p342
sVb
I4
sVinns
p343
I1
sVno
p344
I0
sVsr
p345
V25.00
p346
sVm
I6
sV4s
p347
I0
sV6s
p348
I0
sVhs
p349
V1
sVr
V1
sV100s
p350
I0
sV50s
p351
I0
ssg61
I2012
stp352
a(Vclt20-2011
p353
(dp354
g24
(dp355
Vinns
p356
I4
sVc
I4
sVro
p357
I0
sVm
I6
sVs
I0
ssg28
(dp358
Vinns
p359
I6
sV10w
p360
I0
sVnb
p361
I0
sVmaid
p362
I2
sVwb
p363
I1
sVbbmw
p364
I2
sV6s
p365
I0
sVbbmr
p366
I7
sVbbir
p367
I7
sVbbiw
p368
I2
sVa
V21.80
p369
sVb
I144
sVe
V4.54
p370
sVd
I80
sVwmaid
p371
I1
sV4w
p372
I0
sVm
I6
sV4s
p373
I14
sVr
I109
sVw
I5
sVsr
p374
V28.80
p375
sVov
p376
V24.00
p377
sV5w
p378
I0
ssg50
(dp379
Va
V-
sVb
I2
sVinns
p380
I1
sVno
p381
I1
sVsr
p382
V0.00
p383
sVm
I6
sV4s
p384
I0
sV6s
p385
I0
sVhs
p386
V0*
p387
sVr
V0
sV100s
p388
I0
sV50s
p389
I0
ssg61
I2011
stp390
a(Vclt20-2009
(dp391
g24
(dp392
Vinns
p393
I0
sVc
I0
sVro
p394
I0
sVm
I3
sVs
I0
ssg28
(dp395
Vinns
p396
I3
sV10w
p397
I0
sVnb
p398
I0
sVmaid
p399
I0
sVwb
p400
I2
sVbbmw
p401
I1
sV6s
p402
I4
sVbbmr
p403
I25
sVbbir
p404
I25
sVbbiw
p405
I1
sVa
V69.00
p406
sVb
I48
sVe
V8.62
p407
sVd
I17
sVwmaid
p408
I0
sV4w
p409
I0
sVm
I3
sV4s
p410
I4
sVr
I69
sVw
I1
sVsr
p411
V48.00
p412
sVov
p413
V8.00
p414
sV5w
p415
I0
ssg50
(dp416
Va
V-
sVb
I1
sVinns
p417
I1
sVno
p418
I1
sVsr
p419
V100.00
p420
sVm
I3
sV4s
p421
I0
sV6s
p422
I0
sVhs
p423
V1*
p424
sVr
V1
sV100s
p425
I0
sV50s
p426
I0
ssg61
I2009
stp427
asb.