(iplayer
Player
p1
(dp2
S'is_batsman'
p3
I01
sS'name'
p4
S'Ambati Rayudu'
p5
sS'dob'
p6
S'1985/09/23'
p7
sS'price'
p8
S'800000'
p9
sS'is_allrounder'
p10
I00
sS'is_overseas'
p11
I00
sS'team'
p12
S'MI'
p13
sS'nationality'
p14
S'Indian'
p15
sS'is_bowler'
p16
I00
sS'is_keeper'
p17
I01
sS'id'
p18
S'100'
p19
sS'is_uncapped'
p20
I00
sS'tournamentStats'
p21
(lp22
(Vasiacup-2014
(dp23
S'fieldingStats'
p24
(dp25
Vinns
p26
I0
sVc
I0
sVro
p27
I0
sVm
I4
sVs
I0
ssS'bowlingStats'
p28
(dp29
Vinns
p30
I2
sV10w
p31
I0
sVnb
p32
I0
sVmaid
p33
I0
sVwb
p34
I0
sVbbmw
p35
I0
sV6s
p36
I0
sVbbmr
p37
I0
sVbbir
p38
I0
sVbbiw
p39
I0
sVa
V-
sVb
I24
sVe
V6.50
p40
sVd
I10
sVwmaid
p41
I0
sV4w
p42
I0
sVm
I4
sV4s
p43
I4
sVr
I26
sVw
I0
sVsr
p44
V-
sVov
p45
V4.00
p46
sV5w
p47
I0
ssS'battingStats'
p48
(dp49
Va
V42.50
p50
sVb
I100
sVinns
p51
I3
sVno
p52
I1
sVsr
p53
V85.00
p54
sVm
I4
sV4s
p55
I5
sV6s
p56
I1
sVhs
p57
V58
p58
sVr
V85
p59
sV100s
p60
I0
sV50s
p61
I1
ssS'year'
p62
I2014
stp63
a(Vnz-ind-2014
(dp64
g24
(dp65
Vinns
p66
I0
sVc
I0
sVro
p67
I0
sVm
I2
sVs
I0
ssg28
(dp68
Vinns
p69
I1
sV10w
p70
I0
sVnb
p71
I0
sVmaid
p72
I0
sVwb
p73
I0
sVbbmw
p74
I0
sV6s
p75
I1
sVbbmr
p76
I0
sVbbir
p77
I0
sVbbiw
p78
I0
sVa
V-
sVb
I18
sVe
V7.66
p79
sVd
I6
sVwmaid
p80
I0
sV4w
p81
I0
sVm
I2
sV4s
p82
I2
sVr
I23
sVw
I0
sVsr
p83
V-
sVov
p84
V3.00
p85
sV5w
p86
I0
ssg48
(dp87
Va
V28.50
p88
sVb
I98
sVinns
p89
I2
sVno
p90
I0
sVsr
p91
V58.16
p92
sVm
I2
sV4s
p93
I5
sV6s
p94
I2
sVhs
p95
V37
p96
sVr
V57
p97
sV100s
p98
I0
sV50s
p99
I0
ssg62
I2014
stp100
a(Vzim-ind-2013
(dp101
g24
(dp102
Vinns
p103
I0
sVc
I0
sVro
p104
I0
sVm
I4
sVs
I0
ssg28
(dp105
Vinns
p106
I0
sV10w
p107
I0
sVnb
p108
I0
sVmaid
p109
I0
sVwb
p110
I0
sVbbmw
p111
I0
sV6s
p112
I0
sVbbmr
p113
I0
sVbbir
p114
I0
sVbbiw
p115
I0
sVa
V-
sVb
I0
sVe
V-
sVd
I0
sVwmaid
p116
I0
sV4w
p117
I0
sVm
I4
sV4s
p118
I0
sVr
I0
sVw
I0
sVsr
p119
V-
sVov
p120
V-
sV5w
p121
I0
ssg48
(dp122
Va
V50.50
p123
sVb
I163
sVinns
p124
I3
sVno
p125
I1
sVsr
p126
V61.96
p127
sVm
I4
sV4s
p128
I6
sV6s
p129
I0
sVhs
p130
V63*
p131
sVr
V101
p132
sV100s
p133
I0
sV50s
p134
I1
ssg62
I2013
stp135
a(Vclt20-2013
(dp136
g24
(dp137
Vinns
p138
I1
sVc
I1
sVro
p139
I0
sVm
I5
sVs
I0
ssg28
(dp140
Vinns
p141
I0
sV10w
p142
I0
sVnb
p143
I0
sVmaid
p144
I0
sVwb
p145
I0
sVbbmw
p146
I0
sV6s
p147
I0
sVbbmr
p148
I0
sVbbir
p149
I0
sVbbiw
p150
I0
sVa
V-
sVb
I0
sVe
V-
sVd
I0
sVwmaid
p151
I0
sV4w
p152
I0
sVm
I5
sV4s
p153
I0
sVr
I0
sVw
I0
sVsr
p154
V-
sVov
p155
V-
sV5w
p156
I0
ssg48
(dp157
Va
V15.33
p158
sVb
I32
sVinns
p159
I4
sVno
p160
I1
sVsr
p161
V143.75
p162
sVm
I5
sV4s
p163
I4
sV6s
p164
I2
sVhs
p165
V29
p166
sVr
V46
p167
sV100s
p168
I0
sV50s
p169
I0
ssg62
I2013
stp170
a(Vipl2013
(dp171
g24
(dp172
Vinns
p173
I8
sVc
I8
sVro
p174
I1
sVm
I19
sVs
I0
ssg28
(dp175
Vinns
p176
I0
sV10w
p177
I0
sVnb
p178
I0
sVmaid
p179
I0
sVwb
p180
I0
sVbbmw
p181
I0
sV6s
p182
I0
sVbbmr
p183
I0
sVbbir
p184
I0
sVbbiw
p185
I0
sVa
V-
sVb
I0
sVe
V-
sVd
I0
sVwmaid
p186
I0
sV4w
p187
I0
sVm
I19
sV4s
p188
I0
sVr
I0
sVw
I0
sVsr
p189
V-
sVov
p190
V-
sV5w
p191
I0
ssg48
(dp192
Va
V18.92
p193
sVb
I231
sVinns
p194
I17
sVno
p195
I3
sVsr
p196
V114.71
p197
sVm
I19
sV4s
p198
I22
sV6s
p199
I4
sVhs
p200
V37
p201
sVr
V265
p202
sV100s
p203
I0
sV50s
p204
I0
ssg62
I2013
stp205
a(Vipl2012
(dp206
g24
(dp207
Vinns
p208
I3
sVc
I2
sVro
p209
I1
sVm
I17
sVs
I0
ssg28
(dp210
Vinns
p211
I0
sV10w
p212
I0
sVnb
p213
I0
sVmaid
p214
I0
sVwb
p215
I0
sVbbmw
p216
I0
sV6s
p217
I0
sVbbmr
p218
I0
sVbbir
p219
I0
sVbbiw
p220
I0
sVa
V-
sVb
I0
sVe
V-
sVd
I0
sVwmaid
p221
I0
sV4w
p222
I0
sVm
I17
sV4s
p223
I0
sVr
I0
sVw
I0
sVsr
p224
V-
sVov
p225
V-
sV5w
p226
I0
ssg48
(dp227
Va
V37.00
p228
sVb
I252
sVinns
p229
I15
sVno
p230
I6
sVsr
p231
V132.14
p232
sVm
I17
sV4s
p233
I21
sV6s
p234
I14
sVhs
p235
V81*
p236
sVr
V333
p237
sV100s
p238
I0
sV50s
p239
I2
ssg62
I2012
stp240
a(Vclt20-2012
(dp241
g24
(dp242
Vinns
p243
I2
sVc
I2
sVro
p244
I0
sVm
I4
sVs
I0
ssg28
(dp245
Vinns
p246
I0
sV10w
p247
I0
sVnb
p248
I0
sVmaid
p249
I0
sVwb
p250
I0
sVbbmw
p251
I0
sV6s
p252
I0
sVbbmr
p253
I0
sVbbir
p254
I0
sVbbiw
p255
I0
sVa
V-
sVb
I0
sVe
V-
sVd
I0
sVwmaid
p256
I0
sV4w
p257
I0
sVm
I4
sV4s
p258
I0
sVr
I0
sVw
I0
sVsr
p259
V-
sVov
p260
V-
sV5w
p261
I0
ssg48
(dp262
Va
V6.50
p263
sVb
I22
sVinns
p264
I4
sVno
p265
I0
sVsr
p266
V118.18
p267
sVm
I4
sV4s
p268
I3
sV6s
p269
I0
sVhs
p270
V15
p271
sVr
V26
p272
sV100s
p273
I0
sV50s
p274
I0
ssg62
I2012
stp275
a(Vipl2011
(dp276
g24
(dp277
Vinns
p278
I8
sVc
I7
sVro
p279
I2
sVm
I16
sVs
I1
ssg28
(dp280
Vinns
p281
I1
sV10w
p282
I0
sVnb
p283
I0
sVmaid
p284
I0
sVwb
p285
I0
sVbbmw
p286
I0
sV6s
p287
I0
sVbbmr
p288
I0
sVbbir
p289
I0
sVbbiw
p290
I0
sVa
V-
sVb
I18
sVe
V7.33
p291
sVd
I3
sVwmaid
p292
I0
sV4w
p293
I0
sVm
I16
sV4s
p294
I3
sVr
I22
sVw
I0
sVsr
p295
V-
sVov
p296
V3.00
p297
sV5w
p298
I0
ssg48
(dp299
Va
V28.21
p300
sVb
I350
sVinns
p301
I16
sVno
p302
I2
sVsr
p303
V112.85
p304
sVm
I16
sV4s
p305
I44
sV6s
p306
I9
sVhs
p307
V63*
p308
sVr
V395
p309
sV100s
p310
I0
sV50s
p311
I4
ssg62
I2011
stp312
a(Vclt20-2011
p313
(dp314
g24
(dp315
Vinns
p316
I3
sVc
I2
sVro
p317
I0
sVm
I6
sVs
I1
ssg28
(dp318
Vinns
p319
I0
sV10w
p320
I0
sVnb
p321
I0
sVmaid
p322
I0
sVwb
p323
I0
sVbbmw
p324
I0
sV6s
p325
I0
sVbbmr
p326
I0
sVbbir
p327
I0
sVbbiw
p328
I0
sVa
V-
sVb
I0
sVe
V-
sVd
I0
sVwmaid
p329
I0
sV4w
p330
I0
sVm
I6
sV4s
p331
I0
sVr
I0
sVw
I0
sVsr
p332
V-
sVov
p333
V-
sV5w
p334
I0
ssg48
(dp335
Va
V16.80
p336
sVb
I98
sVinns
p337
I5
sVno
p338
I0
sVsr
p339
V85.71
p340
sVm
I6
sV4s
p341
I7
sV6s
p342
I1
sVhs
p343
V36
p344
sVr
V84
p345
sV100s
p346
I0
sV50s
p347
I0
ssg62
I2011
stp348
a(Vclt20-2010
(dp349
g24
(dp350
Vinns
p351
I2
sVc
I3
sVro
p352
I0
sVm
I4
sVs
I0
ssg28
(dp353
Vinns
p354
I0
sV10w
p355
I0
sVnb
p356
I0
sVmaid
p357
I0
sVwb
p358
I0
sVbbmw
p359
I0
sV6s
p360
I0
sVbbmr
p361
I0
sVbbir
p362
I0
sVbbiw
p363
I0
sVa
V-
sVb
I0
sVe
V-
sVd
I0
sVwmaid
p364
I0
sV4w
p365
I0
sVm
I4
sV4s
p366
I0
sVr
I0
sVw
I0
sVsr
p367
V-
sVov
p368
V-
sV5w
p369
I0
ssg48
(dp370
Va
V12.00
p371
sVb
I44
sVinns
p372
I4
sVno
p373
I0
sVsr
p374
V109.09
p375
sVm
I4
sV4s
p376
I1
sV6s
p377
I2
sVhs
p378
V38
p379
sVr
V48
p380
sV100s
p381
I0
sV50s
p382
I0
ssg62
I2010
stp383
a(Vipl2010
(dp384
g24
(dp385
Vinns
p386
I5
sVc
I6
sVro
p387
I2
sVm
I14
sVs
I1
ssg28
(dp388
Vinns
p389
I0
sV10w
p390
I0
sVnb
p391
I0
sVmaid
p392
I0
sVwb
p393
I0
sVbbmw
p394
I0
sV6s
p395
I0
sVbbmr
p396
I0
sVbbir
p397
I0
sVbbiw
p398
I0
sVa
V-
sVb
I0
sVe
V-
sVd
I0
sVwmaid
p399
I0
sV4w
p400
I0
sVm
I14
sV4s
p401
I0
sVr
I0
sVw
I0
sVsr
p402
V-
sVov
p403
V-
sV5w
p404
I0
ssg48
(dp405
Va
V27.38
p406
sVb
I246
sVinns
p407
I14
sVno
p408
I1
sVsr
p409
V144.71
p410
sVm
I14
sV4s
p411
I34
sV6s
p412
I13
sVhs
p413
V55*
p414
sVr
V356
p415
sV100s
p416
I0
sV50s
p417
I2
ssg62
I2010
stp418
asb.