(iplayer
Player
p1
(dp2
S'is_batsman'
p3
I01
sS'name'
p4
S'Murali Vijay'
p5
sS'dob'
p6
S'1984/04/01'
p7
sS'price'
p8
S'900000'
p9
sS'is_allrounder'
p10
I00
sS'is_overseas'
p11
I00
sS'team'
p12
S'DD'
p13
sS'nationality'
p14
S'Indian'
p15
sS'is_bowler'
p16
I00
sS'is_keeper'
p17
I00
sS'id'
p18
S'7'
sS'is_uncapped'
p19
I00
sS'tournamentStats'
p20
(lp21
(Vnz-ind-2014
(dp22
S'fieldingStats'
p23
(dp24
Vinns
p25
I1
sVc
I2
sVro
p26
I0
sVm
I2
sVs
I0
ssS'bowlingStats'
p27
(dp28
Vinns
p29
I0
sV10w
p30
I0
sVnb
p31
I0
sVmaid
p32
I0
sVwb
p33
I0
sVbbmw
p34
I0
sV6s
p35
I0
sVbbmr
p36
I0
sVbbir
p37
I0
sVbbiw
p38
I0
sVa
V-
sVb
I0
sVe
V-
sVd
I0
sVwmaid
p39
I0
sV4w
p40
I0
sVm
I2
sV4s
p41
I0
sVr
I0
sVw
I0
sVsr
p42
V-
sVov
p43
V-
sV5w
p44
I0
ssS'battingStats'
p45
(dp46
Va
V12.00
p47
sVb
I109
sVinns
p48
I4
sVno
p49
I0
sVsr
p50
V44.03
p51
sVm
I2
sV4s
p52
I8
sV6s
p53
I0
sVhs
p54
V26
p55
sVr
V48
p56
sV100s
p57
I0
sV50s
p58
I0
ssS'year'
p59
I2014
stp60
a(Vind-wi-2013
(dp61
g23
(dp62
Vinns
p63
I4
sVc
I5
sVro
p64
I0
sVm
I2
sVs
I0
ssg27
(dp65
Vinns
p66
I0
sV10w
p67
I0
sVnb
p68
I0
sVmaid
p69
I0
sVwb
p70
I0
sVbbmw
p71
I0
sV6s
p72
I0
sVbbmr
p73
I0
sVbbir
p74
I0
sVbbiw
p75
I0
sVa
V-
sVb
I0
sVe
V-
sVd
I0
sVwmaid
p76
I0
sV4w
p77
I0
sVm
I2
sV4s
p78
I0
sVr
I0
sVw
I0
sVsr
p79
V-
sVov
p80
V-
sV5w
p81
I0
ssg45
(dp82
Va
V34.50
p83
sVb
I130
sVinns
p84
I2
sVno
p85
I0
sVsr
p86
V53.07
p87
sVm
I2
sV4s
p88
I10
sV6s
p89
I0
sVhs
p90
V43
p91
sVr
V69
p92
sV100s
p93
I0
sV50s
p94
I0
ssg59
I2013
stp95
a(Vsa-ind-2013
(dp96
g23
(dp97
Vinns
p98
I2
sVc
I3
sVro
p99
I0
sVm
I2
sVs
I0
ssg27
(dp100
Vinns
p101
I1
sV10w
p102
I0
sVnb
p103
I0
sVmaid
p104
I0
sVwb
p105
I0
sVbbmw
p106
I0
sV6s
p107
I0
sVbbmr
p108
I0
sVbbir
p109
I0
sVbbiw
p110
I0
sVa
V-
sVb
I6
sVe
V3.00
p111
sVd
I3
sVwmaid
p112
I0
sV4w
p113
I0
sVm
I2
sV4s
p114
I0
sVr
I3
sVw
I0
sVsr
p115
V-
sVov
p116
V1.00
p117
sV5w
p118
I0
ssg45
(dp119
Va
V37.00
p120
sVb
I375
sVinns
p121
I4
sVno
p122
I0
sVsr
p123
V39.46
p124
sVm
I2
sV4s
p125
I25
sV6s
p126
I0
sVhs
p127
V97
p128
sVr
V148
p129
sV100s
p130
I0
sV50s
p131
I1
ssg59
I2013
stp132
a(Vtriseries-wi-2013
(dp133
g23
(dp134
Vinns
p135
I1
sVc
I2
sVro
p136
I0
sVm
I3
sVs
I0
ssg27
(dp137
Vinns
p138
I0
sV10w
p139
I0
sVnb
p140
I0
sVmaid
p141
I0
sVwb
p142
I0
sVbbmw
p143
I0
sV6s
p144
I0
sVbbmr
p145
I0
sVbbir
p146
I0
sVbbiw
p147
I0
sVa
V-
sVb
I0
sVe
V-
sVd
I0
sVwmaid
p148
I0
sV4w
p149
I0
sVm
I3
sV4s
p150
I0
sVr
I0
sVw
I0
sVsr
p151
V-
sVov
p152
V-
sV5w
p153
I0
ssg45
(dp154
Va
V28.50
p155
sVb
I64
sVinns
p156
I2
sVno
p157
I0
sVsr
p158
V89.06
p159
sVm
I3
sV4s
p160
I7
sV6s
p161
I0
sVhs
p162
V30
p163
sVr
V57
p164
sV100s
p165
I0
sV50s
p166
I0
ssg59
I2013
stp167
a(Vclt20-2013
(dp168
g23
(dp169
Vinns
p170
I1
sVc
I2
sVro
p171
I0
sVm
I5
sVs
I0
ssg27
(dp172
Vinns
p173
I0
sV10w
p174
I0
sVnb
p175
I0
sVmaid
p176
I0
sVwb
p177
I0
sVbbmw
p178
I0
sV6s
p179
I0
sVbbmr
p180
I0
sVbbir
p181
I0
sVbbiw
p182
I0
sVa
V-
sVb
I0
sVe
V-
sVd
I0
sVwmaid
p183
I0
sV4w
p184
I0
sVm
I5
sV4s
p185
I0
sVr
I0
sVw
I0
sVsr
p186
V-
sVov
p187
V-
sV5w
p188
I0
ssg45
(dp189
Va
V16.60
p190
sVb
I70
sVinns
p191
I5
sVno
p192
I0
sVsr
p193
V118.57
p194
sVm
I5
sV4s
p195
I11
sV6s
p196
I2
sVhs
p197
V42
p198
sVr
V83
p199
sV100s
p200
I0
sV50s
p201
I0
ssg59
I2013
stp202
a(Vind-aus-2013
(dp203
g23
(dp204
Vinns
p205
I2
sVc
I2
sVro
p206
I0
sVm
I4
sVs
I0
ssg27
(dp207
Vinns
p208
I0
sV10w
p209
I0
sVnb
p210
I0
sVmaid
p211
I0
sVwb
p212
I0
sVbbmw
p213
I0
sV6s
p214
I0
sVbbmr
p215
I0
sVbbir
p216
I0
sVbbiw
p217
I0
sVa
V-
sVb
I0
sVe
V-
sVd
I0
sVwmaid
p218
I0
sV4w
p219
I0
sVm
I4
sV4s
p220
I0
sVr
I0
sVw
I0
sVsr
p221
V-
sVov
p222
V-
sV5w
p223
I0
ssg45
(dp224
Va
V61.42
p225
sVb
I873
sVinns
p226
I7
sVno
p227
I0
sVsr
p228
V49.25
p229
sVm
I4
sV4s
p230
I59
sV6s
p231
I6
sVhs
p232
V167
p233
sVr
V430
p234
sV100s
p235
I2
sV50s
p236
I1
ssg59
I2013
stp237
a(Vchamptrophy-2013-warmups
(dp238
g23
(dp239
Vinns
p240
I0
sVc
I0
sVro
p241
I0
sVm
I2
sVs
I0
ssg27
(dp242
Vinns
p243
I0
sV10w
p244
I0
sVnb
p245
I0
sVmaid
p246
I0
sVwb
p247
I0
sVbbmw
p248
I0
sV6s
p249
I0
sVbbmr
p250
I0
sVbbir
p251
I0
sVbbiw
p252
I0
sVa
V-
sVb
I0
sVe
V-
sVd
I0
sVwmaid
p253
I0
sV4w
p254
I0
sVm
I2
sV4s
p255
I0
sVr
I0
sVw
I0
sVsr
p256
V-
sVov
p257
V-
sV5w
p258
I0
ssg45
(dp259
Va
V9.50
p260
sVb
I39
sVinns
p261
I2
sVno
p262
I0
sVsr
p263
V48.71
p264
sVm
I2
sV4s
p265
I3
sV6s
p266
I0
sVhs
p267
V18
p268
sVr
V19
p269
sV100s
p270
I0
sV50s
p271
I0
ssg59
I2013
stp272
a(Vipl2013
(dp273
g23
(dp274
Vinns
p275
I6
sVc
I8
sVro
p276
I0
sVm
I15
sVs
I0
ssg27
(dp277
Vinns
p278
I0
sV10w
p279
I0
sVnb
p280
I0
sVmaid
p281
I0
sVwb
p282
I0
sVbbmw
p283
I0
sV6s
p284
I0
sVbbmr
p285
I0
sVbbir
p286
I0
sVbbiw
p287
I0
sVa
V-
sVb
I0
sVe
V-
sVd
I0
sVwmaid
p288
I0
sV4w
p289
I0
sVm
I15
sV4s
p290
I0
sVr
I0
sVw
I0
sVsr
p291
V-
sVov
p292
V-
sV5w
p293
I0
ssg45
(dp294
Va
V22.28
p295
sVb
I286
sVinns
p296
I15
sVno
p297
I1
sVsr
p298
V109.09
p299
sVm
I15
sV4s
p300
I27
sV6s
p301
I8
sVhs
p302
V55
p303
sVr
V312
p304
sV100s
p305
I0
sV50s
p306
I2
ssg59
I2013
stp307
a(Vipl2012
(dp308
g23
(dp309
Vinns
p310
I5
sVc
I6
sVro
p311
I0
sVm
I14
sVs
I0
ssg27
(dp312
Vinns
p313
I0
sV10w
p314
I0
sVnb
p315
I0
sVmaid
p316
I0
sVwb
p317
I0
sVbbmw
p318
I0
sV6s
p319
I0
sVbbmr
p320
I0
sVbbir
p321
I0
sVbbiw
p322
I0
sVa
V-
sVb
I0
sVe
V-
sVd
I0
sVwmaid
p323
I0
sV4w
p324
I0
sVm
I14
sV4s
p325
I0
sVr
I0
sVw
I0
sVsr
p326
V-
sVov
p327
V-
sV5w
p328
I0
ssg45
(dp329
Va
V25.84
p330
sVb
I267
sVinns
p331
I14
sVno
p332
I1
sVsr
p333
V125.84
p334
sVm
I14
sV4s
p335
I39
sV6s
p336
I10
sVhs
p337
V113
p338
sVr
V336
p339
sV100s
p340
I1
sV50s
p341
I0
ssg59
I2012
stp342
a(Vclt20-2012
(dp343
g23
(dp344
Vinns
p345
I3
sVc
I4
sVro
p346
I0
sVm
I4
sVs
I0
ssg27
(dp347
Vinns
p348
I0
sV10w
p349
I0
sVnb
p350
I0
sVmaid
p351
I0
sVwb
p352
I0
sVbbmw
p353
I0
sV6s
p354
I0
sVbbmr
p355
I0
sVbbir
p356
I0
sVbbiw
p357
I0
sVa
V-
sVb
I0
sVe
V-
sVd
I0
sVwmaid
p358
I0
sV4w
p359
I0
sVm
I4
sV4s
p360
I0
sVr
I0
sVw
I0
sVsr
p361
V-
sVov
p362
V-
sV5w
p363
I0
ssg45
(dp364
Va
V18.75
p365
sVb
I67
sVinns
p366
I4
sVno
p367
I0
sVsr
p368
V111.94
p369
sVm
I4
sV4s
p370
I9
sV6s
p371
I3
sVhs
p372
V39
p373
sVr
V75
p374
sV100s
p375
I0
sV50s
p376
I0
ssg59
I2012
stp377
a(Vipl2011
(dp378
g23
(dp379
Vinns
p380
I4
sVc
I5
sVro
p381
I0
sVm
I16
sVs
I0
ssg27
(dp382
Vinns
p383
I0
sV10w
p384
I0
sVnb
p385
I0
sVmaid
p386
I0
sVwb
p387
I0
sVbbmw
p388
I0
sV6s
p389
I0
sVbbmr
p390
I0
sVbbir
p391
I0
sVbbiw
p392
I0
sVa
V-
sVb
I0
sVe
V-
sVd
I0
sVwmaid
p393
I0
sV4w
p394
I0
sVm
I16
sV4s
p395
I0
sVr
I0
sVw
I0
sVsr
p396
V-
sVov
p397
V-
sV5w
p398
I0
ssg45
(dp399
Va
V27.12
p400
sVb
I339
sVinns
p401
I16
sVno
p402
I0
sVsr
p403
V128.02
p404
sVm
I16
sV4s
p405
I34
sV6s
p406
I20
sVhs
p407
V95
p408
sVr
V434
p409
sV100s
p410
I0
sV50s
p411
I3
ssg59
I2011
stp412
a(Vclt20-2011
p413
(dp414
g23
(dp415
Vinns
p416
I0
sVc
I0
sVro
p417
I0
sVm
I4
sVs
I0
ssg27
(dp418
Vinns
p419
I0
sV10w
p420
I0
sVnb
p421
I0
sVmaid
p422
I0
sVwb
p423
I0
sVbbmw
p424
I0
sV6s
p425
I0
sVbbmr
p426
I0
sVbbir
p427
I0
sVbbiw
p428
I0
sVa
V-
sVb
I0
sVe
V-
sVd
I0
sVwmaid
p429
I0
sV4w
p430
I0
sVm
I4
sV4s
p431
I0
sVr
I0
sVw
I0
sVsr
p432
V-
sVov
p433
V-
sV5w
p434
I0
ssg45
(dp435
Va
V11.25
p436
sVb
I44
sVinns
p437
I4
sVno
p438
I0
sVsr
p439
V102.27
p440
sVm
I4
sV4s
p441
I5
sV6s
p442
I0
sVhs
p443
V17
p444
sVr
V45
p445
sV100s
p446
I0
sV50s
p447
I0
ssg59
I2011
stp448
a(Vclt20-2010
(dp449
g23
(dp450
Vinns
p451
I2
sVc
I3
sVro
p452
I0
sVm
I6
sVs
I0
ssg27
(dp453
Vinns
p454
I0
sV10w
p455
I0
sVnb
p456
I0
sVmaid
p457
I0
sVwb
p458
I0
sVbbmw
p459
I0
sV6s
p460
I0
sVbbmr
p461
I0
sVbbir
p462
I0
sVbbiw
p463
I0
sVa
V-
sVb
I0
sVe
V-
sVd
I0
sVwmaid
p464
I0
sV4w
p465
I0
sVm
I6
sV4s
p466
I0
sVr
I0
sVw
I0
sVsr
p467
V-
sVov
p468
V-
sV5w
p469
I0
ssg45
(dp470
Va
V49.00
p471
sVb
I240
sVinns
p472
I6
sVno
p473
I0
sVsr
p474
V122.50
p475
sVm
I6
sV4s
p476
I28
sV6s
p477
I10
sVhs
p478
V73
p479
sVr
V294
p480
sV100s
p481
I0
sV50s
p482
I3
ssg59
I2010
stp483
a(Vipl2010
(dp484
g23
(dp485
Vinns
p486
I8
sVc
I11
sVro
p487
I1
sVm
I15
sVs
I0
ssg27
(dp488
Vinns
p489
I0
sV10w
p490
I0
sVnb
p491
I0
sVmaid
p492
I0
sVwb
p493
I0
sVbbmw
p494
I0
sV6s
p495
I0
sVbbmr
p496
I0
sVbbir
p497
I0
sVbbiw
p498
I0
sVa
V-
sVb
I0
sVe
V-
sVd
I0
sVwmaid
p499
I0
sV4w
p500
I0
sVm
I15
sV4s
p501
I0
sVr
I0
sVw
I0
sVsr
p502
V-
sVov
p503
V-
sV5w
p504
I0
ssg45
(dp505
Va
V35.23
p506
sVb
I292
sVinns
p507
I15
sVno
p508
I2
sVsr
p509
V156.84
p510
sVm
I15
sV4s
p511
I36
sV6s
p512
I26
sVhs
p513
V127
p514
sVr
V458
p515
sV100s
p516
I1
sV50s
p517
I2
ssg59
I2010
stp518
a(Vipl2009
(dp519
g23
(dp520
Vinns
p521
I1
sVc
I2
sVro
p522
I0
sVm
I4
sVs
I0
ssg27
(dp523
Vinns
p524
I0
sV10w
p525
I0
sVnb
p526
I0
sVmaid
p527
I0
sVwb
p528
I0
sVbbmw
p529
I0
sV6s
p530
I0
sVbbmr
p531
I0
sVbbir
p532
I0
sVbbiw
p533
I0
sVa
V-
sVb
I0
sVe
V-
sVd
I0
sVwmaid
p534
I0
sV4w
p535
I0
sVm
I4
sV4s
p536
I0
sVr
I0
sVw
I0
sVsr
p537
V-
sVov
p538
V-
sV5w
p539
I0
ssg45
(dp540
Va
V15.00
p541
sVb
I67
sVinns
p542
I4
sVno
p543
I0
sVsr
p544
V89.55
p545
sVm
I4
sV4s
p546
I4
sV6s
p547
I2
sVhs
p548
V31
p549
sVr
V60
p550
sV100s
p551
I0
sV50s
p552
I0
ssg59
I2009
stp553
asb.