(iplayer
Player
p1
(dp2
S'is_batsman'
p3
I00
sS'name'
p4
S'Pat Cummins'
p5
sS'dob'
p6
S'1993/05/08'
p7
sS'price'
p8
S'800000'
p9
sS'is_allrounder'
p10
I00
sS'is_overseas'
p11
I01
sS'team'
p12
S'KKR'
p13
sS'nationality'
p14
S'Australian'
p15
sS'is_bowler'
p16
I01
sS'is_keeper'
p17
I00
sS'id'
p18
S'488'
p19
sS'is_uncapped'
p20
I00
sS'tournamentStats'
p21
(lp22
(Vbigbash-2013
(dp23
S'fieldingStats'
p24
(dp25
Vinns
p26
I3
sVc
I2
sVro
p27
I1
sVm
I4
sVs
I0
ssS'bowlingStats'
p28
(dp29
Vinns
p30
I4
sV10w
p31
I0
sVnb
p32
I2
sVmaid
p33
I0
sVwb
p34
I3
sVbbmw
p35
I2
sV6s
p36
I6
sVbbmr
p37
I6
sVbbir
p38
I6
sVbbiw
p39
I2
sVa
V32.75
p40
sVb
I78
sVe
V10.07
p41
sVd
I26
sVwmaid
p42
I0
sV4w
p43
I0
sVm
I4
sV4s
p44
I14
sVr
I131
sVw
I4
sVsr
p45
V19.50
p46
sVov
p47
V13.00
p48
sV5w
p49
I0
ssS'battingStats'
p50
(dp51
Va
V5.00
p52
sVb
I10
sVinns
p53
I2
sVno
p54
I0
sVsr
p55
V100.00
p56
sVm
I4
sV4s
p57
I1
sV6s
p58
I0
sVhs
p59
V7
sVr
V10
p60
sV100s
p61
I0
sV50s
p62
I0
ssS'year'
p63
I2013
stp64
a(Vclt20-2012
(dp65
g24
(dp66
Vinns
p67
I2
sVc
I1
sVro
p68
I1
sVm
I6
sVs
I0
ssg28
(dp69
Vinns
p70
I6
sV10w
p71
I0
sVnb
p72
I1
sVmaid
p73
I0
sVwb
p74
I4
sVbbmw
p75
I2
sV6s
p76
I3
sVbbmr
p77
I13
sVbbir
p78
I13
sVbbiw
p79
I2
sVa
V31.16
p80
sVb
I144
sVe
V7.79
p81
sVd
I66
sVwmaid
p82
I0
sV4w
p83
I0
sVm
I6
sV4s
p84
I27
sVr
I187
sVw
I6
sVsr
p85
V24.00
p86
sVov
p87
V24.00
p88
sV5w
p89
I0
ssg50
(dp90
Va
V-
sVb
I17
sVinns
p91
I2
sVno
p92
I2
sVsr
p93
V105.88
p94
sVm
I6
sV4s
p95
I0
sV6s
p96
I1
sVhs
p97
V14*
p98
sVr
V18
p99
sV100s
p100
I0
sV50s
p101
I0
ssg63
I2012
stp102
a(Vpre-worldt20-2012
(dp103
g24
(dp104
Vinns
p105
I0
sVc
I0
sVro
p106
I0
sVm
I3
sVs
I0
ssg28
(dp107
Vinns
p108
I3
sV10w
p109
I0
sVnb
p110
I0
sVmaid
p111
I0
sVwb
p112
I2
sVbbmw
p113
I3
sV6s
p114
I0
sVbbmr
p115
I15
sVbbir
p116
I15
sVbbiw
p117
I3
sVa
V13.20
p118
sVb
I66
sVe
V6.00
p119
sVd
I39
sVwmaid
p120
I0
sV4w
p121
I0
sVm
I3
sV4s
p122
I12
sVr
I66
sVw
I5
sVsr
p123
V13.20
p124
sVov
p125
V11.00
p126
sV5w
p127
I0
ssg50
(dp128
Va
V4.50
p129
sVb
I8
sVinns
p130
I3
sVno
p131
I1
sVsr
p132
V112.50
p133
sVm
I3
sV4s
p134
I0
sV6s
p135
I1
sVhs
p136
V7
sVr
V9
sV100s
p137
I0
sV50s
p138
I0
ssg63
I2012
stp139
a(Vworldt20-2012
(dp140
g24
(dp141
Vinns
p142
I1
sVc
I0
sVro
p143
I1
sVm
I7
sVs
I0
ssg28
(dp144
Vinns
p145
I7
sV10w
p146
I0
sVnb
p147
I1
sVmaid
p148
I1
sVwb
p149
I4
sVbbmw
p150
I2
sV6s
p151
I7
sVbbmr
p152
I13
sVbbir
p153
I13
sVbbiw
p154
I2
sVa
V26.25
p155
sVb
I162
sVe
V7.77
p156
sVd
I69
sVwmaid
p157
I0
sV4w
p158
I0
sVm
I7
sV4s
p159
I21
sVr
I210
sVw
I8
sVsr
p160
V20.25
p161
sVov
p162
V27.00
p163
sV5w
p164
I0
ssg50
(dp165
Va
V6.50
p166
sVb
I16
sVinns
p167
I2
sVno
p168
I0
sVsr
p169
V81.25
p170
sVm
I7
sV4s
p171
I1
sV6s
p172
I0
sVhs
p173
V13
p174
sVr
V13
p175
sV100s
p176
I0
sV50s
p177
I0
ssg63
I2012
stp178
a(Vclt20-2011
p179
(dp180
g24
(dp181
Vinns
p182
I1
sVc
I0
sVro
p183
I1
sVm
I5
sVs
I0
ssg28
(dp184
Vinns
p185
I5
sV10w
p186
I0
sVnb
p187
I3
sVmaid
p188
I2
sVwb
p189
I4
sVbbmw
p190
I4
sV6s
p191
I4
sVbbmr
p192
I45
sVbbir
p193
I45
sVbbiw
p194
I4
sVa
V19.42
p195
sVb
I114
sVe
V7.15
p196
sVd
I56
sVwmaid
p197
I0
sV4w
p198
I1
sVm
I5
sV4s
p199
I14
sVr
I136
sVw
I7
sVsr
p200
V16.28
p201
sVov
p202
V19.00
p203
sV5w
p204
I0
ssg50
(dp205
Va
V-
sVb
I3
sVinns
p206
I1
sVno
p207
I1
sVsr
p208
V233.33
p209
sVm
I5
sV4s
p210
I1
sV6s
p211
I0
sVhs
p212
V7*
p213
sVr
V7
sV100s
p214
I0
sV50s
p215
I0
ssg63
I2011
stp216
asb.