(iplayer
Player
p1
(dp2
S'is_batsman'
p3
I00
sS'name'
p4
S'Kane Richardson'
p5
sS'dob'
p6
S'1991/02/12'
p7
sS'price'
p8
S'750000'
p9
sS'is_allrounder'
p10
I00
sS'is_overseas'
p11
I01
sS'team'
p12
S'RR'
p13
sS'nationality'
p14
S'Australian'
p15
sS'is_bowler'
p16
I01
sS'is_keeper'
p17
I00
sS'id'
p18
S'798'
p19
sS'is_uncapped'
p20
I00
sS'tournamentStats'
p21
(lp22
(Vbigbash-2013
(dp23
S'fieldingStats'
p24
(dp25
Vinns
p26
I1
sVc
I1
sVro
p27
I0
sVm
I7
sVs
I0
ssS'bowlingStats'
p28
(dp29
Vinns
p30
I6
sV10w
p31
I0
sVnb
p32
I0
sVmaid
p33
I1
sVwb
p34
I5
sVbbmw
p35
I2
sV6s
p36
I2
sVbbmr
p37
I32
sVbbir
p38
I32
sVbbiw
p39
I2
sVa
V30.00
p40
sVb
I121
sVe
V7.43
p41
sVd
I44
sVwmaid
p42
I1
sV4w
p43
I0
sVm
I7
sV4s
p44
I14
sVr
I150
sVw
I5
sVsr
p45
V24.20
p46
sVov
p47
V20.16
p48
sV5w
p49
I0
ssS'battingStats'
p50
(dp51
Va
V20.00
p52
sVb
I42
sVinns
p53
I5
sVno
p54
I3
sVsr
p55
V95.23
p56
sVm
I7
sV4s
p57
I3
sV6s
p58
I1
sVhs
p59
V21
p60
sVr
V40
p61
sV100s
p62
I0
sV50s
p63
I0
ssS'year'
p64
I2013
stp65
a(Vipl2013
(dp66
g24
(dp67
Vinns
p68
I0
sVc
I0
sVro
p69
I0
sVm
I3
sVs
I0
ssg28
(dp70
Vinns
p71
I3
sV10w
p72
I0
sVnb
p73
I0
sVmaid
p74
I0
sVwb
p75
I2
sVbbmw
p76
I1
sV6s
p77
I7
sVbbmr
p78
I28
sVbbir
p79
I28
sVbbiw
p80
I1
sVa
V50.50
p81
sVb
I71
sVe
V8.53
p82
sVd
I28
sVwmaid
p83
I0
sV4w
p84
I0
sVm
I3
sV4s
p85
I6
sVr
I101
sVw
I2
sVsr
p86
V35.50
p87
sVov
p88
V11.83
p89
sV5w
p90
I0
ssg50
(dp91
Va
V17.00
p92
sVb
I36
sVinns
p93
I2
sVno
p94
I0
sVsr
p95
V94.44
p96
sVm
I3
sV4s
p97
I2
sV6s
p98
I1
sVhs
p99
V26
p100
sVr
V34
p101
sV100s
p102
I0
sV50s
p103
I0
ssg64
I2013
stp104
a(Vaus-sl-2012
(dp105
g24
(dp106
Vinns
p107
I0
sVc
I0
sVro
p108
I0
sVm
I1
sVs
I0
ssg28
(dp109
Vinns
p110
I1
sV10w
p111
I0
sVnb
p112
I0
sVmaid
p113
I3
sVwb
p114
I0
sVbbmw
p115
I0
sV6s
p116
I0
sVbbmr
p117
I15
sVbbir
p118
I15
sVbbiw
p119
I0
sVa
V-
sVb
I36
sVe
V2.50
p120
sVd
I25
sVwmaid
p121
I0
sV4w
p122
I0
sVm
I1
sV4s
p123
I2
sVr
I15
sVw
I0
sVsr
p124
V-
sVov
p125
V6.00
p126
sV5w
p127
I0
ssg50
(dp128
Va
V0.00
p129
sVb
I1
sVinns
p130
I1
sVno
p131
I0
sVsr
p132
V0.00
p133
sVm
I1
sV4s
p134
I0
sV6s
p135
I0
sVhs
p136
V0*
p137
sVr
V0
sV100s
p138
I0
sV50s
p139
I0
ssg64
I2012
stp140
a(Vbigbash-2012
(dp141
g24
(dp142
Vinns
p143
I3
sVc
I4
sVro
p144
I0
sVm
I8
sVs
I0
ssg28
(dp145
Vinns
p146
I8
sV10w
p147
I0
sVnb
p148
I0
sVmaid
p149
I0
sVwb
p150
I13
sVbbmw
p151
I3
sV6s
p152
I4
sVbbmr
p153
I9
sVbbir
p154
I9
sVbbiw
p155
I3
sVa
V21.50
p156
sVb
I178
sVe
V7.24
p157
sVd
I75
sVwmaid
p158
I0
sV4w
p159
I0
sVm
I8
sV4s
p160
I21
sVr
I215
sVw
I10
sVsr
p161
V17.80
p162
sVov
p163
V29.66
p164
sV5w
p165
I0
ssg50
(dp166
Va
V8.00
p167
sVb
I20
sVinns
p168
I3
sVno
p169
I0
sVsr
p170
V120.00
p171
sVm
I8
sV4s
p172
I3
sV6s
p173
I0
sVhs
p174
V20
p175
sVr
V24
p176
sV100s
p177
I0
sV50s
p178
I0
ssg64
I2012
stp179
a(Vclt20-2011
p180
(dp181
g24
(dp182
Vinns
p183
I0
sVc
I0
sVro
p184
I0
sVm
I2
sVs
I0
ssg28
(dp185
Vinns
p186
I2
sV10w
p187
I0
sVnb
p188
I1
sVmaid
p189
I0
sVwb
p190
I0
sVbbmw
p191
I2
sV6s
p192
I4
sVbbmr
p193
I29
sVbbir
p194
I29
sVbbiw
p195
I2
sVa
V31.50
p196
sVb
I42
sVe
V9.00
p197
sVd
I14
sVwmaid
p198
I0
sV4w
p199
I0
sVm
I2
sV4s
p200
I4
sVr
I63
sVw
I2
sVsr
p201
V21.00
p202
sVov
p203
V7.00
p204
sV5w
p205
I0
ssg50
(dp206
Va
V-
sVinns
p207
I0
sVno
p208
I0
sVsr
p209
V-
sVm
I2
sV4s
p210
I0
sV6s
p211
I0
sVhs
p212
V0*
p213
sVr
V0
sV100s
p214
I0
sV50s
p215
I0
ssg64
I2011
stp216
asb.