(iplayer
Player
p1
(dp2
S'is_batsman'
p3
I00
sS'name'
p4
S'Pragyan Ojha'
p5
sS'dob'
p6
S'2012/02/27'
p7
sS'price'
p8
S'850000'
p9
sS'is_allrounder'
p10
I00
sS'is_overseas'
p11
I00
sS'team'
p12
S'MI'
p13
sS'nationality'
p14
S'Indian'
p15
sS'is_bowler'
p16
I01
sS'is_keeper'
p17
I00
sS'id'
p18
S'106'
p19
sS'is_uncapped'
p20
I00
sS'tournamentStats'
p21
(lp22
(Vind-wi-2013
(dp23
S'fieldingStats'
p24
(dp25
Vinns
p26
I2
sVc
I2
sVro
p27
I0
sVm
I2
sVs
I0
ssS'bowlingStats'
p28
(dp29
Vinns
p30
I4
sV10w
p31
I1
sVnb
p32
I0
sVmaid
p33
I17
sVwb
p34
I0
sVbbmw
p35
I10
sV6s
p36
I5
sVbbmr
p37
I89
sVbbir
p38
I40
sVbbiw
p39
I5
sVa
V16.18
p40
sVb
I398
sVe
V2.68
p41
sVd
I306
sVwmaid
p42
I4
sV4w
p43
I0
sVm
I2
sV4s
p44
I18
sVr
I178
sVw
I11
sVsr
p45
V36.18
p46
sVov
p47
V66.33
p48
sV5w
p49
I2
ssS'battingStats'
p50
(dp51
Va
V2.00
p52
sVb
I7
sVinns
p53
I2
sVno
p54
I1
sVsr
p55
V28.57
p56
sVm
I2
sV4s
p57
I0
sV6s
p58
I0
sVhs
p59
V2*
p60
sVr
V2
sV100s
p61
I0
sV50s
p62
I0
ssS'year'
p63
I2013
stp64
a(Vclt20-2013
(dp65
g24
(dp66
Vinns
p67
I0
sVc
I0
sVro
p68
I0
sVm
I5
sVs
I0
ssg28
(dp69
Vinns
p70
I5
sV10w
p71
I0
sVnb
p72
I0
sVmaid
p73
I0
sVwb
p74
I1
sVbbmw
p75
I2
sV6s
p76
I7
sVbbmr
p77
I17
sVbbir
p78
I17
sVbbiw
p79
I2
sVa
V16.33
p80
sVb
I78
sVe
V7.53
p81
sVd
I28
sVwmaid
p82
I0
sV4w
p83
I0
sVm
I5
sV4s
p84
I4
sVr
I98
sVw
I6
sVsr
p85
V13.00
p86
sVov
p87
V13.00
p88
sV5w
p89
I0
ssg50
(dp90
Va
V-
sVinns
p91
I0
sVno
p92
I0
sVsr
p93
V-
sVm
I5
sV4s
p94
I0
sV6s
p95
I0
sVhs
p96
V0*
p97
sVr
V0
sV100s
p98
I0
sV50s
p99
I0
ssg63
I2013
stp100
a(Vind-aus-2013
(dp101
g24
(dp102
Vinns
p103
I0
sVc
I0
sVro
p104
I0
sVm
I2
sVs
I0
ssg28
(dp105
Vinns
p106
I4
sV10w
p107
I0
sVnb
p108
I0
sVmaid
p109
I19
sVwb
p110
I0
sVbbmw
p111
I4
sV6s
p112
I6
sVbbmr
p113
I144
sVbbir
p114
I19
sVbbiw
p115
I2
sVa
V34.00
p116
sVb
I517
sVe
V2.76
p117
sVd
I398
sVwmaid
p118
I1
sV4w
p119
I0
sVm
I2
sV4s
p120
I26
sVr
I238
sVw
I7
sVsr
p121
V73.85
p122
sVov
p123
V86.16
p124
sV5w
p125
I0
ssg50
(dp126
Va
V0.50
p127
sVb
I3
sVinns
p128
I2
sVno
p129
I0
sVsr
p130
V33.33
p131
sVm
I2
sV4s
p132
I0
sV6s
p133
I0
sVhs
p134
V1
sVr
V1
sV100s
p135
I0
sV50s
p136
I0
ssg63
I2013
stp137
a(Vipl2013
p138
(dp139
g24
(dp140
Vinns
p141
I2
sVc
I2
sVro
p142
I0
sVm
I16
sVs
I0
ssg28
(dp143
Vinns
p144
I15
sV10w
p145
I0
sVnb
p146
I0
sVmaid
p147
I0
sVwb
p148
I4
sVbbmw
p149
I3
sV6s
p150
I15
sVbbmr
p151
I11
sVbbir
p152
I11
sVbbiw
p153
I3
sVa
V23.81
p154
sVb
I314
sVe
V7.28
p155
sVd
I108
sVwmaid
p156
I0
sV4w
p157
I0
sVm
I16
sV4s
p158
I28
sVr
I381
sVw
I16
sVsr
p159
V19.62
p160
sVov
p161
V52.33
p162
sV5w
p163
I0
ssg50
(dp164
Va
V2.00
p165
sVb
I4
sVinns
p166
I3
sVno
p167
I2
sVsr
p168
V50.00
p169
sVm
I16
sV4s
p170
I0
sV6s
p171
I0
sVhs
p172
V1*
p173
sVr
V2
sV100s
p174
I0
sV50s
p175
I0
ssg63
I2013
stp176
a(Vipl2012
(dp177
g24
(dp178
Vinns
p179
I1
sVc
I1
sVro
p180
I0
sVm
I9
sVs
I0
ssg28
(dp181
Vinns
p182
I9
sV10w
p183
I0
sVnb
p184
I1
sVmaid
p185
I0
sVwb
p186
I5
sVbbmw
p187
I2
sV6s
p188
I12
sVbbmr
p189
I17
sVbbir
p190
I17
sVbbiw
p191
I2
sVa
V24.44
p192
sVb
I180
sVe
V7.33
p193
sVd
I66
sVwmaid
p194
I0
sV4w
p195
I0
sVm
I9
sV4s
p196
I8
sVr
I220
sVw
I9
sVsr
p197
V20.00
p198
sVov
p199
V30.00
p200
sV5w
p201
I0
ssg50
(dp202
Va
V2.50
p203
sVb
I14
sVinns
p204
I3
sVno
p205
I1
sVsr
p206
V35.71
p207
sVm
I9
sV4s
p208
I0
sV6s
p209
I0
sVhs
p210
V4
sVr
V5
sV100s
p211
I0
sV50s
p212
I0
ssg63
I2012
stp213
a(Vclt20-2012
(dp214
g24
(dp215
Vinns
p216
I0
sVc
I0
sVro
p217
I0
sVm
I4
sVs
I0
ssg28
(dp218
Vinns
p219
I3
sV10w
p220
I0
sVnb
p221
I0
sVmaid
p222
I0
sVwb
p223
I2
sVbbmw
p224
I1
sV6s
p225
I4
sVbbmr
p226
I30
sVbbir
p227
I30
sVbbiw
p228
I1
sVa
V78.00
p229
sVb
I60
sVe
V7.80
p230
sVd
I17
sVwmaid
p231
I0
sV4w
p232
I0
sVm
I4
sV4s
p233
I4
sVr
I78
sVw
I1
sVsr
p234
V60.00
p235
sVov
p236
V10.00
p237
sV5w
p238
I0
ssg50
(dp239
Va
V-
sVinns
p240
I1
sVno
p241
I1
sVsr
p242
V-
sVm
I4
sV4s
p243
I0
sV6s
p244
I0
sVhs
p245
V0*
p246
sVr
V0
sV100s
p247
I0
sV50s
p248
I0
ssg63
I2012
stp249
a(Vind-eng-2012-13
(dp250
g24
(dp251
Vinns
p252
I2
sVc
I2
sVro
p253
I0
sVm
I4
sVs
I0
ssg28
(dp254
Vinns
p255
I8
sV10w
p256
I0
sVnb
p257
I0
sVmaid
p258
I69
sVwb
p259
I0
sVbbmw
p260
I9
sV6s
p261
I8
sVbbmr
p262
I165
sVbbir
p263
I45
sVbbiw
p264
I5
sVa
V30.85
p265
sVb
I1526
sVe
V2.42
p266
sVd
I1215
sVwmaid
p267
I7
sV4w
p268
I2
sVm
I4
sV4s
p269
I74
sVr
I617
sVw
I20
sVsr
p270
V76.30
p271
sVov
p272
V254.33
p273
sV5w
p274
I2
ssg50
(dp275
Va
V6.00
p276
sVb
I108
sVinns
p277
I6
sVno
p278
I4
sVsr
p279
V11.11
p280
sVm
I4
sV4s
p281
I1
sV6s
p282
I0
sVhs
p283
V6*
p284
sVr
V12
p285
sV100s
p286
I0
sV50s
p287
I0
ssg63
I2012
stp288
a(Vipl2011
(dp289
g24
(dp290
Vinns
p291
I2
sVc
I2
sVro
p292
I0
sVm
I10
sVs
I0
ssg28
(dp293
Vinns
p294
I10
sV10w
p295
I0
sVnb
p296
I0
sVmaid
p297
I0
sVwb
p298
I3
sVbbmw
p299
I3
sV6s
p300
I11
sVbbmr
p301
I26
sVbbir
p302
I26
sVbbiw
p303
I3
sVa
V26.70
p304
sVb
I221
sVe
V7.24
p305
sVd
I86
sVwmaid
p306
I0
sV4w
p307
I0
sVm
I10
sV4s
p308
I19
sVr
I267
sVw
I10
sVsr
p309
V22.10
p310
sVov
p311
V36.83
p312
sV5w
p313
I0
ssg50
(dp314
Va
V-
sVinns
p315
I0
sVno
p316
I0
sVsr
p317
V-
sVm
I10
sV4s
p318
I0
sV6s
p319
I0
sVhs
p320
V0*
p321
sVr
V0
sV100s
p322
I0
sV50s
p323
I0
ssg63
I2011
stp324
a(Vipl2010
(dp325
g24
(dp326
Vinns
p327
I4
sVc
I4
sVro
p328
I0
sVm
I16
sVs
I0
ssg28
(dp329
Vinns
p330
I16
sV10w
p331
I0
sVnb
p332
I1
sVmaid
p333
I0
sVwb
p334
I6
sVbbmw
p335
I3
sV6s
p336
I17
sVbbmr
p337
I26
sVbbir
p338
I26
sVbbiw
p339
I3
sVa
V20.42
p340
sVb
I353
sVe
V7.29
p341
sVd
I133
sVwmaid
p342
I0
sV4w
p343
I0
sVm
I16
sV4s
p344
I31
sVr
I429
sVw
I21
sVsr
p345
V16.80
p346
sVov
p347
V58.83
p348
sV5w
p349
I0
ssg50
(dp350
Va
V1.00
p351
sVb
I8
sVinns
p352
I6
sVno
p353
I3
sVsr
p354
V37.50
p355
sVm
I16
sV4s
p356
I0
sV6s
p357
I0
sVhs
p358
V2
sVr
V3
sV100s
p359
I0
sV50s
p360
I0
ssg63
I2010
stp361
a(Vipl2009
(dp362
g24
(dp363
Vinns
p364
I2
sVc
I2
sVro
p365
I0
sVm
I15
sVs
I0
ssg28
(dp366
Vinns
p367
I15
sV10w
p368
I0
sVnb
p369
I0
sVmaid
p370
I0
sVwb
p371
I6
sVbbmw
p372
I3
sV6s
p373
I7
sVbbmr
p374
I21
sVbbir
p375
I21
sVbbiw
p376
I3
sVa
V19.33
p377
sVb
I321
sVe
V6.50
p378
sVd
I103
sVwmaid
p379
I0
sV4w
p380
I0
sVm
I15
sV4s
p381
I24
sVr
I348
sVw
I18
sVsr
p382
V17.83
p383
sVov
p384
V53.50
p385
sV5w
p386
I0
ssg50
(dp387
Va
V0.33
p388
sVb
I7
sVinns
p389
I4
sVno
p390
I1
sVsr
p391
V14.28
p392
sVm
I15
sV4s
p393
I0
sV6s
p394
I0
sVhs
p395
V1
sVr
V1
sV100s
p396
I0
sV50s
p397
I0
ssg63
I2009
stp398
a(Vclt20-2009
(dp399
g24
(dp400
Vinns
p401
I0
sVc
I0
sVro
p402
I0
sVm
I2
sVs
I0
ssg28
(dp403
Vinns
p404
I2
sV10w
p405
I0
sVnb
p406
I0
sVmaid
p407
I0
sVwb
p408
I0
sVbbmw
p409
I2
sV6s
p410
I2
sVbbmr
p411
I20
sVbbir
p412
I20
sVbbiw
p413
I2
sVa
V24.00
p414
sVb
I48
sVe
V6.00
p415
sVd
I19
sVwmaid
p416
I0
sV4w
p417
I0
sVm
I2
sV4s
p418
I3
sVr
I48
sVw
I2
sVsr
p419
V24.00
p420
sVov
p421
V8.00
p422
sV5w
p423
I0
ssg50
(dp424
Va
V1.00
p425
sVb
I1
sVinns
p426
I2
sVno
p427
I1
sVsr
p428
V100.00
p429
sVm
I2
sV4s
p430
I0
sV6s
p431
I0
sVhs
p432
V1
sVr
V1
sV100s
p433
I0
sV50s
p434
I0
ssg63
I2009
stp435
a(Vipl2008
(dp436
g24
(dp437
Vinns
p438
I2
sVc
I3
sVro
p439
I0
sVm
I13
sVs
I0
ssg28
(dp440
Vinns
p441
I12
sV10w
p442
I0
sVnb
p443
I0
sVmaid
p444
I0
sVwb
p445
I14
sVbbmw
p446
I2
sV6s
p447
I11
sVbbmr
p448
I18
sVbbir
p449
I18
sVbbiw
p450
I2
sVa
V25.81
p451
sVb
I222
sVe
V7.67
p452
sVd
I71
sVwmaid
p453
I0
sV4w
p454
I0
sVm
I13
sV4s
p455
I20
sVr
I284
sVw
I11
sVsr
p456
V20.18
p457
sVov
p458
V37.00
p459
sV5w
p460
I0
ssg50
(dp461
Va
V1.00
p462
sVb
I4
sVinns
p463
I4
sVno
p464
I2
sVsr
p465
V50.00
p466
sVm
I13
sV4s
p467
I0
sV6s
p468
I0
sVhs
p469
V1*
p470
sVr
V2
sV100s
p471
I0
sV50s
p472
I0
ssg63
I2008
stp473
asb.