(iplayer
Player
p1
(dp2
S'is_batsman'
p3
I00
sS'name'
p4
S'Ravichandran Ashwin'
p5
sS'dob'
p6
S'1986/09/17'
p7
sS'price'
p8
S'950000'
p9
sS'is_allrounder'
p10
I01
sS'is_overseas'
p11
I00
sS'team'
p12
S'CSK'
p13
sS'nationality'
p14
S'Indian'
p15
sS'is_bowler'
p16
I01
sS'is_keeper'
p17
I00
sS'id'
p18
S'8'
sS'is_uncapped'
p19
I00
sS'tournamentStats'
p20
(lp21
(Vasiacup-2014
(dp22
S'fieldingStats'
p23
(dp24
Vinns
p25
I3
sVc
I3
sVro
p26
I1
sVm
I4
sVs
I0
ssS'bowlingStats'
p27
(dp28
Vinns
p29
I4
sV10w
p30
I0
sVnb
p31
I0
sVmaid
p32
I4
sVwb
p33
I8
sVbbmw
p34
I3
sV6s
p35
I4
sVbbmr
p36
I31
sVbbir
p37
I31
sVbbiw
p38
I3
sVa
V18.55
p39
sVb
I238
sVe
V4.21
p40
sVd
I135
sVwmaid
p41
I1
sV4w
p42
I0
sVm
I4
sV4s
p43
I9
sVr
I167
sVw
I9
sVsr
p44
V26.44
p45
sVov
p46
V39.66
p47
sV5w
p48
I0
ssS'battingStats'
p49
(dp50
Va
V13.50
p51
sVb
I23
sVinns
p52
I2
sVno
p53
I0
sVsr
p54
V117.39
p55
sVm
I4
sV4s
p56
I4
sV6s
p57
I0
sVhs
p58
V18
p59
sVr
V27
p60
sV100s
p61
I0
sV50s
p62
I0
ssS'year'
p63
I2014
stp64
a(Vnz-ind-2014
(dp65
g23
(dp66
Vinns
p67
I2
sVc
I2
sVro
p68
I0
sVm
I5
sVs
I0
ssg27
(dp69
Vinns
p70
I5
sV10w
p71
I0
sVnb
p72
I1
sVmaid
p73
I0
sVwb
p74
I2
sVbbmw
p75
I1
sV6s
p76
I5
sVbbmr
p77
I47
sVbbir
p78
I47
sVbbiw
p79
I1
sVa
V227.00
p80
sVb
I264
sVe
V5.15
p81
sVd
I112
sVwmaid
p82
I0
sV4w
p83
I0
sVm
I5
sV4s
p84
I10
sVr
I227
sVw
I1
sVsr
p85
V264.00
p86
sVov
p87
V44.00
p88
sV5w
p89
I0
ssg49
(dp90
Va
V18.80
p91
sVb
I74
sVinns
p92
I5
sVno
p93
I0
sVsr
p94
V127.02
p95
sVm
I5
sV4s
p96
I11
sV6s
p97
I2
sVhs
p98
V65
p99
sVr
V94
p100
sV100s
p101
I0
sV50s
p102
I1
ssg63
I2014
stp103
a(Vworldt20-2014
(dp104
g23
(dp105
Vinns
p106
I1
sVc
I1
sVro
p107
I0
sVm
I2
sVs
I0
ssg27
(dp108
Vinns
p109
I2
sV10w
p110
I0
sVnb
p111
I0
sVmaid
p112
I0
sVwb
p113
I1
sVbbmw
p114
I1
sV6s
p115
I0
sVbbmr
p116
I24
sVbbir
p117
I24
sVbbiw
p118
I1
sVa
V47.00
p119
sVb
I48
sVe
V5.87
p120
sVd
I21
sVwmaid
p121
I0
sV4w
p122
I0
sVm
I2
sV4s
p123
I6
sVr
I47
sVw
I1
sVsr
p124
V48.00
p125
sVov
p126
V8.00
p127
sV5w
p128
I0
ssg49
(dp129
Va
V-
sVinns
p130
I0
sVno
p131
I0
sVsr
p132
V-
sVm
I2
sV4s
p133
I0
sV6s
p134
I0
sVhs
p135
V0*
p136
sVr
V0
sV100s
p137
I0
sV50s
p138
I0
ssg63
I2014
stp139
a(Vtriseries-wi-2013
(dp140
g23
(dp141
Vinns
p142
I3
sVc
I5
sVro
p143
I0
sVm
I5
sVs
I0
ssg27
(dp144
Vinns
p145
I5
sV10w
p146
I0
sVnb
p147
I0
sVmaid
p148
I0
sVwb
p149
I6
sVbbmw
p150
I2
sV6s
p151
I6
sVbbmr
p152
I42
sVbbir
p153
I42
sVbbiw
p154
I2
sVa
V33.00
p155
sVb
I234
sVe
V5.07
p156
sVd
I115
sVwmaid
p157
I0
sV4w
p158
I0
sVm
I5
sV4s
p159
I10
sVr
I198
sVw
I6
sVsr
p160
V39.00
p161
sVov
p162
V39.00
p163
sV5w
p164
I0
ssg49
(dp165
Va
V17.00
p166
sVb
I43
sVinns
p167
I4
sVno
p168
I2
sVsr
p169
V79.06
p170
sVm
I5
sV4s
p171
I3
sV6s
p172
I0
sVhs
p173
V25*
p174
sVr
V34
p175
sV100s
p176
I0
sV50s
p177
I0
ssg63
I2013
stp178
a(Vind-aus-2-2013
(dp179
g23
(dp180
Vinns
p181
I0
sVc
I0
sVro
p182
I0
sVm
I7
sVs
I0
ssg27
(dp183
Vinns
p184
I7
sV10w
p185
I0
sVnb
p186
I0
sVmaid
p187
I0
sVwb
p188
I7
sVbbmw
p189
I2
sV6s
p190
I17
sVbbmr
p191
I51
sVbbir
p192
I51
sVbbiw
p193
I2
sVa
V41.77
p194
sVb
I348
sVe
V6.48
p195
sVd
I149
sVwmaid
p196
I0
sV4w
p197
I0
sVm
I7
sV4s
p198
I22
sVr
I376
sVw
I9
sVsr
p199
V38.66
p200
sVov
p201
V58.00
p202
sV5w
p203
I0
ssg49
(dp204
Va
V16.50
p205
sVb
I45
sVinns
p206
I2
sVno
p207
I0
sVsr
p208
V73.33
p209
sVm
I7
sV4s
p210
I3
sV6s
p211
I0
sVhs
p212
V28
p213
sVr
V33
p214
sV100s
p215
I0
sV50s
p216
I0
ssg63
I2013
stp217
a(Vipl2013
(dp218
g23
(dp219
Vinns
p220
I4
sVc
I4
sVro
p221
I0
sVm
I18
sVs
I0
ssg27
(dp222
Vinns
p223
I18
sV10w
p224
I0
sVnb
p225
I0
sVmaid
p226
I1
sVwb
p227
I6
sVbbmw
p228
I2
sV6s
p229
I17
sVbbmr
p230
I18
sVbbir
p231
I18
sVbbiw
p232
I2
sVa
V26.00
p233
sVb
I348
sVe
V6.72
p234
sVd
I121
sVwmaid
p235
I1
sV4w
p236
I0
sVm
I18
sV4s
p237
I20
sVr
I390
sVw
I15
sVsr
p238
V23.20
p239
sVov
p240
V58.00
p241
sV5w
p242
I0
ssg49
(dp243
Va
V8.75
p244
sVb
I49
sVinns
p245
I5
sVno
p246
I1
sVsr
p247
V71.42
p248
sVm
I18
sV4s
p249
I4
sV6s
p250
I0
sVhs
p251
V11*
p252
sVr
V35
p253
sV100s
p254
I0
sV50s
p255
I0
ssg63
I2013
stp256
a(Vclt20-2013
(dp257
g23
(dp258
Vinns
p259
I2
sVc
I2
sVro
p260
I0
sVm
I5
sVs
I0
ssg27
(dp261
Vinns
p262
I5
sV10w
p263
I0
sVnb
p264
I0
sVmaid
p265
I1
sVwb
p266
I6
sVbbmw
p267
I1
sV6s
p268
I6
sVbbmr
p269
I10
sVbbir
p270
I10
sVbbiw
p271
I1
sVa
V29.50
p272
sVb
I102
sVe
V6.94
p273
sVd
I45
sVwmaid
p274
I0
sV4w
p275
I0
sVm
I5
sV4s
p276
I7
sVr
I118
sVw
I4
sVsr
p277
V25.50
p278
sVov
p279
V17.00
p280
sV5w
p281
I0
ssg49
(dp282
Va
V27.50
p283
sVb
I33
sVinns
p284
I2
sVno
p285
I0
sVsr
p286
V166.66
p287
sVm
I5
sV4s
p288
I3
sV6s
p289
I4
sVhs
p290
V46
p291
sVr
V55
p292
sV100s
p293
I0
sV50s
p294
I0
ssg63
I2013
stp295
a(Vchamptrophy-2013-warmups
(dp296
g23
(dp297
Vinns
p298
I2
sVc
I2
sVro
p299
I0
sVm
I2
sVs
I0
ssg27
(dp300
Vinns
p301
I2
sV10w
p302
I0
sVnb
p303
I0
sVmaid
p304
I0
sVwb
p305
I0
sVbbmw
p306
I1
sV6s
p307
I1
sVbbmr
p308
I4
sVbbir
p309
I4
sVbbiw
p310
I1
sVa
V49.00
p311
sVb
I57
sVe
V5.15
p312
sVd
I23
sVwmaid
p313
I0
sV4w
p314
I0
sVm
I2
sV4s
p315
I3
sVr
I49
sVw
I1
sVsr
p316
V57.00
p317
sVov
p318
V9.50
p319
sV5w
p320
I0
ssg49
(dp321
Va
V-
sVinns
p322
I0
sVno
p323
I0
sVsr
p324
V-
sVm
I2
sV4s
p325
I0
sV6s
p326
I0
sVhs
p327
V0*
p328
sVr
V0
sV100s
p329
I0
sV50s
p330
I0
ssg63
I2013
stp331
a(Vsa-ind-2013
(dp332
g23
(dp333
Vinns
p334
I1
sVc
I1
sVro
p335
I0
sVm
I4
sVs
I0
ssg27
(dp336
Vinns
p337
I5
sV10w
p338
I0
sVnb
p339
I0
sVmaid
p340
I5
sVwb
p341
I2
sVbbmw
p342
I1
sV6s
p343
I4
sVbbmr
p344
I48
sVbbir
p345
I48
sVbbiw
p346
I1
sVa
V277.00
p347
sVb
I420
sVe
V3.95
p348
sVd
I240
sVwmaid
p349
I0
sV4w
p350
I0
sVm
I4
sV4s
p351
I20
sVr
I277
sVw
I1
sVsr
p352
V420.00
p353
sVov
p354
V70.00
p355
sV5w
p356
I0
ssg49
(dp357
Va
V17.33
p358
sVb
I70
sVinns
p359
I4
sVno
p360
I1
sVsr
p361
V74.28
p362
sVm
I4
sV4s
p363
I7
sV6s
p364
I0
sVhs
p365
V19
p366
sVr
V52
p367
sV100s
p368
I0
sV50s
p369
I0
ssg63
I2013
stp370
a(Vind-aus-2013
(dp371
g23
(dp372
Vinns
p373
I1
sVc
I1
sVro
p374
I0
sVm
I4
sVs
I0
ssg27
(dp375
Vinns
p376
I8
sV10w
p377
I1
sVnb
p378
I0
sVmaid
p379
I74
sVwb
p380
I0
sVbbmw
p381
I12
sV6s
p382
I6
sVbbmr
p383
I198
sVbbir
p384
I103
sVbbiw
p385
I7
sVa
V20.10
p386
sVb
I1448
sVe
V2.41
p387
sVd
I1138
sVwmaid
p388
I12
sV4w
p389
I0
sVm
I4
sV4s
p390
I66
sVr
I583
sVw
I29
sVsr
p391
V49.93
p392
sVov
p393
V241.33
p394
sV5w
p395
I4
ssg49
(dp396
Va
V5.00
p397
sVb
I58
sVinns
p398
I4
sVno
p399
I0
sVsr
p400
V34.48
p401
sVm
I4
sV4s
p402
I2
sV6s
p403
I0
sVhs
p404
V12
p405
sVr
V20
p406
sV100s
p407
I0
sV50s
p408
I0
ssg63
I2013
stp409
a(Vind-wi-2013
(dp410
g23
(dp411
Vinns
p412
I4
sVc
I4
sVro
p413
I0
sVm
I5
sVs
I0
ssg27
(dp414
Vinns
p415
I7
sV10w
p416
I0
sVnb
p417
I1
sVmaid
p418
I18
sVwb
p419
I7
sVbbmw
p420
I7
sV6s
p421
I9
sVbbmr
p422
I134
sVbbir
p423
I89
sVbbiw
p424
I4
sVa
V19.77
p425
sVb
I611
sVe
V3.49
p426
sVd
I435
sVwmaid
p427
I2
sV4w
p428
I1
sVm
I5
sV4s
p429
I36
sVr
I356
sVw
I18
sVsr
p430
V33.94
p431
sVov
p432
V101.83
p433
sV5w
p434
I0
ssg49
(dp435
Va
V57.66
p436
sVb
I252
sVinns
p437
I3
sVno
p438
I0
sVsr
p439
V68.65
p440
sVm
I5
sV4s
p441
I17
sV6s
p442
I2
sVhs
p443
V124
p444
sVr
V173
p445
sV100s
p446
I1
sV50s
p447
I0
ssg63
I2013
stp448
a(Vchamptrophy-2013
p449
(dp450
g23
(dp451
Vinns
p452
I2
sVc
I4
sVro
p453
I0
sVm
I5
sVs
I0
ssg27
(dp454
Vinns
p455
I5
sV10w
p456
I0
sVnb
p457
I0
sVmaid
p458
I4
sVwb
p459
I9
sVbbmw
p460
I3
sV6s
p461
I3
sVbbmr
p462
I48
sVbbir
p463
I48
sVbbiw
p464
I3
sVa
V22.62
p465
sVb
I246
sVe
V4.41
p466
sVd
I124
sVwmaid
p467
I1
sV4w
p468
I0
sVm
I5
sV4s
p469
I7
sVr
I181
sVw
I8
sVsr
p470
V30.75
p471
sVov
p472
V41.00
p473
sV5w
p474
I0
ssg49
(dp475
Va
V5.50
p476
sVb
I11
sVinns
p477
I2
sVno
p478
I0
sVsr
p479
V100.00
p480
sVm
I5
sV4s
p481
I1
sV6s
p482
I0
sVhs
p483
V10
p484
sVr
V11
p485
sV100s
p486
I0
sV50s
p487
I0
ssg63
I2013
stp488
a(Vipl2012
(dp489
g23
(dp490
Vinns
p491
I5
sVc
I5
sVro
p492
I1
sVm
I19
sVs
I0
ssg27
(dp493
Vinns
p494
I18
sV10w
p495
I0
sVnb
p496
I1
sVmaid
p497
I0
sVwb
p498
I6
sVbbmw
p499
I3
sV6s
p500
I13
sVbbmr
p501
I24
sVbbir
p502
I24
sVbbiw
p503
I3
sVa
V30.85
p504
sVb
I395
sVe
V6.56
p505
sVd
I141
sVwmaid
p506
I0
sV4w
p507
I0
sVm
I19
sV4s
p508
I26
sVr
I432
sVw
I14
sVsr
p509
V28.21
p510
sVov
p511
V65.83
p512
sV5w
p513
I0
ssg49
(dp514
Va
V6.00
p515
sVb
I15
sVinns
p516
I5
sVno
p517
I2
sVsr
p518
V120.00
p519
sVm
I19
sV4s
p520
I2
sV6s
p521
I0
sVhs
p522
V8
sVr
V18
p523
sV100s
p524
I0
sV50s
p525
I0
ssg63
I2012
stp526
a(Vpre-worldt20-2012
(dp527
g23
(dp528
Vinns
p529
I2
sVc
I2
sVro
p530
I0
sVm
I2
sVs
I0
ssg27
(dp531
Vinns
p532
I2
sV10w
p533
I0
sVnb
p534
I0
sVmaid
p535
I0
sVwb
p536
I2
sVbbmw
p537
I0
sV6s
p538
I4
sVbbmr
p539
I34
sVbbir
p540
I34
sVbbiw
p541
I0
sVa
V-
sVb
I36
sVe
V11.33
p542
sVd
I4
sVwmaid
p543
I0
sV4w
p544
I0
sVm
I2
sV4s
p545
I4
sVr
I68
sVw
I0
sVsr
p546
V-
sVov
p547
V6.00
p548
sV5w
p549
I0
ssg49
(dp550
Va
V-
sVinns
p551
I0
sVno
p552
I0
sVsr
p553
V-
sVm
I2
sV4s
p554
I0
sV6s
p555
I0
sVhs
p556
V0*
p557
sVr
V0
sV100s
p558
I0
sV50s
p559
I0
ssg63
I2012
stp560
a(Vind-eng-2012-13
(dp561
g23
(dp562
Vinns
p563
I0
sVc
I0
sVro
p564
I0
sVm
I11
sVs
I0
ssg27
(dp565
Vinns
p566
I15
sV10w
p567
I0
sVnb
p568
I0
sVmaid
p569
I49
sVwb
p570
I4
sVbbmw
p571
I5
sV6s
p572
I16
sVbbmr
p573
I214
sVbbir
p574
I39
sVbbiw
p575
I3
sVa
V48.09
p576
sVb
I1745
sVe
V3.63
p577
sVd
I1157
sVwmaid
p578
I0
sV4w
p579
I0
sVm
I11
sV4s
p580
I100
sVr
I1058
sVw
I22
sVsr
p581
V79.31
p582
sVov
p583
V290.83
p584
sV5w
p585
I0
ssg49
(dp586
Va
V39.57
p587
sVb
I474
sVinns
p588
I10
sVno
p589
I3
sVsr
p590
V58.43
p591
sVm
I11
sV4s
p592
I31
sV6s
p593
I2
sVhs
p594
V91*
p595
sVr
V277
p596
sV100s
p597
I0
sV50s
p598
I2
ssg63
I2012
stp599
a(Vind-pak-2012-13
(dp600
g23
(dp601
Vinns
p602
I1
sVc
I1
sVro
p603
I0
sVm
I4
sVs
I0
ssg27
(dp604
Vinns
p605
I4
sV10w
p606
I0
sVnb
p607
I1
sVmaid
p608
I1
sVwb
p609
I4
sVbbmw
p610
I2
sV6s
p611
I2
sVbbmr
p612
I47
sVbbir
p613
I47
sVbbiw
p614
I2
sVa
V39.50
p615
sVb
I204
sVe
V4.64
p616
sVd
I104
sVwmaid
p617
I1
sV4w
p618
I0
sVm
I4
sV4s
p619
I10
sVr
I158
sVw
I4
sVsr
p620
V51.00
p621
sVov
p622
V34.00
p623
sV5w
p624
I0
ssg49
(dp625
Va
V17.00
p626
sVb
I62
sVinns
p627
I3
sVno
p628
I1
sVsr
p629
V54.83
p630
sVm
I4
sV4s
p631
I2
sV6s
p632
I0
sVhs
p633
V31*
p634
sVr
V34
p635
sV100s
p636
I0
sV50s
p637
I0
ssg63
I2012
stp638
a(Vworldt20-2012
(dp639
g23
(dp640
Vinns
p641
I2
sVc
I2
sVro
p642
I0
sVm
I6
sVs
I0
ssg27
(dp643
Vinns
p644
I6
sV10w
p645
I0
sVnb
p646
I1
sVmaid
p647
I0
sVwb
p648
I6
sVbbmw
p649
I4
sV6s
p650
I3
sVbbmr
p651
I23
sVbbir
p652
I23
sVbbiw
p653
I4
sVa
V15.33
p654
sVb
I143
sVe
V5.79
p655
sVd
I58
sVwmaid
p656
I0
sV4w
p657
I1
sVm
I6
sV4s
p658
I5
sVr
I138
sVw
I9
sVsr
p659
V15.88
p660
sVov
p661
V23.83
p662
sV5w
p663
I0
ssg49
(dp664
Va
V-
sVb
I12
sVinns
p665
I1
sVno
p666
I1
sVsr
p667
V133.33
p668
sVm
I6
sV4s
p669
I1
sV6s
p670
I1
sVhs
p671
V16*
p672
sVr
V16
p673
sV100s
p674
I0
sV50s
p675
I0
ssg63
I2012
stp676
a(Vclt20-2012
(dp677
g23
(dp678
Vinns
p679
I1
sVc
I1
sVro
p680
I0
sVm
I4
sVs
I0
ssg27
(dp681
Vinns
p682
I4
sV10w
p683
I0
sVnb
p684
I1
sVmaid
p685
I0
sVwb
p686
I1
sVbbmw
p687
I2
sV6s
p688
I9
sVbbmr
p689
I32
sVbbir
p690
I32
sVbbiw
p691
I2
sVa
V47.66
p692
sVb
I90
sVe
V9.53
p693
sVd
I30
sVwmaid
p694
I0
sV4w
p695
I0
sVm
I4
sV4s
p696
I11
sVr
I143
sVw
I3
sVsr
p697
V30.00
p698
sVov
p699
V15.00
p700
sV5w
p701
I0
ssg49
(dp702
Va
V31.00
p703
sVb
I14
sVinns
p704
I2
sVno
p705
I1
sVsr
p706
V221.42
p707
sVm
I4
sV4s
p708
I4
sV6s
p709
I1
sVhs
p710
V18
p711
sVr
V31
p712
sV100s
p713
I0
sV50s
p714
I0
ssg63
I2012
stp715
a(Vclt20-2011
(dp716
g23
(dp717
Vinns
p718
I0
sVc
I0
sVro
p719
I0
sVm
I4
sVs
I0
ssg27
(dp720
Vinns
p721
I4
sV10w
p722
I0
sVnb
p723
I0
sVmaid
p724
I0
sVwb
p725
I3
sVbbmw
p726
I2
sV6s
p727
I3
sVbbmr
p728
I23
sVbbir
p729
I23
sVbbiw
p730
I2
sVa
V21.20
p731
sVb
I96
sVe
V6.62
p732
sVd
I33
sVwmaid
p733
I0
sV4w
p734
I0
sVm
I4
sV4s
p735
I6
sVr
I106
sVw
I5
sVsr
p736
V19.20
p737
sVov
p738
V16.00
p739
sV5w
p740
I0
ssg49
(dp741
Va
V1.00
p742
sVb
I4
sVinns
p743
I1
sVno
p744
I0
sVsr
p745
V25.00
p746
sVm
I4
sV4s
p747
I0
sV6s
p748
I0
sVhs
p749
V1
sVr
V1
sV100s
p750
I0
sV50s
p751
I0
ssg63
I2011
stp752
a(Vipl2011
(dp753
g23
(dp754
Vinns
p755
I3
sVc
I4
sVro
p756
I0
sVm
I16
sVs
I0
ssg27
(dp757
Vinns
p758
I16
sV10w
p759
I0
sVnb
p760
I0
sVmaid
p761
I1
sVwb
p762
I7
sVbbmw
p763
I3
sV6s
p764
I11
sVbbmr
p765
I16
sVbbir
p766
I16
sVbbiw
p767
I3
sVa
V19.40
p768
sVb
I378
sVe
V6.15
p769
sVd
I157
sVwmaid
p770
I1
sV4w
p771
I0
sVm
I16
sV4s
p772
I30
sVr
I388
sVw
I20
sVsr
p773
V18.90
p774
sVov
p775
V63.00
p776
sV5w
p777
I0
ssg49
(dp778
Va
V1.00
p779
sVb
I6
sVinns
p780
I2
sVno
p781
I0
sVsr
p782
V33.33
p783
sVm
I16
sV4s
p784
I0
sV6s
p785
I0
sVhs
p786
V2
sVr
V2
sV100s
p787
I0
sV50s
p788
I0
ssg63
I2011
stp789
a(Vclt20-2010
(dp790
g23
(dp791
Vinns
p792
I2
sVc
I2
sVro
p793
I1
sVm
I6
sVs
I0
ssg27
(dp794
Vinns
p795
I6
sV10w
p796
I0
sVnb
p797
I0
sVmaid
p798
I0
sVwb
p799
I3
sVbbmw
p800
I4
sV6s
p801
I7
sVbbmr
p802
I18
sVbbir
p803
I18
sVbbiw
p804
I4
sVa
V11.69
p805
sVb
I140
sVe
V6.51
p806
sVd
I64
sVwmaid
p807
I0
sV4w
p808
I1
sVm
I6
sV4s
p809
I11
sVr
I152
sVw
I13
sVsr
p810
V10.76
p811
sVov
p812
V23.33
p813
sV5w
p814
I0
ssg49
(dp815
Va
V-
sVb
I3
sVinns
p816
I2
sVno
p817
I2
sVsr
p818
V166.66
p819
sVm
I6
sV4s
p820
I1
sV6s
p821
I0
sVhs
p822
V4*
p823
sVr
V5
sV100s
p824
I0
sV50s
p825
I0
ssg63
I2010
stp826
a(Vipl2010
(dp827
g23
(dp828
Vinns
p829
I2
sVc
I1
sVro
p830
I1
sVm
I12
sVs
I0
ssg27
(dp831
Vinns
p832
I12
sV10w
p833
I0
sVnb
p834
I0
sVmaid
p835
I1
sVwb
p836
I9
sVbbmw
p837
I3
sV6s
p838
I8
sVbbmr
p839
I16
sVbbir
p840
I16
sVbbiw
p841
I3
sVa
V22.53
p842
sVb
I288
sVe
V6.10
p843
sVd
I124
sVwmaid
p844
I0
sV4w
p845
I0
sVm
I12
sV4s
p846
I25
sVr
I293
sVw
I13
sVsr
p847
V22.15
p848
sVov
p849
V48.00
p850
sV5w
p851
I0
ssg49
(dp852
Va
V7.50
p853
sVb
I40
sVinns
p854
I6
sVno
p855
I2
sVsr
p856
V75.00
p857
sVm
I12
sV4s
p858
I2
sV6s
p859
I0
sVhs
p860
V11*
p861
sVr
V30
p862
sV100s
p863
I0
sV50s
p864
I0
ssg63
I2010
stp865
a(Vipl2009
(dp866
g23
(dp867
Vinns
p868
I2
sVc
I2
sVro
p869
I0
sVm
I2
sVs
I0
ssg27
(dp870
Vinns
p871
I1
sV10w
p872
I0
sVnb
p873
I0
sVmaid
p874
I0
sVwb
p875
I0
sVbbmw
p876
I2
sV6s
p877
I0
sVbbmr
p878
I13
sVbbir
p879
I0
sVbbiw
p880
I0
sVa
V6.50
p881
sVb
I24
sVe
V3.25
p882
sVd
I11
sVwmaid
p883
I0
sV4w
p884
I0
sVm
I2
sV4s
p885
I0
sVr
I13
sVw
I2
sVsr
p886
V12.00
p887
sVov
p888
V4.00
p889
sV5w
p890
I0
ssg49
(dp891
Va
V8.00
p892
sVb
I15
sVinns
p893
I1
sVno
p894
I0
sVsr
p895
V53.33
p896
sVm
I2
sV4s
p897
I1
sV6s
p898
I0
sVhs
p899
V8
sVr
V8
sV100s
p900
I0
sV50s
p901
I0
ssg63
I2009
stp902
asb.