(iplayer
Player
p1
(dp2
S'is_batsman'
p3
I01
sS'name'
p4
S'Michael Hussey'
p5
sS'dob'
p6
S'1975/05/27'
p7
sS'price'
p8
S'1000000'
p9
sS'is_allrounder'
p10
I00
sS'is_overseas'
p11
I01
sS'team'
p12
S'MI'
p13
sS'nationality'
p14
S'Australian'
p15
sS'is_bowler'
p16
I00
sS'is_keeper'
p17
I00
sS'id'
p18
S'20'
p19
sS'is_uncapped'
p20
I00
sS'tournamentStats'
p21
(lp22
(Vbigbash-2013
(dp23
S'fieldingStats'
p24
(dp25
Vinns
p26
I2
sVc
I2
sVro
p27
I0
sVm
I8
sVs
I0
ssS'bowlingStats'
p28
(dp29
Vinns
p30
I0
sV10w
p31
I0
sVnb
p32
I0
sVmaid
p33
I0
sVwb
p34
I0
sVbbmw
p35
I0
sV6s
p36
I0
sVbbmr
p37
I0
sVbbir
p38
I0
sVbbiw
p39
I0
sVa
V-
sVb
I0
sVe
V-
sVd
I0
sVwmaid
p40
I0
sV4w
p41
I0
sVm
I8
sV4s
p42
I0
sVr
I0
sVw
I0
sVsr
p43
V-
sVov
p44
V-
sV5w
p45
I0
ssS'battingStats'
p46
(dp47
Va
V36.85
p48
sVb
I197
sVinns
p49
I8
sVno
p50
I1
sVsr
p51
V130.96
p52
sVm
I8
sV4s
p53
I17
sV6s
p54
I8
sVhs
p55
V85
p56
sVr
V258
p57
sV100s
p58
I0
sV50s
p59
I3
ssS'year'
p60
I2013
stp61
a(Vclt20-2013
(dp62
g24
(dp63
Vinns
p64
I1
sVc
I1
sVro
p65
I0
sVm
I5
sVs
I0
ssg28
(dp66
Vinns
p67
I0
sV10w
p68
I0
sVnb
p69
I0
sVmaid
p70
I0
sVwb
p71
I0
sVbbmw
p72
I0
sV6s
p73
I0
sVbbmr
p74
I0
sVbbir
p75
I0
sVbbiw
p76
I0
sVa
V-
sVb
I0
sVe
V-
sVd
I0
sVwmaid
p77
I0
sV4w
p78
I0
sVm
I5
sV4s
p79
I0
sVr
I0
sVw
I0
sVsr
p80
V-
sVov
p81
V-
sV5w
p82
I0
ssg46
(dp83
Va
V34.25
p84
sVb
I108
sVinns
p85
I5
sVno
p86
I1
sVsr
p87
V126.85
p88
sVm
I5
sV4s
p89
I17
sV6s
p90
I2
sVhs
p91
V57*
p92
sVr
V137
p93
sV100s
p94
I0
sV50s
p95
I1
ssg60
I2013
stp96
a(Vipl2013
(dp97
g24
(dp98
Vinns
p99
I9
sVc
I10
sVro
p100
I1
sVm
I17
sVs
I0
ssg28
(dp101
Vinns
p102
I0
sV10w
p103
I0
sVnb
p104
I0
sVmaid
p105
I0
sVwb
p106
I0
sVbbmw
p107
I0
sV6s
p108
I0
sVbbmr
p109
I0
sVbbir
p110
I0
sVbbiw
p111
I0
sVa
V-
sVb
I0
sVe
V-
sVd
I0
sVwmaid
p112
I0
sV4w
p113
I0
sVm
I17
sV4s
p114
I0
sVr
I0
sVw
I0
sVsr
p115
V-
sVov
p116
V-
sV5w
p117
I0
ssg46
(dp118
Va
V52.35
p119
sVb
I566
sVinns
p120
I17
sVno
p121
I3
sVsr
p122
V129.50
p123
sVm
I17
sV4s
p124
I81
sV6s
p125
I17
sVhs
p126
V95
p127
sVr
V733
p128
sV100s
p129
I0
sV50s
p130
I6
ssg60
I2013
stp131
a(Vipl2012
(dp132
g24
(dp133
Vinns
p134
I4
sVc
I4
sVro
p135
I0
sVm
I8
sVs
I0
ssg28
(dp136
Vinns
p137
I0
sV10w
p138
I0
sVnb
p139
I0
sVmaid
p140
I0
sVwb
p141
I0
sVbbmw
p142
I0
sV6s
p143
I0
sVbbmr
p144
I0
sVbbir
p145
I0
sVbbiw
p146
I0
sVa
V-
sVb
I0
sVe
V-
sVd
I0
sVwmaid
p147
I0
sV4w
p148
I0
sVm
I8
sV4s
p149
I0
sVr
I0
sVw
I0
sVsr
p150
V-
sVov
p151
V-
sV5w
p152
I0
ssg46
(dp153
Va
V32.62
p154
sVb
I236
sVinns
p155
I8
sVno
p156
I0
sVsr
p157
V110.59
p158
sVm
I8
sV4s
p159
I28
sV6s
p160
I8
sVhs
p161
V56
p162
sVr
V261
p163
sV100s
p164
I0
sV50s
p165
I2
ssg60
I2012
stp166
a(Vaus-sa-2012
(dp167
g24
(dp168
Vinns
p169
I4
sVc
I3
sVro
p170
I1
sVm
I3
sVs
I0
ssg28
(dp171
Vinns
p172
I3
sV10w
p173
I0
sVnb
p174
I0
sVmaid
p175
I0
sVwb
p176
I3
sVbbmw
p177
I0
sV6s
p178
I0
sVbbmr
p179
I0
sVbbir
p180
I0
sVbbiw
p181
I0
sVa
V-
sVb
I54
sVe
V6.00
p182
sVd
I27
sVwmaid
p183
I0
sV4w
p184
I0
sVm
I3
sV4s
p185
I6
sVr
I54
sVw
I0
sVsr
p186
V-
sVov
p187
V9.00
p188
sV5w
p189
I0
ssg46
(dp190
Va
V59.00
p191
sVb
I453
sVinns
p192
I5
sVno
p193
I0
sVsr
p194
V65.12
p195
sVm
I3
sV4s
p196
I31
sV6s
p197
I4
sVhs
p198
V103
p199
sVr
V295
p200
sV100s
p201
I2
sV50s
p202
I1
ssg60
I2012
stp203
a(Vclt20-2012
(dp204
g24
(dp205
Vinns
p206
I0
sVc
I0
sVro
p207
I0
sVm
I1
sVs
I0
ssg28
(dp208
Vinns
p209
I0
sV10w
p210
I0
sVnb
p211
I0
sVmaid
p212
I0
sVwb
p213
I0
sVbbmw
p214
I0
sV6s
p215
I0
sVbbmr
p216
I0
sVbbir
p217
I0
sVbbiw
p218
I0
sVa
V-
sVb
I0
sVe
V-
sVd
I0
sVwmaid
p219
I0
sV4w
p220
I0
sVm
I1
sV4s
p221
I0
sVr
I0
sVw
I0
sVsr
p222
V-
sVov
p223
V-
sV5w
p224
I0
ssg46
(dp225
Va
V16.00
p226
sVb
I19
sVinns
p227
I1
sVno
p228
I0
sVsr
p229
V84.21
p230
sVm
I1
sV4s
p231
I2
sV6s
p232
I0
sVhs
p233
V16
p234
sVr
V16
p235
sV100s
p236
I0
sV50s
p237
I0
ssg60
I2012
stp238
a(Vpre-worldt20-2012
(dp239
g24
(dp240
Vinns
p241
I1
sVc
I1
sVro
p242
I0
sVm
I3
sVs
I0
ssg28
(dp243
Vinns
p244
I0
sV10w
p245
I0
sVnb
p246
I0
sVmaid
p247
I0
sVwb
p248
I0
sVbbmw
p249
I0
sV6s
p250
I0
sVbbmr
p251
I0
sVbbir
p252
I0
sVbbiw
p253
I0
sVa
V-
sVb
I0
sVe
V-
sVd
I0
sVwmaid
p254
I0
sV4w
p255
I0
sVm
I3
sV4s
p256
I0
sVr
I0
sVw
I0
sVsr
p257
V-
sVov
p258
V-
sV5w
p259
I0
ssg46
(dp260
Va
V12.00
p261
sVb
I44
sVinns
p262
I3
sVno
p263
I0
sVsr
p264
V81.81
p265
sVm
I3
sV4s
p266
I2
sV6s
p267
I1
sVhs
p268
V23
p269
sVr
V36
p270
sV100s
p271
I0
sV50s
p272
I0
ssg60
I2012
stp273
a(Vaus-sl-2012
(dp274
g24
(dp275
Vinns
p276
I5
sVc
I9
sVro
p277
I0
sVm
I3
sVs
I0
ssg28
(dp278
Vinns
p279
I3
sV10w
p280
I0
sVnb
p281
I0
sVmaid
p282
I1
sVwb
p283
I0
sVbbmw
p284
I0
sV6s
p285
I0
sVbbmr
p286
I0
sVbbir
p287
I0
sVbbiw
p288
I0
sVa
V-
sVb
I24
sVe
V3.00
p289
sVd
I18
sVwmaid
p290
I0
sV4w
p291
I0
sVm
I3
sV4s
p292
I2
sVr
I12
sVw
I0
sVsr
p293
V-
sVov
p294
V4.00
p295
sV5w
p296
I0
ssg46
(dp297
Va
V116.00
p298
sVb
I383
sVinns
p299
I5
sVno
p300
I3
sVsr
p301
V60.57
p302
sVm
I3
sV4s
p303
I16
sV6s
p304
I2
sVhs
p305
V115*
p306
sVr
V232
p307
sV100s
p308
I1
sV50s
p309
I0
ssg60
I2012
stp310
a(Vworldt20-2012
(dp311
g24
(dp312
Vinns
p313
I2
sVc
I2
sVro
p314
I0
sVm
I8
sVs
I0
ssg28
(dp315
Vinns
p316
I0
sV10w
p317
I0
sVnb
p318
I0
sVmaid
p319
I0
sVwb
p320
I0
sVbbmw
p321
I0
sV6s
p322
I0
sVbbmr
p323
I0
sVbbir
p324
I0
sVbbiw
p325
I0
sVa
V-
sVb
I0
sVe
V-
sVd
I0
sVwmaid
p326
I0
sV4w
p327
I0
sVm
I8
sV4s
p328
I0
sVr
I0
sVw
I0
sVsr
p329
V-
sVov
p330
V-
sV5w
p331
I0
ssg46
(dp332
Va
V57.75
p333
sVb
I186
sVinns
p334
I7
sVno
p335
I3
sVsr
p336
V124.19
p337
sVm
I8
sV4s
p338
I15
sV6s
p339
I9
sVhs
p340
V71
p341
sVr
V231
p342
sV100s
p343
I0
sV50s
p344
I2
ssg60
I2012
stp345
a(Vbigbash-2012
(dp346
g24
(dp347
Vinns
p348
I1
sVc
I1
sVro
p349
I0
sVm
I3
sVs
I0
ssg28
(dp350
Vinns
p351
I0
sV10w
p352
I0
sVnb
p353
I0
sVmaid
p354
I0
sVwb
p355
I0
sVbbmw
p356
I0
sV6s
p357
I0
sVbbmr
p358
I0
sVbbir
p359
I0
sVbbiw
p360
I0
sVa
V-
sVb
I0
sVe
V-
sVd
I0
sVwmaid
p361
I0
sV4w
p362
I0
sVm
I3
sV4s
p363
I0
sVr
I0
sVw
I0
sVsr
p364
V-
sVov
p365
V-
sV5w
p366
I0
ssg46
(dp367
Va
V17.50
p368
sVb
I30
sVinns
p369
I3
sVno
p370
I1
sVsr
p371
V116.66
p372
sVm
I3
sV4s
p373
I2
sV6s
p374
I1
sVhs
p375
V21*
p376
sVr
V35
p377
sV100s
p378
I0
sV50s
p379
I0
ssg60
I2012
stp380
a(Vipl2011
(dp381
g24
(dp382
Vinns
p383
I5
sVc
I7
sVro
p384
I0
sVm
I14
sVs
I0
ssg28
(dp385
Vinns
p386
I0
sV10w
p387
I0
sVnb
p388
I0
sVmaid
p389
I0
sVwb
p390
I0
sVbbmw
p391
I0
sV6s
p392
I0
sVbbmr
p393
I0
sVbbir
p394
I0
sVbbiw
p395
I0
sVa
V-
sVb
I0
sVe
V-
sVd
I0
sVwmaid
p396
I0
sV4w
p397
I0
sVm
I14
sV4s
p398
I0
sVr
I0
sVw
I0
sVsr
p399
V-
sVov
p400
V-
sV5w
p401
I0
ssg46
(dp402
Va
V41.00
p403
sVb
I414
sVinns
p404
I14
sVno
p405
I2
sVsr
p406
V118.84
p407
sVm
I14
sV4s
p408
I53
sV6s
p409
I6
sVhs
p410
V83*
p411
sVr
V492
p412
sV100s
p413
I0
sV50s
p414
I4
ssg60
I2011
stp415
a(Vclt20-2011
p416
(dp417
g24
(dp418
Vinns
p419
I1
sVc
I2
sVro
p420
I0
sVm
I4
sVs
I0
ssg28
(dp421
Vinns
p422
I0
sV10w
p423
I0
sVnb
p424
I0
sVmaid
p425
I0
sVwb
p426
I0
sVbbmw
p427
I0
sV6s
p428
I0
sVbbmr
p429
I0
sVbbir
p430
I0
sVbbiw
p431
I0
sVa
V-
sVb
I0
sVe
V-
sVd
I0
sVwmaid
p432
I0
sV4w
p433
I0
sVm
I4
sV4s
p434
I0
sVr
I0
sVw
I0
sVsr
p435
V-
sVov
p436
V-
sV5w
p437
I0
ssg46
(dp438
Va
V40.00
p439
sVb
I120
sVinns
p440
I4
sVno
p441
I0
sVsr
p442
V133.33
p443
sVm
I4
sV4s
p444
I21
sV6s
p445
I4
sVhs
p446
V81
p447
sVr
V160
p448
sV100s
p449
I0
sV50s
p450
I1
ssg60
I2011
stp451
a(Vclt20-2010
(dp452
g24
(dp453
Vinns
p454
I1
sVc
I2
sVro
p455
I0
sVm
I4
sVs
I0
ssg28
(dp456
Vinns
p457
I0
sV10w
p458
I0
sVnb
p459
I0
sVmaid
p460
I0
sVwb
p461
I0
sVbbmw
p462
I0
sV6s
p463
I0
sVbbmr
p464
I0
sVbbir
p465
I0
sVbbiw
p466
I0
sVa
V-
sVb
I0
sVe
V-
sVd
I0
sVwmaid
p467
I0
sV4w
p468
I0
sVm
I4
sV4s
p469
I0
sVr
I0
sVw
I0
sVsr
p470
V-
sVov
p471
V-
sV5w
p472
I0
ssg46
(dp473
Va
V44.00
p474
sVb
I125
sVinns
p475
I4
sVno
p476
I1
sVsr
p477
V105.60
p478
sVm
I4
sV4s
p479
I9
sV6s
p480
I1
sVhs
p481
V51*
p482
sVr
V132
p483
sV100s
p484
I0
sV50s
p485
I2
ssg60
I2010
stp486
a(Vipl2010
(dp487
g24
(dp488
Vinns
p489
I0
sVc
I0
sVro
p490
I0
sVm
I3
sVs
I0
ssg28
(dp491
Vinns
p492
I0
sV10w
p493
I0
sVnb
p494
I0
sVmaid
p495
I0
sVwb
p496
I0
sVbbmw
p497
I0
sV6s
p498
I0
sVbbmr
p499
I0
sVbbir
p500
I0
sVbbiw
p501
I0
sVa
V-
sVb
I0
sVe
V-
sVd
I0
sVwmaid
p502
I0
sV4w
p503
I0
sVm
I3
sV4s
p504
I0
sVr
I0
sVw
I0
sVsr
p505
V-
sVov
p506
V-
sV5w
p507
I0
ssg46
(dp508
Va
V18.50
p509
sVb
I44
sVinns
p510
I3
sVno
p511
I1
sVsr
p512
V84.09
p513
sVm
I3
sV4s
p514
I2
sV6s
p515
I0
sVhs
p516
V15
p517
sVr
V37
p518
sV100s
p519
I0
sV50s
p520
I0
ssg60
I2010
stp521
a(Vipl2008
(dp522
g24
(dp523
Vinns
p524
I1
sVc
I2
sVro
p525
I0
sVm
I4
sVs
I0
ssg28
(dp526
Vinns
p527
I0
sV10w
p528
I0
sVnb
p529
I0
sVmaid
p530
I0
sVwb
p531
I0
sVbbmw
p532
I0
sV6s
p533
I0
sVbbmr
p534
I0
sVbbir
p535
I0
sVbbiw
p536
I0
sVa
V-
sVb
I0
sVe
V-
sVd
I0
sVwmaid
p537
I0
sV4w
p538
I0
sVm
I4
sV4s
p539
I0
sVr
I0
sVw
I0
sVsr
p540
V-
sVov
p541
V-
sV5w
p542
I0
ssg46
(dp543
Va
V84.00
p544
sVb
I100
sVinns
p545
I3
sVno
p546
I1
sVsr
p547
V168.00
p548
sVm
I4
sV4s
p549
I12
sV6s
p550
I11
sVhs
p551
V116*
p552
sVr
V168
p553
sV100s
p554
I1
sV50s
p555
I0
ssg60
I2008
stp556
asb.