(iplayer
Player
p1
(dp2
S'is_batsman'
p3
I00
sS'name'
p4
S'Yuvraj Singh'
p5
sS'dob'
p6
S'1981/12/12'
p7
sS'price'
p8
S'950000'
p9
sS'is_allrounder'
p10
I01
sS'is_overseas'
p11
I00
sS'team'
p12
S'RCB'
p13
sS'nationality'
p14
S'Indian'
p15
sS'is_bowler'
p16
I00
sS'is_keeper'
p17
I00
sS'id'
p18
S'113'
p19
sS'is_uncapped'
p20
I00
sS'tournamentStats'
p21
(lp22
(Vworldt20-2014
(dp23
S'fieldingStats'
p24
(dp25
Vinns
p26
I0
sVc
I0
sVro
p27
I0
sVm
I2
sVs
I0
ssS'bowlingStats'
p28
(dp29
Vinns
p30
I1
sV10w
p31
I0
sVnb
p32
I0
sVmaid
p33
I0
sVwb
p34
I0
sVbbmw
p35
I0
sV6s
p36
I0
sVbbmr
p37
I0
sVbbir
p38
I0
sVbbiw
p39
I0
sVa
V-
sVb
I6
sVe
V13.00
p40
sVd
I0
sVwmaid
p41
I0
sV4w
p42
I0
sVm
I2
sV4s
p43
I2
sVr
I13
sVw
I0
sVsr
p44
V-
sVov
p45
V1.00
p46
sV5w
p47
I0
ssS'battingStats'
p48
(dp49
Va
V5.50
p50
sVb
I21
sVinns
p51
I2
sVno
p52
I0
sVsr
p53
V52.38
p54
sVm
I2
sV4s
p55
I1
sV6s
p56
I0
sVhs
p57
V10
p58
sVr
V11
p59
sV100s
p60
I0
sV50s
p61
I0
ssS'year'
p62
I2014
stp63
a(Vind-wi-2013
(dp64
g24
(dp65
Vinns
p66
I0
sVc
I0
sVro
p67
I0
sVm
I3
sVs
I0
ssg28
(dp68
Vinns
p69
I0
sV10w
p70
I0
sVnb
p71
I0
sVmaid
p72
I0
sVwb
p73
I0
sVbbmw
p74
I0
sV6s
p75
I0
sVbbmr
p76
I0
sVbbir
p77
I0
sVbbiw
p78
I0
sVa
V-
sVb
I0
sVe
V-
sVd
I0
sVwmaid
p79
I0
sV4w
p80
I0
sVm
I3
sV4s
p81
I0
sVr
I0
sVw
I0
sVsr
p82
V-
sVov
p83
V-
sV5w
p84
I0
ssg48
(dp85
Va
V49.50
p86
sVb
I152
sVinns
p87
I3
sVno
p88
I1
sVsr
p89
V65.13
p90
sVm
I3
sV4s
p91
I12
sV6s
p92
I1
sVhs
p93
V55
p94
sVr
V99
p95
sV100s
p96
I0
sV50s
p97
I1
ssg62
I2013
stp98
a(Vind-aus-2-2013
(dp99
g24
(dp100
Vinns
p101
I3
sVc
I2
sVro
p102
I2
sVm
I7
sVs
I0
ssg28
(dp103
Vinns
p104
I4
sV10w
p105
I0
sVnb
p106
I0
sVmaid
p107
I0
sVwb
p108
I1
sVbbmw
p109
I2
sV6s
p110
I0
sVbbmr
p111
I34
sVbbir
p112
I34
sVbbiw
p113
I2
sVa
V50.50
p114
sVb
I84
sVe
V7.21
p115
sVd
I31
sVwmaid
p116
I0
sV4w
p117
I0
sVm
I7
sV4s
p118
I15
sVr
I101
sVw
I2
sVsr
p119
V42.00
p120
sVov
p121
V14.00
p122
sV5w
p123
I0
ssg48
(dp124
Va
V24.00
p125
sVb
I60
sVinns
p126
I5
sVno
p127
I1
sVsr
p128
V160.00
p129
sVm
I7
sV4s
p130
I8
sV6s
p131
I7
sVhs
p132
V77*
p133
sVr
V96
p134
sV100s
p135
I0
sV50s
p136
I1
ssg62
I2013
stp137
a(Vipl2013
(dp138
g24
(dp139
Vinns
p140
I1
sVc
I1
sVro
p141
I0
sVm
I13
sVs
I0
ssg28
(dp142
Vinns
p143
I10
sV10w
p144
I0
sVnb
p145
I0
sVmaid
p146
I0
sVwb
p147
I1
sVbbmw
p148
I2
sV6s
p149
I2
sVbbmr
p150
I27
sVbbir
p151
I27
sVbbiw
p152
I2
sVa
V25.33
p153
sVb
I132
sVe
V6.90
p154
sVd
I39
sVwmaid
p155
I0
sV4w
p156
I0
sVm
I13
sV4s
p157
I11
sVr
I152
sVw
I6
sVsr
p158
V22.00
p159
sVov
p160
V22.00
p161
sV5w
p162
I0
ssg48
(dp163
Va
V19.83
p164
sVb
I190
sVinns
p165
I13
sVno
p166
I1
sVsr
p167
V125.26
p168
sVm
I13
sV4s
p169
I14
sV6s
p170
I15
sVhs
p171
V34
p172
sVr
V238
p173
sV100s
p174
I0
sV50s
p175
I0
ssg62
I2013
stp176
a(Vsa-ind-2013
p177
(dp178
g24
(dp179
Vinns
p180
I1
sVc
I1
sVro
p181
I0
sVm
I2
sVs
I0
ssg28
(dp182
Vinns
p183
I0
sV10w
p184
I0
sVnb
p185
I0
sVmaid
p186
I0
sVwb
p187
I0
sVbbmw
p188
I0
sV6s
p189
I0
sVbbmr
p190
I0
sVbbir
p191
I0
sVbbiw
p192
I0
sVa
V-
sVb
I0
sVe
V-
sVd
I0
sVwmaid
p193
I0
sV4w
p194
I0
sVm
I2
sV4s
p195
I0
sVr
I0
sVw
I0
sVsr
p196
V-
sVov
p197
V-
sV5w
p198
I0
ssg48
(dp199
Va
V0.00
p200
sVb
I2
sVinns
p201
I1
sVno
p202
I0
sVsr
p203
V0.00
p204
sVm
I2
sV4s
p205
I0
sV6s
p206
I0
sVhs
p207
V0*
p208
sVr
V0
sV100s
p209
I0
sV50s
p210
I0
ssg62
I2013
stp211
a(Vind-pak-2012-13
(dp212
g24
(dp213
Vinns
p214
I2
sVc
I2
sVro
p215
I0
sVm
I5
sVs
I0
ssg28
(dp216
Vinns
p217
I4
sV10w
p218
I0
sVnb
p219
I0
sVmaid
p220
I0
sVwb
p221
I0
sVbbmw
p222
I1
sV6s
p223
I3
sVbbmr
p224
I23
sVbbir
p225
I23
sVbbiw
p226
I1
sVa
V91.00
p227
sVb
I66
sVe
V8.27
p228
sVd
I17
sVwmaid
p229
I0
sV4w
p230
I0
sVm
I5
sV4s
p231
I7
sVr
I91
sVw
I1
sVsr
p232
V66.00
p233
sVov
p234
V11.00
p235
sV5w
p236
I0
ssg48
(dp237
Va
V23.20
p238
sVb
I90
sVinns
p239
I5
sVno
p240
I0
sVsr
p241
V128.88
p242
sVm
I5
sV4s
p243
I8
sV6s
p244
I8
sVhs
p245
V72
p246
sVr
V116
p247
sV100s
p248
I0
sV50s
p249
I1
ssg62
I2012
stp250
a(Vworldt20-2012
(dp251
g24
(dp252
Vinns
p253
I2
sVc
I1
sVro
p254
I1
sVm
I7
sVs
I0
ssg28
(dp255
Vinns
p256
I6
sV10w
p257
I0
sVnb
p258
I0
sVmaid
p259
I0
sVwb
p260
I0
sVbbmw
p261
I3
sV6s
p262
I3
sVbbmr
p263
I24
sVbbir
p264
I24
sVbbiw
p265
I3
sVa
V11.50
p266
sVb
I88
sVe
V6.27
p267
sVd
I40
sVwmaid
p268
I0
sV4w
p269
I0
sVm
I7
sV4s
p270
I7
sVr
I92
sVw
I8
sVsr
p271
V11.00
p272
sVov
p273
V14.66
p274
sV5w
p275
I0
ssg48
(dp276
Va
V20.25
p277
sVb
I78
sVinns
p278
I6
sVno
p279
I2
sVsr
p280
V103.84
p281
sVm
I7
sV4s
p282
I6
sV6s
p283
I3
sVhs
p284
V21
p285
sVr
V81
p286
sV100s
p287
I0
sV50s
p288
I0
ssg62
I2012
stp289
a(Vind-eng-2012-13
(dp290
g24
(dp291
Vinns
p292
I2
sVc
I5
sVro
p293
I0
sVm
I10
sVs
I0
ssg28
(dp294
Vinns
p295
I8
sV10w
p296
I0
sVnb
p297
I0
sVmaid
p298
I1
sVwb
p299
I0
sVbbmw
p300
I3
sV6s
p301
I0
sVbbmr
p302
I17
sVbbir
p303
I17
sVbbiw
p304
I3
sVa
V19.33
p305
sVb
I162
sVe
V4.29
p306
sVd
I88
sVwmaid
p307
I0
sV4w
p308
I0
sVm
I10
sV4s
p309
I11
sVr
I116
sVw
I6
sVsr
p310
V27.00
p311
sVov
p312
V27.00
p313
sV5w
p314
I0
ssg48
(dp315
Va
V24.41
p316
sVb
I391
sVinns
p317
I12
sVno
p318
I0
sVsr
p319
V74.93
p320
sVm
I10
sV4s
p321
I34
sV6s
p322
I7
sVhs
p323
V74
p324
sVr
V293
p325
sV100s
p326
I0
sV50s
p327
I2
ssg62
I2012
stp328
a(Vpre-worldt20-2012
(dp329
g24
(dp330
Vinns
p331
I2
sVc
I2
sVro
p332
I0
sVm
I2
sVs
I0
ssg28
(dp333
Vinns
p334
I2
sV10w
p335
I0
sVnb
p336
I0
sVmaid
p337
I0
sVwb
p338
I0
sVbbmw
p339
I0
sV6s
p340
I2
sVbbmr
p341
I14
sVbbir
p342
I14
sVbbiw
p343
I0
sVa
V-
sVb
I24
sVe
V7.00
p344
sVd
I6
sVwmaid
p345
I0
sV4w
p346
I0
sVm
I2
sV4s
p347
I0
sVr
I28
sVw
I0
sVsr
p348
V-
sVov
p349
V4.00
p350
sV5w
p351
I0
ssg48
(dp352
Va
V34.00
p353
sVb
I26
sVinns
p354
I1
sVno
p355
I0
sVsr
p356
V130.76
p357
sVm
I2
sV4s
p358
I1
sV6s
p359
I2
sVhs
p360
V34
p361
sVr
V34
p362
sV100s
p363
I0
sV50s
p364
I0
ssg62
I2012
stp365
a(Vipl2011
(dp366
g24
(dp367
Vinns
p368
I4
sVc
I5
sVro
p369
I1
sVm
I14
sVs
I0
ssg28
(dp370
Vinns
p371
I13
sV10w
p372
I0
sVnb
p373
I1
sVmaid
p374
I0
sVwb
p375
I0
sVbbmw
p376
I4
sV6s
p377
I7
sVbbmr
p378
I29
sVbbir
p379
I29
sVbbiw
p380
I4
sVa
V21.33
p381
sVb
I174
sVe
V6.62
p382
sVd
I61
sVwmaid
p383
I0
sV4w
p384
I1
sVm
I14
sV4s
p385
I9
sVr
I192
sVw
I9
sVsr
p386
V19.33
p387
sVov
p388
V29.00
p389
sV5w
p390
I0
ssg48
(dp391
Va
V34.30
p392
sVb
I261
sVinns
p393
I13
sVno
p394
I3
sVsr
p395
V131.41
p396
sVm
I14
sV4s
p397
I24
sV6s
p398
I18
sVhs
p399
V66*
p400
sVr
V343
p401
sV100s
p402
I0
sV50s
p403
I2
ssg62
I2011
stp404
a(Vipl2010
(dp405
g24
(dp406
Vinns
p407
I2
sVc
I2
sVro
p408
I0
sVm
I14
sVs
I0
ssg28
(dp409
Vinns
p410
I10
sV10w
p411
I0
sVnb
p412
I0
sVmaid
p413
I0
sVwb
p414
I1
sVbbmw
p415
I2
sV6s
p416
I6
sVbbmr
p417
I21
sVbbir
p418
I21
sVbbiw
p419
I2
sVa
V30.40
p420
sVb
I138
sVe
V6.60
p421
sVd
I45
sVwmaid
p422
I0
sV4w
p423
I0
sVm
I14
sV4s
p424
I8
sVr
I152
sVw
I5
sVsr
p425
V27.60
p426
sVov
p427
V23.00
p428
sV5w
p429
I0
ssg48
(dp430
Va
V21.25
p431
sVb
I199
sVinns
p432
I14
sVno
p433
I2
sVsr
p434
V128.14
p435
sVm
I14
sV4s
p436
I20
sV6s
p437
I14
sVhs
p438
V43
p439
sVr
V255
p440
sV100s
p441
I0
sV50s
p442
I0
ssg62
I2010
stp443
a(Vipl2009
(dp444
g24
(dp445
Vinns
p446
I6
sVc
I7
sVro
p447
I1
sVm
I14
sVs
I0
ssg28
(dp448
Vinns
p449
I9
sV10w
p450
I0
sVnb
p451
I0
sVmaid
p452
I0
sVwb
p453
I1
sVbbmw
p454
I3
sV6s
p455
I4
sVbbmr
p456
I13
sVbbir
p457
I13
sVbbiw
p458
I3
sVa
V23.66
p459
sVb
I120
sVe
V7.10
p460
sVd
I48
sVwmaid
p461
I0
sV4w
p462
I0
sVm
I14
sV4s
p463
I9
sVr
I142
sVw
I6
sVsr
p464
V20.00
p465
sVov
p466
V20.00
p467
sV5w
p468
I0
ssg48
(dp469
Va
V28.33
p470
sVb
I294
sVinns
p471
I14
sVno
p472
I2
sVsr
p473
V115.64
p474
sVm
I14
sV4s
p475
I25
sV6s
p476
I16
sVhs
p477
V58*
p478
sVr
V340
p479
sV100s
p480
I0
sV50s
p481
I2
ssg62
I2009
stp482
a(Vipl2008
(dp483
g24
(dp484
Vinns
p485
I6
sVc
I8
sVro
p486
I3
sVm
I15
sVs
I0
ssg28
(dp487
Vinns
p488
I6
sV10w
p489
I0
sVnb
p490
I0
sVmaid
p491
I0
sVwb
p492
I2
sVbbmw
p493
I2
sV6s
p494
I4
sVbbmr
p495
I12
sVbbir
p496
I12
sVbbiw
p497
I2
sVa
V27.66
p498
sVb
I54
sVe
V9.22
p499
sVd
I12
sVwmaid
p500
I0
sV4w
p501
I0
sVm
I15
sV4s
p502
I5
sVr
I83
sVw
I3
sVsr
p503
V18.00
p504
sVov
p505
V9.00
p506
sV5w
p507
I0
ssg48
(dp508
Va
V23.00
p509
sVb
I184
sVinns
p510
I14
sVno
p511
I1
sVsr
p512
V162.50
p513
sVm
I15
sV4s
p514
I24
sV6s
p515
I19
sVhs
p516
V57
p517
sVr
V299
p518
sV100s
p519
I0
sV50s
p520
I1
ssg62
I2008
stp521
asb.