(iplayer
Player
p1
(dp2
S'is_batsman'
p3
I00
sS'name'
p4
S'Sunil Narine'
p5
sS'dob'
p6
S'1988/05/26'
p7
sS'price'
p8
S'1050000'
p9
sS'is_allrounder'
p10
I00
sS'is_overseas'
p11
I01
sS'team'
p12
S'KKR'
p13
sS'nationality'
p14
S'West Indian'
p15
sS'is_bowler'
p16
I01
sS'is_keeper'
p17
I00
sS'id'
p18
S'203'
p19
sS'is_uncapped'
p20
I00
sS'tournamentStats'
p21
(lp22
(Vworldt20-2014
(dp23
S'fieldingStats'
p24
(dp25
Vinns
p26
I0
sVc
I0
sVro
p27
I0
sVm
I2
sVs
I0
ssS'bowlingStats'
p28
(dp29
Vinns
p30
I2
sV10w
p31
I0
sVnb
p32
I1
sVmaid
p33
I0
sVwb
p34
I1
sVbbmw
p35
I1
sV6s
p36
I1
sVbbmr
p37
I17
sVbbir
p38
I17
sVbbiw
p39
I1
sVa
V37.00
p40
sVb
I48
sVe
V4.62
p41
sVd
I22
sVwmaid
p42
I0
sV4w
p43
I0
sVm
I2
sV4s
p44
I1
sVr
I37
sVw
I1
sVsr
p45
V48.00
p46
sVov
p47
V8.00
p48
sV5w
p49
I0
ssS'battingStats'
p50
(dp51
Va
V-
sVb
I2
sVinns
p52
I1
sVno
p53
I1
sVsr
p54
V350.00
p55
sVm
I2
sV4s
p56
I0
sV6s
p57
I1
sVhs
p58
V7*
p59
sVr
V7
sV100s
p60
I0
sV50s
p61
I0
ssS'year'
p62
I2014
stp63
a(Vwi-eng-2014
p64
(dp65
g24
(dp66
Vinns
p67
I2
sVc
I2
sVro
p68
I0
sVm
I5
sVs
I0
ssg28
(dp69
Vinns
p70
I5
sV10w
p71
I0
sVnb
p72
I1
sVmaid
p73
I2
sVwb
p74
I6
sVbbmw
p75
I2
sV6s
p76
I3
sVbbmr
p77
I36
sVbbir
p78
I36
sVbbiw
p79
I2
sVa
V25.83
p80
sVb
I216
sVe
V4.30
p81
sVd
I130
sVwmaid
p82
I2
sV4w
p83
I0
sVm
I5
sV4s
p84
I11
sVr
I155
sVw
I6
sVsr
p85
V36.00
p86
sVov
p87
V36.00
p88
sV5w
p89
I0
ssg50
(dp90
Va
V7.00
p91
sVb
I11
sVinns
p92
I3
sVno
p93
I1
sVsr
p94
V127.27
p95
sVm
I5
sV4s
p96
I1
sV6s
p97
I1
sVhs
p98
V10
p99
sVr
V14
p100
sV100s
p101
I0
sV50s
p102
I0
ssg62
I2014
stp103
a(Vind-wi-2013
(dp104
g24
(dp105
Vinns
p106
I1
sVc
I1
sVro
p107
I0
sVm
I3
sVs
I0
ssg28
(dp108
Vinns
p109
I3
sV10w
p110
I0
sVnb
p111
I0
sVmaid
p112
I4
sVwb
p113
I6
sVbbmw
p114
I1
sV6s
p115
I2
sVbbmr
p116
I32
sVbbir
p117
I32
sVbbiw
p118
I1
sVa
V64.00
p119
sVb
I180
sVe
V4.26
p120
sVd
I117
sVwmaid
p121
I0
sV4w
p122
I0
sVm
I3
sV4s
p123
I13
sVr
I128
sVw
I2
sVsr
p124
V90.00
p125
sVov
p126
V30.00
p127
sV5w
p128
I0
ssg50
(dp129
Va
V0.00
p130
sVb
I9
sVinns
p131
I2
sVno
p132
I0
sVsr
p133
V0.00
p134
sVm
I3
sV4s
p135
I0
sV6s
p136
I0
sVhs
p137
V0*
p138
sVr
V0
sV100s
p139
I0
sV50s
p140
I0
ssg62
I2013
stp141
a(Vaus-wi-t20-2013
(dp142
g24
(dp143
Vinns
p144
I0
sVc
I0
sVro
p145
I0
sVm
I1
sVs
I0
ssg28
(dp146
Vinns
p147
I1
sV10w
p148
I0
sVnb
p149
I0
sVmaid
p150
I0
sVwb
p151
I0
sVbbmw
p152
I2
sV6s
p153
I0
sVbbmr
p154
I19
sVbbir
p155
I19
sVbbiw
p156
I2
sVa
V9.50
p157
sVb
I24
sVe
V4.75
p158
sVd
I9
sVwmaid
p159
I0
sV4w
p160
I0
sVm
I1
sV4s
p161
I0
sVr
I19
sVw
I2
sVsr
p162
V12.00
p163
sVov
p164
V4.00
p165
sV5w
p166
I0
ssg50
(dp167
Va
V-
sVinns
p168
I0
sVno
p169
I0
sVsr
p170
V-
sVm
I1
sV4s
p171
I0
sV6s
p172
I0
sVhs
p173
V0*
p174
sVr
V0
sV100s
p175
I0
sV50s
p176
I0
ssg62
I2013
stp177
a(Vwi-pak-2013
(dp178
g24
(dp179
Vinns
p180
I1
sVc
I1
sVro
p181
I0
sVm
I7
sVs
I0
ssg28
(dp182
Vinns
p183
I7
sV10w
p184
I0
sVnb
p185
I0
sVmaid
p186
I1
sVwb
p187
I11
sVbbmw
p188
I4
sV6s
p189
I5
sVbbmr
p190
I26
sVbbir
p191
I26
sVbbiw
p192
I4
sVa
V29.25
p193
sVb
I282
sVe
V4.97
p194
sVd
I147
sVwmaid
p195
I1
sV4w
p196
I1
sVm
I7
sV4s
p197
I14
sVr
I234
sVw
I8
sVsr
p198
V35.25
p199
sVov
p200
V47.00
p201
sV5w
p202
I0
ssg50
(dp203
Va
V14.25
p204
sVb
I53
sVinns
p205
I6
sVno
p206
I2
sVsr
p207
V107.54
p208
sVm
I7
sV4s
p209
I7
sV6s
p210
I2
sVhs
p211
V28
p212
sVr
V57
p213
sV100s
p214
I0
sV50s
p215
I0
ssg62
I2013
stp216
a(Vaus-wi-2013
(dp217
g24
(dp218
Vinns
p219
I1
sVc
I1
sVro
p220
I0
sVm
I5
sVs
I0
ssg28
(dp221
Vinns
p222
I5
sV10w
p223
I0
sVnb
p224
I0
sVmaid
p225
I2
sVwb
p226
I2
sVbbmw
p227
I2
sV6s
p228
I1
sVbbmr
p229
I34
sVbbir
p230
I34
sVbbiw
p231
I2
sVa
V34.80
p232
sVb
I258
sVe
V4.04
p233
sVd
I151
sVwmaid
p234
I0
sV4w
p235
I0
sVm
I5
sV4s
p236
I16
sVr
I174
sVw
I5
sVsr
p237
V51.60
p238
sVov
p239
V43.00
p240
sV5w
p241
I0
ssg50
(dp242
Va
V9.60
p243
sVb
I45
sVinns
p244
I5
sVno
p245
I0
sVsr
p246
V106.66
p247
sVm
I5
sV4s
p248
I3
sV6s
p249
I4
sVhs
p250
V24
p251
sVr
V48
p252
sV100s
p253
I0
sV50s
p254
I0
ssg62
I2013
stp255
a(Vtriseries-wi-2013
(dp256
g24
(dp257
Vinns
p258
I0
sVc
I0
sVro
p259
I0
sVm
I3
sVs
I0
ssg28
(dp260
Vinns
p261
I3
sV10w
p262
I0
sVnb
p263
I0
sVmaid
p264
I1
sVwb
p265
I1
sVbbmw
p266
I4
sV6s
p267
I4
sVbbmr
p268
I40
sVbbir
p269
I40
sVbbiw
p270
I4
sVa
V32.75
p271
sVb
I150
sVe
V5.24
p272
sVd
I80
sVwmaid
p273
I0
sV4w
p274
I1
sVm
I3
sV4s
p275
I13
sVr
I131
sVw
I4
sVsr
p276
V37.50
p277
sVov
p278
V25.00
p279
sV5w
p280
I0
ssg50
(dp281
Va
V13.00
p282
sVb
I45
sVinns
p283
I2
sVno
p284
I0
sVsr
p285
V57.77
p286
sVm
I3
sV4s
p287
I0
sV6s
p288
I2
sVhs
p289
V21
p290
sVr
V26
p291
sV100s
p292
I0
sV50s
p293
I0
ssg62
I2013
stp294
a(Vwi-zim-2013
(dp295
g24
(dp296
Vinns
p297
I1
sVc
I1
sVro
p298
I0
sVm
I5
sVs
I0
ssg28
(dp299
Vinns
p300
I5
sV10w
p301
I0
sVnb
p302
I0
sVmaid
p303
I5
sVwb
p304
I2
sVbbmw
p305
I3
sV6s
p306
I4
sVbbmr
p307
I28
sVbbir
p308
I28
sVbbiw
p309
I3
sVa
V23.28
p310
sVb
I228
sVe
V4.28
p311
sVd
I143
sVwmaid
p312
I3
sV4w
p313
I0
sVm
I5
sV4s
p314
I16
sVr
I163
sVw
I7
sVsr
p315
V32.57
p316
sVov
p317
V38.00
p318
sV5w
p319
I0
ssg50
(dp320
Va
V-
sVb
I1
sVinns
p321
I1
sVno
p322
I1
sVsr
p323
V100.00
p324
sVm
I5
sV4s
p325
I0
sV6s
p326
I0
sVhs
p327
V1*
p328
sVr
V1
sV100s
p329
I0
sV50s
p330
I0
ssg62
I2013
stp331
a(Vclt20-2013
(dp332
g24
(dp333
Vinns
p334
I1
sVc
I1
sVro
p335
I0
sVm
I5
sVs
I0
ssg28
(dp336
Vinns
p337
I5
sV10w
p338
I0
sVnb
p339
I1
sVmaid
p340
I1
sVwb
p341
I1
sVbbmw
p342
I4
sV6s
p343
I2
sVbbmr
p344
I9
sVbbir
p345
I9
sVbbiw
p346
I4
sVa
V7.81
p347
sVb
I120
sVe
V4.30
p348
sVd
I63
sVwmaid
p349
I1
sV4w
p350
I1
sVm
I5
sV4s
p351
I3
sVr
I86
sVw
I11
sVsr
p352
V10.90
p353
sVov
p354
V20.00
p355
sV5w
p356
I0
ssg50
(dp357
Va
V8.00
p358
sVb
I14
sVinns
p359
I3
sVno
p360
I1
sVsr
p361
V114.28
p362
sVm
I5
sV4s
p363
I0
sV6s
p364
I1
sVhs
p365
V8*
p366
sVr
V16
p367
sV100s
p368
I0
sV50s
p369
I0
ssg62
I2013
stp370
a(Vchamptrophy-2013-warmups
(dp371
g24
(dp372
Vinns
p373
I1
sVc
I0
sVro
p374
I1
sVm
I2
sVs
I0
ssg28
(dp375
Vinns
p376
I2
sV10w
p377
I0
sVnb
p378
I0
sVmaid
p379
I1
sVwb
p380
I0
sVbbmw
p381
I2
sV6s
p382
I1
sVbbmr
p383
I26
sVbbir
p384
I26
sVbbiw
p385
I2
sVa
V38.00
p386
sVb
I114
sVe
V4.00
p387
sVd
I65
sVwmaid
p388
I0
sV4w
p389
I0
sVm
I2
sV4s
p390
I6
sVr
I76
sVw
I2
sVsr
p391
V57.00
p392
sVov
p393
V19.00
p394
sV5w
p395
I0
ssg50
(dp396
Va
V4.00
p397
sVb
I10
sVinns
p398
I2
sVno
p399
I0
sVsr
p400
V80.00
p401
sVm
I2
sV4s
p402
I1
sV6s
p403
I0
sVhs
p404
V5
sVr
V8
sV100s
p405
I0
sV50s
p406
I0
ssg62
I2013
stp407
a(Vchamptrophy-2013
(dp408
g24
(dp409
Vinns
p410
I0
sVc
I0
sVro
p411
I0
sVm
I3
sVs
I0
ssg28
(dp412
Vinns
p413
I3
sV10w
p414
I0
sVnb
p415
I0
sVmaid
p416
I1
sVwb
p417
I0
sVbbmw
p418
I3
sV6s
p419
I3
sVbbmr
p420
I34
sVbbir
p421
I34
sVbbiw
p422
I3
sVa
V26.00
p423
sVb
I162
sVe
V4.81
p424
sVd
I93
sVwmaid
p425
I0
sV4w
p426
I0
sVm
I3
sV4s
p427
I10
sVr
I130
sVw
I5
sVsr
p428
V32.40
p429
sVov
p430
V27.00
p431
sV5w
p432
I0
ssg50
(dp433
Va
V6.50
p434
sVb
I16
sVinns
p435
I2
sVno
p436
I0
sVsr
p437
V81.25
p438
sVm
I3
sV4s
p439
I2
sV6s
p440
I0
sVhs
p441
V11
p442
sVr
V13
p443
sV100s
p444
I0
sV50s
p445
I0
ssg62
I2013
stp446
a(Vnz-wi-2013
(dp447
g24
(dp448
Vinns
p449
I0
sVc
I0
sVro
p450
I0
sVm
I7
sVs
I0
ssg28
(dp451
Vinns
p452
I8
sV10w
p453
I0
sVnb
p454
I2
sVmaid
p455
I25
sVwb
p456
I2
sVbbmw
p457
I6
sV6s
p458
I10
sVbbmr
p459
I130
sVbbir
p460
I91
sVbbiw
p461
I6
sVa
V31.81
p462
sVb
I578
sVe
V3.63
p463
sVd
I397
sVwmaid
p464
I4
sV4w
p465
I0
sVm
I7
sV4s
p466
I35
sVr
I350
sVw
I11
sVsr
p467
V52.54
p468
sVov
p469
V96.33
p470
sV5w
p471
I1
ssg50
(dp472
Va
V1.00
p473
sVb
I24
sVinns
p474
I4
sVno
p475
I2
sVsr
p476
V8.33
p477
sVm
I7
sV4s
p478
I0
sV6s
p479
I0
sVhs
p480
V2
sVr
V2
sV100s
p481
I0
sV50s
p482
I0
ssg62
I2013
stp483
a(Vipl2013
(dp484
g24
(dp485
Vinns
p486
I5
sVc
I6
sVro
p487
I0
sVm
I16
sVs
I0
ssg28
(dp488
Vinns
p489
I16
sV10w
p490
I0
sVnb
p491
I0
sVmaid
p492
I1
sVwb
p493
I3
sVbbmw
p494
I4
sV6s
p495
I8
sVbbmr
p496
I13
sVbbir
p497
I13
sVbbiw
p498
I4
sVa
V15.90
p499
sVb
I384
sVe
V5.46
p500
sVd
I180
sVwmaid
p501
I0
sV4w
p502
I2
sVm
I16
sV4s
p503
I28
sVr
I350
sVw
I22
sVsr
p504
V17.45
p505
sVov
p506
V64.00
p507
sV5w
p508
I0
ssg50
(dp509
Va
V7.00
p510
sVb
I19
sVinns
p511
I6
sVno
p512
I3
sVsr
p513
V110.52
p514
sVm
I16
sV4s
p515
I0
sV6s
p516
I2
sVhs
p517
V13
p518
sVr
V21
p519
sV100s
p520
I0
sV50s
p521
I0
ssg62
I2013
stp522
a(Vipl2012
(dp523
g24
(dp524
Vinns
p525
I2
sVc
I1
sVro
p526
I1
sVm
I15
sVs
I0
ssg28
(dp527
Vinns
p528
I15
sV10w
p529
I0
sVnb
p530
I0
sVmaid
p531
I1
sVwb
p532
I2
sVbbmw
p533
I5
sV6s
p534
I10
sVbbmr
p535
I19
sVbbir
p536
I19
sVbbiw
p537
I5
sVa
V13.50
p538
sVb
I355
sVe
V5.47
p539
sVd
I164
sVwmaid
p540
I1
sV4w
p541
I1
sVm
I15
sV4s
p542
I18
sVr
I324
sVw
I24
sVsr
p543
V14.79
p544
sVov
p545
V59.16
p546
sV5w
p547
I1
ssg50
(dp548
Va
V9.00
p549
sVb
I7
sVinns
p550
I2
sVno
p551
I1
sVsr
p552
V128.57
p553
sVm
I15
sV4s
p554
I2
sV6s
p555
I0
sVhs
p556
V9*
p557
sVr
V9
sV100s
p558
I0
sV50s
p559
I0
ssg62
I2012
stp560
a(Vclt20-2012
(dp561
g24
(dp562
Vinns
p563
I3
sVc
I4
sVro
p564
I0
sVm
I4
sVs
I0
ssg28
(dp565
Vinns
p566
I4
sV10w
p567
I0
sVnb
p568
I0
sVmaid
p569
I0
sVwb
p570
I0
sVbbmw
p571
I3
sV6s
p572
I1
sVbbmr
p573
I21
sVbbir
p574
I21
sVbbiw
p575
I3
sVa
V10.33
p576
sVb
I76
sVe
V4.89
p577
sVd
I36
sVwmaid
p578
I0
sV4w
p579
I0
sVm
I4
sV4s
p580
I5
sVr
I62
sVw
I6
sVsr
p581
V12.66
p582
sVov
p583
V12.66
p584
sV5w
p585
I0
ssg50
(dp586
Va
V-
sVb
I3
sVinns
p587
I1
sVno
p588
I1
sVsr
p589
V33.33
p590
sVm
I4
sV4s
p591
I0
sV6s
p592
I0
sVhs
p593
V1*
p594
sVr
V1
sV100s
p595
I0
sV50s
p596
I0
ssg62
I2012
stp597
a(Vbigbash-2012
(dp598
g24
(dp599
Vinns
p600
I1
sVc
I1
sVro
p601
I0
sVm
I5
sVs
I0
ssg28
(dp602
Vinns
p603
I5
sV10w
p604
I0
sVnb
p605
I4
sVmaid
p606
I0
sVwb
p607
I2
sVbbmw
p608
I1
sV6s
p609
I6
sVbbmr
p610
I23
sVbbir
p611
I23
sVbbiw
p612
I1
sVa
V136.00
p613
sVb
I120
sVe
V6.80
p614
sVd
I51
sVwmaid
p615
I0
sV4w
p616
I0
sVm
I5
sV4s
p617
I6
sVr
I136
sVw
I1
sVsr
p618
V120.00
p619
sVov
p620
V20.00
p621
sV5w
p622
I0
ssg50
(dp623
Va
V11.00
p624
sVb
I9
sVinns
p625
I2
sVno
p626
I1
sVsr
p627
V122.22
p628
sVm
I5
sV4s
p629
I1
sV6s
p630
I1
sVhs
p631
V6*
p632
sVr
V11
p633
sV100s
p634
I0
sV50s
p635
I0
ssg62
I2012
stp636
a(Vworldt20-2012
(dp637
g24
(dp638
Vinns
p639
I0
sVc
I0
sVro
p640
I0
sVm
I9
sVs
I0
ssg28
(dp641
Vinns
p642
I9
sV10w
p643
I0
sVnb
p644
I4
sVmaid
p645
I0
sVwb
p646
I3
sVbbmw
p647
I3
sV6s
p648
I4
sVbbmr
p649
I9
sVbbir
p650
I9
sVbbiw
p651
I3
sVa
V16.63
p652
sVb
I190
sVe
V5.77
p653
sVd
I84
sVwmaid
p654
I0
sV4w
p655
I0
sVm
I9
sV4s
p656
I12
sVr
I183
sVw
I11
sVsr
p657
V17.27
p658
sVov
p659
V31.66
p660
sV5w
p661
I0
ssg50
(dp662
Va
V7.00
p663
sVb
I5
sVinns
p664
I2
sVno
p665
I1
sVsr
p666
V140.00
p667
sVm
I9
sV4s
p668
I1
sV6s
p669
I0
sVhs
p670
V4*
p671
sVr
V7
sV100s
p672
I0
sV50s
p673
I0
ssg62
I2012
stp674
a(Vclt20-2011
(dp675
g24
(dp676
Vinns
p677
I1
sVc
I2
sVro
p678
I0
sVm
I6
sVs
I0
ssg28
(dp679
Vinns
p680
I6
sV10w
p681
I0
sVnb
p682
I2
sVmaid
p683
I0
sVwb
p684
I1
sVbbmw
p685
I3
sV6s
p686
I2
sVbbmr
p687
I8
sVbbir
p688
I8
sVbbiw
p689
I3
sVa
V10.50
p690
sVb
I144
sVe
V4.37
p691
sVd
I70
sVwmaid
p692
I0
sV4w
p693
I0
sVm
I6
sV4s
p694
I3
sVr
I105
sVw
I10
sVsr
p695
V14.40
p696
sVov
p697
V24.00
p698
sV5w
p699
I0
ssg50
(dp700
Va
V12.00
p701
sVb
I10
sVinns
p702
I2
sVno
p703
I1
sVsr
p704
V120.00
p705
sVm
I6
sV4s
p706
I1
sV6s
p707
I0
sVhs
p708
V11
p709
sVr
V12
p710
sV100s
p711
I0
sV50s
p712
I0
ssg62
I2011
stp713
asb.