(iplayer
Player
p1
(dp2
S'is_batsman'
p3
I00
sS'name'
p4
S'Vinay Kumar'
p5
sS'dob'
p6
S'1984/02/12'
p7
sS'price'
p8
S'900000'
p9
sS'is_allrounder'
p10
I00
sS'is_overseas'
p11
I00
sS'team'
p12
S'KKR'
p13
sS'nationality'
p14
S'Indian'
p15
sS'is_bowler'
p16
I01
sS'is_keeper'
p17
I00
sS'id'
p18
S'166'
p19
sS'is_uncapped'
p20
I00
sS'tournamentStats'
p21
(lp22
(Vzim-ind-2013
(dp23
S'fieldingStats'
p24
(dp25
Vinns
p26
I0
sVc
I0
sVro
p27
I0
sVm
I3
sVs
I0
ssS'bowlingStats'
p28
(dp29
Vinns
p30
I3
sV10w
p31
I0
sVnb
p32
I0
sVmaid
p33
I3
sVwb
p34
I2
sVbbmw
p35
I1
sV6s
p36
I5
sVbbmr
p37
I32
sVbbir
p38
I32
sVbbiw
p39
I1
sVa
V69.00
p40
sVb
I150
sVe
V5.52
p41
sVd
I93
sVwmaid
p42
I0
sV4w
p43
I0
sVm
I3
sV4s
p44
I16
sVr
I138
sVw
I2
sVsr
p45
V75.00
p46
sVov
p47
V25.00
p48
sV5w
p49
I0
ssS'battingStats'
p50
(dp51
Va
V-
sVb
I12
sVinns
p52
I1
sVno
p53
I1
sVsr
p54
V225.00
p55
sVm
I3
sV4s
p56
I2
sV6s
p57
I2
sVhs
p58
V27*
p59
sVr
V27
p60
sV100s
p61
I0
sV50s
p62
I0
ssS'year'
p63
I2013
stp64
a(Vind-aus-2-2013
(dp65
g24
(dp66
Vinns
p67
I2
sVc
I2
sVro
p68
I0
sVm
I6
sVs
I0
ssg28
(dp69
Vinns
p70
I6
sV10w
p71
I0
sVnb
p72
I1
sVmaid
p73
I1
sVwb
p74
I5
sVbbmw
p75
I3
sV6s
p76
I17
sVbbmr
p77
I26
sVbbir
p78
I26
sVbbiw
p79
I3
sVa
V33.72
p80
sVb
I285
sVe
V7.81
p81
sVd
I134
sVwmaid
p82
I0
sV4w
p83
I0
sVm
I6
sV4s
p84
I38
sVr
I371
sVw
I11
sVsr
p85
V25.90
p86
sVov
p87
V47.50
p88
sV5w
p89
I0
ssg50
(dp90
Va
V5.50
p91
sVb
I20
sVinns
p92
I2
sVno
p93
I0
sVsr
p94
V55.00
p95
sVm
I6
sV4s
p96
I1
sV6s
p97
I0
sVhs
p98
V11
p99
sVr
V11
p100
sV100s
p101
I0
sV50s
p102
I0
ssg63
I2013
stp103
a(Vtriseries-wi-2013
(dp104
g24
(dp105
Vinns
p106
I1
sVc
I2
sVro
p107
I0
sVm
I1
sVs
I0
ssg28
(dp108
Vinns
p109
I1
sV10w
p110
I0
sVnb
p111
I0
sVmaid
p112
I1
sVwb
p113
I0
sVbbmw
p114
I0
sV6s
p115
I0
sVbbmr
p116
I15
sVbbir
p117
I15
sVbbiw
p118
I0
sVa
V-
sVb
I36
sVe
V2.50
p119
sVd
I24
sVwmaid
p120
I0
sV4w
p121
I0
sVm
I1
sV4s
p122
I1
sVr
I15
sVw
I0
sVsr
p123
V-
sVov
p124
V6.00
p125
sV5w
p126
I0
ssg50
(dp127
Va
V5.00
p128
sVb
I16
sVinns
p129
I1
sVno
p130
I0
sVsr
p131
V31.25
p132
sVm
I1
sV4s
p133
I0
sV6s
p134
I0
sVhs
p135
V5
sVr
V5
sV100s
p136
I0
sV50s
p137
I0
ssg63
I2013
stp138
a(Vchamptrophy-2013-warmups
(dp139
g24
(dp140
Vinns
p141
I0
sVc
I0
sVro
p142
I0
sVm
I2
sVs
I0
ssg28
(dp143
Vinns
p144
I1
sV10w
p145
I0
sVnb
p146
I1
sVmaid
p147
I0
sVwb
p148
I0
sVbbmw
p149
I0
sV6s
p150
I0
sVbbmr
p151
I0
sVbbir
p152
I0
sVbbiw
p153
I0
sVa
V-
sVb
I42
sVe
V6.00
p154
sVd
I20
sVwmaid
p155
I0
sV4w
p156
I0
sVm
I2
sV4s
p157
I5
sVr
I42
sVw
I0
sVsr
p158
V-
sVov
p159
V7.00
p160
sV5w
p161
I0
ssg50
(dp162
Va
V-
sVinns
p163
I0
sVno
p164
I0
sVsr
p165
V-
sVm
I2
sV4s
p166
I0
sV6s
p167
I0
sVhs
p168
V0*
p169
sVr
V0
sV100s
p170
I0
sV50s
p171
I0
ssg63
I2013
stp172
a(Vipl2013
p173
(dp174
g24
(dp175
Vinns
p176
I6
sVc
I8
sVro
p177
I2
sVm
I16
sVs
I0
ssg28
(dp178
Vinns
p179
I16
sV10w
p180
I0
sVnb
p181
I2
sVmaid
p182
I0
sVwb
p183
I7
sVbbmw
p184
I3
sV6s
p185
I13
sVbbmr
p186
I18
sVbbir
p187
I18
sVbbiw
p188
I3
sVa
V21.43
p189
sVb
I361
sVe
V8.19
p190
sVd
I124
sVwmaid
p191
I0
sV4w
p192
I0
sVm
I16
sV4s
p193
I48
sVr
I493
sVw
I23
sVsr
p194
V15.69
p195
sVov
p196
V60.16
p197
sV5w
p198
I0
ssg50
(dp199
Va
V70.00
p200
sVb
I44
sVinns
p201
I5
sVno
p202
I4
sVsr
p203
V159.09
p204
sVm
I16
sV4s
p205
I6
sV6s
p206
I3
sVhs
p207
V26*
p208
sVr
V70
p209
sV100s
p210
I0
sV50s
p211
I0
ssg63
I2013
stp212
a(Vipl2012
(dp213
g24
(dp214
Vinns
p215
I7
sVc
I6
sVro
p216
I1
sVm
I15
sVs
I0
ssg28
(dp217
Vinns
p218
I14
sV10w
p219
I0
sVnb
p220
I2
sVmaid
p221
I0
sVwb
p222
I9
sVbbmw
p223
I3
sV6s
p224
I20
sVbbmr
p225
I22
sVbbir
p226
I22
sVbbiw
p227
I3
sVa
V25.26
p228
sVb
I335
sVe
V8.59
p229
sVd
I123
sVwmaid
p230
I0
sV4w
p231
I0
sVm
I15
sV4s
p232
I44
sVr
I480
sVw
I19
sVsr
p233
V17.63
p234
sVov
p235
V55.83
p236
sV5w
p237
I0
ssg50
(dp238
Va
V13.60
p239
sVb
I62
sVinns
p240
I7
sVno
p241
I2
sVsr
p242
V109.67
p243
sVm
I15
sV4s
p244
I3
sV6s
p245
I2
sVhs
p246
V25
p247
sVr
V68
p248
sV100s
p249
I0
sV50s
p250
I0
ssg63
I2012
stp251
a(Vipl2011
(dp252
g24
(dp253
Vinns
p254
I5
sVc
I4
sVro
p255
I1
sVm
I13
sVs
I0
ssg28
(dp256
Vinns
p257
I13
sV10w
p258
I0
sVnb
p259
I0
sVmaid
p260
I0
sVwb
p261
I10
sVbbmw
p262
I3
sV6s
p263
I5
sVbbmr
p264
I25
sVbbir
p265
I25
sVbbiw
p266
I3
sVa
V27.91
p267
sVb
I268
sVe
V7.50
p268
sVd
I103
sVwmaid
p269
I0
sV4w
p270
I0
sVm
I13
sV4s
p271
I42
sVr
I335
sVw
I12
sVsr
p272
V22.33
p273
sVov
p274
V44.66
p275
sV5w
p276
I0
ssg50
(dp277
Va
V8.33
p278
sVb
I47
sVinns
p279
I7
sVno
p280
I1
sVsr
p281
V106.38
p282
sVm
I13
sV4s
p283
I4
sV6s
p284
I1
sVhs
p285
V18
p286
sVr
V50
p287
sV100s
p288
I0
sV50s
p289
I0
ssg63
I2011
stp290
a(Vclt20-2010
(dp291
g24
(dp292
Vinns
p293
I0
sVc
I0
sVro
p294
I0
sVm
I4
sVs
I0
ssg28
(dp295
Vinns
p296
I4
sV10w
p297
I0
sVnb
p298
I0
sVmaid
p299
I0
sVwb
p300
I2
sVbbmw
p301
I2
sV6s
p302
I5
sVbbmr
p303
I23
sVbbir
p304
I23
sVbbiw
p305
I2
sVa
V20.00
p306
sVb
I87
sVe
V6.89
p307
sVd
I37
sVwmaid
p308
I0
sV4w
p309
I0
sVm
I4
sV4s
p310
I4
sVr
I100
sVw
I5
sVsr
p311
V17.40
p312
sVov
p313
V14.50
p314
sV5w
p315
I0
ssg50
(dp316
Va
V7.50
p317
sVb
I14
sVinns
p318
I2
sVno
p319
I0
sVsr
p320
V107.14
p321
sVm
I4
sV4s
p322
I0
sV6s
p323
I1
sVhs
p324
V9
sVr
V15
p325
sV100s
p326
I0
sV50s
p327
I0
ssg63
I2010
stp328
a(Vipl2010
(dp329
g24
(dp330
Vinns
p331
I3
sVc
I4
sVro
p332
I0
sVm
I14
sVs
I0
ssg28
(dp333
Vinns
p334
I14
sV10w
p335
I0
sVnb
p336
I2
sVmaid
p337
I0
sVwb
p338
I5
sVbbmw
p339
I4
sV6s
p340
I16
sVbbmr
p341
I40
sVbbir
p342
I40
sVbbiw
p343
I4
sVa
V24.75
p344
sVb
I277
sVe
V8.57
p345
sVd
I101
sVwmaid
p346
I0
sV4w
p347
I1
sVm
I14
sV4s
p348
I36
sVr
I396
sVw
I16
sVsr
p349
V17.31
p350
sVov
p351
V46.16
p352
sV5w
p353
I0
ssg50
(dp354
Va
V6.75
p355
sVb
I32
sVinns
p356
I5
sVno
p357
I1
sVsr
p358
V84.37
p359
sVm
I14
sV4s
p360
I1
sV6s
p361
I0
sVhs
p362
V10*
p363
sVr
V27
p364
sV100s
p365
I0
sV50s
p366
I0
ssg63
I2010
stp367
a(Vclt20-2009
(dp368
g24
(dp369
Vinns
p370
I0
sVc
I0
sVro
p371
I0
sVm
I2
sVs
I0
ssg28
(dp372
Vinns
p373
I2
sV10w
p374
I0
sVnb
p375
I0
sVmaid
p376
I0
sVwb
p377
I0
sVbbmw
p378
I2
sV6s
p379
I1
sVbbmr
p380
I20
sVbbir
p381
I20
sVbbiw
p382
I2
sVa
V20.00
p383
sVb
I39
sVe
V9.23
p384
sVd
I10
sVwmaid
p385
I0
sV4w
p386
I0
sVm
I2
sV4s
p387
I8
sVr
I60
sVw
I3
sVsr
p388
V13.00
p389
sVov
p390
V6.50
p391
sV5w
p392
I0
ssg50
(dp393
Va
V-
sVinns
p394
I0
sVno
p395
I0
sVsr
p396
V-
sVm
I2
sV4s
p397
I0
sV6s
p398
I0
sVhs
p399
V0*
p400
sVr
V0
sV100s
p401
I0
sV50s
p402
I0
ssg63
I2009
stp403
a(Vipl2009
(dp404
g24
(dp405
Vinns
p406
I4
sVc
I3
sVro
p407
I2
sVm
I11
sVs
I0
ssg28
(dp408
Vinns
p409
I11
sV10w
p410
I0
sVnb
p411
I0
sVmaid
p412
I0
sVwb
p413
I5
sVbbmw
p414
I2
sV6s
p415
I7
sVbbmr
p416
I30
sVbbir
p417
I30
sVbbiw
p418
I2
sVa
V30.11
p419
sVb
I194
sVe
V8.38
p420
sVd
I65
sVwmaid
p421
I0
sV4w
p422
I0
sVm
I11
sV4s
p423
I27
sVr
I271
sVw
I9
sVsr
p424
V21.55
p425
sVov
p426
V32.33
p427
sV5w
p428
I0
ssg50
(dp429
Va
V9.40
p430
sVb
I44
sVinns
p431
I8
sVno
p432
I3
sVsr
p433
V106.81
p434
sVm
I11
sV4s
p435
I4
sV6s
p436
I1
sVhs
p437
V12
p438
sVr
V47
p439
sV100s
p440
I0
sV50s
p441
I0
ssg63
I2009
stp442
a(Vipl2008
(dp443
g24
(dp444
Vinns
p445
I4
sVc
I4
sVro
p446
I1
sVm
I8
sVs
I0
ssg28
(dp447
Vinns
p448
I8
sV10w
p449
I0
sVnb
p450
I2
sVmaid
p451
I0
sVwb
p452
I1
sVbbmw
p453
I3
sV6s
p454
I7
sVbbmr
p455
I27
sVbbir
p456
I27
sVbbiw
p457
I3
sVa
V36.40
p458
sVb
I138
sVe
V7.91
p459
sVd
I59
sVwmaid
p460
I0
sV4w
p461
I0
sVm
I8
sV4s
p462
I18
sVr
I182
sVw
I5
sVsr
p463
V27.60
p464
sVov
p465
V23.00
p466
sV5w
p467
I0
ssg50
(dp468
Va
V8.33
p469
sVb
I22
sVinns
p470
I4
sVno
p471
I1
sVsr
p472
V113.63
p473
sVm
I8
sV4s
p474
I2
sV6s
p475
I1
sVhs
p476
V23
p477
sVr
V25
p478
sV100s
p479
I0
sV50s
p480
I0
ssg63
I2008
stp481
asb.