(iplayer
Player
p1
(dp2
S'is_batsman'
p3
I00
sS'name'
p4
S'Ravi Rampaul'
p5
sS'dob'
p6
S'1984/10/15'
p7
sS'price'
p8
S'900000'
p9
sS'is_allrounder'
p10
I00
sS'is_overseas'
p11
I01
sS'team'
p12
S'RCB'
p13
sS'nationality'
p14
S'West Indian'
p15
sS'is_bowler'
p16
I01
sS'is_keeper'
p17
I00
sS'id'
p18
S'594'
p19
sS'is_uncapped'
p20
I00
sS'tournamentStats'
p21
(lp22
(Vwi-eng-2014
(dp23
S'fieldingStats'
p24
(dp25
Vinns
p26
I2
sVc
I3
sVro
p27
I0
sVm
I5
sVs
I0
ssS'bowlingStats'
p28
(dp29
Vinns
p30
I5
sV10w
p31
I0
sVnb
p32
I0
sVmaid
p33
I0
sVwb
p34
I8
sVbbmw
p35
I1
sV6s
p36
I3
sVbbmr
p37
I40
sVbbir
p38
I40
sVbbiw
p39
I1
sVa
V69.66
p40
sVb
I204
sVe
V6.14
p41
sVd
I96
sVwmaid
p42
I0
sV4w
p43
I0
sVm
I5
sV4s
p44
I21
sVr
I209
sVw
I3
sVsr
p45
V68.00
p46
sVov
p47
V34.00
p48
sV5w
p49
I0
ssS'battingStats'
p50
(dp51
Va
V1.00
p52
sVb
I5
sVinns
p53
I2
sVno
p54
I1
sVsr
p55
V20.00
p56
sVm
I5
sV4s
p57
I0
sV6s
p58
I0
sVhs
p59
V1
sVr
V1
sV100s
p60
I0
sV50s
p61
I0
ssS'year'
p62
I2014
stp63
a(Vind-wi-2013
(dp64
g24
(dp65
Vinns
p66
I0
sVc
I0
sVro
p67
I0
sVm
I3
sVs
I0
ssg28
(dp68
Vinns
p69
I3
sV10w
p70
I0
sVnb
p71
I0
sVmaid
p72
I1
sVwb
p73
I5
sVbbmw
p74
I4
sV6s
p75
I3
sVbbmr
p76
I60
sVbbir
p77
I60
sVbbiw
p78
I4
sVa
V22.00
p79
sVb
I168
sVe
V5.50
p80
sVd
I92
sVwmaid
p81
I1
sV4w
p82
I1
sVm
I3
sV4s
p83
I18
sVr
I154
sVw
I7
sVsr
p84
V24.00
p85
sVov
p86
V28.00
p87
sV5w
p88
I0
ssg50
(dp89
Va
V1.00
p90
sVb
I14
sVinns
p91
I1
sVno
p92
I0
sVsr
p93
V7.14
p94
sVm
I3
sV4s
p95
I0
sV6s
p96
I0
sVhs
p97
V1
sVr
V1
sV100s
p98
I0
sV50s
p99
I0
ssg62
I2013
stp100
a(Vtriseries-wi-2013
(dp101
g24
(dp102
Vinns
p103
I0
sVc
I0
sVro
p104
I0
sVm
I1
sVs
I0
ssg28
(dp105
Vinns
p106
I1
sV10w
p107
I0
sVnb
p108
I0
sVmaid
p109
I0
sVwb
p110
I3
sVbbmw
p111
I3
sV6s
p112
I0
sVbbmr
p113
I38
sVbbir
p114
I38
sVbbiw
p115
I3
sVa
V12.66
p116
sVb
I60
sVe
V3.80
p117
sVd
I38
sVwmaid
p118
I0
sV4w
p119
I0
sVm
I1
sV4s
p120
I3
sVr
I38
sVw
I3
sVsr
p121
V20.00
p122
sVov
p123
V10.00
p124
sV5w
p125
I0
ssg50
(dp126
Va
V-
sVinns
p127
I0
sVno
p128
I0
sVsr
p129
V-
sVm
I1
sV4s
p130
I0
sV6s
p131
I0
sVhs
p132
V0*
p133
sVr
V0
sV100s
p134
I0
sV50s
p135
I0
ssg62
I2013
stp136
a(Vclt20-2013
(dp137
g24
(dp138
Vinns
p139
I2
sVc
I1
sVro
p140
I1
sVm
I5
sVs
I0
ssg28
(dp141
Vinns
p142
I5
sV10w
p143
I0
sVnb
p144
I1
sVmaid
p145
I0
sVwb
p146
I2
sVbbmw
p147
I4
sV6s
p148
I5
sVbbmr
p149
I14
sVbbir
p150
I14
sVbbiw
p151
I4
sVa
V24.00
p152
sVb
I112
sVe
V7.71
p153
sVd
I47
sVwmaid
p154
I0
sV4w
p155
I1
sVm
I5
sV4s
p156
I12
sVr
I144
sVw
I6
sVsr
p157
V18.66
p158
sVov
p159
V18.66
p160
sV5w
p161
I0
ssg50
(dp162
Va
V-
sVb
I3
sVinns
p163
I1
sVno
p164
I1
sVsr
p165
V133.33
p166
sVm
I5
sV4s
p167
I0
sV6s
p168
I0
sVhs
p169
V4*
p170
sVr
V4
sV100s
p171
I0
sV50s
p172
I0
ssg62
I2013
stp173
a(Vchamptrophy-2013-warmups
(dp174
g24
(dp175
Vinns
p176
I0
sVc
I0
sVro
p177
I0
sVm
I2
sVs
I0
ssg28
(dp178
Vinns
p179
I1
sV10w
p180
I0
sVnb
p181
I0
sVmaid
p182
I0
sVwb
p183
I2
sVbbmw
p184
I2
sV6s
p185
I0
sVbbmr
p186
I46
sVbbir
p187
I46
sVbbiw
p188
I2
sVa
V23.00
p189
sVb
I48
sVe
V5.75
p190
sVd
I27
sVwmaid
p191
I0
sV4w
p192
I0
sVm
I2
sV4s
p193
I7
sVr
I46
sVw
I2
sVsr
p194
V24.00
p195
sVov
p196
V8.00
p197
sV5w
p198
I0
ssg50
(dp199
Va
V-
sVb
I2
sVinns
p200
I1
sVno
p201
I1
sVsr
p202
V50.00
p203
sVm
I2
sV4s
p204
I0
sV6s
p205
I0
sVhs
p206
V1*
p207
sVr
V1
sV100s
p208
I0
sV50s
p209
I0
ssg62
I2013
stp210
a(Vchamptrophy-2013
(dp211
g24
(dp212
Vinns
p213
I1
sVc
I2
sVro
p214
I0
sVm
I3
sVs
I0
ssg28
(dp215
Vinns
p216
I3
sV10w
p217
I0
sVnb
p218
I0
sVmaid
p219
I0
sVwb
p220
I8
sVbbmw
p221
I1
sV6s
p222
I2
sVbbmr
p223
I37
sVbbir
p224
I37
sVbbiw
p225
I1
sVa
V52.00
p226
sVb
I132
sVe
V4.72
p227
sVd
I75
sVwmaid
p228
I0
sV4w
p229
I0
sVm
I3
sV4s
p230
I8
sVr
I104
sVw
I2
sVsr
p231
V66.00
p232
sVov
p233
V22.00
p234
sV5w
p235
I0
ssg50
(dp236
Va
V2.00
p237
sVb
I7
sVinns
p238
I1
sVno
p239
I0
sVsr
p240
V28.57
p241
sVm
I3
sV4s
p242
I0
sV6s
p243
I0
sVhs
p244
V2
sVr
V2
sV100s
p245
I0
sV50s
p246
I0
ssg62
I2013
stp247
a(Vnz-wi-2013
(dp248
g24
(dp249
Vinns
p250
I0
sVc
I0
sVro
p251
I0
sVm
I2
sVs
I0
ssg28
(dp252
Vinns
p253
I2
sV10w
p254
I0
sVnb
p255
I0
sVmaid
p256
I0
sVwb
p257
I0
sVbbmw
p258
I2
sV6s
p259
I7
sVbbmr
p260
I27
sVbbir
p261
I27
sVbbiw
p262
I2
sVa
V45.50
p263
sVb
I72
sVe
V7.58
p264
sVd
I36
sVwmaid
p265
I0
sV4w
p266
I0
sVm
I2
sV4s
p267
I6
sVr
I91
sVw
I2
sVsr
p268
V36.00
p269
sVov
p270
V12.00
p271
sV5w
p272
I0
ssg50
(dp273
Va
V-
sVinns
p274
I0
sVno
p275
I0
sVsr
p276
V-
sVm
I2
sV4s
p277
I0
sV6s
p278
I0
sVhs
p279
V0*
p280
sVr
V0
sV100s
p281
I0
sV50s
p282
I0
ssg62
I2013
stp283
a(Vipl2013
(dp284
g24
(dp285
Vinns
p286
I2
sVc
I4
sVro
p287
I0
sVm
I10
sVs
I0
ssg28
(dp288
Vinns
p289
I10
sV10w
p290
I0
sVnb
p291
I2
sVmaid
p292
I4
sVwb
p293
I7
sVbbmw
p294
I3
sV6s
p295
I12
sVbbmr
p296
I31
sVbbir
p297
I31
sVbbiw
p298
I3
sVa
V20.07
p299
sVb
I226
sVe
V6.92
p300
sVd
I109
sVwmaid
p301
I3
sV4w
p302
I0
sVm
I10
sV4s
p303
I20
sVr
I261
sVw
I13
sVsr
p304
V17.38
p305
sVov
p306
V37.66
p307
sV5w
p308
I0
ssg50
(dp309
Va
V9.50
p310
sVb
I37
sVinns
p311
I6
sVno
p312
I2
sVsr
p313
V102.70
p314
sVm
I10
sV4s
p315
I3
sV6s
p316
I1
sVhs
p317
V23*
p318
sVr
V38
p319
sV100s
p320
I0
sV50s
p321
I0
ssg62
I2013
stp322
a(Vclt20-2012
(dp323
g24
(dp324
Vinns
p325
I0
sVc
I0
sVro
p326
I0
sVm
I1
sVs
I0
ssg28
(dp327
Vinns
p328
I1
sV10w
p329
I0
sVnb
p330
I0
sVmaid
p331
I0
sVwb
p332
I0
sVbbmw
p333
I1
sV6s
p334
I0
sVbbmr
p335
I22
sVbbir
p336
I22
sVbbiw
p337
I1
sVa
V22.00
p338
sVb
I24
sVe
V5.50
p339
sVd
I10
sVwmaid
p340
I0
sV4w
p341
I0
sVm
I1
sV4s
p342
I3
sVr
I22
sVw
I1
sVsr
p343
V24.00
p344
sVov
p345
V4.00
p346
sV5w
p347
I0
ssg50
(dp348
Va
V6.00
p349
sVb
I4
sVinns
p350
I1
sVno
p351
I0
sVsr
p352
V150.00
p353
sVm
I1
sV4s
p354
I0
sV6s
p355
I1
sVhs
p356
V6
sVr
V6
sV100s
p357
I0
sV50s
p358
I0
ssg62
I2012
stp359
a(Vworldt20-2012
(dp360
g24
(dp361
Vinns
p362
I1
sVc
I1
sVro
p363
I0
sVm
I9
sVs
I0
ssg28
(dp364
Vinns
p365
I9
sV10w
p366
I0
sVnb
p367
I2
sVmaid
p368
I1
sVwb
p369
I5
sVbbmw
p370
I3
sV6s
p371
I7
sVbbmr
p372
I16
sVbbir
p373
I16
sVbbiw
p374
I3
sVa
V21.72
p375
sVb
I185
sVe
V7.75
p376
sVd
I77
sVwmaid
p377
I1
sV4w
p378
I0
sVm
I9
sV4s
p379
I24
sVr
I239
sVw
I11
sVsr
p380
V16.81
p381
sVov
p382
V30.83
p383
sV5w
p384
I0
ssg50
(dp385
Va
V-
sVb
I3
sVinns
p386
I2
sVno
p387
I2
sVsr
p388
V33.33
p389
sVm
I9
sV4s
p390
I0
sV6s
p391
I0
sVhs
p392
V1*
p393
sVr
V1
sV100s
p394
I0
sV50s
p395
I0
ssg62
I2012
stp396
a(Vclt20-2011
p397
(dp398
g24
(dp399
Vinns
p400
I2
sVc
I1
sVro
p401
I1
sVm
I6
sVs
I0
ssg28
(dp402
Vinns
p403
I6
sV10w
p404
I0
sVnb
p405
I2
sVmaid
p406
I1
sVwb
p407
I3
sVbbmw
p408
I4
sV6s
p409
I0
sVbbmr
p410
I14
sVbbir
p411
I14
sVbbiw
p412
I4
sVa
V12.50
p413
sVb
I144
sVe
V6.25
p414
sVd
I67
sVwmaid
p415
I1
sV4w
p416
I1
sVm
I6
sV4s
p417
I20
sVr
I150
sVw
I12
sVsr
p418
V12.00
p419
sVov
p420
V24.00
p421
sV5w
p422
I0
ssg50
(dp423
Va
V11.50
p424
sVb
I14
sVinns
p425
I4
sVno
p426
I2
sVsr
p427
V164.28
p428
sVm
I6
sV4s
p429
I3
sV6s
p430
I0
sVhs
p431
V15*
p432
sVr
V23
p433
sV100s
p434
I0
sV50s
p435
I0
ssg62
I2011
stp436
a(Vclt20-2009
(dp437
g24
(dp438
Vinns
p439
I0
sVc
I0
sVro
p440
I0
sVm
I6
sVs
I0
ssg28
(dp441
Vinns
p442
I6
sV10w
p443
I0
sVnb
p444
I2
sVmaid
p445
I0
sVwb
p446
I4
sVbbmw
p447
I3
sV6s
p448
I5
sVbbmr
p449
I20
sVbbir
p450
I20
sVbbiw
p451
I3
sVa
V37.50
p452
sVb
I120
sVe
V7.50
p453
sVd
I56
sVwmaid
p454
I0
sV4w
p455
I0
sVm
I6
sV4s
p456
I16
sVr
I150
sVw
I4
sVsr
p457
V30.00
p458
sVov
p459
V20.00
p460
sV5w
p461
I0
ssg50
(dp462
Va
V2.00
p463
sVb
I5
sVinns
p464
I2
sVno
p465
I1
sVsr
p466
V40.00
p467
sVm
I6
sV4s
p468
I0
sV6s
p469
I0
sVhs
p470
V2
sVr
V2
sV100s
p471
I0
sV50s
p472
I0
ssg62
I2009
stp473
asb.