(iplayer
Player
p1
(dp2
S'is_batsman'
p3
I00
sS'name'
p4
S'Ben Hilfenhaus'
p5
sS'dob'
p6
S'1983/03/15'
p7
sS'price'
p8
S'900000'
p9
sS'is_allrounder'
p10
I00
sS'is_overseas'
p11
I01
sS'team'
p12
S'CSK'
p13
sS'nationality'
p14
S'Australian'
p15
sS'is_bowler'
p16
I01
sS'is_keeper'
p17
I00
sS'id'
p18
S'17'
p19
sS'is_uncapped'
p20
I00
sS'tournamentStats'
p21
(lp22
(Vbigbash-2013
p23
(dp24
S'fieldingStats'
p25
(dp26
Vinns
p27
I3
sVc
I3
sVro
p28
I0
sVm
I8
sVs
I0
ssS'bowlingStats'
p29
(dp30
Vinns
p31
I8
sV10w
p32
I0
sVnb
p33
I2
sVmaid
p34
I0
sVwb
p35
I6
sVbbmw
p36
I2
sV6s
p37
I4
sVbbmr
p38
I25
sVbbir
p39
I25
sVbbiw
p40
I2
sVa
V42.00
p41
sVb
I192
sVe
V7.87
p42
sVd
I69
sVwmaid
p43
I0
sV4w
p44
I0
sVm
I8
sV4s
p45
I30
sVr
I252
sVw
I6
sVsr
p46
V32.00
p47
sVov
p48
V32.00
p49
sV5w
p50
I0
ssS'battingStats'
p51
(dp52
Va
V14.00
p53
sVb
I25
sVinns
p54
I6
sVno
p55
I4
sVsr
p56
V112.00
p57
sVm
I8
sV4s
p58
I2
sV6s
p59
I1
sVhs
p60
V13*
p61
sVr
V28
p62
sV100s
p63
I0
sV50s
p64
I0
ssS'year'
p65
I2013
stp66
a(Vipl2012
(dp67
g25
(dp68
Vinns
p69
I0
sVc
I0
sVro
p70
I0
sVm
I9
sVs
I0
ssg29
(dp71
Vinns
p72
I9
sV10w
p73
I0
sVnb
p74
I2
sVmaid
p75
I2
sVwb
p76
I9
sVbbmw
p77
I3
sV6s
p78
I9
sVbbmr
p79
I27
sVbbir
p80
I27
sVbbiw
p81
I3
sVa
V16.64
p82
sVb
I204
sVe
V6.85
p83
sVd
I103
sVwmaid
p84
I1
sV4w
p85
I0
sVm
I9
sV4s
p86
I23
sVr
I233
sVw
I14
sVsr
p87
V14.57
p88
sVov
p89
V34.00
p90
sV5w
p91
I0
ssg51
(dp92
Va
V-
sVinns
p93
I0
sVno
p94
I0
sVsr
p95
V-
sVm
I9
sV4s
p96
I0
sV6s
p97
I0
sVhs
p98
V0*
p99
sVr
V0
sV100s
p100
I0
sV50s
p101
I0
ssg65
I2012
stp102
a(Vaus-sa-2012
(dp103
g25
(dp104
Vinns
p105
I0
sVc
I0
sVro
p106
I0
sVm
I2
sVs
I0
ssg29
(dp107
Vinns
p108
I4
sV10w
p109
I0
sVnb
p110
I0
sVmaid
p111
I34
sVwb
p112
I2
sVbbmw
p113
I4
sV6s
p114
I0
sVbbmr
p115
I114
sVbbir
p116
I49
sVbbiw
p117
I3
sVa
V35.50
p118
sVb
I608
sVe
V2.10
p119
sVd
I500
sVwmaid
p120
I3
sV4w
p121
I0
sVm
I2
sV4s
p122
I26
sVr
I213
sVw
I6
sVsr
p123
V101.33
p124
sVov
p125
V101.33
p126
sV5w
p127
I0
ssg51
(dp128
Va
V18.00
p129
sVb
I27
sVinns
p130
I2
sVno
p131
I1
sVsr
p132
V66.66
p133
sVm
I2
sV4s
p134
I4
sV6s
p135
I0
sVhs
p136
V18*
p137
sVr
V18
p138
sV100s
p139
I0
sV50s
p140
I0
ssg65
I2012
stp141
a(Vclt20-2012
(dp142
g25
(dp143
Vinns
p144
I1
sVc
I1
sVro
p145
I1
sVm
I4
sVs
I0
ssg29
(dp146
Vinns
p147
I4
sV10w
p148
I0
sVnb
p149
I0
sVmaid
p150
I1
sVwb
p151
I2
sVbbmw
p152
I2
sV6s
p153
I4
sVbbmr
p154
I14
sVbbir
p155
I14
sVbbiw
p156
I2
sVa
V24.25
p157
sVb
I90
sVe
V6.46
p158
sVd
I44
sVwmaid
p159
I1
sV4w
p160
I0
sVm
I4
sV4s
p161
I10
sVr
I97
sVw
I4
sVsr
p162
V22.50
p163
sVov
p164
V15.00
p165
sV5w
p166
I0
ssg51
(dp167
Va
V-
sVb
I6
sVinns
p168
I2
sVno
p169
I2
sVsr
p170
V116.66
p171
sVm
I4
sV4s
p172
I0
sV6s
p173
I0
sVhs
p174
V7*
p175
sVr
V7
sV100s
p176
I0
sV50s
p177
I0
ssg65
I2012
stp178
a(Vpre-worldt20-2012
(dp179
g25
(dp180
Vinns
p181
I0
sVc
I0
sVro
p182
I0
sVm
I1
sVs
I0
ssg29
(dp183
Vinns
p184
I1
sV10w
p185
I0
sVnb
p186
I0
sVmaid
p187
I0
sVwb
p188
I0
sVbbmw
p189
I1
sV6s
p190
I0
sVbbmr
p191
I18
sVbbir
p192
I18
sVbbiw
p193
I1
sVa
V18.00
p194
sVb
I18
sVe
V6.00
p195
sVd
I11
sVwmaid
p196
I0
sV4w
p197
I0
sVm
I1
sV4s
p198
I3
sVr
I18
sVw
I1
sVsr
p199
V18.00
p200
sVov
p201
V3.00
p202
sV5w
p203
I0
ssg51
(dp204
Va
V0.00
p205
sVb
I1
sVinns
p206
I1
sVno
p207
I0
sVsr
p208
V0.00
p209
sVm
I1
sV4s
p210
I0
sV6s
p211
I0
sVhs
p212
V0*
p213
sVr
V0
sV100s
p214
I0
sV50s
p215
I0
ssg65
I2012
stp216
a(Vworldt20-2012
(dp217
g25
(dp218
Vinns
p219
I0
sVc
I0
sVro
p220
I0
sVm
I1
sVs
I0
ssg29
(dp221
Vinns
p222
I0
sV10w
p223
I0
sVnb
p224
I0
sVmaid
p225
I0
sVwb
p226
I0
sVbbmw
p227
I0
sV6s
p228
I0
sVbbmr
p229
I0
sVbbir
p230
I0
sVbbiw
p231
I0
sVa
V-
sVb
I0
sVe
V-
sVd
I0
sVwmaid
p232
I0
sV4w
p233
I0
sVm
I1
sV4s
p234
I0
sVr
I0
sVw
I0
sVsr
p235
V-
sVov
p236
V-
sV5w
p237
I0
ssg51
(dp238
Va
V-
sVinns
p239
I0
sVno
p240
I0
sVsr
p241
V-
sVm
I1
sV4s
p242
I0
sV6s
p243
I0
sVhs
p244
V0*
p245
sVr
V0
sV100s
p246
I0
sV50s
p247
I0
ssg65
I2012
stp248
a(Vaus-sl-2012
(dp249
g25
(dp250
Vinns
p251
I0
sVc
I0
sVro
p252
I0
sVm
I1
sVs
I0
ssg29
(dp253
Vinns
p254
I1
sV10w
p255
I0
sVnb
p256
I0
sVmaid
p257
I3
sVwb
p258
I0
sVbbmw
p259
I1
sV6s
p260
I0
sVbbmr
p261
I30
sVbbir
p262
I30
sVbbiw
p263
I1
sVa
V30.00
p264
sVb
I74
sVe
V2.43
p265
sVd
I59
sVwmaid
p266
I1
sV4w
p267
I0
sVm
I1
sV4s
p268
I2
sVr
I30
sVw
I1
sVsr
p269
V74.00
p270
sVov
p271
V12.33
p272
sV5w
p273
I0
ssg51
(dp274
Va
V0.00
p275
sVb
I8
sVinns
p276
I1
sVno
p277
I0
sVsr
p278
V0.00
p279
sVm
I1
sV4s
p280
I0
sV6s
p281
I0
sVhs
p282
V0*
p283
sVr
V0
sV100s
p284
I0
sV50s
p285
I0
ssg65
I2012
stp286
asb.