(iplayer
Player
p1
(dp2
S'is_batsman'
p3
I00
sS'name'
p4
S'Chris Gayle'
p5
sS'dob'
p6
S'1979/09/21'
p7
sS'price'
p8
S'1100000'
p9
sS'is_allrounder'
p10
I01
sS'is_overseas'
p11
I01
sS'team'
p12
S'RCB'
p13
sS'nationality'
p14
S'West Indian'
p15
sS'is_bowler'
p16
I00
sS'is_keeper'
p17
I00
sS'id'
p18
S'236'
p19
sS'is_uncapped'
p20
I00
sS'tournamentStats'
p21
(lp22
(Vworldt20-2014
(dp23
S'fieldingStats'
p24
(dp25
Vinns
p26
I1
sVc
I1
sVro
p27
I0
sVm
I2
sVs
I0
ssS'bowlingStats'
p28
(dp29
Vinns
p30
I0
sV10w
p31
I0
sVnb
p32
I0
sVmaid
p33
I0
sVwb
p34
I0
sVbbmw
p35
I0
sV6s
p36
I0
sVbbmr
p37
I0
sVbbir
p38
I0
sVbbiw
p39
I0
sVa
V-
sVb
I0
sVe
V-
sVd
I0
sVwmaid
p40
I0
sV4w
p41
I0
sVm
I2
sV4s
p42
I0
sVr
I0
sVw
I0
sVsr
p43
V-
sVov
p44
V-
sV5w
p45
I0
ssS'battingStats'
p46
(dp47
Va
V41.00
p48
sVb
I81
sVinns
p49
I2
sVno
p50
I0
sVsr
p51
V101.23
p52
sVm
I2
sV4s
p53
I4
sV6s
p54
I4
sVhs
p55
V48
p56
sVr
V82
p57
sV100s
p58
I0
sV50s
p59
I0
ssS'year'
p60
I2014
stp61
a(Vwi-eng-2014
p62
(dp63
g24
(dp64
Vinns
p65
I0
sVc
I0
sVro
p66
I0
sVm
I2
sVs
I0
ssg28
(dp67
Vinns
p68
I0
sV10w
p69
I0
sVnb
p70
I0
sVmaid
p71
I0
sVwb
p72
I0
sVbbmw
p73
I0
sV6s
p74
I0
sVbbmr
p75
I0
sVbbir
p76
I0
sVbbiw
p77
I0
sVa
V-
sVb
I0
sVe
V-
sVd
I0
sVwmaid
p78
I0
sV4w
p79
I0
sVm
I2
sV4s
p80
I0
sVr
I0
sVw
I0
sVsr
p81
V-
sVov
p82
V-
sV5w
p83
I0
ssg46
(dp84
Va
V39.50
p85
sVb
I65
sVinns
p86
I2
sVno
p87
I0
sVsr
p88
V121.53
p89
sVm
I2
sV4s
p90
I6
sV6s
p91
I6
sVhs
p92
V43
p93
sVr
V79
p94
sV100s
p95
I0
sV50s
p96
I0
ssg60
I2014
stp97
a(Vind-wi-2013
(dp98
g24
(dp99
Vinns
p100
I1
sVc
I1
sVro
p101
I0
sVm
I3
sVs
I0
ssg28
(dp102
Vinns
p103
I0
sV10w
p104
I0
sVnb
p105
I0
sVmaid
p106
I0
sVwb
p107
I0
sVbbmw
p108
I0
sV6s
p109
I0
sVbbmr
p110
I0
sVbbir
p111
I0
sVbbiw
p112
I0
sVa
V-
sVb
I0
sVe
V-
sVd
I0
sVwmaid
p113
I0
sV4w
p114
I0
sVm
I3
sV4s
p115
I0
sVr
I0
sVw
I0
sVsr
p116
V-
sVov
p117
V-
sV5w
p118
I0
ssg46
(dp119
Va
V19.40
p120
sVb
I139
sVinns
p121
I5
sVno
p122
I0
sVsr
p123
V69.78
p124
sVm
I3
sV4s
p125
I16
sV6s
p126
I1
sVhs
p127
V35
p128
sVr
V97
p129
sV100s
p130
I0
sV50s
p131
I0
ssg60
I2013
stp132
a(Vaus-wi-t20-2013
(dp133
g24
(dp134
Vinns
p135
I0
sVc
I0
sVro
p136
I0
sVm
I1
sVs
I0
ssg28
(dp137
Vinns
p138
I0
sV10w
p139
I0
sVnb
p140
I0
sVmaid
p141
I0
sVwb
p142
I0
sVbbmw
p143
I0
sV6s
p144
I0
sVbbmr
p145
I0
sVbbir
p146
I0
sVbbiw
p147
I0
sVa
V-
sVb
I0
sVe
V-
sVd
I0
sVwmaid
p148
I0
sV4w
p149
I0
sVm
I1
sV4s
p150
I0
sVr
I0
sVw
I0
sVsr
p151
V-
sVov
p152
V-
sV5w
p153
I0
ssg46
(dp154
Va
V8.00
p155
sVb
I7
sVinns
p156
I1
sVno
p157
I0
sVsr
p158
V114.28
p159
sVm
I1
sV4s
p160
I0
sV6s
p161
I1
sVhs
p162
V8
sVr
V8
sV100s
p163
I0
sV50s
p164
I0
ssg60
I2013
stp165
a(Vwi-pak-2013
(dp166
g24
(dp167
Vinns
p168
I1
sVc
I0
sVro
p169
I1
sVm
I7
sVs
I0
ssg28
(dp170
Vinns
p171
I0
sV10w
p172
I0
sVnb
p173
I0
sVmaid
p174
I0
sVwb
p175
I0
sVbbmw
p176
I0
sV6s
p177
I0
sVbbmr
p178
I0
sVbbir
p179
I0
sVbbiw
p180
I0
sVa
V-
sVb
I0
sVe
V-
sVd
I0
sVwmaid
p181
I0
sV4w
p182
I0
sVm
I7
sV4s
p183
I0
sVr
I0
sVw
I0
sVsr
p184
V-
sVov
p185
V-
sV5w
p186
I0
ssg46
(dp187
Va
V9.57
p188
sVb
I114
sVinns
p189
I7
sVno
p190
I0
sVsr
p191
V58.77
p192
sVm
I7
sV4s
p193
I7
sV6s
p194
I2
sVhs
p195
V30
p196
sVr
V67
p197
sV100s
p198
I0
sV50s
p199
I0
ssg60
I2013
stp200
a(Vtriseries-wi-2013
(dp201
g24
(dp202
Vinns
p203
I1
sVc
I1
sVro
p204
I0
sVm
I4
sVs
I0
ssg28
(dp205
Vinns
p206
I0
sV10w
p207
I0
sVnb
p208
I0
sVmaid
p209
I0
sVwb
p210
I0
sVbbmw
p211
I0
sV6s
p212
I0
sVbbmr
p213
I0
sVbbir
p214
I0
sVbbiw
p215
I0
sVa
V-
sVb
I0
sVe
V-
sVd
I0
sVwmaid
p216
I0
sV4w
p217
I0
sVm
I4
sV4s
p218
I0
sVr
I0
sVw
I0
sVsr
p219
V-
sVov
p220
V-
sV5w
p221
I0
ssg46
(dp222
Va
V36.00
p223
sVb
I139
sVinns
p224
I4
sVno
p225
I0
sVsr
p226
V103.59
p227
sVm
I4
sV4s
p228
I16
sV6s
p229
I7
sVhs
p230
V109
p231
sVr
V144
p232
sV100s
p233
I1
sV50s
p234
I0
ssg60
I2013
stp235
a(Vwi-zim-2013
(dp236
g24
(dp237
Vinns
p238
I1
sVc
I1
sVro
p239
I0
sVm
I2
sVs
I0
ssg28
(dp240
Vinns
p241
I0
sV10w
p242
I0
sVnb
p243
I0
sVmaid
p244
I0
sVwb
p245
I0
sVbbmw
p246
I0
sV6s
p247
I0
sVbbmr
p248
I0
sVbbir
p249
I0
sVbbiw
p250
I0
sVa
V-
sVb
I0
sVe
V-
sVd
I0
sVwmaid
p251
I0
sV4w
p252
I0
sVm
I2
sV4s
p253
I0
sVr
I0
sVw
I0
sVsr
p254
V-
sVov
p255
V-
sV5w
p256
I0
ssg46
(dp257
Va
V71.50
p258
sVb
I232
sVinns
p259
I3
sVno
p260
I1
sVsr
p261
V61.63
p262
sVm
I2
sV4s
p263
I20
sV6s
p264
I4
sVhs
p265
V101
p266
sVr
V143
p267
sV100s
p268
I1
sV50s
p269
I0
ssg60
I2013
stp270
a(Vchamptrophy-2013-warmups
(dp271
g24
(dp272
Vinns
p273
I0
sVc
I0
sVro
p274
I0
sVm
I2
sVs
I0
ssg28
(dp275
Vinns
p276
I0
sV10w
p277
I0
sVnb
p278
I0
sVmaid
p279
I0
sVwb
p280
I0
sVbbmw
p281
I0
sV6s
p282
I0
sVbbmr
p283
I0
sVbbir
p284
I0
sVbbiw
p285
I0
sVa
V-
sVb
I0
sVe
V-
sVd
I0
sVwmaid
p286
I0
sV4w
p287
I0
sVm
I2
sV4s
p288
I0
sVr
I0
sVw
I0
sVsr
p289
V-
sVov
p290
V-
sV5w
p291
I0
ssg46
(dp292
Va
V22.00
p293
sVb
I27
sVinns
p294
I1
sVno
p295
I0
sVsr
p296
V81.48
p297
sVm
I2
sV4s
p298
I0
sV6s
p299
I0
sVhs
p300
V22
p301
sVr
V22
p302
sV100s
p303
I0
sV50s
p304
I0
ssg60
I2013
stp305
a(Vchamptrophy-2013
(dp306
g24
(dp307
Vinns
p308
I2
sVc
I2
sVro
p309
I0
sVm
I3
sVs
I0
ssg28
(dp310
Vinns
p311
I1
sV10w
p312
I0
sVnb
p313
I0
sVmaid
p314
I0
sVwb
p315
I2
sVbbmw
p316
I0
sV6s
p317
I0
sVbbmr
p318
I0
sVbbir
p319
I0
sVbbiw
p320
I0
sVa
V-
sVb
I6
sVe
V11.00
p321
sVd
I1
sVwmaid
p322
I0
sV4w
p323
I0
sVm
I3
sV4s
p324
I1
sVr
I11
sVw
I0
sVsr
p325
V-
sVov
p326
V1.00
p327
sV5w
p328
I0
ssg46
(dp329
Va
V32.00
p330
sVb
I92
sVinns
p331
I3
sVno
p332
I0
sVsr
p333
V104.34
p334
sVm
I3
sV4s
p335
I13
sV6s
p336
I2
sVhs
p337
V39
p338
sVr
V96
p339
sV100s
p340
I0
sV50s
p341
I0
ssg60
I2013
stp342
a(Vaus-wi-2013
(dp343
g24
(dp344
Vinns
p345
I0
sVc
I0
sVro
p346
I0
sVm
I3
sVs
I0
ssg28
(dp347
Vinns
p348
I1
sV10w
p349
I0
sVnb
p350
I0
sVmaid
p351
I0
sVwb
p352
I1
sVbbmw
p353
I0
sV6s
p354
I1
sVbbmr
p355
I0
sVbbir
p356
I36
sVbbiw
p357
I0
sVa
V-
sVb
I30
sVe
V7.20
p358
sVd
I10
sVwmaid
p359
I0
sV4w
p360
I0
sVm
I3
sV4s
p361
I2
sVr
I36
sVw
I0
sVsr
p362
V-
sVov
p363
V5.00
p364
sV5w
p365
I0
ssg46
(dp366
Va
V3.33
p367
sVb
I25
sVinns
p368
I3
sVno
p369
I0
sVsr
p370
V40.00
p371
sVm
I3
sV4s
p372
I1
sV6s
p373
I0
sVhs
p374
V4
sVr
V10
p375
sV100s
p376
I0
sV50s
p377
I0
ssg60
I2013
stp378
a(Vipl2013
(dp379
g24
(dp380
Vinns
p381
I3
sVc
I3
sVro
p382
I0
sVm
I16
sVs
I0
ssg28
(dp383
Vinns
p384
I4
sV10w
p385
I0
sVnb
p386
I0
sVmaid
p387
I0
sVwb
p388
I1
sVbbmw
p389
I2
sV6s
p390
I2
sVbbmr
p391
I5
sVbbir
p392
I5
sVbbiw
p393
I1
sVa
V13.33
p394
sVb
I24
sVe
V10.00
p395
sVd
I10
sVwmaid
p396
I0
sV4w
p397
I0
sVm
I16
sV4s
p398
I5
sVr
I40
sVw
I3
sVsr
p399
V8.00
p400
sVov
p401
V4.00
p402
sV5w
p403
I0
ssg46
(dp404
Va
V59.00
p405
sVb
I453
sVinns
p406
I16
sVno
p407
I4
sVsr
p408
V156.29
p409
sVm
I16
sV4s
p410
I57
sV6s
p411
I51
sVhs
p412
V175*
p413
sVr
V708
p414
sV100s
p415
I1
sV50s
p416
I4
ssg60
I2013
stp417
a(Vipl2012
(dp418
g24
(dp419
Vinns
p420
I2
sVc
I2
sVro
p421
I0
sVm
I15
sVs
I0
ssg28
(dp422
Vinns
p423
I3
sV10w
p424
I0
sVnb
p425
I0
sVmaid
p426
I0
sVwb
p427
I2
sVbbmw
p428
I0
sV6s
p429
I4
sVbbmr
p430
I0
sVbbir
p431
I0
sVbbiw
p432
I0
sVa
V-
sVb
I28
sVe
V14.14
p433
sVd
I5
sVwmaid
p434
I0
sV4w
p435
I0
sVm
I15
sV4s
p436
I7
sVr
I66
sVw
I0
sVsr
p437
V-
sVov
p438
V4.66
p439
sV5w
p440
I0
ssg46
(dp441
Va
V61.08
p442
sVb
I456
sVinns
p443
I14
sVno
p444
I2
sVsr
p445
V160.74
p446
sVm
I15
sV4s
p447
I46
sV6s
p448
I59
sVhs
p449
V128*
p450
sVr
V733
p451
sV100s
p452
I1
sV50s
p453
I7
ssg60
I2012
stp454
a(Vbigbash-2012
(dp455
g24
(dp456
Vinns
p457
I4
sVc
I3
sVro
p458
I2
sVm
I7
sVs
I0
ssg28
(dp459
Vinns
p460
I6
sV10w
p461
I0
sVnb
p462
I0
sVmaid
p463
I0
sVwb
p464
I2
sVbbmw
p465
I2
sV6s
p466
I0
sVbbmr
p467
I5
sVbbir
p468
I5
sVbbiw
p469
I2
sVa
V16.80
p470
sVb
I78
sVe
V6.46
p471
sVd
I28
sVwmaid
p472
I0
sV4w
p473
I0
sVm
I7
sV4s
p474
I7
sVr
I84
sVw
I5
sVsr
p475
V15.60
p476
sVov
p477
V13.00
p478
sV5w
p479
I0
ssg46
(dp480
Va
V19.57
p481
sVb
I142
sVinns
p482
I7
sVno
p483
I0
sVsr
p484
V96.47
p485
sVm
I7
sV4s
p486
I7
sV6s
p487
I9
sVhs
p488
V65
p489
sVr
V137
p490
sV100s
p491
I0
sV50s
p492
I1
ssg60
I2012
stp493
a(Vworldt20-2012
(dp494
g24
(dp495
Vinns
p496
I3
sVc
I3
sVro
p497
I0
sVm
I8
sVs
I0
ssg28
(dp498
Vinns
p499
I5
sV10w
p500
I0
sVnb
p501
I0
sVmaid
p502
I0
sVwb
p503
I1
sVbbmw
p504
I2
sV6s
p505
I3
sVbbmr
p506
I21
sVbbir
p507
I21
sVbbiw
p508
I2
sVa
V26.33
p509
sVb
I62
sVe
V7.64
p510
sVd
I13
sVwmaid
p511
I0
sV4w
p512
I0
sVm
I8
sV4s
p513
I3
sVr
I79
sVw
I3
sVsr
p514
V20.66
p515
sVov
p516
V10.33
p517
sV5w
p518
I0
ssg46
(dp519
Va
V57.40
p520
sVb
I196
sVinns
p521
I7
sVno
p522
I2
sVsr
p523
V146.42
p524
sVm
I8
sV4s
p525
I24
sV6s
p526
I20
sVhs
p527
V75*
p528
sVr
V287
p529
sV100s
p530
I0
sV50s
p531
I4
ssg60
I2012
stp532
a(Vipl2011
(dp533
g24
(dp534
Vinns
p535
I2
sVc
I2
sVro
p536
I0
sVm
I12
sVs
I0
ssg28
(dp537
Vinns
p538
I12
sV10w
p539
I0
sVnb
p540
I2
sVmaid
p541
I0
sVwb
p542
I7
sVbbmw
p543
I3
sV6s
p544
I10
sVbbmr
p545
I21
sVbbir
p546
I21
sVbbiw
p547
I3
sVa
V30.50
p548
sVb
I216
sVe
V6.77
p549
sVd
I80
sVwmaid
p550
I0
sV4w
p551
I0
sVm
I12
sV4s
p552
I13
sVr
I244
sVw
I8
sVsr
p553
V27.00
p554
sVov
p555
V36.00
p556
sV5w
p557
I0
ssg46
(dp558
Va
V67.55
p559
sVb
I332
sVinns
p560
I12
sVno
p561
I3
sVsr
p562
V183.13
p563
sVm
I12
sV4s
p564
I57
sV6s
p565
I44
sVhs
p566
V107
p567
sVr
V608
p568
sV100s
p569
I2
sV50s
p570
I3
ssg60
I2011
stp571
a(Vclt20-2011
(dp572
g24
(dp573
Vinns
p574
I1
sVc
I2
sVro
p575
I0
sVm
I6
sVs
I0
ssg28
(dp576
Vinns
p577
I5
sV10w
p578
I0
sVnb
p579
I1
sVmaid
p580
I0
sVwb
p581
I5
sVbbmw
p582
I0
sV6s
p583
I7
sVbbmr
p584
I0
sVbbir
p585
I0
sVbbiw
p586
I0
sVa
V-
sVb
I48
sVe
V11.62
p587
sVd
I12
sVwmaid
p588
I0
sV4w
p589
I0
sVm
I6
sV4s
p590
I3
sVr
I93
sVw
I0
sVsr
p591
V-
sVov
p592
V8.00
p593
sV5w
p594
I0
ssg46
(dp595
Va
V42.83
p596
sVb
I144
sVinns
p597
I6
sVno
p598
I0
sVsr
p599
V178.47
p600
sVm
I6
sV4s
p601
I15
sV6s
p602
I24
sVhs
p603
V92
p604
sVr
V257
p605
sV100s
p606
I0
sV50s
p607
I2
ssg60
I2011
stp608
a(Vipl2010
(dp609
g24
(dp610
Vinns
p611
I2
sVc
I2
sVro
p612
I0
sVm
I9
sVs
I0
ssg28
(dp613
Vinns
p614
I6
sV10w
p615
I0
sVnb
p616
I0
sVmaid
p617
I0
sVwb
p618
I6
sVbbmw
p619
I1
sV6s
p620
I4
sVbbmr
p621
I9
sVbbir
p622
I9
sVbbiw
p623
I1
sVa
V38.00
p624
sVb
I96
sVe
V9.50
p625
sVd
I29
sVwmaid
p626
I0
sV4w
p627
I0
sVm
I9
sV4s
p628
I17
sVr
I152
sVw
I4
sVsr
p629
V24.00
p630
sVov
p631
V16.00
p632
sV5w
p633
I0
ssg46
(dp634
Va
V32.44
p635
sVb
I184
sVinns
p636
I9
sVno
p637
I0
sVsr
p638
V158.69
p639
sVm
I9
sV4s
p640
I30
sV6s
p641
I16
sVhs
p642
V88
p643
sVr
V292
p644
sV100s
p645
I0
sV50s
p646
I2
ssg60
I2010
stp647
a(Vipl2009
(dp648
g24
(dp649
Vinns
p650
I4
sVc
I5
sVro
p651
I0
sVm
I7
sVs
I0
ssg28
(dp652
Vinns
p653
I7
sV10w
p654
I0
sVnb
p655
I0
sVmaid
p656
I0
sVwb
p657
I6
sVbbmw
p658
I1
sV6s
p659
I4
sVbbmr
p660
I21
sVbbir
p661
I21
sVbbiw
p662
I1
sVa
V144.00
p663
sVb
I113
sVe
V7.64
p664
sVd
I32
sVwmaid
p665
I0
sV4w
p666
I0
sVm
I7
sV4s
p667
I8
sVr
I144
sVw
I1
sVsr
p668
V113.00
p669
sVov
p670
V18.83
p671
sV5w
p672
I0
ssg46
(dp673
Va
V28.50
p674
sVb
I143
sVinns
p675
I7
sVno
p676
I1
sVsr
p677
V119.58
p678
sVm
I7
sV4s
p679
I15
sV6s
p680
I10
sVhs
p681
V44*
p682
sVr
V171
p683
sV100s
p684
I0
sV50s
p685
I0
ssg60
I2009
stp686
asb.