(iplayer
Player
p1
(dp2
S'is_batsman'
p3
I00
sS'name'
p4
S'Ravindra Jadeja'
p5
sS'dob'
p6
S'1988/12/06'
p7
sS'price'
p8
S'950000'
p9
sS'is_allrounder'
p10
I01
sS'is_overseas'
p11
I00
sS'team'
p12
S'CSK'
p13
sS'nationality'
p14
S'Indian'
p15
sS'is_bowler'
p16
I00
sS'is_keeper'
p17
I00
sS'id'
p18
S'9'
sS'is_uncapped'
p19
I00
sS'tournamentStats'
p20
(lp21
(Vworldt20-2014
(dp22
S'fieldingStats'
p23
(dp24
Vinns
p25
I1
sVc
I0
sVro
p26
I1
sVm
I2
sVs
I0
ssS'bowlingStats'
p27
(dp28
Vinns
p29
I2
sV10w
p30
I0
sVnb
p31
I1
sVmaid
p32
I0
sVwb
p33
I3
sVbbmw
p34
I3
sV6s
p35
I4
sVbbmr
p36
I48
sVbbir
p37
I48
sVbbiw
p38
I3
sVa
V16.50
p39
sVb
I48
sVe
V8.25
p40
sVd
I21
sVwmaid
p41
I0
sV4w
p42
I0
sVm
I2
sV4s
p43
I3
sVr
I66
sVw
I4
sVsr
p44
V12.00
p45
sVov
p46
V8.00
p47
sV5w
p48
I0
ssS'battingStats'
p49
(dp50
Va
V-
sVinns
p51
I0
sVno
p52
I0
sVsr
p53
V-
sVm
I2
sV4s
p54
I0
sV6s
p55
I0
sVhs
p56
V0*
p57
sVr
V0
sV100s
p58
I0
sV50s
p59
I0
ssS'year'
p60
I2014
stp61
a(Vnz-ind-2014
(dp62
g23
(dp63
Vinns
p64
I6
sVc
I8
sVro
p65
I2
sVm
I7
sVs
I0
ssg27
(dp66
Vinns
p67
I9
sV10w
p68
I0
sVnb
p69
I0
sVmaid
p70
I19
sVwb
p71
I1
sVbbmw
p72
I2
sV6s
p73
I9
sVbbmr
p74
I47
sVbbir
p75
I47
sVbbiw
p76
I2
sVa
V71.14
p77
sVb
I810
sVe
V3.68
p78
sVd
I530
sVwmaid
p79
I3
sV4w
p80
I0
sVm
I7
sV4s
p81
I44
sVr
I498
sVw
I7
sVsr
p82
V115.71
p83
sVov
p84
V135.00
p85
sV5w
p86
I0
ssg49
(dp87
Va
V45.40
p88
sVb
I197
sVinns
p89
I8
sVno
p90
I3
sVsr
p91
V115.22
p92
sVm
I7
sV4s
p93
I26
sV6s
p94
I9
sVhs
p95
V66*
p96
sVr
V227
p97
sV100s
p98
I0
sV50s
p99
I2
ssg60
I2014
stp100
a(Vasiacup-2014
(dp101
g23
(dp102
Vinns
p103
I1
sVc
I2
sVro
p104
I1
sVm
I4
sVs
I0
ssg27
(dp105
Vinns
p106
I4
sV10w
p107
I0
sVnb
p108
I0
sVmaid
p109
I3
sVwb
p110
I1
sVbbmw
p111
I4
sV6s
p112
I5
sVbbmr
p113
I30
sVbbir
p114
I30
sVbbiw
p115
I4
sVa
V22.57
p116
sVb
I240
sVe
V3.95
p117
sVd
I141
sVwmaid
p118
I0
sV4w
p119
I1
sVm
I4
sV4s
p120
I7
sVr
I158
sVw
I7
sVsr
p121
V34.28
p122
sVov
p123
V40.00
p124
sV5w
p125
I0
ssg49
(dp126
Va
V-
sVb
I76
sVinns
p127
I2
sVno
p128
I2
sVsr
p129
V97.36
p130
sVm
I4
sV4s
p131
I4
sV6s
p132
I3
sVhs
p133
V52*
p134
sVr
V74
p135
sV100s
p136
I0
sV50s
p137
I1
ssg60
I2014
stp138
a(Vind-wi-2013
(dp139
g23
(dp140
Vinns
p141
I1
sVc
I1
sVro
p142
I0
sVm
I3
sVs
I0
ssg27
(dp143
Vinns
p144
I3
sV10w
p145
I0
sVnb
p146
I0
sVmaid
p147
I1
sVwb
p148
I0
sVbbmw
p149
I3
sV6s
p150
I3
sVbbmr
p151
I37
sVbbir
p152
I37
sVbbiw
p153
I3
sVa
V26.00
p154
sVb
I180
sVe
V4.33
p155
sVd
I103
sVwmaid
p156
I0
sV4w
p157
I0
sVm
I3
sV4s
p158
I10
sVr
I130
sVw
I5
sVsr
p159
V36.00
p160
sVov
p161
V30.00
p162
sV5w
p163
I0
ssg49
(dp164
Va
V12.00
p165
sVb
I31
sVinns
p166
I2
sVno
p167
I1
sVsr
p168
V38.70
p169
sVm
I3
sV4s
p170
I0
sV6s
p171
I0
sVhs
p172
V10
p173
sVr
V12
p174
sV100s
p175
I0
sV50s
p176
I0
ssg60
I2013
stp177
a(Vzim-ind-2013
(dp178
g23
(dp179
Vinns
p180
I2
sVc
I1
sVro
p181
I2
sVm
I5
sVs
I0
ssg27
(dp182
Vinns
p183
I5
sV10w
p184
I0
sVnb
p185
I1
sVmaid
p186
I7
sVwb
p187
I4
sVbbmw
p188
I2
sV6s
p189
I3
sVbbmr
p190
I28
sVbbir
p191
I28
sVbbiw
p192
I2
sVa
V34.40
p193
sVb
I294
sVe
V3.51
p194
sVd
I198
sVwmaid
p195
I2
sV4w
p196
I0
sVm
I5
sV4s
p197
I15
sVr
I172
sVw
I5
sVsr
p198
V58.80
p199
sVov
p200
V49.00
p201
sV5w
p202
I0
ssg49
(dp203
Va
V63.00
p204
sVb
I99
sVinns
p205
I2
sVno
p206
I1
sVsr
p207
V63.63
p208
sVm
I5
sV4s
p209
I5
sV6s
p210
I2
sVhs
p211
V48*
p212
sVr
V63
p213
sV100s
p214
I0
sV50s
p215
I0
ssg60
I2013
stp216
a(Vtriseries-wi-2013
(dp217
g23
(dp218
Vinns
p219
I1
sVc
I1
sVro
p220
I0
sVm
I5
sVs
I0
ssg27
(dp221
Vinns
p222
I5
sV10w
p223
I0
sVnb
p224
I0
sVmaid
p225
I3
sVwb
p226
I2
sVbbmw
p227
I4
sV6s
p228
I8
sVbbmr
p229
I23
sVbbir
p230
I23
sVbbiw
p231
I4
sVa
V23.62
p232
sVb
I233
sVe
V4.86
p233
sVd
I126
sVwmaid
p234
I1
sV4w
p235
I1
sVm
I5
sV4s
p236
I10
sVr
I189
sVw
I8
sVsr
p237
V29.12
p238
sVov
p239
V38.83
p240
sV5w
p241
I0
ssg49
(dp242
Va
V23.66
p243
sVb
I101
sVinns
p244
I4
sVno
p245
I1
sVsr
p246
V70.29
p247
sVm
I5
sV4s
p248
I6
sV6s
p249
I1
sVhs
p250
V49*
p251
sVr
V71
p252
sV100s
p253
I0
sV50s
p254
I0
ssg60
I2013
stp255
a(Vind-aus-2-2013
(dp256
g23
(dp257
Vinns
p258
I4
sVc
I4
sVro
p259
I0
sVm
I7
sVs
I0
ssg27
(dp260
Vinns
p261
I7
sV10w
p262
I0
sVnb
p263
I2
sVmaid
p264
I0
sVwb
p265
I3
sVbbmw
p266
I3
sV6s
p267
I14
sVbbmr
p268
I73
sVbbir
p269
I73
sVbbiw
p270
I3
sVa
V39.77
p271
sVb
I384
sVe
V5.59
p272
sVd
I184
sVwmaid
p273
I0
sV4w
p274
I0
sVm
I7
sV4s
p275
I21
sVr
I358
sVw
I9
sVsr
p276
V42.66
p277
sVov
p278
V64.00
p279
sV5w
p280
I0
ssg49
(dp281
Va
V6.50
p282
sVb
I22
sVinns
p283
I3
sVno
p284
I1
sVsr
p285
V59.09
p286
sVm
I7
sV4s
p287
I1
sV6s
p288
I0
sVhs
p289
V11
p290
sVr
V13
p291
sV100s
p292
I0
sV50s
p293
I0
ssg60
I2013
stp294
a(Vclt20-2013
(dp295
g23
(dp296
Vinns
p297
I2
sVc
I2
sVro
p298
I0
sVm
I5
sVs
I0
ssg27
(dp299
Vinns
p300
I5
sV10w
p301
I0
sVnb
p302
I0
sVmaid
p303
I0
sVwb
p304
I2
sVbbmw
p305
I2
sV6s
p306
I10
sVbbmr
p307
I18
sVbbir
p308
I18
sVbbiw
p309
I2
sVa
V46.00
p310
sVb
I78
sVe
V10.61
p311
sVd
I21
sVwmaid
p312
I0
sV4w
p313
I0
sVm
I5
sV4s
p314
I7
sVr
I138
sVw
I3
sVsr
p315
V26.00
p316
sVov
p317
V13.00
p318
sV5w
p319
I0
ssg49
(dp320
Va
V1.66
p321
sVb
I12
sVinns
p322
I3
sVno
p323
I0
sVsr
p324
V41.66
p325
sVm
I5
sV4s
p326
I0
sV6s
p327
I0
sVhs
p328
V3
sVr
V5
sV100s
p329
I0
sV50s
p330
I0
ssg60
I2013
stp331
a(Vind-aus-2013
(dp332
g23
(dp333
Vinns
p334
I2
sVc
I1
sVro
p335
I1
sVm
I4
sVs
I0
ssg27
(dp336
Vinns
p337
I8
sV10w
p338
I0
sVnb
p339
I0
sVmaid
p340
I53
sVwb
p341
I0
sVbbmw
p342
I7
sV6s
p343
I2
sVbbmr
p344
I98
sVbbir
p345
I58
sVbbiw
p346
I5
sVa
V17.45
p347
sVb
I1160
sVe
V2.16
p348
sVd
I917
sVwmaid
p349
I7
sV4w
p350
I0
sVm
I4
sV4s
p351
I36
sVr
I419
sVw
I24
sVsr
p352
V48.33
p353
sVov
p354
V193.33
p355
sV5w
p356
I1
ssg49
(dp357
Va
V21.25
p358
sVb
I121
sVinns
p359
I5
sVno
p360
I1
sVsr
p361
V70.24
p362
sVm
I4
sV4s
p363
I13
sV6s
p364
I1
sVhs
p365
V43
p366
sVr
V85
p367
sV100s
p368
I0
sV50s
p369
I0
ssg60
I2013
stp370
a(Vchamptrophy-2013-warmups
(dp371
g23
(dp372
Vinns
p373
I0
sVc
I0
sVro
p374
I0
sVm
I2
sVs
I0
ssg27
(dp375
Vinns
p376
I2
sV10w
p377
I0
sVnb
p378
I1
sVmaid
p379
I0
sVwb
p380
I0
sVbbmw
p381
I0
sV6s
p382
I0
sVbbmr
p383
I0
sVbbir
p384
I0
sVbbiw
p385
I0
sVa
V-
sVb
I72
sVe
V4.25
p386
sVd
I33
sVwmaid
p387
I0
sV4w
p388
I0
sVm
I2
sV4s
p389
I3
sVr
I51
sVw
I0
sVsr
p390
V-
sVov
p391
V12.00
p392
sV5w
p393
I0
ssg49
(dp394
Va
V-
sVb
I6
sVinns
p395
I1
sVno
p396
I1
sVsr
p397
V233.33
p398
sVm
I2
sV4s
p399
I1
sV6s
p400
I1
sVhs
p401
V14*
p402
sVr
V14
p403
sV100s
p404
I0
sV50s
p405
I0
ssg60
I2013
stp406
a(Vchamptrophy-2013
(dp407
g23
(dp408
Vinns
p409
I2
sVc
I2
sVro
p410
I1
sVm
I5
sVs
I0
ssg27
(dp411
Vinns
p412
I5
sV10w
p413
I0
sVnb
p414
I0
sVmaid
p415
I5
sVwb
p416
I0
sVbbmw
p417
I5
sV6s
p418
I2
sVbbmr
p419
I36
sVbbir
p420
I36
sVbbiw
p421
I5
sVa
V12.83
p422
sVb
I246
sVe
V3.75
p423
sVd
I143
sVwmaid
p424
I3
sV4w
p425
I0
sVm
I5
sV4s
p426
I11
sVr
I154
sVw
I12
sVsr
p427
V20.50
p428
sVov
p429
V41.00
p430
sV5w
p431
I1
ssg49
(dp432
Va
V-
sVb
I54
sVinns
p433
I2
sVno
p434
I2
sVsr
p435
V148.14
p436
sVm
I5
sV4s
p437
I9
sV6s
p438
I3
sVhs
p439
V47*
p440
sVr
V80
p441
sV100s
p442
I0
sV50s
p443
I0
ssg60
I2013
stp444
a(Vipl2013
(dp445
g23
(dp446
Vinns
p447
I5
sVc
I6
sVro
p448
I1
sVm
I18
sVs
I0
ssg27
(dp449
Vinns
p450
I15
sV10w
p451
I0
sVnb
p452
I1
sVmaid
p453
I0
sVwb
p454
I2
sVbbmw
p455
I3
sV6s
p456
I17
sVbbmr
p457
I20
sVbbir
p458
I20
sVbbiw
p459
I3
sVa
V24.84
p460
sVb
I259
sVe
V7.48
p461
sVd
I95
sVwmaid
p462
I0
sV4w
p463
I0
sVm
I18
sV4s
p464
I18
sVr
I323
sVw
I13
sVsr
p465
V19.92
p466
sVov
p467
V43.16
p468
sV5w
p469
I0
ssg49
(dp470
Va
V25.12
p471
sVb
I135
sVinns
p472
I14
sVno
p473
I6
sVsr
p474
V148.88
p475
sVm
I18
sV4s
p476
I17
sV6s
p477
I6
sVhs
p478
V38*
p479
sVr
V201
p480
sV100s
p481
I0
sV50s
p482
I0
ssg60
I2013
stp483
a(Vsa-ind-2013
p484
(dp485
g23
(dp486
Vinns
p487
I2
sVc
I2
sVro
p488
I0
sVm
I4
sVs
I0
ssg27
(dp489
Vinns
p490
I5
sV10w
p491
I0
sVnb
p492
I0
sVmaid
p493
I15
sVwb
p494
I1
sVbbmw
p495
I6
sV6s
p496
I2
sVbbmr
p497
I154
sVbbir
p498
I138
sVbbiw
p499
I6
sVa
V41.85
p500
sVb
I518
sVe
V3.39
p501
sVd
I340
sVwmaid
p502
I2
sV4w
p503
I0
sVm
I4
sV4s
p504
I31
sVr
I293
sVw
I7
sVsr
p505
V74.00
p506
sVov
p507
V86.33
p508
sV5w
p509
I1
ssg49
(dp510
Va
V15.75
p511
sVb
I72
sVinns
p512
I4
sVno
p513
I0
sVsr
p514
V87.50
p515
sVm
I4
sV4s
p516
I7
sV6s
p517
I2
sVhs
p518
V29
p519
sVr
V63
p520
sV100s
p521
I0
sV50s
p522
I0
ssg60
I2013
stp523
a(Vipl2012
(dp524
g23
(dp525
Vinns
p526
I4
sVc
I2
sVro
p527
I3
sVm
I19
sVs
I0
ssg27
(dp528
Vinns
p529
I14
sV10w
p530
I0
sVnb
p531
I0
sVmaid
p532
I0
sVwb
p533
I6
sVbbmw
p534
I5
sV6s
p535
I11
sVbbmr
p536
I16
sVbbir
p537
I16
sVbbiw
p538
I5
sVa
V22.75
p539
sVb
I210
sVe
V7.80
p540
sVd
I65
sVwmaid
p541
I0
sV4w
p542
I0
sVm
I19
sV4s
p543
I19
sVr
I273
sVw
I12
sVsr
p544
V17.50
p545
sVov
p546
V35.00
p547
sV5w
p548
I1
ssg49
(dp549
Va
V15.91
p550
sVb
I151
sVinns
p551
I14
sVno
p552
I2
sVsr
p553
V126.49
p554
sVm
I19
sV4s
p555
I13
sV6s
p556
I9
sVhs
p557
V48
p558
sVr
V191
p559
sV100s
p560
I0
sV50s
p561
I0
ssg60
I2012
stp562
a(Vind-pak-2012-13
(dp563
g23
(dp564
Vinns
p565
I1
sVc
I1
sVro
p566
I0
sVm
I3
sVs
I0
ssg27
(dp567
Vinns
p568
I3
sV10w
p569
I0
sVnb
p570
I0
sVmaid
p571
I3
sVwb
p572
I0
sVbbmw
p573
I3
sV6s
p574
I4
sVbbmr
p575
I41
sVbbir
p576
I41
sVbbiw
p577
I3
sVa
V22.25
p578
sVb
I136
sVe
V3.92
p579
sVd
I80
sVwmaid
p580
I1
sV4w
p581
I0
sVm
I3
sV4s
p582
I3
sVr
I89
sVw
I4
sVsr
p583
V34.00
p584
sVov
p585
V22.66
p586
sV5w
p587
I0
ssg49
(dp588
Va
V14.00
p589
sVb
I66
sVinns
p590
I3
sVno
p591
I0
sVsr
p592
V63.63
p593
sVm
I3
sV4s
p594
I0
sV6s
p595
I2
sVhs
p596
V27
p597
sVr
V42
p598
sV100s
p599
I0
sV50s
p600
I0
ssg60
I2012
stp601
a(Vclt20-2012
(dp602
g23
(dp603
Vinns
p604
I0
sVc
I0
sVro
p605
I0
sVm
I4
sVs
I0
ssg27
(dp606
Vinns
p607
I4
sV10w
p608
I0
sVnb
p609
I0
sVmaid
p610
I0
sVwb
p611
I1
sVbbmw
p612
I2
sV6s
p613
I7
sVbbmr
p614
I47
sVbbir
p615
I47
sVbbiw
p616
I2
sVa
V37.00
p617
sVb
I72
sVe
V9.25
p618
sVd
I21
sVwmaid
p619
I0
sV4w
p620
I0
sVm
I4
sV4s
p621
I6
sVr
I111
sVw
I3
sVsr
p622
V24.00
p623
sVov
p624
V12.00
p625
sV5w
p626
I0
ssg49
(dp627
Va
V10.00
p628
sVb
I33
sVinns
p629
I4
sVno
p630
I0
sVsr
p631
V121.21
p632
sVm
I4
sV4s
p633
I2
sV6s
p634
I2
sVhs
p635
V21
p636
sVr
V40
p637
sV100s
p638
I0
sV50s
p639
I0
ssg60
I2012
stp640
a(Vind-eng-2012-13
(dp641
g23
(dp642
Vinns
p643
I3
sVc
I2
sVro
p644
I1
sVm
I7
sVs
I0
ssg27
(dp645
Vinns
p646
I8
sV10w
p647
I0
sVnb
p648
I1
sVmaid
p649
I37
sVwb
p650
I3
sVbbmw
p651
I3
sV6s
p652
I5
sVbbmr
p653
I19
sVbbir
p654
I19
sVbbiw
p655
I3
sVa
V23.41
p656
sVb
I682
sVe
V2.47
p657
sVd
I520
sVwmaid
p658
I2
sV4w
p659
I0
sVm
I7
sV4s
p660
I24
sVr
I281
sVw
I12
sVsr
p661
V56.83
p662
sVov
p663
V113.66
p664
sV5w
p665
I0
ssg49
(dp666
Va
V46.66
p667
sVb
I169
sVinns
p668
I6
sVno
p669
I3
sVsr
p670
V82.84
p671
sVm
I7
sV4s
p672
I13
sV6s
p673
I4
sVhs
p674
V61*
p675
sVr
V140
p676
sV100s
p677
I0
sV50s
p678
I1
ssg60
I2012
stp679
a(Vipl2011
(dp680
g23
(dp681
Vinns
p682
I4
sVc
I1
sVro
p683
I3
sVm
I14
sVs
I0
ssg27
(dp684
Vinns
p685
I14
sV10w
p686
I0
sVnb
p687
I0
sVmaid
p688
I0
sVwb
p689
I9
sVbbmw
p690
I2
sV6s
p691
I12
sVbbmr
p692
I25
sVbbir
p693
I25
sVbbiw
p694
I2
sVa
V38.12
p695
sVb
I252
sVe
V7.26
p696
sVd
I90
sVwmaid
p697
I0
sV4w
p698
I0
sVm
I14
sV4s
p699
I17
sVr
I305
sVw
I8
sVsr
p700
V31.50
p701
sVov
p702
V42.00
p703
sV5w
p704
I0
ssg49
(dp705
Va
V31.44
p706
sVb
I228
sVinns
p707
I12
sVno
p708
I3
sVsr
p709
V124.12
p710
sVm
I14
sV4s
p711
I20
sV6s
p712
I14
sVhs
p713
V47
p714
sVr
V283
p715
sV100s
p716
I0
sV50s
p717
I0
ssg60
I2011
stp718
a(Vipl2009
(dp719
g23
(dp720
Vinns
p721
I5
sVc
I4
sVro
p722
I1
sVm
I13
sVs
I0
ssg27
(dp723
Vinns
p724
I10
sV10w
p725
I0
sVnb
p726
I0
sVmaid
p727
I0
sVwb
p728
I4
sVbbmw
p729
I3
sV6s
p730
I1
sVbbmr
p731
I15
sVbbir
p732
I15
sVbbiw
p733
I3
sVa
V25.16
p734
sVb
I140
sVe
V6.47
p735
sVd
I42
sVwmaid
p736
I0
sV4w
p737
I0
sVm
I13
sV4s
p738
I11
sVr
I151
sVw
I6
sVsr
p739
V23.33
p740
sVov
p741
V23.33
p742
sV5w
p743
I0
ssg49
(dp744
Va
V26.81
p745
sVb
I266
sVinns
p746
I13
sVno
p747
I2
sVsr
p748
V110.90
p749
sVm
I13
sV4s
p750
I21
sV6s
p751
I6
sVhs
p752
V42
p753
sVr
V295
p754
sV100s
p755
I0
sV50s
p756
I0
ssg60
I2009
stp757
a(Vipl2008
(dp758
g23
(dp759
Vinns
p760
I8
sVc
I7
sVro
p761
I4
sVm
I14
sVs
I0
ssg27
(dp762
Vinns
p763
I2
sV10w
p764
I0
sVnb
p765
I0
sVmaid
p766
I0
sVwb
p767
I0
sVbbmw
p768
I0
sV6s
p769
I1
sVbbmr
p770
I0
sVbbir
p771
I0
sVbbiw
p772
I0
sVa
V-
sVb
I13
sVe
V9.69
p773
sVd
I6
sVwmaid
p774
I0
sV4w
p775
I0
sVm
I14
sV4s
p776
I3
sVr
I21
sVw
I0
sVsr
p777
V-
sVov
p778
V2.16
p779
sV5w
p780
I0
ssg49
(dp781
Va
V19.28
p782
sVb
I103
sVinns
p783
I9
sVno
p784
I2
sVsr
p785
V131.06
p786
sVm
I14
sV4s
p787
I11
sV6s
p788
I6
sVhs
p789
V36*
p790
sVr
V135
p791
sV100s
p792
I0
sV50s
p793
I0
ssg60
I2008
stp794
asb.