(iplayer
Player
p1
(dp2
S'is_batsman'
p3
I00
sS'name'
p4
S'Dwayne Bravo'
p5
sS'dob'
p6
S'1983/10/07'
p7
sS'price'
p8
S'1050000'
p9
sS'is_allrounder'
p10
I01
sS'is_overseas'
p11
I01
sS'team'
p12
S'CSK'
p13
sS'nationality'
p14
S'West Indian'
p15
sS'is_bowler'
p16
I00
sS'is_keeper'
p17
I00
sS'id'
p18
S'25'
p19
sS'is_uncapped'
p20
I00
sS'tournamentStats'
p21
(lp22
(Vworldt20-2014
(dp23
S'fieldingStats'
p24
(dp25
Vinns
p26
I1
sVc
I3
sVro
p27
I0
sVm
I2
sVs
I0
ssS'bowlingStats'
p28
(dp29
Vinns
p30
I2
sV10w
p31
I0
sVnb
p32
I0
sVmaid
p33
I0
sVwb
p34
I1
sVbbmw
p35
I0
sV6s
p36
I0
sVbbmr
p37
I0
sVbbir
p38
I0
sVbbiw
p39
I0
sVa
V-
sVb
I24
sVe
V8.75
p40
sVd
I5
sVwmaid
p41
I0
sV4w
p42
I0
sVm
I2
sV4s
p43
I5
sVr
I35
sVw
I0
sVsr
p44
V-
sVov
p45
V4.00
p46
sV5w
p47
I0
ssS'battingStats'
p48
(dp49
Va
V0.00
p50
sVb
I2
sVinns
p51
I2
sVno
p52
I0
sVsr
p53
V0.00
p54
sVm
I2
sV4s
p55
I0
sV6s
p56
I0
sVhs
p57
V0*
p58
sVr
V0
sV100s
p59
I0
sV50s
p60
I0
ssS'year'
p61
I2014
stp62
a(Vwi-eng-2014
p63
(dp64
g24
(dp65
Vinns
p66
I5
sVc
I6
sVro
p67
I1
sVm
I6
sVs
I0
ssg28
(dp68
Vinns
p69
I6
sV10w
p70
I0
sVnb
p71
I1
sVmaid
p72
I1
sVwb
p73
I5
sVbbmw
p74
I3
sV6s
p75
I8
sVbbmr
p76
I60
sVbbir
p77
I60
sVbbiw
p78
I3
sVa
V28.77
p79
sVb
I246
sVe
V6.31
p80
sVd
I108
sVwmaid
p81
I1
sV4w
p82
I0
sVm
I6
sV4s
p83
I15
sVr
I259
sVw
I9
sVsr
p84
V27.33
p85
sVov
p86
V41.00
p87
sV5w
p88
I0
ssg48
(dp89
Va
V52.66
p90
sVb
I186
sVinns
p91
I5
sVno
p92
I2
sVsr
p93
V84.94
p94
sVm
I6
sV4s
p95
I15
sV6s
p96
I1
sVhs
p97
V87*
p98
sVr
V158
p99
sV100s
p100
I0
sV50s
p101
I1
ssg61
I2014
stp102
a(Vwi-pak-2013
(dp103
g24
(dp104
Vinns
p105
I4
sVc
I5
sVro
p106
I0
sVm
I7
sVs
I0
ssg28
(dp107
Vinns
p108
I6
sV10w
p109
I0
sVnb
p110
I0
sVmaid
p111
I3
sVwb
p112
I7
sVbbmw
p113
I2
sV6s
p114
I8
sVbbmr
p115
I9
sVbbir
p116
I9
sVbbiw
p117
I2
sVa
V33.71
p118
sVb
I203
sVe
V6.97
p119
sVd
I81
sVwmaid
p120
I0
sV4w
p121
I0
sVm
I7
sV4s
p122
I15
sVr
I236
sVw
I7
sVsr
p123
V29.00
p124
sVov
p125
V33.83
p126
sV5w
p127
I0
ssg48
(dp128
Va
V28.33
p129
sVb
I188
sVinns
p130
I7
sVno
p131
I1
sVsr
p132
V90.42
p133
sVm
I7
sV4s
p134
I16
sV6s
p135
I4
sVhs
p136
V48
p137
sVr
V170
p138
sV100s
p139
I0
sV50s
p140
I0
ssg61
I2013
stp141
a(Vtriseries-wi-2013
(dp142
g24
(dp143
Vinns
p144
I1
sVc
I1
sVro
p145
I0
sVm
I2
sVs
I0
ssg28
(dp146
Vinns
p147
I2
sV10w
p148
I0
sVnb
p149
I0
sVmaid
p150
I0
sVwb
p151
I4
sVbbmw
p152
I2
sV6s
p153
I1
sVbbmr
p154
I37
sVbbir
p155
I37
sVbbiw
p156
I2
sVa
V31.33
p157
sVb
I87
sVe
V6.48
p158
sVd
I28
sVwmaid
p159
I0
sV4w
p160
I0
sVm
I2
sV4s
p161
I6
sVr
I94
sVw
I3
sVsr
p162
V29.00
p163
sVov
p164
V14.50
p165
sV5w
p166
I0
ssg48
(dp167
Va
V22.00
p168
sVb
I40
sVinns
p169
I2
sVno
p170
I1
sVsr
p171
V55.00
p172
sVm
I2
sV4s
p173
I2
sV6s
p174
I1
sVhs
p175
V14
p176
sVr
V22
p177
sV100s
p178
I0
sV50s
p179
I0
ssg61
I2013
stp180
a(Vipl2013
(dp181
g24
(dp182
Vinns
p183
I9
sVc
I14
sVro
p184
I1
sVm
I18
sVs
I0
ssg28
(dp185
Vinns
p186
I18
sV10w
p187
I0
sVnb
p188
I1
sVmaid
p189
I0
sVwb
p190
I16
sVbbmw
p191
I4
sV6s
p192
I18
sVbbmr
p193
I42
sVbbir
p194
I42
sVbbiw
p195
I4
sVa
V15.53
p196
sVb
I375
sVe
V7.95
p197
sVd
I135
sVwmaid
p198
I0
sV4w
p199
I1
sVm
I18
sV4s
p200
I41
sVr
I497
sVw
I32
sVsr
p201
V11.71
p202
sVov
p203
V62.50
p204
sV5w
p205
I0
ssg48
(dp206
Va
V15.12
p207
sVb
I106
sVinns
p208
I12
sVno
p209
I4
sVsr
p210
V114.15
p211
sVm
I18
sV4s
p212
I11
sV6s
p213
I3
sVhs
p214
V23*
p215
sVr
V121
p216
sV100s
p217
I0
sV50s
p218
I0
ssg61
I2013
stp219
a(Vclt20-2013
(dp220
g24
(dp221
Vinns
p222
I1
sVc
I1
sVro
p223
I1
sVm
I5
sVs
I0
ssg28
(dp224
Vinns
p225
I5
sV10w
p226
I0
sVnb
p227
I2
sVmaid
p228
I0
sVwb
p229
I4
sVbbmw
p230
I3
sV6s
p231
I5
sVbbmr
p232
I26
sVbbir
p233
I26
sVbbiw
p234
I3
sVa
V17.42
p235
sVb
I90
sVe
V8.13
p236
sVd
I28
sVwmaid
p237
I0
sV4w
p238
I0
sVm
I5
sV4s
p239
I8
sVr
I122
sVw
I7
sVsr
p240
V12.85
p241
sVov
p242
V15.00
p243
sV5w
p244
I0
ssg48
(dp245
Va
V16.33
p246
sVb
I39
sVinns
p247
I4
sVno
p248
I1
sVsr
p249
V125.64
p250
sVm
I5
sV4s
p251
I4
sV6s
p252
I2
sVhs
p253
V38
p254
sVr
V49
p255
sV100s
p256
I0
sV50s
p257
I0
ssg61
I2013
stp258
a(Vchamptrophy-2013-warmups
(dp259
g24
(dp260
Vinns
p261
I1
sVc
I2
sVro
p262
I0
sVm
I2
sVs
I0
ssg28
(dp263
Vinns
p264
I2
sV10w
p265
I0
sVnb
p266
I0
sVmaid
p267
I0
sVwb
p268
I3
sVbbmw
p269
I3
sV6s
p270
I0
sVbbmr
p271
I26
sVbbir
p272
I26
sVbbiw
p273
I3
sVa
V17.50
p274
sVb
I59
sVe
V7.11
p275
sVd
I21
sVwmaid
p276
I0
sV4w
p277
I0
sVm
I2
sV4s
p278
I9
sVr
I70
sVw
I4
sVsr
p279
V14.75
p280
sVov
p281
V9.83
p282
sV5w
p283
I0
ssg48
(dp284
Va
V16.00
p285
sVb
I38
sVinns
p286
I2
sVno
p287
I0
sVsr
p288
V84.21
p289
sVm
I2
sV4s
p290
I5
sV6s
p291
I0
sVhs
p292
V20
p293
sVr
V32
p294
sV100s
p295
I0
sV50s
p296
I0
ssg61
I2013
stp297
a(Vbigbash-2013
(dp298
g24
(dp299
Vinns
p300
I1
sVc
I1
sVro
p301
I0
sVm
I2
sVs
I0
ssg28
(dp302
Vinns
p303
I2
sV10w
p304
I0
sVnb
p305
I0
sVmaid
p306
I0
sVwb
p307
I0
sVbbmw
p308
I2
sV6s
p309
I0
sVbbmr
p310
I23
sVbbir
p311
I23
sVbbiw
p312
I2
sVa
V15.33
p313
sVb
I48
sVe
V5.75
p314
sVd
I15
sVwmaid
p315
I0
sV4w
p316
I0
sVm
I2
sV4s
p317
I2
sVr
I46
sVw
I3
sVsr
p318
V16.00
p319
sVov
p320
V8.00
p321
sV5w
p322
I0
ssg48
(dp323
Va
V42.50
p324
sVb
I63
sVinns
p325
I2
sVno
p326
I0
sVsr
p327
V134.92
p328
sVm
I2
sV4s
p329
I2
sV6s
p330
I6
sVhs
p331
V47
p332
sVr
V85
p333
sV100s
p334
I0
sV50s
p335
I0
ssg61
I2013
stp336
a(Vnz-wi-2013
(dp337
g24
(dp338
Vinns
p339
I3
sVc
I5
sVro
p340
I0
sVm
I6
sVs
I0
ssg28
(dp341
Vinns
p342
I6
sV10w
p343
I0
sVnb
p344
I0
sVmaid
p345
I0
sVwb
p346
I6
sVbbmw
p347
I4
sV6s
p348
I7
sVbbmr
p349
I44
sVbbir
p350
I44
sVbbiw
p351
I4
sVa
V27.71
p352
sVb
I198
sVe
V5.87
p353
sVd
I88
sVwmaid
p354
I0
sV4w
p355
I1
sVm
I6
sV4s
p356
I12
sVr
I194
sVw
I7
sVsr
p357
V28.28
p358
sVov
p359
V33.00
p360
sV5w
p361
I0
ssg48
(dp362
Va
V59.75
p363
sVb
I227
sVinns
p364
I6
sVno
p365
I2
sVsr
p366
V105.28
p367
sVm
I6
sV4s
p368
I20
sV6s
p369
I8
sVhs
p370
V106
p371
sVr
V239
p372
sV100s
p373
I1
sV50s
p374
I1
ssg61
I2013
stp375
a(Vaus-wi-2013
(dp376
g24
(dp377
Vinns
p378
I1
sVc
I1
sVro
p379
I0
sVm
I5
sVs
I0
ssg28
(dp380
Vinns
p381
I4
sV10w
p382
I0
sVnb
p383
I0
sVmaid
p384
I0
sVwb
p385
I4
sVbbmw
p386
I2
sV6s
p387
I4
sVbbmr
p388
I62
sVbbir
p389
I62
sVbbiw
p390
I2
sVa
V48.25
p391
sVb
I174
sVe
V6.65
p392
sVd
I69
sVwmaid
p393
I0
sV4w
p394
I0
sVm
I5
sV4s
p395
I15
sVr
I193
sVw
I4
sVsr
p396
V43.50
p397
sVov
p398
V29.00
p399
sV5w
p400
I0
ssg48
(dp401
Va
V22.40
p402
sVb
I128
sVinns
p403
I5
sVno
p404
I0
sVsr
p405
V87.50
p406
sVm
I5
sV4s
p407
I9
sV6s
p408
I3
sVhs
p409
V51
p410
sVr
V112
p411
sV100s
p412
I0
sV50s
p413
I1
ssg61
I2013
stp414
a(Vind-wi-2013
(dp415
g24
(dp416
Vinns
p417
I2
sVc
I4
sVro
p418
I0
sVm
I3
sVs
I0
ssg28
(dp419
Vinns
p420
I3
sV10w
p421
I0
sVnb
p422
I0
sVmaid
p423
I0
sVwb
p424
I3
sVbbmw
p425
I2
sV6s
p426
I1
sVbbmr
p427
I57
sVbbir
p428
I57
sVbbiw
p429
I2
sVa
V65.50
p430
sVb
I122
sVe
V6.44
p431
sVd
I48
sVwmaid
p432
I0
sV4w
p433
I0
sVm
I3
sV4s
p434
I15
sVr
I131
sVw
I2
sVsr
p435
V61.00
p436
sVov
p437
V20.33
p438
sV5w
p439
I0
ssg48
(dp440
Va
V15.33
p441
sVb
I65
sVinns
p442
I3
sVno
p443
I0
sVsr
p444
V70.76
p445
sVm
I3
sV4s
p446
I4
sV6s
p447
I1
sVhs
p448
V24
p449
sVr
V46
p450
sV100s
p451
I0
sV50s
p452
I0
ssg61
I2013
stp453
a(Vaus-wi-t20-2013
(dp454
g24
(dp455
Vinns
p456
I0
sVc
I0
sVro
p457
I0
sVm
I1
sVs
I0
ssg28
(dp458
Vinns
p459
I1
sV10w
p460
I0
sVnb
p461
I0
sVmaid
p462
I0
sVwb
p463
I0
sVbbmw
p464
I0
sV6s
p465
I0
sVbbmr
p466
I17
sVbbir
p467
I17
sVbbiw
p468
I0
sVa
V-
sVb
I12
sVe
V8.50
p469
sVd
I2
sVwmaid
p470
I0
sV4w
p471
I0
sVm
I1
sV4s
p472
I2
sVr
I17
sVw
I0
sVsr
p473
V-
sVov
p474
V2.00
p475
sV5w
p476
I0
ssg48
(dp477
Va
V13.00
p478
sVb
I13
sVinns
p479
I1
sVno
p480
I0
sVsr
p481
V100.00
p482
sVm
I1
sV4s
p483
I0
sV6s
p484
I0
sVhs
p485
V13
p486
sVr
V13
p487
sV100s
p488
I0
sV50s
p489
I0
ssg61
I2013
stp490
a(Vwi-zim-2013
(dp491
g24
(dp492
Vinns
p493
I2
sVc
I3
sVro
p494
I1
sVm
I5
sVs
I0
ssg28
(dp495
Vinns
p496
I5
sV10w
p497
I0
sVnb
p498
I0
sVmaid
p499
I2
sVwb
p500
I9
sVbbmw
p501
I6
sV6s
p502
I4
sVbbmr
p503
I43
sVbbir
p504
I43
sVbbiw
p505
I6
sVa
V11.57
p506
sVb
I198
sVe
V4.90
p507
sVd
I105
sVwmaid
p508
I2
sV4w
p509
I0
sVm
I5
sV4s
p510
I11
sVr
I162
sVw
I14
sVsr
p511
V14.14
p512
sVov
p513
V33.00
p514
sV5w
p515
I1
ssg48
(dp516
Va
V32.00
p517
sVb
I96
sVinns
p518
I4
sVno
p519
I1
sVsr
p520
V100.00
p521
sVm
I5
sV4s
p522
I5
sV6s
p523
I3
sVhs
p524
V38*
p525
sVr
V96
p526
sV100s
p527
I0
sV50s
p528
I0
ssg61
I2013
stp529
a(Vchamptrophy-2013
(dp530
g24
(dp531
Vinns
p532
I2
sVc
I3
sVro
p533
I2
sVm
I3
sVs
I0
ssg28
(dp534
Vinns
p535
I3
sV10w
p536
I0
sVnb
p537
I0
sVmaid
p538
I0
sVwb
p539
I3
sVbbmw
p540
I2
sV6s
p541
I3
sVbbmr
p542
I43
sVbbir
p543
I43
sVbbiw
p544
I2
sVa
V36.00
p545
sVb
I114
sVe
V5.68
p546
sVd
I57
sVwmaid
p547
I0
sV4w
p548
I0
sVm
I3
sV4s
p549
I9
sVr
I108
sVw
I3
sVsr
p550
V38.00
p551
sVov
p552
V19.00
p553
sV5w
p554
I0
ssg48
(dp555
Va
V26.00
p556
sVb
I83
sVinns
p557
I3
sVno
p558
I1
sVsr
p559
V62.65
p560
sVm
I3
sV4s
p561
I4
sV6s
p562
I0
sVhs
p563
V25
p564
sVr
V52
p565
sV100s
p566
I0
sV50s
p567
I0
ssg61
I2013
stp568
a(Vipl2012
(dp569
g24
(dp570
Vinns
p571
I8
sVc
I9
sVro
p572
I3
sVm
I19
sVs
I0
ssg28
(dp573
Vinns
p574
I18
sV10w
p575
I0
sVnb
p576
I0
sVmaid
p577
I0
sVwb
p578
I17
sVbbmw
p579
I2
sV6s
p580
I13
sVbbmr
p581
I10
sVbbir
p582
I10
sVbbiw
p583
I2
sVa
V30.73
p584
sVb
I346
sVe
V7.99
p585
sVd
I110
sVwmaid
p586
I0
sV4w
p587
I0
sVm
I19
sV4s
p588
I42
sVr
I461
sVw
I15
sVsr
p589
V23.06
p590
sVov
p591
V57.66
p592
sV5w
p593
I0
ssg48
(dp594
Va
V46.37
p595
sVb
I264
sVinns
p596
I16
sVno
p597
I8
sVsr
p598
V140.53
p599
sVm
I19
sV4s
p600
I20
sV6s
p601
I20
sVhs
p602
V48
p603
sVr
V371
p604
sV100s
p605
I0
sV50s
p606
I0
ssg61
I2012
stp607
a(Vworldt20-2012
(dp608
g24
(dp609
Vinns
p610
I1
sVc
I2
sVro
p611
I1
sVm
I7
sVs
I0
ssg28
(dp612
Vinns
p613
I2
sV10w
p614
I0
sVnb
p615
I0
sVmaid
p616
I0
sVwb
p617
I0
sVbbmw
p618
I0
sV6s
p619
I2
sVbbmr
p620
I0
sVbbir
p621
I0
sVbbiw
p622
I0
sVa
V-
sVb
I16
sVe
V13.12
p623
sVd
I3
sVwmaid
p624
I0
sV4w
p625
I0
sVm
I7
sV4s
p626
I4
sVr
I35
sVw
I0
sVsr
p627
V-
sVov
p628
V2.66
p629
sV5w
p630
I0
ssg48
(dp631
Va
V29.60
p632
sVb
I129
sVinns
p633
I6
sVno
p634
I1
sVsr
p635
V114.72
p636
sVm
I7
sV4s
p637
I11
sV6s
p638
I7
sVhs
p639
V40
p640
sVr
V148
p641
sV100s
p642
I0
sV50s
p643
I0
ssg61
I2012
stp644
a(Vclt20-2011
(dp645
g24
(dp646
Vinns
p647
I1
sVc
I1
sVro
p648
I0
sVm
I4
sVs
I0
ssg28
(dp649
Vinns
p650
I4
sV10w
p651
I0
sVnb
p652
I0
sVmaid
p653
I0
sVwb
p654
I4
sVbbmw
p655
I2
sV6s
p656
I4
sVbbmr
p657
I22
sVbbir
p658
I22
sVbbiw
p659
I2
sVa
V22.60
p660
sVb
I90
sVe
V7.53
p661
sVd
I34
sVwmaid
p662
I0
sV4w
p663
I0
sVm
I4
sV4s
p664
I9
sVr
I113
sVw
I5
sVsr
p665
V18.00
p666
sVov
p667
V15.00
p668
sV5w
p669
I0
ssg48
(dp670
Va
V94.00
p671
sVb
I58
sVinns
p672
I3
sVno
p673
I2
sVsr
p674
V162.06
p675
sVm
I4
sV4s
p676
I9
sV6s
p677
I3
sVhs
p678
V46*
p679
sVr
V94
p680
sV100s
p681
I0
sV50s
p682
I0
ssg61
I2011
stp683
a(Vipl2011
(dp684
g24
(dp685
Vinns
p686
I3
sVc
I3
sVro
p687
I0
sVm
I6
sVs
I0
ssg28
(dp688
Vinns
p689
I6
sV10w
p690
I0
sVnb
p691
I0
sVmaid
p692
I0
sVwb
p693
I9
sVbbmw
p694
I2
sV6s
p695
I6
sVbbmr
p696
I21
sVbbir
p697
I21
sVbbiw
p698
I2
sVa
V26.16
p699
sVb
I120
sVe
V7.85
p700
sVd
I40
sVwmaid
p701
I0
sV4w
p702
I0
sVm
I6
sV4s
p703
I10
sVr
I157
sVw
I6
sVsr
p704
V20.00
p705
sVov
p706
V20.00
p707
sV5w
p708
I0
ssg48
(dp709
Va
V11.00
p710
sVb
I6
sVinns
p711
I2
sVno
p712
I1
sVsr
p713
V183.33
p714
sVm
I6
sV4s
p715
I1
sV6s
p716
I1
sVhs
p717
V6*
p718
sVr
V11
p719
sV100s
p720
I0
sV50s
p721
I0
ssg61
I2011
stp722
a(Vclt20-2010
(dp723
g24
(dp724
Vinns
p725
I1
sVc
I1
sVro
p726
I0
sVm
I3
sVs
I0
ssg28
(dp727
Vinns
p728
I3
sV10w
p729
I0
sVnb
p730
I0
sVmaid
p731
I0
sVwb
p732
I3
sVbbmw
p733
I2
sV6s
p734
I2
sVbbmr
p735
I18
sVbbir
p736
I18
sVbbiw
p737
I2
sVa
V21.75
p738
sVb
I66
sVe
V7.90
p739
sVd
I23
sVwmaid
p740
I0
sV4w
p741
I0
sVm
I3
sV4s
p742
I10
sVr
I87
sVw
I4
sVsr
p743
V16.50
p744
sVov
p745
V11.00
p746
sV5w
p747
I0
ssg48
(dp748
Va
V25.50
p749
sVb
I29
sVinns
p750
I2
sVno
p751
I0
sVsr
p752
V175.86
p753
sVm
I3
sV4s
p754
I7
sV6s
p755
I2
sVhs
p756
V29
p757
sVr
V51
p758
sV100s
p759
I0
sV50s
p760
I0
ssg61
I2010
stp761
a(Vipl2010
(dp762
g24
(dp763
Vinns
p764
I4
sVc
I4
sVro
p765
I1
sVm
I10
sVs
I0
ssg28
(dp766
Vinns
p767
I10
sV10w
p768
I0
sVnb
p769
I0
sVmaid
p770
I0
sVwb
p771
I5
sVbbmw
p772
I2
sV6s
p773
I9
sVbbmr
p774
I11
sVbbir
p775
I11
sVbbiw
p776
I2
sVa
V57.00
p777
sVb
I157
sVe
V8.71
p778
sVd
I48
sVwmaid
p779
I0
sV4w
p780
I0
sVm
I10
sV4s
p781
I19
sVr
I228
sVw
I4
sVsr
p782
V39.25
p783
sVov
p784
V26.16
p785
sV5w
p786
I0
ssg48
(dp787
Va
V8.71
p788
sVb
I53
sVinns
p789
I8
sVno
p790
I1
sVsr
p791
V115.09
p792
sVm
I10
sV4s
p793
I3
sV6s
p794
I4
sVhs
p795
V23
p796
sVr
V61
p797
sV100s
p798
I0
sV50s
p799
I0
ssg61
I2010
stp800
a(Vclt20-2009
(dp801
g24
(dp802
Vinns
p803
I2
sVc
I2
sVro
p804
I1
sVm
I6
sVs
I0
ssg28
(dp805
Vinns
p806
I6
sV10w
p807
I0
sVnb
p808
I0
sVmaid
p809
I0
sVwb
p810
I4
sVbbmw
p811
I4
sV6s
p812
I7
sVbbmr
p813
I23
sVbbir
p814
I23
sVbbiw
p815
I4
sVa
V15.83
p816
sVb
I132
sVe
V8.63
p817
sVd
I50
sVwmaid
p818
I0
sV4w
p819
I1
sVm
I6
sV4s
p820
I21
sVr
I190
sVw
I12
sVsr
p821
V11.00
p822
sVov
p823
V22.00
p824
sV5w
p825
I0
ssg48
(dp826
Va
V24.00
p827
sVb
I78
sVinns
p828
I6
sVno
p829
I2
sVsr
p830
V123.07
p831
sVm
I6
sV4s
p832
I7
sV6s
p833
I4
sVhs
p834
V58*
p835
sVr
V96
p836
sV100s
p837
I0
sV50s
p838
I1
ssg61
I2009
stp839
a(Vipl2009
(dp840
g24
(dp841
Vinns
p842
I8
sVc
I7
sVro
p843
I3
sVm
I11
sVs
I0
ssg28
(dp844
Vinns
p845
I11
sV10w
p846
I0
sVnb
p847
I1
sVmaid
p848
I0
sVwb
p849
I11
sVbbmw
p850
I3
sV6s
p851
I11
sVbbmr
p852
I34
sVbbir
p853
I34
sVbbiw
p854
I3
sVa
V23.54
p855
sVb
I199
sVe
V7.80
p856
sVd
I89
sVwmaid
p857
I0
sV4w
p858
I0
sVm
I11
sV4s
p859
I24
sVr
I259
sVw
I11
sVsr
p860
V18.09
p861
sVov
p862
V33.16
p863
sV5w
p864
I0
ssg48
(dp865
Va
V27.25
p866
sVb
I203
sVinns
p867
I10
sVno
p868
I2
sVsr
p869
V107.38
p870
sVm
I11
sV4s
p871
I15
sV6s
p872
I8
sVhs
p873
V70*
p874
sVr
V218
p875
sV100s
p876
I0
sV50s
p877
I2
ssg61
I2009
stp878
a(Vipl2008
(dp879
g24
(dp880
Vinns
p881
I3
sVc
I4
sVro
p882
I1
sVm
I9
sVs
I0
ssg28
(dp883
Vinns
p884
I9
sV10w
p885
I0
sVnb
p886
I0
sVmaid
p887
I1
sVwb
p888
I10
sVbbmw
p889
I3
sV6s
p890
I10
sVbbmr
p891
I24
sVbbir
p892
I24
sVbbiw
p893
I3
sVa
V21.09
p894
sVb
I171
sVe
V8.14
p895
sVd
I66
sVwmaid
p896
I1
sV4w
p897
I0
sVm
I9
sV4s
p898
I20
sVr
I232
sVw
I11
sVsr
p899
V15.54
p900
sVov
p901
V28.50
p902
sV5w
p903
I0
ssg48
(dp904
Va
V29.66
p905
sVb
I134
sVinns
p906
I7
sVno
p907
I1
sVsr
p908
V132.83
p909
sVm
I9
sV4s
p910
I19
sV6s
p911
I5
sVhs
p912
V64*
p913
sVr
V178
p914
sV100s
p915
I0
sV50s
p916
I1
ssg61
I2008
stp917
asb.