(iplayer
Player
p1
(dp2
S'is_batsman'
p3
I01
sS'name'
p4
S'Shaun Marsh'
p5
sS'dob'
p6
S'1983/07/09'
p7
sS'price'
p8
S'1000000'
p9
sS'is_allrounder'
p10
I00
sS'is_overseas'
p11
I01
sS'team'
p12
S'KXIP'
p13
sS'nationality'
p14
S'Australian'
p15
sS'is_bowler'
p16
I00
sS'is_keeper'
p17
I00
sS'id'
p18
S'191'
p19
sS'is_uncapped'
p20
I00
sS'tournamentStats'
p21
(lp22
(Vsa-aus-2014
(dp23
S'fieldingStats'
p24
(dp25
Vinns
p26
I2
sVc
I2
sVro
p27
I0
sVm
I2
sVs
I0
ssS'bowlingStats'
p28
(dp29
Vinns
p30
I0
sV10w
p31
I0
sVnb
p32
I0
sVmaid
p33
I0
sVwb
p34
I0
sVbbmw
p35
I0
sV6s
p36
I0
sVbbmr
p37
I0
sVbbir
p38
I0
sVbbiw
p39
I0
sVa
V-
sVb
I0
sVe
V-
sVd
I0
sVwmaid
p40
I0
sV4w
p41
I0
sVm
I2
sV4s
p42
I0
sVr
I0
sVw
I0
sVsr
p43
V-
sVov
p44
V-
sV5w
p45
I0
ssS'battingStats'
p46
(dp47
Va
V48.00
p48
sVb
I375
sVinns
p49
I4
sVno
p50
I0
sVsr
p51
V51.20
p52
sVm
I2
sV4s
p53
I20
sV6s
p54
I1
sVhs
p55
V148
p56
sVr
V192
p57
sV100s
p58
I1
sV50s
p59
I0
ssS'year'
p60
I2014
stp61
a(Vaus-wi-t20-2013
(dp62
g24
(dp63
Vinns
p64
I1
sVc
I2
sVro
p65
I0
sVm
I1
sVs
I0
ssg28
(dp66
Vinns
p67
I0
sV10w
p68
I0
sVnb
p69
I0
sVmaid
p70
I0
sVwb
p71
I0
sVbbmw
p72
I0
sV6s
p73
I0
sVbbmr
p74
I0
sVbbir
p75
I0
sVbbiw
p76
I0
sVa
V-
sVb
I0
sVe
V-
sVd
I0
sVwmaid
p77
I0
sV4w
p78
I0
sVm
I1
sV4s
p79
I0
sVr
I0
sVw
I0
sVsr
p80
V-
sVov
p81
V-
sV5w
p82
I0
ssg46
(dp83
Va
V21.00
p84
sVb
I19
sVinns
p85
I1
sVno
p86
I0
sVsr
p87
V110.52
p88
sVm
I1
sV4s
p89
I0
sV6s
p90
I1
sVhs
p91
V21
p92
sVr
V21
p93
sV100s
p94
I0
sV50s
p95
I0
ssg60
I2013
stp96
a(Veng-aus-2013
(dp97
g24
(dp98
Vinns
p99
I0
sVc
I0
sVro
p100
I0
sVm
I3
sVs
I0
ssg28
(dp101
Vinns
p102
I0
sV10w
p103
I0
sVnb
p104
I0
sVmaid
p105
I0
sVwb
p106
I0
sVbbmw
p107
I0
sV6s
p108
I0
sVbbmr
p109
I0
sVbbir
p110
I0
sVbbiw
p111
I0
sVa
V-
sVb
I0
sVe
V-
sVd
I0
sVwmaid
p112
I0
sV4w
p113
I0
sVm
I3
sV4s
p114
I0
sVr
I0
sVw
I0
sVsr
p115
V-
sVov
p116
V-
sV5w
p117
I0
ssg46
(dp118
Va
V12.50
p119
sVb
I44
sVinns
p120
I2
sVno
p121
I0
sVsr
p122
V56.81
p123
sVm
I3
sV4s
p124
I5
sV6s
p125
I0
sVhs
p126
V25
p127
sVr
V25
p128
sV100s
p129
I0
sV50s
p130
I0
ssg60
I2013
stp131
a(Vaus-eng-2013
(dp132
g24
(dp133
Vinns
p134
I1
sVc
I1
sVro
p135
I0
sVm
I4
sVs
I0
ssg28
(dp136
Vinns
p137
I0
sV10w
p138
I0
sVnb
p139
I0
sVmaid
p140
I0
sVwb
p141
I0
sVbbmw
p142
I0
sV6s
p143
I0
sVbbmr
p144
I0
sVbbir
p145
I0
sVbbiw
p146
I0
sVa
V-
sVb
I0
sVe
V-
sVd
I0
sVwmaid
p147
I0
sV4w
p148
I0
sVm
I4
sV4s
p149
I0
sVr
I0
sVw
I0
sVsr
p150
V-
sVov
p151
V-
sV5w
p152
I0
ssg46
(dp153
Va
V59.00
p154
sVb
I227
sVinns
p155
I4
sVno
p156
I1
sVsr
p157
V77.97
p158
sVm
I4
sV4s
p159
I19
sV6s
p160
I0
sVhs
p161
V71*
p162
sVr
V177
p163
sV100s
p164
I0
sV50s
p165
I2
ssg60
I2013
stp166
a(Vbigbash-2013
(dp167
g24
(dp168
Vinns
p169
I3
sVc
I4
sVro
p170
I1
sVm
I6
sVs
I0
ssg28
(dp171
Vinns
p172
I0
sV10w
p173
I0
sVnb
p174
I0
sVmaid
p175
I0
sVwb
p176
I0
sVbbmw
p177
I0
sV6s
p178
I0
sVbbmr
p179
I0
sVbbir
p180
I0
sVbbiw
p181
I0
sVa
V-
sVb
I0
sVe
V-
sVd
I0
sVwmaid
p182
I0
sV4w
p183
I0
sVm
I6
sV4s
p184
I0
sVr
I0
sVw
I0
sVsr
p185
V-
sVov
p186
V-
sV5w
p187
I0
ssg46
(dp188
Va
V38.60
p189
sVb
I160
sVinns
p190
I6
sVno
p191
I1
sVsr
p192
V120.62
p193
sVm
I6
sV4s
p194
I14
sV6s
p195
I4
sVhs
p196
V63*
p197
sVr
V193
p198
sV100s
p199
I0
sV50s
p200
I1
ssg60
I2013
stp201
a(Vaus-wi-2013
(dp202
g24
(dp203
Vinns
p204
I1
sVc
I0
sVro
p205
I1
sVm
I1
sVs
I0
ssg28
(dp206
Vinns
p207
I0
sV10w
p208
I0
sVnb
p209
I0
sVmaid
p210
I0
sVwb
p211
I0
sVbbmw
p212
I0
sV6s
p213
I0
sVbbmr
p214
I0
sVbbir
p215
I0
sVbbiw
p216
I0
sVa
V-
sVb
I0
sVe
V-
sVd
I0
sVwmaid
p217
I0
sV4w
p218
I0
sVm
I1
sV4s
p219
I0
sVr
I0
sVw
I0
sVsr
p220
V-
sVov
p221
V-
sV5w
p222
I0
ssg46
(dp223
Va
V40.00
p224
sVb
I58
sVinns
p225
I1
sVno
p226
I0
sVsr
p227
V68.96
p228
sVm
I1
sV4s
p229
I4
sV6s
p230
I0
sVhs
p231
V40
p232
sVr
V40
p233
sV100s
p234
I0
sV50s
p235
I0
ssg60
I2013
stp236
a(Vipl2013
p237
(dp238
g24
(dp239
Vinns
p240
I3
sVc
I3
sVro
p241
I0
sVm
I8
sVs
I0
ssg28
(dp242
Vinns
p243
I0
sV10w
p244
I0
sVnb
p245
I0
sVmaid
p246
I0
sVwb
p247
I0
sVbbmw
p248
I0
sV6s
p249
I0
sVbbmr
p250
I0
sVbbir
p251
I0
sVbbiw
p252
I0
sVa
V-
sVb
I0
sVe
V-
sVd
I0
sVwmaid
p253
I0
sV4w
p254
I0
sVm
I8
sV4s
p255
I0
sVr
I0
sVw
I0
sVsr
p256
V-
sVov
p257
V-
sV5w
p258
I0
ssg46
(dp259
Va
V37.50
p260
sVb
I249
sVinns
p261
I8
sVno
p262
I0
sVsr
p263
V120.48
p264
sVm
I8
sV4s
p265
I39
sV6s
p266
I4
sVhs
p267
V77
p268
sVr
V300
p269
sV100s
p270
I0
sV50s
p271
I3
ssg60
I2013
stp272
a(Vipl2012
(dp273
g24
(dp274
Vinns
p275
I7
sVc
I8
sVro
p276
I2
sVm
I13
sVs
I0
ssg28
(dp277
Vinns
p278
I0
sV10w
p279
I0
sVnb
p280
I0
sVmaid
p281
I0
sVwb
p282
I0
sVbbmw
p283
I0
sV6s
p284
I0
sVbbmr
p285
I0
sVbbir
p286
I0
sVbbiw
p287
I0
sVa
V-
sVb
I0
sVe
V-
sVd
I0
sVwmaid
p288
I0
sV4w
p289
I0
sVm
I13
sV4s
p290
I0
sVr
I0
sVw
I0
sVsr
p291
V-
sVov
p292
V-
sV5w
p293
I0
ssg46
(dp294
Va
V30.54
p295
sVb
I280
sVinns
p296
I13
sVno
p297
I2
sVsr
p298
V120.00
p299
sVm
I13
sV4s
p300
I39
sV6s
p301
I7
sVhs
p302
V68*
p303
sVr
V336
p304
sV100s
p305
I0
sV50s
p306
I2
ssg60
I2012
stp307
a(Vclt20-2012
(dp308
g24
(dp309
Vinns
p310
I0
sVc
I0
sVro
p311
I0
sVm
I3
sVs
I0
ssg28
(dp312
Vinns
p313
I0
sV10w
p314
I0
sVnb
p315
I0
sVmaid
p316
I0
sVwb
p317
I0
sVbbmw
p318
I0
sV6s
p319
I0
sVbbmr
p320
I0
sVbbir
p321
I0
sVbbiw
p322
I0
sVa
V-
sVb
I0
sVe
V-
sVd
I0
sVwmaid
p323
I0
sV4w
p324
I0
sVm
I3
sV4s
p325
I0
sVr
I0
sVw
I0
sVsr
p326
V-
sVov
p327
V-
sV5w
p328
I0
ssg46
(dp329
Va
V28.00
p330
sVb
I90
sVinns
p331
I3
sVno
p332
I0
sVsr
p333
V93.33
p334
sVm
I3
sV4s
p335
I10
sV6s
p336
I1
sVhs
p337
V39
p338
sVr
V84
p339
sV100s
p340
I0
sV50s
p341
I0
ssg60
I2012
stp342
a(Vaus-sl-2012
(dp343
g24
(dp344
Vinns
p345
I0
sVc
I0
sVro
p346
I0
sVm
I2
sVs
I0
ssg28
(dp347
Vinns
p348
I0
sV10w
p349
I0
sVnb
p350
I0
sVmaid
p351
I0
sVwb
p352
I0
sVbbmw
p353
I0
sV6s
p354
I0
sVbbmr
p355
I0
sVbbir
p356
I0
sVbbiw
p357
I0
sVa
V-
sVb
I0
sVe
V-
sVd
I0
sVwmaid
p358
I0
sV4w
p359
I0
sVm
I2
sV4s
p360
I0
sVr
I0
sVw
I0
sVsr
p361
V-
sVov
p362
V-
sV5w
p363
I0
ssg46
(dp364
Va
V53.00
p365
sVb
I57
sVinns
p366
I2
sVno
p367
I1
sVsr
p368
V92.98
p369
sVm
I2
sV4s
p370
I2
sV6s
p371
I2
sVhs
p372
V47*
p373
sVr
V53
p374
sV100s
p375
I0
sV50s
p376
I0
ssg60
I2012
stp377
a(Vbigbash-2012
(dp378
g24
(dp379
Vinns
p380
I2
sVc
I3
sVro
p381
I1
sVm
I9
sVs
I0
ssg28
(dp382
Vinns
p383
I0
sV10w
p384
I0
sVnb
p385
I0
sVmaid
p386
I0
sVwb
p387
I0
sVbbmw
p388
I0
sV6s
p389
I0
sVbbmr
p390
I0
sVbbir
p391
I0
sVbbiw
p392
I0
sVa
V-
sVb
I0
sVe
V-
sVd
I0
sVwmaid
p393
I0
sV4w
p394
I0
sVm
I9
sV4s
p395
I0
sVr
I0
sVw
I0
sVsr
p396
V-
sVov
p397
V-
sV5w
p398
I0
ssg46
(dp399
Va
V58.85
p400
sVb
I320
sVinns
p401
I9
sVno
p402
I2
sVsr
p403
V128.75
p404
sVm
I9
sV4s
p405
I35
sV6s
p406
I16
sVhs
p407
V85
p408
sVr
V412
p409
sV100s
p410
I0
sV50s
p411
I5
ssg60
I2012
stp412
a(Vipl2011
(dp413
g24
(dp414
Vinns
p415
I5
sVc
I6
sVro
p416
I0
sVm
I14
sVs
I0
ssg28
(dp417
Vinns
p418
I0
sV10w
p419
I0
sVnb
p420
I0
sVmaid
p421
I0
sVwb
p422
I0
sVbbmw
p423
I0
sV6s
p424
I0
sVbbmr
p425
I0
sVbbir
p426
I0
sVbbiw
p427
I0
sVa
V-
sVb
I0
sVe
V-
sVd
I0
sVwmaid
p428
I0
sV4w
p429
I0
sVm
I14
sV4s
p430
I0
sVr
I0
sVw
I0
sVsr
p431
V-
sVov
p432
V-
sV5w
p433
I0
ssg46
(dp434
Va
V42.00
p435
sVb
I344
sVinns
p436
I13
sVno
p437
I1
sVsr
p438
V146.51
p439
sVm
I14
sV4s
p440
I52
sV6s
p441
I20
sVhs
p442
V95
p443
sVr
V504
p444
sV100s
p445
I0
sV50s
p446
I4
ssg60
I2011
stp447
a(Vipl2010
(dp448
g24
(dp449
Vinns
p450
I1
sVc
I1
sVro
p451
I0
sVm
I4
sVs
I0
ssg28
(dp452
Vinns
p453
I0
sV10w
p454
I0
sVnb
p455
I0
sVmaid
p456
I0
sVwb
p457
I0
sVbbmw
p458
I0
sV6s
p459
I0
sVbbmr
p460
I0
sVbbir
p461
I0
sVbbiw
p462
I0
sVa
V-
sVb
I0
sVe
V-
sVd
I0
sVwmaid
p463
I0
sV4w
p464
I0
sVm
I4
sV4s
p465
I0
sVr
I0
sVw
I0
sVsr
p466
V-
sVov
p467
V-
sV5w
p468
I0
ssg46
(dp469
Va
V49.00
p470
sVb
I114
sVinns
p471
I4
sVno
p472
I1
sVsr
p473
V128.94
p474
sVm
I4
sV4s
p475
I14
sV6s
p476
I6
sVhs
p477
V88*
p478
sVr
V147
p479
sV100s
p480
I0
sV50s
p481
I2
ssg60
I2010
stp482
a(Vipl2008
(dp483
g24
(dp484
Vinns
p485
I4
sVc
I3
sVro
p486
I1
sVm
I11
sVs
I0
ssg28
(dp487
Vinns
p488
I0
sV10w
p489
I0
sVnb
p490
I0
sVmaid
p491
I0
sVwb
p492
I0
sVbbmw
p493
I0
sV6s
p494
I0
sVbbmr
p495
I0
sVbbir
p496
I0
sVbbiw
p497
I0
sVa
V-
sVb
I0
sVe
V-
sVd
I0
sVwmaid
p498
I0
sV4w
p499
I0
sVm
I11
sV4s
p500
I0
sVr
I0
sVw
I0
sVsr
p501
V-
sVov
p502
V-
sV5w
p503
I0
ssg46
(dp504
Va
V68.44
p505
sVb
I441
sVinns
p506
I11
sVno
p507
I2
sVsr
p508
V139.68
p509
sVm
I11
sV4s
p510
I59
sV6s
p511
I26
sVhs
p512
V115
p513
sVr
V616
p514
sV100s
p515
I1
sV50s
p516
I5
ssg60
I2008
stp517
asb.