(iplayer
Player
p1
(dp2
S'is_batsman'
p3
I00
sS'name'
p4
S'Glenn Maxwell'
p5
sS'dob'
p6
S'1988/10/14'
p7
sS'price'
p8
S'900000'
p9
sS'is_allrounder'
p10
I01
sS'is_overseas'
p11
I01
sS'team'
p12
S'KXIP'
p13
sS'nationality'
p14
S'Australian'
p15
sS'is_bowler'
p16
I00
sS'is_keeper'
p17
I00
sS'id'
p18
S'282'
p19
sS'is_uncapped'
p20
I00
sS'tournamentStats'
p21
(lp22
(Vworldt20-2014
(dp23
S'fieldingStats'
p24
(dp25
Vinns
p26
I1
sVc
I1
sVro
p27
I0
sVm
I1
sVs
I0
ssS'bowlingStats'
p28
(dp29
Vinns
p30
I0
sV10w
p31
I0
sVnb
p32
I0
sVmaid
p33
I0
sVwb
p34
I0
sVbbmw
p35
I0
sV6s
p36
I0
sVbbmr
p37
I0
sVbbir
p38
I0
sVbbiw
p39
I0
sVa
V-
sVb
I0
sVe
V-
sVd
I0
sVwmaid
p40
I0
sV4w
p41
I0
sVm
I1
sV4s
p42
I0
sVr
I0
sVw
I0
sVsr
p43
V-
sVov
p44
V-
sV5w
p45
I0
ssS'battingStats'
p46
(dp47
Va
V74.00
p48
sVb
I33
sVinns
p49
I1
sVno
p50
I0
sVsr
p51
V224.24
p52
sVm
I1
sV4s
p53
I7
sV6s
p54
I6
sVhs
p55
V74
p56
sVr
V74
p57
sV100s
p58
I0
sV50s
p59
I1
ssS'year'
p60
I2014
stp61
a(Vsa-aus-2014
(dp62
g24
(dp63
Vinns
p64
I0
sVc
I0
sVro
p65
I0
sVm
I2
sVs
I0
ssg28
(dp66
Vinns
p67
I1
sV10w
p68
I0
sVnb
p69
I0
sVmaid
p70
I0
sVwb
p71
I1
sVbbmw
p72
I2
sV6s
p73
I0
sVbbmr
p74
I19
sVbbir
p75
I19
sVbbiw
p76
I2
sVa
V9.50
p77
sVb
I24
sVe
V4.75
p78
sVd
I14
sVwmaid
p79
I0
sV4w
p80
I0
sVm
I2
sV4s
p81
I2
sVr
I19
sVw
I2
sVsr
p82
V12.00
p83
sVov
p84
V4.00
p85
sV5w
p86
I0
ssg46
(dp87
Va
V9.00
p88
sVb
I15
sVinns
p89
I2
sVno
p90
I0
sVsr
p91
V120.00
p92
sVm
I2
sV4s
p93
I2
sV6s
p94
I0
sVhs
p95
V17
p96
sVr
V18
p97
sV100s
p98
I0
sV50s
p99
I0
ssg60
I2014
stp100
a(Vaus-eng-2013
(dp101
g24
(dp102
Vinns
p103
I5
sVc
I5
sVro
p104
I2
sVm
I8
sVs
I0
ssg28
(dp105
Vinns
p106
I8
sV10w
p107
I0
sVnb
p108
I0
sVmaid
p109
I0
sVwb
p110
I2
sVbbmw
p111
I2
sV6s
p112
I4
sVbbmr
p113
I31
sVbbir
p114
I31
sVbbiw
p115
I2
sVa
V34.14
p116
sVb
I270
sVe
V5.31
p117
sVd
I115
sVwmaid
p118
I0
sV4w
p119
I0
sVm
I8
sV4s
p120
I15
sVr
I239
sVw
I7
sVsr
p121
V38.57
p122
sVov
p123
V45.00
p124
sV5w
p125
I0
ssg46
(dp126
Va
V24.33
p127
sVb
I137
sVinns
p128
I7
sVno
p129
I1
sVsr
p130
V106.56
p131
sVm
I8
sV4s
p132
I13
sV6s
p133
I3
sVhs
p134
V54
p135
sVr
V146
p136
sV100s
p137
I0
sV50s
p138
I1
ssg60
I2013
stp139
a(Vind-aus-2-2013
(dp140
g24
(dp141
Vinns
p142
I1
sVc
I0
sVro
p143
I1
sVm
I7
sVs
I0
ssg28
(dp144
Vinns
p145
I4
sV10w
p146
I0
sVnb
p147
I0
sVmaid
p148
I0
sVwb
p149
I1
sVbbmw
p150
I1
sV6s
p151
I8
sVbbmr
p152
I8
sVbbir
p153
I8
sVbbiw
p154
I1
sVa
V128.00
p155
sVb
I105
sVe
V7.31
p156
sVd
I46
sVwmaid
p157
I0
sV4w
p158
I0
sVm
I7
sV4s
p159
I8
sVr
I128
sVw
I1
sVsr
p160
V105.00
p161
sVov
p162
V17.50
p163
sV5w
p164
I0
ssg46
(dp165
Va
V39.28
p166
sVb
I176
sVinns
p167
I7
sVno
p168
I0
sVsr
p169
V156.25
p170
sVm
I7
sV4s
p171
I19
sV6s
p172
I20
sVhs
p173
V92
p174
sVr
V275
p175
sV100s
p176
I0
sV50s
p177
I3
ssg60
I2013
stp178
a(Vclt20-2013
(dp179
g24
(dp180
Vinns
p181
I0
sVc
I0
sVro
p182
I0
sVm
I2
sVs
I0
ssg28
(dp183
Vinns
p184
I2
sV10w
p185
I0
sVnb
p186
I0
sVmaid
p187
I0
sVwb
p188
I0
sVbbmw
p189
I0
sV6s
p190
I0
sVbbmr
p191
I0
sVbbir
p192
I0
sVbbiw
p193
I0
sVa
V-
sVb
I24
sVe
V6.00
p194
sVd
I8
sVwmaid
p195
I0
sV4w
p196
I0
sVm
I2
sV4s
p197
I3
sVr
I24
sVw
I0
sVsr
p198
V-
sVov
p199
V4.00
p200
sV5w
p201
I0
ssg46
(dp202
Va
V23.50
p203
sVb
I21
sVinns
p204
I2
sVno
p205
I0
sVsr
p206
V223.80
p207
sVm
I2
sV4s
p208
I6
sV6s
p209
I2
sVhs
p210
V37
p211
sVr
V47
p212
sV100s
p213
I0
sV50s
p214
I0
ssg60
I2013
stp215
a(Vind-aus-2013
(dp216
g24
(dp217
Vinns
p218
I1
sVc
I2
sVro
p219
I0
sVm
I2
sVs
I0
ssg28
(dp220
Vinns
p221
I3
sV10w
p222
I0
sVnb
p223
I0
sVmaid
p224
I2
sVwb
p225
I0
sVbbmw
p226
I4
sV6s
p227
I2
sVbbmr
p228
I127
sVbbir
p229
I127
sVbbiw
p230
I4
sVa
V27.57
p231
sVb
I246
sVe
V4.70
p232
sVd
I160
sVwmaid
p233
I0
sV4w
p234
I1
sVm
I2
sV4s
p235
I28
sVr
I193
sVw
I7
sVsr
p236
V35.14
p237
sVov
p238
V41.00
p239
sV5w
p240
I0
ssg46
(dp241
Va
V9.75
p242
sVb
I74
sVinns
p243
I4
sVno
p244
I0
sVsr
p245
V52.70
p246
sVm
I2
sV4s
p247
I5
sV6s
p248
I1
sVhs
p249
V13
p250
sVr
V39
p251
sV100s
p252
I0
sV50s
p253
I0
ssg60
I2013
stp254
a(Vchamptrophy-2013-warmups
(dp255
g24
(dp256
Vinns
p257
I0
sVc
I0
sVro
p258
I0
sVm
I2
sVs
I0
ssg28
(dp259
Vinns
p260
I0
sV10w
p261
I0
sVnb
p262
I0
sVmaid
p263
I0
sVwb
p264
I0
sVbbmw
p265
I0
sV6s
p266
I0
sVbbmr
p267
I0
sVbbir
p268
I0
sVbbiw
p269
I0
sVa
V-
sVb
I0
sVe
V-
sVd
I0
sVwmaid
p270
I0
sV4w
p271
I0
sVm
I2
sV4s
p272
I0
sVr
I0
sVw
I0
sVsr
p273
V-
sVov
p274
V-
sV5w
p275
I0
ssg46
(dp276
Va
V-
sVinns
p277
I0
sVno
p278
I0
sVsr
p279
V-
sVm
I2
sV4s
p280
I0
sV6s
p281
I0
sVhs
p282
V0*
p283
sVr
V0
sV100s
p284
I0
sV50s
p285
I0
ssg60
I2013
stp286
a(Vchamptrophy-2013
(dp287
g24
(dp288
Vinns
p289
I2
sVc
I2
sVro
p290
I1
sVm
I2
sVs
I0
ssg28
(dp291
Vinns
p292
I1
sV10w
p293
I0
sVnb
p294
I0
sVmaid
p295
I0
sVwb
p296
I0
sVbbmw
p297
I0
sV6s
p298
I0
sVbbmr
p299
I0
sVbbir
p300
I26
sVbbiw
p301
I0
sVa
V-
sVb
I30
sVe
V5.20
p302
sVd
I11
sVwmaid
p303
I0
sV4w
p304
I0
sVm
I2
sV4s
p305
I2
sVr
I26
sVw
I0
sVsr
p306
V-
sVov
p307
V5.00
p308
sV5w
p309
I0
ssg46
(dp310
Va
V61.00
p311
sVb
I42
sVinns
p312
I2
sVno
p313
I1
sVsr
p314
V145.23
p315
sVm
I2
sV4s
p316
I6
sV6s
p317
I3
sVhs
p318
V32
p319
sVr
V61
p320
sV100s
p321
I0
sV50s
p322
I0
ssg60
I2013
stp323
a(Vbigbash-2013
(dp324
g24
(dp325
Vinns
p326
I4
sVc
I6
sVro
p327
I2
sVm
I6
sVs
I0
ssg28
(dp328
Vinns
p329
I3
sV10w
p330
I0
sVnb
p331
I0
sVmaid
p332
I0
sVwb
p333
I0
sVbbmw
p334
I3
sV6s
p335
I1
sVbbmr
p336
I26
sVbbir
p337
I26
sVbbiw
p338
I3
sVa
V16.33
p339
sVb
I48
sVe
V6.12
p340
sVd
I14
sVwmaid
p341
I0
sV4w
p342
I0
sVm
I6
sV4s
p343
I1
sVr
I49
sVw
I3
sVsr
p344
V16.00
p345
sVov
p346
V8.00
p347
sV5w
p348
I0
ssg46
(dp349
Va
V47.66
p350
sVb
I72
sVinns
p351
I5
sVno
p352
I2
sVsr
p353
V198.61
p354
sVm
I6
sV4s
p355
I9
sV6s
p356
I11
sVhs
p357
V58*
p358
sVr
V143
p359
sV100s
p360
I0
sV50s
p361
I1
ssg60
I2013
stp362
a(Vaus-wi-2013
(dp363
g24
(dp364
Vinns
p365
I1
sVc
I2
sVro
p366
I0
sVm
I4
sVs
I0
ssg28
(dp367
Vinns
p368
I3
sV10w
p369
I0
sVnb
p370
I0
sVmaid
p371
I1
sVwb
p372
I3
sVbbmw
p373
I4
sV6s
p374
I5
sVbbmr
p375
I63
sVbbir
p376
I63
sVbbiw
p377
I4
sVa
V23.50
p378
sVb
I169
sVe
V5.00
p379
sVd
I90
sVwmaid
p380
I0
sV4w
p381
I1
sVm
I4
sV4s
p382
I9
sVr
I141
sVw
I6
sVsr
p383
V28.16
p384
sVov
p385
V28.16
p386
sV5w
p387
I0
ssg46
(dp388
Va
V28.00
p389
sVb
I41
sVinns
p390
I4
sVno
p391
I2
sVsr
p392
V136.58
p393
sVm
I4
sV4s
p394
I9
sV6s
p395
I2
sVhs
p396
V51*
p397
sVr
V56
p398
sV100s
p399
I0
sV50s
p400
I1
ssg60
I2013
stp401
a(Veng-aus-2013
(dp402
g24
(dp403
Vinns
p404
I1
sVc
I1
sVro
p405
I0
sVm
I2
sVs
I0
ssg28
(dp406
Vinns
p407
I1
sV10w
p408
I0
sVnb
p409
I0
sVmaid
p410
I0
sVwb
p411
I0
sVbbmw
p412
I0
sV6s
p413
I1
sVbbmr
p414
I0
sVbbir
p415
I25
sVbbiw
p416
I0
sVa
V-
sVb
I12
sVe
V12.50
p417
sVd
I1
sVwmaid
p418
I0
sV4w
p419
I0
sVm
I2
sV4s
p420
I2
sVr
I25
sVw
I0
sVsr
p421
V-
sVov
p422
V2.00
p423
sV5w
p424
I0
ssg46
(dp425
Va
V12.00
p426
sVb
I18
sVinns
p427
I2
sVno
p428
I0
sVsr
p429
V133.33
p430
sVm
I2
sV4s
p431
I1
sV6s
p432
I1
sVhs
p433
V23
p434
sVr
V24
p435
sV100s
p436
I0
sV50s
p437
I0
ssg60
I2013
stp438
a(Vipl2013
p439
(dp440
g24
(dp441
Vinns
p442
I2
sVc
I1
sVro
p443
I1
sVm
I3
sVs
I0
ssg28
(dp444
Vinns
p445
I2
sV10w
p446
I0
sVnb
p447
I0
sVmaid
p448
I0
sVwb
p449
I0
sVbbmw
p450
I0
sV6s
p451
I2
sVbbmr
p452
I0
sVbbir
p453
I0
sVbbiw
p454
I0
sVa
V-
sVb
I12
sVe
V11.50
p455
sVd
I2
sVwmaid
p456
I0
sV4w
p457
I0
sVm
I3
sV4s
p458
I1
sVr
I23
sVw
I0
sVsr
p459
V-
sVov
p460
V2.00
p461
sV5w
p462
I0
ssg46
(dp463
Va
V18.00
p464
sVb
I27
sVinns
p465
I3
sVno
p466
I1
sVsr
p467
V133.33
p468
sVm
I3
sV4s
p469
I1
sV6s
p470
I4
sVhs
p471
V23
p472
sVr
V36
p473
sV100s
p474
I0
sV50s
p475
I0
ssg60
I2013
stp476
a(Vipl2012
(dp477
g24
(dp478
Vinns
p479
I0
sVc
I0
sVro
p480
I0
sVm
I2
sVs
I0
ssg28
(dp481
Vinns
p482
I2
sV10w
p483
I0
sVnb
p484
I0
sVmaid
p485
I0
sVwb
p486
I1
sVbbmw
p487
I1
sV6s
p488
I1
sVbbmr
p489
I10
sVbbir
p490
I10
sVbbiw
p491
I1
sVa
V22.00
p492
sVb
I18
sVe
V7.33
p493
sVd
I6
sVwmaid
p494
I0
sV4w
p495
I0
sVm
I2
sV4s
p496
I1
sVr
I22
sVw
I1
sVsr
p497
V18.00
p498
sVov
p499
V3.00
p500
sV5w
p501
I0
ssg46
(dp502
Va
V6.00
p503
sVb
I11
sVinns
p504
I2
sVno
p505
I1
sVsr
p506
V54.54
p507
sVm
I2
sV4s
p508
I0
sV6s
p509
I0
sVhs
p510
V3*
p511
sVr
V6
sV100s
p512
I0
sV50s
p513
I0
ssg60
I2012
stp514
a(Vclt20-2012
(dp515
g24
(dp516
Vinns
p517
I1
sVc
I1
sVro
p518
I0
sVm
I2
sVs
I0
ssg28
(dp519
Vinns
p520
I1
sV10w
p521
I0
sVnb
p522
I0
sVmaid
p523
I0
sVwb
p524
I0
sVbbmw
p525
I0
sV6s
p526
I0
sVbbmr
p527
I0
sVbbir
p528
I0
sVbbiw
p529
I0
sVa
V-
sVb
I3
sVe
V10.00
p530
sVd
I1
sVwmaid
p531
I0
sV4w
p532
I0
sVm
I2
sV4s
p533
I1
sVr
I5
sVw
I0
sVsr
p534
V-
sVov
p535
V0.50
p536
sV5w
p537
I0
ssg46
(dp538
Va
V26.50
p539
sVb
I36
sVinns
p540
I2
sVno
p541
I0
sVsr
p542
V147.22
p543
sVm
I2
sV4s
p544
I6
sV6s
p545
I3
sVhs
p546
V42
p547
sVr
V53
p548
sV100s
p549
I0
sV50s
p550
I0
ssg60
I2012
stp551
a(Vbigbash-2012
(dp552
g24
(dp553
Vinns
p554
I4
sVc
I4
sVro
p555
I1
sVm
I7
sVs
I0
ssg28
(dp556
Vinns
p557
I3
sV10w
p558
I0
sVnb
p559
I0
sVmaid
p560
I0
sVwb
p561
I1
sVbbmw
p562
I1
sV6s
p563
I0
sVbbmr
p564
I5
sVbbir
p565
I5
sVbbiw
p566
I1
sVa
V21.00
p567
sVb
I18
sVe
V7.00
p568
sVd
I5
sVwmaid
p569
I0
sV4w
p570
I0
sVm
I7
sV4s
p571
I1
sVr
I21
sVw
I1
sVsr
p572
V18.00
p573
sVov
p574
V3.00
p575
sV5w
p576
I0
ssg46
(dp577
Va
V24.16
p578
sVb
I95
sVinns
p579
I6
sVno
p580
I0
sVsr
p581
V152.63
p582
sVm
I7
sV4s
p583
I12
sV6s
p584
I6
sVhs
p585
V82
p586
sVr
V145
p587
sV100s
p588
I0
sV50s
p589
I1
ssg60
I2012
stp590
a(Vpre-worldt20-2012
(dp591
g24
(dp592
Vinns
p593
I0
sVc
I0
sVro
p594
I0
sVm
I2
sVs
I0
ssg28
(dp595
Vinns
p596
I2
sV10w
p597
I0
sVnb
p598
I0
sVmaid
p599
I0
sVwb
p600
I1
sVbbmw
p601
I1
sV6s
p602
I1
sVbbmr
p603
I12
sVbbir
p604
I12
sVbbiw
p605
I1
sVa
V37.00
p606
sVb
I36
sVe
V6.16
p607
sVd
I18
sVwmaid
p608
I0
sV4w
p609
I0
sVm
I2
sV4s
p610
I3
sVr
I37
sVw
I1
sVsr
p611
V36.00
p612
sVov
p613
V6.00
p614
sV5w
p615
I0
ssg46
(dp616
Va
V15.50
p617
sVb
I27
sVinns
p618
I2
sVno
p619
I0
sVsr
p620
V114.81
p621
sVm
I2
sV4s
p622
I3
sV6s
p623
I1
sVhs
p624
V27
p625
sVr
V31
p626
sV100s
p627
I0
sV50s
p628
I0
ssg60
I2012
stp629
a(Vaus-sl-2012
(dp630
g24
(dp631
Vinns
p632
I2
sVc
I1
sVro
p633
I2
sVm
I5
sVs
I0
ssg28
(dp634
Vinns
p635
I5
sV10w
p636
I0
sVnb
p637
I0
sVmaid
p638
I0
sVwb
p639
I2
sVbbmw
p640
I2
sV6s
p641
I2
sVbbmr
p642
I15
sVbbir
p643
I15
sVbbiw
p644
I2
sVa
V30.33
p645
sVb
I97
sVe
V5.62
p646
sVd
I35
sVwmaid
p647
I0
sV4w
p648
I0
sVm
I5
sV4s
p649
I3
sVr
I91
sVw
I3
sVsr
p650
V32.33
p651
sVov
p652
V16.16
p653
sV5w
p654
I0
ssg46
(dp655
Va
V10.00
p656
sVb
I36
sVinns
p657
I4
sVno
p658
I1
sVsr
p659
V83.33
p660
sVm
I5
sV4s
p661
I4
sV6s
p662
I0
sVhs
p663
V9
sVr
V30
p664
sV100s
p665
I0
sV50s
p666
I0
ssg60
I2012
stp667
a(Vworldt20-2012
(dp668
g24
(dp669
Vinns
p670
I1
sVc
I2
sVro
p671
I0
sVm
I7
sVs
I0
ssg28
(dp672
Vinns
p673
I7
sV10w
p674
I0
sVnb
p675
I0
sVmaid
p676
I0
sVwb
p677
I1
sVbbmw
p678
I1
sV6s
p679
I2
sVbbmr
p680
I12
sVbbir
p681
I12
sVbbiw
p682
I1
sVa
V34.50
p683
sVb
I60
sVe
V6.90
p684
sVd
I19
sVwmaid
p685
I0
sV4w
p686
I0
sVm
I7
sV4s
p687
I5
sVr
I69
sVw
I2
sVsr
p688
V30.00
p689
sVov
p690
V10.00
p691
sV5w
p692
I0
ssg46
(dp693
Va
V16.66
p694
sVb
I51
sVinns
p695
I4
sVno
p696
I1
sVsr
p697
V98.03
p698
sVm
I7
sV4s
p699
I1
sV6s
p700
I2
sVhs
p701
V24
p702
sVr
V50
p703
sV100s
p704
I0
sV50s
p705
I0
ssg60
I2012
stp706
a(Vclt20-2010
(dp707
g24
(dp708
Vinns
p709
I1
sVc
I1
sVro
p710
I0
sVm
I1
sVs
I0
ssg28
(dp711
Vinns
p712
I0
sV10w
p713
I0
sVnb
p714
I0
sVmaid
p715
I0
sVwb
p716
I0
sVbbmw
p717
I0
sV6s
p718
I0
sVbbmr
p719
I0
sVbbir
p720
I0
sVbbiw
p721
I0
sVa
V-
sVb
I0
sVe
V-
sVd
I0
sVwmaid
p722
I0
sV4w
p723
I0
sVm
I1
sV4s
p724
I0
sVr
I0
sVw
I0
sVsr
p725
V-
sVov
p726
V-
sV5w
p727
I0
ssg46
(dp728
Va
V2.00
p729
sVb
I4
sVinns
p730
I1
sVno
p731
I0
sVsr
p732
V50.00
p733
sVm
I1
sV4s
p734
I0
sV6s
p735
I0
sVhs
p736
V2
sVr
V2
sV100s
p737
I0
sV50s
p738
I0
ssg60
I2010
stp739
asb.