(iplayer
Player
p1
(dp2
S'is_batsman'
p3
I01
sS'name'
p4
S'George Bailey'
p5
sS'dob'
p6
S'1982/09/07'
p7
sS'price'
p8
S'900000'
p9
sS'is_allrounder'
p10
I00
sS'is_overseas'
p11
I01
sS'team'
p12
S'KXIP'
p13
sS'nationality'
p14
S'Australian'
p15
sS'is_bowler'
p16
I00
sS'is_keeper'
p17
I00
sS'id'
p18
S'19'
p19
sS'is_uncapped'
p20
I00
sS'tournamentStats'
p21
(lp22
(Vsa-aus-2014
(dp23
S'fieldingStats'
p24
(dp25
Vinns
p26
I1
sVc
I1
sVro
p27
I0
sVm
I2
sVs
I0
ssS'bowlingStats'
p28
(dp29
Vinns
p30
I0
sV10w
p31
I0
sVnb
p32
I0
sVmaid
p33
I0
sVwb
p34
I0
sVbbmw
p35
I0
sV6s
p36
I0
sVbbmr
p37
I0
sVbbir
p38
I0
sVbbiw
p39
I0
sVa
V-
sVb
I0
sVe
V-
sVd
I0
sVwmaid
p40
I0
sV4w
p41
I0
sVm
I2
sV4s
p42
I0
sVr
I0
sVw
I0
sVsr
p43
V-
sVov
p44
V-
sV5w
p45
I0
ssS'battingStats'
p46
(dp47
Va
V14.00
p48
sVb
I9
sVinns
p49
I2
sVno
p50
I1
sVsr
p51
V155.55
p52
sVm
I2
sV4s
p53
I0
sV6s
p54
I1
sVhs
p55
V12*
p56
sVr
V14
p57
sV100s
p58
I0
sV50s
p59
I0
ssS'year'
p60
I2014
stp61
a(Vworldt20-2014
p62
(dp63
g24
(dp64
Vinns
p65
I0
sVc
I0
sVro
p66
I0
sVm
I1
sVs
I0
ssg28
(dp67
Vinns
p68
I0
sV10w
p69
I0
sVnb
p70
I0
sVmaid
p71
I0
sVwb
p72
I0
sVbbmw
p73
I0
sV6s
p74
I0
sVbbmr
p75
I0
sVbbir
p76
I0
sVbbiw
p77
I0
sVa
V-
sVb
I0
sVe
V-
sVd
I0
sVwmaid
p78
I0
sV4w
p79
I0
sVm
I1
sV4s
p80
I0
sVr
I0
sVw
I0
sVsr
p81
V-
sVov
p82
V-
sV5w
p83
I0
ssg46
(dp84
Va
V4.00
p85
sVb
I9
sVinns
p86
I1
sVno
p87
I0
sVsr
p88
V44.44
p89
sVm
I1
sV4s
p90
I0
sV6s
p91
I0
sVhs
p92
V4
sVr
V4
sV100s
p93
I0
sV50s
p94
I0
ssg60
I2014
stp95
a(Vaus-wi-t20-2013
(dp96
g24
(dp97
Vinns
p98
I0
sVc
I0
sVro
p99
I0
sVm
I1
sVs
I0
ssg28
(dp100
Vinns
p101
I0
sV10w
p102
I0
sVnb
p103
I0
sVmaid
p104
I0
sVwb
p105
I0
sVbbmw
p106
I0
sV6s
p107
I0
sVbbmr
p108
I0
sVbbir
p109
I0
sVbbiw
p110
I0
sVa
V-
sVb
I0
sVe
V-
sVd
I0
sVwmaid
p111
I0
sV4w
p112
I0
sVm
I1
sV4s
p113
I0
sVr
I0
sVw
I0
sVsr
p114
V-
sVov
p115
V-
sV5w
p116
I0
ssg46
(dp117
Va
V15.00
p118
sVb
I11
sVinns
p119
I1
sVno
p120
I0
sVsr
p121
V136.36
p122
sVm
I1
sV4s
p123
I2
sV6s
p124
I0
sVhs
p125
V15
p126
sVr
V15
p127
sV100s
p128
I0
sV50s
p129
I0
ssg60
I2013
stp130
a(Veng-aus-2013
(dp131
g24
(dp132
Vinns
p133
I3
sVc
I3
sVro
p134
I1
sVm
I6
sVs
I0
ssg28
(dp135
Vinns
p136
I0
sV10w
p137
I0
sVnb
p138
I0
sVmaid
p139
I0
sVwb
p140
I0
sVbbmw
p141
I0
sV6s
p142
I0
sVbbmr
p143
I0
sVbbir
p144
I0
sVbbiw
p145
I0
sVa
V-
sVb
I0
sVe
V-
sVd
I0
sVwmaid
p146
I0
sV4w
p147
I0
sVm
I6
sV4s
p148
I0
sVr
I0
sVw
I0
sVsr
p149
V-
sVov
p150
V-
sV5w
p151
I0
ssg46
(dp152
Va
V39.40
p153
sVb
I187
sVinns
p154
I5
sVno
p155
I0
sVsr
p156
V105.34
p157
sVm
I6
sV4s
p158
I11
sV6s
p159
I8
sVhs
p160
V87
p161
sVr
V197
p162
sV100s
p163
I0
sV50s
p164
I2
ssg60
I2013
stp165
a(Vind-aus-2-2013
(dp166
g24
(dp167
Vinns
p168
I2
sVc
I2
sVro
p169
I0
sVm
I7
sVs
I0
ssg28
(dp170
Vinns
p171
I0
sV10w
p172
I0
sVnb
p173
I0
sVmaid
p174
I0
sVwb
p175
I0
sVbbmw
p176
I0
sV6s
p177
I0
sVbbmr
p178
I0
sVbbir
p179
I0
sVbbiw
p180
I0
sVa
V-
sVb
I0
sVe
V-
sVd
I0
sVwmaid
p181
I0
sV4w
p182
I0
sVm
I7
sV4s
p183
I0
sVr
I0
sVw
I0
sVsr
p184
V-
sVov
p185
V-
sV5w
p186
I0
ssg46
(dp187
Va
V79.66
p188
sVb
I415
sVinns
p189
I7
sVno
p190
I1
sVsr
p191
V115.18
p192
sVm
I7
sV4s
p193
I42
sV6s
p194
I15
sVhs
p195
V156
p196
sVr
V478
p197
sV100s
p198
I1
sV50s
p199
I3
ssg60
I2013
stp200
a(Vaus-eng-2013
(dp201
g24
(dp202
Vinns
p203
I10
sVc
I12
sVro
p204
I0
sVm
I12
sVs
I0
ssg28
(dp205
Vinns
p206
I0
sV10w
p207
I0
sVnb
p208
I0
sVmaid
p209
I0
sVwb
p210
I0
sVbbmw
p211
I0
sV6s
p212
I0
sVbbmr
p213
I0
sVbbir
p214
I0
sVbbiw
p215
I0
sVa
V-
sVb
I0
sVe
V-
sVd
I0
sVwmaid
p216
I0
sV4w
p217
I0
sVm
I12
sV4s
p218
I0
sVr
I0
sVw
I0
sVsr
p219
V-
sVov
p220
V-
sV5w
p221
I0
ssg46
(dp222
Va
V37.63
p223
sVb
I508
sVinns
p224
I15
sVno
p225
I4
sVsr
p226
V81.49
p227
sVm
I12
sV4s
p228
I33
sV6s
p229
I14
sVhs
p230
V60*
p231
sVr
V414
p232
sV100s
p233
I0
sV50s
p234
I3
ssg60
I2013
stp235
a(Vchamptrophy-2013-warmups
(dp236
g24
(dp237
Vinns
p238
I0
sVc
I0
sVro
p239
I0
sVm
I2
sVs
I0
ssg28
(dp240
Vinns
p241
I0
sV10w
p242
I0
sVnb
p243
I0
sVmaid
p244
I0
sVwb
p245
I0
sVbbmw
p246
I0
sV6s
p247
I0
sVbbmr
p248
I0
sVbbir
p249
I0
sVbbiw
p250
I0
sVa
V-
sVb
I0
sVe
V-
sVd
I0
sVwmaid
p251
I0
sV4w
p252
I0
sVm
I2
sV4s
p253
I0
sVr
I0
sVw
I0
sVsr
p254
V-
sVov
p255
V-
sV5w
p256
I0
ssg46
(dp257
Va
V11.00
p258
sVb
I43
sVinns
p259
I2
sVno
p260
I0
sVsr
p261
V51.16
p262
sVm
I2
sV4s
p263
I4
sV6s
p264
I0
sVhs
p265
V21
p266
sVr
V22
p267
sV100s
p268
I0
sV50s
p269
I0
ssg60
I2013
stp270
a(Vchamptrophy-2013
(dp271
g24
(dp272
Vinns
p273
I1
sVc
I1
sVro
p274
I0
sVm
I3
sVs
I0
ssg28
(dp275
Vinns
p276
I0
sV10w
p277
I0
sVnb
p278
I0
sVmaid
p279
I0
sVwb
p280
I0
sVbbmw
p281
I0
sV6s
p282
I0
sVbbmr
p283
I0
sVbbir
p284
I0
sVbbiw
p285
I0
sVa
V-
sVb
I0
sVe
V-
sVd
I0
sVwmaid
p286
I0
sV4w
p287
I0
sVm
I3
sV4s
p288
I0
sVr
I0
sVw
I0
sVsr
p289
V-
sVov
p290
V-
sV5w
p291
I0
ssg46
(dp292
Va
V38.00
p293
sVb
I167
sVinns
p294
I3
sVno
p295
I0
sVsr
p296
V68.26
p297
sVm
I3
sV4s
p298
I7
sV6s
p299
I0
sVhs
p300
V55
p301
sVr
V114
p302
sV100s
p303
I0
sV50s
p304
I2
ssg60
I2013
stp305
a(Vbigbash-2013
(dp306
g24
(dp307
Vinns
p308
I1
sVc
I2
sVro
p309
I0
sVm
I3
sVs
I0
ssg28
(dp310
Vinns
p311
I0
sV10w
p312
I0
sVnb
p313
I0
sVmaid
p314
I0
sVwb
p315
I0
sVbbmw
p316
I0
sV6s
p317
I0
sVbbmr
p318
I0
sVbbir
p319
I0
sVbbiw
p320
I0
sVa
V-
sVb
I0
sVe
V-
sVd
I0
sVwmaid
p321
I0
sV4w
p322
I0
sVm
I3
sV4s
p323
I0
sVr
I0
sVw
I0
sVsr
p324
V-
sVov
p325
V-
sV5w
p326
I0
ssg46
(dp327
Va
V90.00
p328
sVb
I58
sVinns
p329
I2
sVno
p330
I1
sVsr
p331
V155.17
p332
sVm
I3
sV4s
p333
I9
sV6s
p334
I2
sVhs
p335
V58
p336
sVr
V90
p337
sV100s
p338
I0
sV50s
p339
I1
ssg60
I2013
stp340
a(Vaus-wi-2013
(dp341
g24
(dp342
Vinns
p343
I2
sVc
I1
sVro
p344
I1
sVm
I3
sVs
I0
ssg28
(dp345
Vinns
p346
I0
sV10w
p347
I0
sVnb
p348
I0
sVmaid
p349
I0
sVwb
p350
I0
sVbbmw
p351
I0
sV6s
p352
I0
sVbbmr
p353
I0
sVbbir
p354
I0
sVbbiw
p355
I0
sVa
V-
sVb
I0
sVe
V-
sVd
I0
sVwmaid
p356
I0
sV4w
p357
I0
sVm
I3
sV4s
p358
I0
sVr
I0
sVw
I0
sVsr
p359
V-
sVov
p360
V-
sV5w
p361
I0
ssg46
(dp362
Va
V169.00
p363
sVb
I132
sVinns
p364
I2
sVno
p365
I1
sVsr
p366
V128.03
p367
sVm
I3
sV4s
p368
I16
sV6s
p369
I5
sVhs
p370
V125*
p371
sVr
V169
p372
sV100s
p373
I1
sV50s
p374
I0
ssg60
I2013
stp375
a(Vbigbash-2012
(dp376
g24
(dp377
Vinns
p378
I4
sVc
I6
sVro
p379
I0
sVm
I7
sVs
I0
ssg28
(dp380
Vinns
p381
I0
sV10w
p382
I0
sVnb
p383
I0
sVmaid
p384
I0
sVwb
p385
I0
sVbbmw
p386
I0
sV6s
p387
I0
sVbbmr
p388
I0
sVbbir
p389
I0
sVbbiw
p390
I0
sVa
V-
sVb
I0
sVe
V-
sVd
I0
sVwmaid
p391
I0
sV4w
p392
I0
sVm
I7
sV4s
p393
I0
sVr
I0
sVw
I0
sVsr
p394
V-
sVov
p395
V-
sV5w
p396
I0
ssg46
(dp397
Va
V32.00
p398
sVb
I68
sVinns
p399
I5
sVno
p400
I2
sVsr
p401
V141.17
p402
sVm
I7
sV4s
p403
I8
sV6s
p404
I2
sVhs
p405
V30*
p406
sVr
V96
p407
sV100s
p408
I0
sV50s
p409
I0
ssg60
I2012
stp410
a(Vaus-sl-2012
(dp411
g24
(dp412
Vinns
p413
I3
sVc
I6
sVro
p414
I0
sVm
I7
sVs
I0
ssg28
(dp415
Vinns
p416
I0
sV10w
p417
I0
sVnb
p418
I0
sVmaid
p419
I0
sVwb
p420
I0
sVbbmw
p421
I0
sV6s
p422
I0
sVbbmr
p423
I0
sVbbir
p424
I0
sVbbiw
p425
I0
sVa
V-
sVb
I0
sVe
V-
sVd
I0
sVwmaid
p426
I0
sV4w
p427
I0
sVm
I7
sV4s
p428
I0
sVr
I0
sVw
I0
sVsr
p429
V-
sVov
p430
V-
sV5w
p431
I0
ssg46
(dp432
Va
V30.00
p433
sVb
I253
sVinns
p434
I7
sVno
p435
I0
sVsr
p436
V83.00
p437
sVm
I7
sV4s
p438
I17
sV6s
p439
I3
sVhs
p440
V89
p441
sVr
V210
p442
sV100s
p443
I0
sV50s
p444
I1
ssg60
I2012
stp445
a(Vworldt20-2012
(dp446
g24
(dp447
Vinns
p448
I6
sVc
I7
sVro
p449
I0
sVm
I8
sVs
I0
ssg28
(dp450
Vinns
p451
I0
sV10w
p452
I0
sVnb
p453
I0
sVmaid
p454
I0
sVwb
p455
I0
sVbbmw
p456
I0
sV6s
p457
I0
sVbbmr
p458
I0
sVbbir
p459
I0
sVbbiw
p460
I0
sVa
V-
sVb
I0
sVe
V-
sVd
I0
sVwmaid
p461
I0
sV4w
p462
I0
sVm
I8
sV4s
p463
I0
sVr
I0
sVw
I0
sVsr
p464
V-
sVov
p465
V-
sV5w
p466
I0
ssg46
(dp467
Va
V22.50
p468
sVb
I57
sVinns
p469
I5
sVno
p470
I1
sVsr
p471
V157.89
p472
sVm
I8
sV4s
p473
I8
sV6s
p474
I5
sVhs
p475
V63
p476
sVr
V90
p477
sV100s
p478
I0
sV50s
p479
I1
ssg60
I2012
stp480
a(Vpre-worldt20-2012
(dp481
g24
(dp482
Vinns
p483
I1
sVc
I1
sVro
p484
I0
sVm
I3
sVs
I0
ssg28
(dp485
Vinns
p486
I0
sV10w
p487
I0
sVnb
p488
I0
sVmaid
p489
I0
sVwb
p490
I0
sVbbmw
p491
I0
sV6s
p492
I0
sVbbmr
p493
I0
sVbbir
p494
I0
sVbbiw
p495
I0
sVa
V-
sVb
I0
sVe
V-
sVd
I0
sVwmaid
p496
I0
sV4w
p497
I0
sVm
I3
sV4s
p498
I0
sVr
I0
sVw
I0
sVsr
p499
V-
sVov
p500
V-
sV5w
p501
I0
ssg46
(dp502
Va
V19.66
p503
sVb
I52
sVinns
p504
I3
sVno
p505
I0
sVsr
p506
V113.46
p507
sVm
I3
sV4s
p508
I4
sV6s
p509
I2
sVhs
p510
V42
p511
sVr
V59
p512
sV100s
p513
I0
sV50s
p514
I0
ssg60
I2012
stp515
a(Vipl2010
(dp516
g24
(dp517
Vinns
p518
I0
sVc
I0
sVro
p519
I0
sVm
I1
sVs
I0
ssg28
(dp520
Vinns
p521
I0
sV10w
p522
I0
sVnb
p523
I0
sVmaid
p524
I0
sVwb
p525
I0
sVbbmw
p526
I0
sV6s
p527
I0
sVbbmr
p528
I0
sVbbir
p529
I0
sVbbiw
p530
I0
sVa
V-
sVb
I0
sVe
V-
sVd
I0
sVwmaid
p531
I0
sV4w
p532
I0
sVm
I1
sV4s
p533
I0
sVr
I0
sVw
I0
sVsr
p534
V-
sVov
p535
V-
sV5w
p536
I0
ssg46
(dp537
Va
V18.00
p538
sVb
I27
sVinns
p539
I1
sVno
p540
I0
sVsr
p541
V66.66
p542
sVm
I1
sV4s
p543
I2
sV6s
p544
I0
sVhs
p545
V18
p546
sVr
V18
p547
sV100s
p548
I0
sV50s
p549
I0
ssg60
I2010
stp550
a(Vipl2009
(dp551
g24
(dp552
Vinns
p553
I0
sVc
I0
sVro
p554
I0
sVm
I3
sVs
I0
ssg28
(dp555
Vinns
p556
I0
sV10w
p557
I0
sVnb
p558
I0
sVmaid
p559
I0
sVwb
p560
I0
sVbbmw
p561
I0
sV6s
p562
I0
sVbbmr
p563
I0
sVbbir
p564
I0
sVbbiw
p565
I0
sVa
V-
sVb
I0
sVe
V-
sVd
I0
sVwmaid
p566
I0
sV4w
p567
I0
sVm
I3
sV4s
p568
I0
sVr
I0
sVw
I0
sVsr
p569
V-
sVov
p570
V-
sV5w
p571
I0
ssg46
(dp572
Va
V22.50
p573
sVb
I39
sVinns
p574
I2
sVno
p575
I0
sVsr
p576
V115.38
p577
sVm
I3
sV4s
p578
I7
sV6s
p579
I0
sVhs
p580
V30
p581
sVr
V45
p582
sV100s
p583
I0
sV50s
p584
I0
ssg60
I2009
stp585
asb.