(iplayer
Player
p1
(dp2
S'is_batsman'
p3
I00
sS'name'
p4
S'Yusuf Pathan'
p5
sS'dob'
p6
S'1982/11/17'
p7
sS'price'
p8
S'1000000'
p9
sS'is_allrounder'
p10
I01
sS'is_overseas'
p11
I00
sS'team'
p12
S'KKR'
p13
sS'nationality'
p14
S'Indian'
p15
sS'is_bowler'
p16
I00
sS'is_keeper'
p17
I00
sS'id'
p18
S'96'
p19
sS'is_uncapped'
p20
I00
sS'tournamentStats'
p21
(lp22
(Vipl2013
(dp23
S'fieldingStats'
p24
(dp25
Vinns
p26
I5
sVc
I4
sVro
p27
I1
sVm
I16
sVs
I0
ssS'bowlingStats'
p28
(dp29
Vinns
p30
I5
sV10w
p31
I0
sVnb
p32
I0
sVmaid
p33
I0
sVwb
p34
I1
sVbbmw
p35
I1
sV6s
p36
I4
sVbbmr
p37
I9
sVbbir
p38
I0
sVbbiw
p39
I0
sVa
V73.00
p40
sVb
I54
sVe
V8.11
p41
sVd
I14
sVwmaid
p42
I0
sV4w
p43
I0
sVm
I16
sV4s
p44
I2
sVr
I73
sVw
I1
sVsr
p45
V54.00
p46
sVov
p47
V9.00
p48
sV5w
p49
I0
ssS'battingStats'
p50
(dp51
Va
V30.18
p52
sVb
I240
sVinns
p53
I16
sVno
p54
I5
sVsr
p55
V138.33
p56
sVm
I16
sV4s
p57
I30
sV6s
p58
I14
sVhs
p59
V72
p60
sVr
V332
p61
sV100s
p62
I0
sV50s
p63
I1
ssS'year'
p64
I2013
stp65
a(Vipl2012
(dp66
g24
(dp67
Vinns
p68
I4
sVc
I3
sVro
p69
I1
sVm
I17
sVs
I0
ssg28
(dp70
Vinns
p71
I12
sV10w
p72
I0
sVnb
p73
I0
sVmaid
p74
I0
sVwb
p75
I4
sVbbmw
p76
I3
sV6s
p77
I9
sVbbmr
p78
I11
sVbbir
p79
I11
sVbbiw
p80
I3
sVa
V45.25
p81
sVb
I133
sVe
V8.16
p82
sVd
I47
sVwmaid
p83
I0
sV4w
p84
I0
sVm
I17
sV4s
p85
I14
sVr
I181
sVw
I4
sVsr
p86
V33.25
p87
sVov
p88
V22.16
p89
sV5w
p90
I0
ssg50
(dp91
Va
V19.40
p92
sVb
I169
sVinns
p93
I16
sVno
p94
I6
sVsr
p95
V114.79
p96
sVm
I17
sV4s
p97
I10
sV6s
p98
I7
sVhs
p99
V40*
p100
sVr
V194
p101
sV100s
p102
I0
sV50s
p103
I0
ssg64
I2012
stp104
a(Vclt20-2012
(dp105
g24
(dp106
Vinns
p107
I1
sVc
I1
sVro
p108
I0
sVm
I4
sVs
I0
ssg28
(dp109
Vinns
p110
I1
sV10w
p111
I0
sVnb
p112
I0
sVmaid
p113
I0
sVwb
p114
I1
sVbbmw
p115
I0
sV6s
p116
I1
sVbbmr
p117
I0
sVbbir
p118
I0
sVbbiw
p119
I0
sVa
V-
sVb
I24
sVe
V7.25
p120
sVd
I8
sVwmaid
p121
I0
sV4w
p122
I0
sVm
I4
sV4s
p123
I1
sVr
I29
sVw
I0
sVsr
p124
V-
sVov
p125
V4.00
p126
sV5w
p127
I0
ssg50
(dp128
Va
V16.50
p129
sVb
I31
sVinns
p130
I3
sVno
p131
I1
sVsr
p132
V106.45
p133
sVm
I4
sV4s
p134
I3
sV6s
p135
I0
sVhs
p136
V22*
p137
sVr
V33
p138
sV100s
p139
I0
sV50s
p140
I0
ssg64
I2012
stp141
a(Vipl2011
(dp142
g24
(dp143
Vinns
p144
I6
sVc
I5
sVro
p145
I1
sVm
I15
sVs
I0
ssg28
(dp146
Vinns
p147
I14
sV10w
p148
I0
sVnb
p149
I0
sVmaid
p150
I1
sVwb
p151
I7
sVbbmw
p152
I3
sV6s
p153
I4
sVbbmr
p154
I20
sVbbir
p155
I20
sVbbiw
p156
I3
sVa
V18.30
p157
sVb
I234
sVe
V6.10
p158
sVd
I93
sVwmaid
p159
I1
sV4w
p160
I0
sVm
I15
sV4s
p161
I22
sVr
I238
sVw
I13
sVsr
p162
V18.00
p163
sVov
p164
V39.00
p165
sV5w
p166
I0
ssg50
(dp167
Va
V28.30
p168
sVb
I201
sVinns
p169
I11
sVno
p170
I1
sVsr
p171
V140.79
p172
sVm
I15
sV4s
p173
I24
sV6s
p174
I13
sVhs
p175
V47*
p176
sVr
V283
p177
sV100s
p178
I0
sV50s
p179
I0
ssg64
I2011
stp180
a(Vclt20-2011
p181
(dp182
g24
(dp183
Vinns
p184
I2
sVc
I5
sVro
p185
I0
sVm
I6
sVs
I0
ssg28
(dp186
Vinns
p187
I5
sV10w
p188
I0
sVnb
p189
I0
sVmaid
p190
I0
sVwb
p191
I1
sVbbmw
p192
I2
sV6s
p193
I5
sVbbmr
p194
I21
sVbbir
p195
I21
sVbbiw
p196
I2
sVa
V32.00
p197
sVb
I96
sVe
V8.00
p198
sVd
I35
sVwmaid
p199
I0
sV4w
p200
I0
sVm
I6
sV4s
p201
I12
sVr
I128
sVw
I4
sVsr
p202
V24.00
p203
sVov
p204
V16.00
p205
sV5w
p206
I0
ssg50
(dp207
Va
V22.66
p208
sVb
I59
sVinns
p209
I4
sVno
p210
I1
sVsr
p211
V115.25
p212
sVm
I6
sV4s
p213
I2
sV6s
p214
I4
sVhs
p215
V39*
p216
sVr
V68
p217
sV100s
p218
I0
sV50s
p219
I0
ssg64
I2011
stp220
a(Vipl2010
(dp221
g24
(dp222
Vinns
p223
I6
sVc
I9
sVro
p224
I1
sVm
I14
sVs
I0
ssg28
(dp225
Vinns
p226
I11
sV10w
p227
I0
sVnb
p228
I0
sVmaid
p229
I0
sVwb
p230
I10
sVbbmw
p231
I2
sV6s
p232
I6
sVbbmr
p233
I9
sVbbir
p234
I9
sVbbiw
p235
I2
sVa
V49.20
p236
sVb
I204
sVe
V7.23
p237
sVd
I60
sVwmaid
p238
I0
sV4w
p239
I0
sVm
I14
sV4s
p240
I21
sVr
I246
sVw
I5
sVsr
p241
V40.80
p242
sVov
p243
V34.00
p244
sV5w
p245
I0
ssg50
(dp246
Va
V27.75
p247
sVb
I201
sVinns
p248
I14
sVno
p249
I2
sVsr
p250
V165.67
p251
sVm
I14
sV4s
p252
I22
sV6s
p253
I24
sVhs
p254
V100
p255
sVr
V333
p256
sV100s
p257
I1
sV50s
p258
I1
ssg64
I2010
stp259
a(Vipl2009
(dp260
g24
(dp261
Vinns
p262
I2
sVc
I2
sVro
p263
I1
sVm
I13
sVs
I0
ssg28
(dp264
Vinns
p265
I11
sV10w
p266
I0
sVnb
p267
I0
sVmaid
p268
I0
sVwb
p269
I11
sVbbmw
p270
I3
sV6s
p271
I7
sVbbmr
p272
I34
sVbbir
p273
I34
sVbbiw
p274
I3
sVa
V34.71
p275
sVb
I210
sVe
V6.94
p276
sVd
I83
sVwmaid
p277
I0
sV4w
p278
I0
sVm
I13
sV4s
p279
I18
sVr
I243
sVw
I7
sVsr
p280
V30.00
p281
sVov
p282
V35.00
p283
sV5w
p284
I0
ssg50
(dp285
Va
V20.25
p286
sVb
I183
sVinns
p287
I13
sVno
p288
I1
sVsr
p289
V132.78
p290
sVm
I13
sV4s
p291
I24
sV6s
p292
I12
sVhs
p293
V62*
p294
sVr
V243
p295
sV100s
p296
I0
sV50s
p297
I1
ssg64
I2009
stp298
a(Vipl2008
(dp299
g24
(dp300
Vinns
p301
I4
sVc
I3
sVro
p302
I2
sVm
I16
sVs
I0
ssg28
(dp303
Vinns
p304
I13
sV10w
p305
I0
sVnb
p306
I0
sVmaid
p307
I0
sVwb
p308
I1
sVbbmw
p309
I3
sV6s
p310
I16
sVbbmr
p311
I22
sVbbir
p312
I22
sVbbiw
p313
I3
sVa
V28.75
p314
sVb
I169
sVe
V8.16
p315
sVd
I59
sVwmaid
p316
I0
sV4w
p317
I0
sVm
I16
sV4s
p318
I11
sVr
I230
sVw
I8
sVsr
p319
V21.12
p320
sVov
p321
V28.16
p322
sV5w
p323
I0
ssg50
(dp324
Va
V31.07
p325
sVb
I243
sVinns
p326
I15
sVno
p327
I1
sVsr
p328
V179.01
p329
sVm
I16
sV4s
p330
I43
sV6s
p331
I25
sVhs
p332
V68
p333
sVr
V435
p334
sV100s
p335
I0
sV50s
p336
I4
ssg64
I2008
stp337
asb.