(iplayer
Player
p1
(dp2
S'is_batsman'
p3
I01
sS'name'
p4
S'Aaron Finch'
p5
sS'dob'
p6
S'1986/11/17'
p7
sS'price'
p8
S'950000'
p9
sS'is_allrounder'
p10
I00
sS'is_overseas'
p11
I01
sS'team'
p12
S'SRH'
p13
sS'nationality'
p14
S'Australian'
p15
sS'is_bowler'
p16
I00
sS'is_keeper'
p17
I00
sS'id'
p18
S'167'
p19
sS'is_uncapped'
p20
I00
sS'tournamentStats'
p21
(lp22
(Vworldt20-2014
(dp23
S'fieldingStats'
p24
(dp25
Vinns
p26
I0
sVc
I0
sVro
p27
I0
sVm
I1
sVs
I0
ssS'bowlingStats'
p28
(dp29
Vinns
p30
I1
sV10w
p31
I0
sVnb
p32
I0
sVmaid
p33
I0
sVwb
p34
I0
sVbbmw
p35
I0
sV6s
p36
I2
sVbbmr
p37
I18
sVbbir
p38
I18
sVbbiw
p39
I0
sVa
V-
sVb
I6
sVe
V18.00
p40
sVd
I1
sVwmaid
p41
I0
sV4w
p42
I0
sVm
I1
sV4s
p43
I1
sVr
I18
sVw
I0
sVsr
p44
V-
sVov
p45
V1.00
p46
sV5w
p47
I0
ssS'battingStats'
p48
(dp49
Va
V65.00
p50
sVb
I54
sVinns
p51
I1
sVno
p52
I0
sVsr
p53
V120.37
p54
sVm
I1
sV4s
p55
I7
sV6s
p56
I2
sVhs
p57
V65
p58
sVr
V65
p59
sV100s
p60
I0
sV50s
p61
I1
ssS'year'
p62
I2014
stp63
a(Vsa-aus-2014
(dp64
g24
(dp65
Vinns
p66
I0
sVc
I0
sVro
p67
I0
sVm
I2
sVs
I0
ssg28
(dp68
Vinns
p69
I0
sV10w
p70
I0
sVnb
p71
I0
sVmaid
p72
I0
sVwb
p73
I0
sVbbmw
p74
I0
sV6s
p75
I0
sVbbmr
p76
I0
sVbbir
p77
I0
sVbbiw
p78
I0
sVa
V-
sVb
I0
sVe
V-
sVd
I0
sVwmaid
p79
I0
sV4w
p80
I0
sVm
I2
sV4s
p81
I0
sVr
I0
sVw
I0
sVsr
p82
V-
sVov
p83
V-
sV5w
p84
I0
ssg48
(dp85
Va
V22.00
p86
sVb
I32
sVinns
p87
I2
sVno
p88
I0
sVsr
p89
V137.50
p90
sVm
I2
sV4s
p91
I7
sV6s
p92
I0
sVhs
p93
V39
p94
sVr
V44
p95
sV100s
p96
I0
sV50s
p97
I0
ssg62
I2014
stp98
a(Vaus-wi-t20-2013
(dp99
g24
(dp100
Vinns
p101
I0
sVc
I0
sVro
p102
I0
sVm
I1
sVs
I0
ssg28
(dp103
Vinns
p104
I0
sV10w
p105
I0
sVnb
p106
I0
sVmaid
p107
I0
sVwb
p108
I0
sVbbmw
p109
I0
sV6s
p110
I0
sVbbmr
p111
I0
sVbbir
p112
I0
sVbbiw
p113
I0
sVa
V-
sVb
I0
sVe
V-
sVd
I0
sVwmaid
p114
I0
sV4w
p115
I0
sVm
I1
sV4s
p116
I0
sVr
I0
sVw
I0
sVsr
p117
V-
sVov
p118
V-
sV5w
p119
I0
ssg48
(dp120
Va
V4.00
p121
sVb
I6
sVinns
p122
I1
sVno
p123
I0
sVsr
p124
V66.66
p125
sVm
I1
sV4s
p126
I0
sV6s
p127
I0
sVhs
p128
V4
sVr
V4
sV100s
p129
I0
sV50s
p130
I0
ssg62
I2013
stp131
a(Veng-aus-2013
(dp132
g24
(dp133
Vinns
p134
I1
sVc
I1
sVro
p135
I0
sVm
I6
sVs
I0
ssg28
(dp136
Vinns
p137
I0
sV10w
p138
I0
sVnb
p139
I0
sVmaid
p140
I0
sVwb
p141
I0
sVbbmw
p142
I0
sV6s
p143
I0
sVbbmr
p144
I0
sVbbir
p145
I0
sVbbiw
p146
I0
sVa
V-
sVb
I0
sVe
V-
sVd
I0
sVwmaid
p147
I0
sV4w
p148
I0
sVm
I6
sV4s
p149
I0
sVr
I0
sVw
I0
sVsr
p150
V-
sVov
p151
V-
sV5w
p152
I0
ssg48
(dp153
Va
V46.40
p154
sVb
I146
sVinns
p155
I5
sVno
p156
I0
sVsr
p157
V158.90
p158
sVm
I6
sV4s
p159
I22
sV6s
p160
I15
sVhs
p161
V156
p162
sVr
V232
p163
sV100s
p164
I1
sV50s
p165
I0
ssg62
I2013
stp166
a(Vind-aus-2-2013
(dp167
g24
(dp168
Vinns
p169
I1
sVc
I1
sVro
p170
I0
sVm
I7
sVs
I0
ssg28
(dp171
Vinns
p172
I3
sV10w
p173
I0
sVnb
p174
I0
sVmaid
p175
I0
sVwb
p176
I1
sVbbmw
p177
I1
sV6s
p178
I1
sVbbmr
p179
I2
sVbbir
p180
I20
sVbbiw
p181
I1
sVa
V12.00
p182
sVb
I34
sVe
V4.23
p183
sVd
I19
sVwmaid
p184
I0
sV4w
p185
I0
sVm
I7
sV4s
p186
I1
sVr
I24
sVw
I2
sVsr
p187
V17.00
p188
sVov
p189
V5.66
p190
sV5w
p191
I0
ssg48
(dp192
Va
V39.85
p193
sVb
I271
sVinns
p194
I7
sVno
p195
I0
sVsr
p196
V102.95
p197
sVm
I7
sV4s
p198
I40
sV6s
p199
I5
sVhs
p200
V89
p201
sVr
V279
p202
sV100s
p203
I0
sV50s
p204
I3
ssg62
I2013
stp205
a(Vaus-eng-2013
(dp206
g24
(dp207
Vinns
p208
I3
sVc
I3
sVro
p209
I1
sVm
I8
sVs
I0
ssg28
(dp210
Vinns
p211
I0
sV10w
p212
I0
sVnb
p213
I0
sVmaid
p214
I0
sVwb
p215
I0
sVbbmw
p216
I0
sV6s
p217
I0
sVbbmr
p218
I0
sVbbir
p219
I0
sVbbiw
p220
I0
sVa
V-
sVb
I0
sVe
V-
sVd
I0
sVwmaid
p221
I0
sV4w
p222
I0
sVm
I8
sV4s
p223
I0
sVr
I0
sVw
I0
sVsr
p224
V-
sVov
p225
V-
sV5w
p226
I0
ssg48
(dp227
Va
V43.75
p228
sVb
I341
sVinns
p229
I8
sVno
p230
I0
sVsr
p231
V102.63
p232
sVm
I8
sV4s
p233
I32
sV6s
p234
I10
sVhs
p235
V121
p236
sVr
V350
p237
sV100s
p238
I2
sV50s
p239
I1
ssg62
I2013
stp240
a(Vbigbash-2013
(dp241
g24
(dp242
Vinns
p243
I1
sVc
I1
sVro
p244
I0
sVm
I6
sVs
I0
ssg28
(dp245
Vinns
p246
I3
sV10w
p247
I0
sVnb
p248
I0
sVmaid
p249
I0
sVwb
p250
I0
sVbbmw
p251
I1
sV6s
p252
I3
sVbbmr
p253
I20
sVbbir
p254
I0
sVbbiw
p255
I0
sVa
V43.00
p256
sVb
I24
sVe
V10.75
p257
sVd
I5
sVwmaid
p258
I0
sV4w
p259
I0
sVm
I6
sV4s
p260
I1
sVr
I43
sVw
I1
sVsr
p261
V24.00
p262
sVov
p263
V4.00
p264
sV5w
p265
I0
ssg48
(dp266
Va
V52.40
p267
sVb
I177
sVinns
p268
I6
sVno
p269
I1
sVsr
p270
V148.02
p271
sVm
I6
sV4s
p272
I23
sV6s
p273
I12
sVhs
p274
V84*
p275
sVr
V262
p276
sV100s
p277
I0
sV50s
p278
I3
ssg62
I2013
stp279
a(Vaus-wi-2013
(dp280
g24
(dp281
Vinns
p282
I4
sVc
I7
sVro
p283
I1
sVm
I5
sVs
I0
ssg28
(dp284
Vinns
p285
I1
sV10w
p286
I0
sVnb
p287
I0
sVmaid
p288
I0
sVwb
p289
I0
sVbbmw
p290
I0
sV6s
p291
I0
sVbbmr
p292
I0
sVbbir
p293
I2
sVbbiw
p294
I0
sVa
V-
sVb
I6
sVe
V2.00
p295
sVd
I5
sVwmaid
p296
I0
sV4w
p297
I0
sVm
I5
sV4s
p298
I0
sVr
I2
sVw
I0
sVsr
p299
V-
sVov
p300
V1.00
p301
sV5w
p302
I0
ssg48
(dp303
Va
V17.00
p304
sVb
I104
sVinns
p305
I5
sVno
p306
I0
sVsr
p307
V81.73
p308
sVm
I5
sV4s
p309
I13
sV6s
p310
I0
sVhs
p311
V38
p312
sVr
V85
p313
sV100s
p314
I0
sV50s
p315
I0
ssg62
I2013
stp316
a(Vipl2013
p317
(dp318
g24
(dp319
Vinns
p320
I2
sVc
I2
sVro
p321
I0
sVm
I14
sVs
I0
ssg28
(dp322
Vinns
p323
I3
sV10w
p324
I0
sVnb
p325
I0
sVmaid
p326
I0
sVwb
p327
I0
sVbbmw
p328
I1
sV6s
p329
I4
sVbbmr
p330
I11
sVbbir
p331
I11
sVbbiw
p332
I1
sVa
V49.00
p333
sVb
I24
sVe
V12.25
p334
sVd
I5
sVwmaid
p335
I0
sV4w
p336
I0
sVm
I14
sV4s
p337
I3
sVr
I49
sVw
I1
sVsr
p338
V24.00
p339
sVov
p340
V4.00
p341
sV5w
p342
I0
ssg48
(dp343
Va
V32.57
p344
sVb
I336
sVinns
p345
I14
sVno
p346
I0
sVsr
p347
V135.71
p348
sVm
I14
sV4s
p349
I54
sV6s
p350
I16
sVhs
p351
V67
p352
sVr
V456
p353
sV100s
p354
I0
sV50s
p355
I4
ssg62
I2013
stp356
a(Vipl2012
(dp357
g24
(dp358
Vinns
p359
I1
sVc
I0
sVro
p360
I1
sVm
I2
sVs
I0
ssg28
(dp361
Vinns
p362
I0
sV10w
p363
I0
sVnb
p364
I0
sVmaid
p365
I0
sVwb
p366
I0
sVbbmw
p367
I0
sV6s
p368
I0
sVbbmr
p369
I0
sVbbir
p370
I0
sVbbiw
p371
I0
sVa
V-
sVb
I0
sVe
V-
sVd
I0
sVwmaid
p372
I0
sV4w
p373
I0
sVm
I2
sV4s
p374
I0
sVr
I0
sVw
I0
sVsr
p375
V-
sVov
p376
V-
sV5w
p377
I0
ssg48
(dp378
Va
V27.50
p379
sVb
I51
sVinns
p380
I2
sVno
p381
I0
sVsr
p382
V107.84
p383
sVm
I2
sV4s
p384
I8
sV6s
p385
I0
sVhs
p386
V30
p387
sVr
V55
p388
sV100s
p389
I0
sV50s
p390
I0
ssg62
I2012
stp391
a(Vbigbash-2012
(dp392
g24
(dp393
Vinns
p394
I3
sVc
I4
sVro
p395
I1
sVm
I8
sVs
I0
ssg28
(dp396
Vinns
p397
I4
sV10w
p398
I0
sVnb
p399
I1
sVmaid
p400
I0
sVwb
p401
I1
sVbbmw
p402
I1
sV6s
p403
I5
sVbbmr
p404
I14
sVbbir
p405
I14
sVbbiw
p406
I1
sVa
V30.00
p407
sVb
I54
sVe
V10.00
p408
sVd
I13
sVwmaid
p409
I0
sV4w
p410
I0
sVm
I8
sV4s
p411
I5
sVr
I90
sVw
I3
sVsr
p412
V18.00
p413
sVov
p414
V9.00
p415
sV5w
p416
I0
ssg48
(dp417
Va
V66.40
p418
sVb
I264
sVinns
p419
I8
sVno
p420
I3
sVsr
p421
V125.75
p422
sVm
I8
sV4s
p423
I33
sV6s
p424
I8
sVhs
p425
V111*
p426
sVr
V332
p427
sV100s
p428
I1
sV50s
p429
I1
ssg62
I2012
stp430
a(Vaus-sl-2012
(dp431
g24
(dp432
Vinns
p433
I1
sVc
I1
sVro
p434
I0
sVm
I4
sVs
I0
ssg28
(dp435
Vinns
p436
I1
sV10w
p437
I0
sVnb
p438
I0
sVmaid
p439
I0
sVwb
p440
I0
sVbbmw
p441
I0
sV6s
p442
I0
sVbbmr
p443
I0
sVbbir
p444
I0
sVbbiw
p445
I0
sVa
V-
sVb
I6
sVe
V9.00
p446
sVd
I3
sVwmaid
p447
I0
sV4w
p448
I0
sVm
I4
sV4s
p449
I2
sVr
I9
sVw
I0
sVsr
p450
V-
sVov
p451
V1.00
p452
sV5w
p453
I0
ssg48
(dp454
Va
V7.00
p455
sVb
I52
sVinns
p456
I4
sVno
p457
I0
sVsr
p458
V53.84
p459
sVm
I4
sV4s
p460
I1
sV6s
p461
I0
sVhs
p462
V16
p463
sVr
V28
p464
sV100s
p465
I0
sV50s
p466
I0
ssg62
I2012
stp467
a(Vipl2011
(dp468
g24
(dp469
Vinns
p470
I3
sVc
I4
sVro
p471
I0
sVm
I6
sVs
I0
ssg28
(dp472
Vinns
p473
I1
sV10w
p474
I0
sVnb
p475
I0
sVmaid
p476
I0
sVwb
p477
I1
sVbbmw
p478
I0
sV6s
p479
I0
sVbbmr
p480
I0
sVbbir
p481
I0
sVbbiw
p482
I0
sVa
V-
sVb
I12
sVe
V6.50
p483
sVd
I5
sVwmaid
p484
I0
sV4w
p485
I0
sVm
I6
sV4s
p486
I1
sVr
I13
sVw
I0
sVsr
p487
V-
sVov
p488
V2.00
p489
sV5w
p490
I0
ssg48
(dp491
Va
V7.83
p492
sVb
I46
sVinns
p493
I6
sVno
p494
I0
sVsr
p495
V102.17
p496
sVm
I6
sV4s
p497
I3
sV6s
p498
I3
sVhs
p499
V25
p500
sVr
V47
p501
sV100s
p502
I0
sV50s
p503
I0
ssg62
I2011
stp504
a(Vclt20-2010
(dp505
g24
(dp506
Vinns
p507
I1
sVc
I1
sVro
p508
I0
sVm
I4
sVs
I0
ssg28
(dp509
Vinns
p510
I0
sV10w
p511
I0
sVnb
p512
I0
sVmaid
p513
I0
sVwb
p514
I0
sVbbmw
p515
I0
sV6s
p516
I0
sVbbmr
p517
I0
sVbbir
p518
I0
sVbbiw
p519
I0
sVa
V-
sVb
I0
sVe
V-
sVd
I0
sVwmaid
p520
I0
sV4w
p521
I0
sVm
I4
sV4s
p522
I0
sVr
I0
sVw
I0
sVsr
p523
V-
sVov
p524
V-
sV5w
p525
I0
ssg48
(dp526
Va
V98.50
p527
sVb
I133
sVinns
p528
I4
sVno
p529
I2
sVsr
p530
V148.12
p531
sVm
I4
sV4s
p532
I19
sV6s
p533
I9
sVhs
p534
V93*
p535
sVr
V197
p536
sV100s
p537
I0
sV50s
p538
I1
ssg62
I2010
stp539
a(Vipl2010
(dp540
g24
(dp541
Vinns
p542
I0
sVc
I0
sVro
p543
I0
sVm
I1
sVs
I0
ssg28
(dp544
Vinns
p545
I1
sV10w
p546
I0
sVnb
p547
I0
sVmaid
p548
I0
sVwb
p549
I0
sVbbmw
p550
I0
sV6s
p551
I0
sVbbmr
p552
I5
sVbbir
p553
I5
sVbbiw
p554
I0
sVa
V-
sVb
I7
sVe
V4.28
p555
sVd
I3
sVwmaid
p556
I0
sV4w
p557
I0
sVm
I1
sV4s
p558
I0
sVr
I5
sVw
I0
sVsr
p559
V-
sVov
p560
V1.16
p561
sV5w
p562
I0
ssg48
(dp563
Va
V21.00
p564
sVb
I21
sVinns
p565
I1
sVno
p566
I0
sVsr
p567
V100.00
p568
sVm
I1
sV4s
p569
I0
sV6s
p570
I1
sVhs
p571
V21
p572
sVr
V21
p573
sV100s
p574
I0
sV50s
p575
I0
ssg62
I2010
stp576
asb.