(iplayer
Player
p1
(dp2
S'is_batsman'
p3
I00
sS'name'
p4
S'Jimmy Neesham'
p5
sS'dob'
p6
S'1990/09/17'
p7
sS'price'
p8
S'950000'
p9
sS'is_allrounder'
p10
I01
sS'is_overseas'
p11
I01
sS'team'
p12
S'DD'
p13
sS'nationality'
p14
S'New Zealander'
p15
sS'is_bowler'
p16
I00
sS'is_keeper'
p17
I00
sS'id'
p18
S'971'
p19
sS'is_uncapped'
p20
I00
sS'tournamentStats'
p21
(lp22
(Vnz-ind-2014
(dp23
S'fieldingStats'
p24
(dp25
Vinns
p26
I2
sVc
I2
sVro
p27
I0
sVm
I3
sVs
I0
ssS'bowlingStats'
p28
(dp29
Vinns
p30
I4
sV10w
p31
I0
sVnb
p32
I1
sVmaid
p33
I2
sVwb
p34
I4
sVbbmw
p35
I1
sV6s
p36
I5
sVbbmr
p37
I45
sVbbir
p38
I45
sVbbiw
p39
I1
sVa
V95.50
p40
sVb
I220
sVe
V5.20
p41
sVd
I128
sVwmaid
p42
I1
sV4w
p43
I0
sVm
I3
sV4s
p44
I21
sVr
I191
sVw
I2
sVsr
p45
V110.00
p46
sVov
p47
V36.66
p48
sV5w
p49
I0
ssS'battingStats'
p50
(dp51
Va
V204.00
p52
sVb
I208
sVinns
p53
I3
sVno
p54
I2
sVsr
p55
V98.07
p56
sVm
I3
sV4s
p57
I30
sV6s
p58
I2
sVhs
p59
V137*
p60
sVr
V204
p61
sV100s
p62
I1
sV50s
p63
I0
ssS'year'
p64
I2014
stp65
a(Vnz-wi-2013
(dp66
g24
(dp67
Vinns
p68
I2
sVc
I3
sVro
p69
I0
sVm
I4
sVs
I0
ssg28
(dp70
Vinns
p71
I4
sV10w
p72
I0
sVnb
p73
I0
sVmaid
p74
I0
sVwb
p75
I11
sVbbmw
p76
I3
sV6s
p77
I3
sVbbmr
p78
I16
sVbbir
p79
I16
sVbbiw
p80
I3
sVa
V22.20
p81
sVb
I108
sVe
V6.16
p82
sVd
I57
sVwmaid
p83
I0
sV4w
p84
I0
sVm
I4
sV4s
p85
I9
sVr
I111
sVw
I5
sVsr
p86
V21.60
p87
sVov
p88
V18.00
p89
sV5w
p90
I0
ssg50
(dp91
Va
V24.00
p92
sVb
I34
sVinns
p93
I2
sVno
p94
I1
sVsr
p95
V70.58
p96
sVm
I4
sV4s
p97
I3
sV6s
p98
I1
sVhs
p99
V14*
p100
sVr
V24
p101
sV100s
p102
I0
sV50s
p103
I0
ssg64
I2013
stp104
a(Vban-nz-2013
(dp105
g24
(dp106
Vinns
p107
I0
sVc
I0
sVro
p108
I0
sVm
I2
sVs
I0
ssg28
(dp109
Vinns
p110
I2
sV10w
p111
I0
sVnb
p112
I0
sVmaid
p113
I0
sVwb
p114
I6
sVbbmw
p115
I4
sV6s
p116
I2
sVbbmr
p117
I42
sVbbir
p118
I42
sVbbiw
p119
I4
sVa
V11.87
p120
sVb
I114
sVe
V5.00
p121
sVd
I63
sVwmaid
p122
I0
sV4w
p123
I2
sVm
I2
sV4s
p124
I8
sVr
I95
sVw
I8
sVsr
p125
V14.25
p126
sVov
p127
V19.00
p128
sV5w
p129
I0
ssg50
(dp130
Va
V4.00
p131
sVb
I12
sVinns
p132
I2
sVno
p133
I0
sVsr
p134
V66.66
p135
sVm
I2
sV4s
p136
I1
sV6s
p137
I0
sVhs
p138
V8
sVr
V8
sV100s
p139
I0
sV50s
p140
I0
ssg64
I2013
stp141
a(Vclt20-2013
(dp142
g24
(dp143
Vinns
p144
I0
sVc
I0
sVro
p145
I0
sVm
I6
sVs
I0
ssg28
(dp146
Vinns
p147
I6
sV10w
p148
I0
sVnb
p149
I1
sVmaid
p150
I0
sVwb
p151
I5
sVbbmw
p152
I3
sV6s
p153
I3
sVbbmr
p154
I22
sVbbir
p155
I22
sVbbiw
p156
I3
sVa
V26.83
p157
sVb
I132
sVe
V7.31
p158
sVd
I46
sVwmaid
p159
I0
sV4w
p160
I0
sVm
I6
sV4s
p161
I15
sVr
I161
sVw
I6
sVsr
p162
V22.00
p163
sVov
p164
V22.00
p165
sV5w
p166
I0
ssg50
(dp167
Va
V72.50
p168
sVb
I86
sVinns
p169
I5
sVno
p170
I3
sVsr
p171
V168.60
p172
sVm
I6
sV4s
p173
I12
sV6s
p174
I8
sVhs
p175
V52*
p176
sVr
V145
p177
sV100s
p178
I0
sV50s
p179
I1
ssg64
I2013
stp180
a(Vsl-nz-2013
(dp181
g24
(dp182
Vinns
p183
I1
sVc
I1
sVro
p184
I0
sVm
I2
sVs
I0
ssg28
(dp185
Vinns
p186
I2
sV10w
p187
I0
sVnb
p188
I0
sVmaid
p189
I0
sVwb
p190
I3
sVbbmw
p191
I2
sV6s
p192
I0
sVbbmr
p193
I26
sVbbir
p194
I26
sVbbiw
p195
I2
sVa
V25.50
p196
sVb
I48
sVe
V6.37
p197
sVd
I22
sVwmaid
p198
I0
sV4w
p199
I0
sVm
I2
sV4s
p200
I6
sVr
I51
sVw
I2
sVsr
p201
V24.00
p202
sVov
p203
V8.00
p204
sV5w
p205
I0
ssg50
(dp206
Va
V-
sVb
I50
sVinns
p207
I2
sVno
p208
I2
sVsr
p209
V94.00
p210
sVm
I2
sV4s
p211
I3
sV6s
p212
I0
sVhs
p213
V42*
p214
sVr
V47
p215
sV100s
p216
I0
sV50s
p217
I0
ssg64
I2013
stp218
a(Vsa-nz-2012
p219
(dp220
g24
(dp221
Vinns
p222
I1
sVc
I2
sVro
p223
I0
sVm
I5
sVs
I0
ssg28
(dp224
Vinns
p225
I4
sV10w
p226
I0
sVnb
p227
I0
sVmaid
p228
I0
sVwb
p229
I8
sVbbmw
p230
I0
sV6s
p231
I1
sVbbmr
p232
I0
sVbbir
p233
I0
sVbbiw
p234
I0
sVa
V-
sVb
I61
sVe
V7.96
p235
sVd
I17
sVwmaid
p236
I0
sV4w
p237
I0
sVm
I5
sV4s
p238
I5
sVr
I81
sVw
I0
sVsr
p239
V-
sVov
p240
V10.16
p241
sV5w
p242
I0
ssg50
(dp243
Va
V11.66
p244
sVb
I25
sVinns
p245
I3
sVno
p246
I0
sVsr
p247
V140.00
p248
sVm
I5
sV4s
p249
I7
sV6s
p250
I0
sVhs
p251
V13
p252
sVr
V35
p253
sV100s
p254
I0
sV50s
p255
I0
ssg64
I2012
stp256
asb.