(iplayer
Player
p1
(dp2
S'is_batsman'
p3
I00
sS'name'
p4
S'Andre Russell'
p5
sS'dob'
p6
S'1988/04/29'
p7
sS'price'
p8
S'850000'
p9
sS'is_allrounder'
p10
I01
sS'is_overseas'
p11
I01
sS'team'
p12
S'KKR'
p13
sS'nationality'
p14
S'West Indian'
p15
sS'is_bowler'
p16
I00
sS'is_keeper'
p17
I00
sS'id'
p18
S'177'
p19
sS'is_uncapped'
p20
I00
sS'tournamentStats'
p21
(lp22
(Vworldt20-2014
(dp23
S'fieldingStats'
p24
(dp25
Vinns
p26
I0
sVc
I0
sVro
p27
I0
sVm
I2
sVs
I0
ssS'bowlingStats'
p28
(dp29
Vinns
p30
I2
sV10w
p31
I0
sVnb
p32
I0
sVmaid
p33
I0
sVwb
p34
I1
sVbbmw
p35
I2
sV6s
p36
I0
sVbbmr
p37
I10
sVbbir
p38
I10
sVbbiw
p39
I2
sVa
V7.33
p40
sVb
I25
sVe
V5.28
p41
sVd
I14
sVwmaid
p42
I0
sV4w
p43
I0
sVm
I2
sV4s
p44
I3
sVr
I22
sVw
I3
sVsr
p45
V8.33
p46
sVov
p47
V4.16
p48
sV5w
p49
I0
ssS'battingStats'
p50
(dp51
Va
V3.50
p52
sVb
I6
sVinns
p53
I2
sVno
p54
I0
sVsr
p55
V116.66
p56
sVm
I2
sV4s
p57
I0
sV6s
p58
I1
sVhs
p59
V7
sVr
V7
sV100s
p60
I0
sV50s
p61
I0
ssS'year'
p62
I2014
stp63
a(Vwi-eng-2014
(dp64
g24
(dp65
Vinns
p66
I1
sVc
I2
sVro
p67
I1
sVm
I3
sVs
I0
ssg28
(dp68
Vinns
p69
I3
sV10w
p70
I0
sVnb
p71
I0
sVmaid
p72
I0
sVwb
p73
I0
sVbbmw
p74
I0
sV6s
p75
I2
sVbbmr
p76
I0
sVbbir
p77
I0
sVbbiw
p78
I0
sVa
V-
sVb
I30
sVe
V9.00
p79
sVd
I5
sVwmaid
p80
I0
sV4w
p81
I0
sVm
I3
sV4s
p82
I3
sVr
I45
sVw
I0
sVsr
p83
V-
sVov
p84
V5.00
p85
sV5w
p86
I0
ssg50
(dp87
Va
V13.00
p88
sVb
I21
sVinns
p89
I3
sVno
p90
I1
sVsr
p91
V123.80
p92
sVm
I3
sV4s
p93
I2
sV6s
p94
I1
sVhs
p95
V24*
p96
sVr
V26
p97
sV100s
p98
I0
sV50s
p99
I0
ssg62
I2014
stp100
a(Vaus-wi-t20-2013
(dp101
g24
(dp102
Vinns
p103
I1
sVc
I1
sVro
p104
I0
sVm
I1
sVs
I0
ssg28
(dp105
Vinns
p106
I1
sV10w
p107
I0
sVnb
p108
I0
sVmaid
p109
I0
sVwb
p110
I0
sVbbmw
p111
I0
sV6s
p112
I1
sVbbmr
p113
I9
sVbbir
p114
I9
sVbbiw
p115
I0
sVa
V-
sVb
I6
sVe
V9.00
p116
sVd
I2
sVwmaid
p117
I0
sV4w
p118
I0
sVm
I1
sV4s
p119
I0
sVr
I9
sVw
I0
sVsr
p120
V-
sVov
p121
V1.00
p122
sV5w
p123
I0
ssg50
(dp124
Va
V-
sVb
I11
sVinns
p125
I1
sVno
p126
I1
sVsr
p127
V209.09
p128
sVm
I1
sV4s
p129
I3
sV6s
p130
I0
sVhs
p131
V23*
p132
sVr
V23
p133
sV100s
p134
I0
sV50s
p135
I0
ssg62
I2013
stp136
a(Vaus-wi-2013
(dp137
g24
(dp138
Vinns
p139
I0
sVc
I0
sVro
p140
I0
sVm
I2
sVs
I0
ssg28
(dp141
Vinns
p142
I2
sV10w
p143
I0
sVnb
p144
I2
sVmaid
p145
I0
sVwb
p146
I1
sVbbmw
p147
I1
sV6s
p148
I2
sVbbmr
p149
I40
sVbbir
p150
I40
sVbbiw
p151
I1
sVa
V81.00
p152
sVb
I66
sVe
V7.36
p153
sVd
I29
sVwmaid
p154
I0
sV4w
p155
I0
sVm
I2
sV4s
p156
I10
sVr
I81
sVw
I1
sVsr
p157
V66.00
p158
sVov
p159
V11.00
p160
sV5w
p161
I0
ssg50
(dp162
Va
V30.50
p163
sVb
I48
sVinns
p164
I2
sVno
p165
I0
sVsr
p166
V127.08
p167
sVm
I2
sV4s
p168
I7
sV6s
p169
I2
sVhs
p170
V43
p171
sVr
V61
p172
sV100s
p173
I0
sV50s
p174
I0
ssg62
I2013
stp175
a(Vwi-zim-2013
(dp176
g24
(dp177
Vinns
p178
I1
sVc
I2
sVro
p179
I0
sVm
I4
sVs
I0
ssg28
(dp180
Vinns
p181
I4
sV10w
p182
I0
sVnb
p183
I1
sVmaid
p184
I0
sVwb
p185
I3
sVbbmw
p186
I2
sV6s
p187
I1
sVbbmr
p188
I24
sVbbir
p189
I24
sVbbiw
p190
I2
sVa
V40.00
p191
sVb
I96
sVe
V5.00
p192
sVd
I50
sVwmaid
p193
I0
sV4w
p194
I0
sVm
I4
sV4s
p195
I8
sVr
I80
sVw
I2
sVsr
p196
V48.00
p197
sVov
p198
V16.00
p199
sV5w
p200
I0
ssg50
(dp201
Va
V1.50
p202
sVb
I9
sVinns
p203
I2
sVno
p204
I0
sVsr
p205
V33.33
p206
sVm
I4
sV4s
p207
I0
sV6s
p208
I0
sVhs
p209
V3
sVr
V3
sV100s
p210
I0
sV50s
p211
I0
ssg62
I2013
stp212
a(Vnz-wi-2013
(dp213
g24
(dp214
Vinns
p215
I0
sVc
I0
sVro
p216
I0
sVm
I3
sVs
I0
ssg28
(dp217
Vinns
p218
I3
sV10w
p219
I0
sVnb
p220
I0
sVmaid
p221
I0
sVwb
p222
I3
sVbbmw
p223
I2
sV6s
p224
I3
sVbbmr
p225
I16
sVbbir
p226
I16
sVbbiw
p227
I2
sVa
V17.50
p228
sVb
I48
sVe
V8.75
p229
sVd
I21
sVwmaid
p230
I0
sV4w
p231
I0
sVm
I3
sV4s
p232
I8
sVr
I70
sVw
I4
sVsr
p233
V12.00
p234
sVov
p235
V8.00
p236
sV5w
p237
I0
ssg50
(dp238
Va
V16.00
p239
sVb
I12
sVinns
p240
I3
sVno
p241
I2
sVsr
p242
V133.33
p243
sVm
I3
sV4s
p244
I2
sV6s
p245
I0
sVhs
p246
V10*
p247
sVr
V16
p248
sV100s
p249
I0
sV50s
p250
I0
ssg62
I2013
stp251
a(Vipl2013
p252
(dp253
g24
(dp254
Vinns
p255
I1
sVc
I1
sVro
p256
I0
sVm
I3
sVs
I0
ssg28
(dp257
Vinns
p258
I3
sV10w
p259
I0
sVnb
p260
I0
sVmaid
p261
I0
sVwb
p262
I2
sVbbmw
p263
I0
sV6s
p264
I3
sVbbmr
p265
I0
sVbbir
p266
I0
sVbbiw
p267
I0
sVa
V-
sVb
I42
sVe
V9.71
p268
sVd
I10
sVwmaid
p269
I0
sV4w
p270
I0
sVm
I3
sV4s
p271
I5
sVr
I68
sVw
I0
sVsr
p272
V-
sVov
p273
V7.00
p274
sV5w
p275
I0
ssg50
(dp276
Va
V5.50
p277
sVb
I14
sVinns
p278
I2
sVno
p279
I0
sVsr
p280
V78.57
p281
sVm
I3
sV4s
p282
I0
sV6s
p283
I0
sVhs
p284
V7
sVr
V11
p285
sV100s
p286
I0
sV50s
p287
I0
ssg62
I2013
stp288
a(Vipl2012
(dp289
g24
(dp290
Vinns
p291
I0
sVc
I0
sVro
p292
I0
sVm
I4
sVs
I0
ssg28
(dp293
Vinns
p294
I4
sV10w
p295
I0
sVnb
p296
I1
sVmaid
p297
I0
sVwb
p298
I1
sVbbmw
p299
I1
sV6s
p300
I3
sVbbmr
p301
I51
sVbbir
p302
I51
sVbbiw
p303
I1
sVa
V161.00
p304
sVb
I96
sVe
V10.06
p305
sVd
I28
sVwmaid
p306
I0
sV4w
p307
I0
sVm
I4
sV4s
p308
I24
sVr
I161
sVw
I1
sVsr
p309
V96.00
p310
sVov
p311
V16.00
p312
sV5w
p313
I0
ssg50
(dp314
Va
V23.50
p315
sVb
I26
sVinns
p316
I2
sVno
p317
I0
sVsr
p318
V180.76
p319
sVm
I4
sV4s
p320
I3
sV6s
p321
I3
sVhs
p322
V31
p323
sVr
V47
p324
sV100s
p325
I0
sV50s
p326
I0
ssg62
I2012
stp327
a(Vworldt20-2012
(dp328
g24
(dp329
Vinns
p330
I2
sVc
I3
sVro
p331
I0
sVm
I8
sVs
I0
ssg28
(dp332
Vinns
p333
I5
sV10w
p334
I0
sVnb
p335
I0
sVmaid
p336
I0
sVwb
p337
I2
sVbbmw
p338
I0
sV6s
p339
I4
sVbbmr
p340
I0
sVbbir
p341
I0
sVbbiw
p342
I0
sVa
V-
sVb
I48
sVe
V9.87
p343
sVd
I13
sVwmaid
p344
I0
sV4w
p345
I0
sVm
I8
sV4s
p346
I7
sVr
I79
sVw
I0
sVsr
p347
V-
sVov
p348
V8.00
p349
sV5w
p350
I0
ssg50
(dp351
Va
V15.33
p352
sVb
I31
sVinns
p353
I5
sVno
p354
I2
sVsr
p355
V148.38
p356
sVm
I8
sV4s
p357
I4
sV6s
p358
I2
sVhs
p359
V19*
p360
sVr
V46
p361
sV100s
p362
I0
sV50s
p363
I0
ssg62
I2012
stp364
asb.