(iplayer
Player
p1
(dp2
S'is_batsman'
p3
I01
sS'name'
p4
S'Dwayne Smith'
p5
sS'dob'
p6
S'1983/04/12'
p7
sS'price'
p8
S'1000000'
p9
sS'is_allrounder'
p10
I01
sS'is_overseas'
p11
I01
sS'team'
p12
S'CSK'
p13
sS'nationality'
p14
S'West Indian'
p15
sS'is_bowler'
p16
I00
sS'is_keeper'
p17
I00
sS'id'
p18
S'413'
p19
sS'is_uncapped'
p20
I00
sS'tournamentStats'
p21
(lp22
(Vworldt20-2014
(dp23
S'fieldingStats'
p24
(dp25
Vinns
p26
I0
sVc
I0
sVro
p27
I0
sVm
I2
sVs
I0
ssS'bowlingStats'
p28
(dp29
Vinns
p30
I0
sV10w
p31
I0
sVnb
p32
I0
sVmaid
p33
I0
sVwb
p34
I0
sVbbmw
p35
I0
sV6s
p36
I0
sVbbmr
p37
I0
sVbbir
p38
I0
sVbbiw
p39
I0
sVa
V-
sVb
I0
sVe
V-
sVd
I0
sVwmaid
p40
I0
sV4w
p41
I0
sVm
I2
sV4s
p42
I0
sVr
I0
sVw
I0
sVsr
p43
V-
sVov
p44
V-
sV5w
p45
I0
ssS'battingStats'
p46
(dp47
Va
V41.50
p48
sVb
I72
sVinns
p49
I2
sVno
p50
I0
sVsr
p51
V115.27
p52
sVm
I2
sV4s
p53
I12
sV6s
p54
I3
sVhs
p55
V72
p56
sVr
V83
p57
sV100s
p58
I0
sV50s
p59
I1
ssS'year'
p60
I2014
stp61
a(Vwi-eng-2014
(dp62
g24
(dp63
Vinns
p64
I1
sVc
I1
sVro
p65
I0
sVm
I6
sVs
I0
ssg28
(dp66
Vinns
p67
I3
sV10w
p68
I0
sVnb
p69
I0
sVmaid
p70
I0
sVwb
p71
I0
sVbbmw
p72
I1
sV6s
p73
I0
sVbbmr
p74
I30
sVbbir
p75
I30
sVbbiw
p76
I1
sVa
V41.00
p77
sVb
I47
sVe
V5.23
p78
sVd
I23
sVwmaid
p79
I0
sV4w
p80
I0
sVm
I6
sV4s
p81
I5
sVr
I41
sVw
I1
sVsr
p82
V47.00
p83
sVov
p84
V7.83
p85
sV5w
p86
I0
ssg46
(dp87
Va
V15.83
p88
sVb
I80
sVinns
p89
I6
sVno
p90
I0
sVsr
p91
V118.75
p92
sVm
I6
sV4s
p93
I12
sV6s
p94
I5
sVhs
p95
V30
p96
sVr
V95
p97
sV100s
p98
I0
sV50s
p99
I0
ssg60
I2014
stp100
a(Vclt20-2013
(dp101
g24
(dp102
Vinns
p103
I4
sVc
I6
sVro
p104
I1
sVm
I5
sVs
I0
ssg28
(dp105
Vinns
p106
I1
sV10w
p107
I0
sVnb
p108
I0
sVmaid
p109
I0
sVwb
p110
I0
sVbbmw
p111
I0
sV6s
p112
I1
sVbbmr
p113
I0
sVbbir
p114
I0
sVbbiw
p115
I0
sVa
V-
sVb
I6
sVe
V12.00
p116
sVd
I0
sVwmaid
p117
I0
sV4w
p118
I0
sVm
I5
sV4s
p119
I0
sVr
I12
sVw
I0
sVsr
p120
V-
sVov
p121
V1.00
p122
sV5w
p123
I0
ssg46
(dp124
Va
V55.75
p125
sVb
I156
sVinns
p126
I5
sVno
p127
I1
sVsr
p128
V142.94
p129
sVm
I5
sV4s
p130
I23
sV6s
p131
I9
sVhs
p132
V63*
p133
sVr
V223
p134
sV100s
p135
I0
sV50s
p136
I2
ssg60
I2013
stp137
a(Vipl2013
p138
(dp139
g24
(dp140
Vinns
p141
I7
sVc
I8
sVro
p142
I0
sVm
I13
sVs
I0
ssg28
(dp143
Vinns
p144
I3
sV10w
p145
I0
sVnb
p146
I2
sVmaid
p147
I0
sVwb
p148
I0
sVbbmw
p149
I2
sV6s
p150
I2
sVbbmr
p151
I20
sVbbir
p152
I20
sVbbiw
p153
I2
sVa
V29.50
p154
sVb
I30
sVe
V11.80
p155
sVd
I7
sVwmaid
p156
I0
sV4w
p157
I0
sVm
I13
sV4s
p158
I7
sVr
I59
sVw
I2
sVsr
p159
V15.00
p160
sVov
p161
V5.00
p162
sV5w
p163
I0
ssg46
(dp164
Va
V32.15
p165
sVb
I341
sVinns
p166
I13
sVno
p167
I0
sVsr
p168
V122.58
p169
sVm
I13
sV4s
p170
I40
sV6s
p171
I19
sVhs
p172
V68
p173
sVr
V418
p174
sV100s
p175
I0
sV50s
p176
I4
ssg60
I2013
stp177
a(Vipl2012
(dp178
g24
(dp179
Vinns
p180
I2
sVc
I1
sVro
p181
I1
sVm
I7
sVs
I0
ssg28
(dp182
Vinns
p183
I6
sV10w
p184
I0
sVnb
p185
I1
sVmaid
p186
I0
sVwb
p187
I0
sVbbmw
p188
I1
sV6s
p189
I3
sVbbmr
p190
I8
sVbbir
p191
I8
sVbbiw
p192
I1
sVa
V47.50
p193
sVb
I78
sVe
V7.30
p194
sVd
I28
sVwmaid
p195
I0
sV4w
p196
I0
sVm
I7
sV4s
p197
I9
sVr
I95
sVw
I2
sVsr
p198
V39.00
p199
sVov
p200
V13.00
p201
sV5w
p202
I0
ssg46
(dp203
Va
V39.25
p204
sVb
I98
sVinns
p205
I6
sVno
p206
I2
sVsr
p207
V160.20
p208
sVm
I7
sV4s
p209
I18
sV6s
p210
I7
sVhs
p211
V87*
p212
sVr
V157
p213
sV100s
p214
I0
sV50s
p215
I1
ssg60
I2012
stp216
a(Vclt20-2012
(dp217
g24
(dp218
Vinns
p219
I2
sVc
I2
sVro
p220
I0
sVm
I4
sVs
I0
ssg28
(dp221
Vinns
p222
I3
sV10w
p223
I0
sVnb
p224
I0
sVmaid
p225
I0
sVwb
p226
I2
sVbbmw
p227
I1
sV6s
p228
I1
sVbbmr
p229
I17
sVbbir
p230
I17
sVbbiw
p231
I1
sVa
V31.00
p232
sVb
I24
sVe
V7.75
p233
sVd
I9
sVwmaid
p234
I0
sV4w
p235
I0
sVm
I4
sV4s
p236
I2
sVr
I31
sVw
I1
sVsr
p237
V24.00
p238
sVov
p239
V4.00
p240
sV5w
p241
I0
ssg46
(dp242
Va
V25.50
p243
sVb
I87
sVinns
p244
I4
sVno
p245
I0
sVsr
p246
V117.24
p247
sVm
I4
sV4s
p248
I10
sV6s
p249
I5
sVhs
p250
V37
p251
sVr
V102
p252
sV100s
p253
I0
sV50s
p254
I0
ssg60
I2012
stp255
a(Vworldt20-2012
(dp256
g24
(dp257
Vinns
p258
I1
sVc
I2
sVro
p259
I0
sVm
I3
sVs
I0
ssg28
(dp260
Vinns
p261
I0
sV10w
p262
I0
sVnb
p263
I0
sVmaid
p264
I0
sVwb
p265
I0
sVbbmw
p266
I0
sV6s
p267
I0
sVbbmr
p268
I0
sVbbir
p269
I0
sVbbiw
p270
I0
sVa
V-
sVb
I0
sVe
V-
sVd
I0
sVwmaid
p271
I0
sV4w
p272
I0
sVm
I3
sV4s
p273
I0
sVr
I0
sVw
I0
sVsr
p274
V-
sVov
p275
V-
sV5w
p276
I0
ssg46
(dp277
Va
V6.66
p278
sVb
I30
sVinns
p279
I3
sVno
p280
I0
sVsr
p281
V66.66
p282
sVm
I3
sV4s
p283
I3
sV6s
p284
I0
sVhs
p285
V13
p286
sVr
V20
p287
sV100s
p288
I0
sV50s
p289
I0
ssg60
I2012
stp290
asb.