(iplayer
Player
p1
(dp2
S'is_batsman'
p3
I00
sS'name'
p4
S'Nathan Coulter-Nile'
p5
sS'dob'
p6
S'1987/10/11'
p7
sS'price'
p8
S'900000'
p9
sS'is_allrounder'
p10
I01
sS'is_overseas'
p11
I01
sS'team'
p12
S'DD'
p13
sS'nationality'
p14
S'Australian'
p15
sS'is_bowler'
p16
I01
sS'is_keeper'
p17
I00
sS'id'
p18
S'840'
p19
sS'is_uncapped'
p20
I00
sS'tournamentStats'
p21
(lp22
(Vworldt20-2014
(dp23
S'fieldingStats'
p24
(dp25
Vinns
p26
I0
sVc
I0
sVro
p27
I0
sVm
I1
sVs
I0
ssS'bowlingStats'
p28
(dp29
Vinns
p30
I1
sV10w
p31
I0
sVnb
p32
I0
sVmaid
p33
I0
sVwb
p34
I1
sVbbmw
p35
I2
sV6s
p36
I0
sVbbmr
p37
I36
sVbbir
p38
I36
sVbbiw
p39
I2
sVa
V18.00
p40
sVb
I24
sVe
V9.00
p41
sVd
I5
sVwmaid
p42
I0
sV4w
p43
I0
sVm
I1
sV4s
p44
I5
sVr
I36
sVw
I2
sVsr
p45
V12.00
p46
sVov
p47
V4.00
p48
sV5w
p49
I0
ssS'battingStats'
p50
(dp51
Va
V0.00
p52
sVb
I3
sVinns
p53
I1
sVno
p54
I0
sVsr
p55
V0.00
p56
sVm
I1
sV4s
p57
I0
sV6s
p58
I0
sVhs
p59
V0*
p60
sVr
V0
sV100s
p61
I0
sV50s
p62
I0
ssS'year'
p63
I2014
stp64
a(Vsa-aus-2014
(dp65
g24
(dp66
Vinns
p67
I1
sVc
I1
sVro
p68
I0
sVm
I2
sVs
I0
ssg28
(dp69
Vinns
p70
I2
sV10w
p71
I0
sVnb
p72
I1
sVmaid
p73
I0
sVwb
p74
I1
sVbbmw
p75
I1
sV6s
p76
I3
sVbbmr
p77
I17
sVbbir
p78
I17
sVbbiw
p79
I1
sVa
V50.00
p80
sVb
I36
sVe
V8.33
p81
sVd
I14
sVwmaid
p82
I0
sV4w
p83
I0
sVm
I2
sV4s
p84
I3
sVr
I50
sVw
I1
sVsr
p85
V36.00
p86
sVov
p87
V6.00
p88
sV5w
p89
I0
ssg50
(dp90
Va
V-
sVinns
p91
I0
sVno
p92
I0
sVsr
p93
V-
sVm
I2
sV4s
p94
I0
sV6s
p95
I0
sVhs
p96
V0*
p97
sVr
V0
sV100s
p98
I0
sV50s
p99
I0
ssg63
I2014
stp100
a(Vaus-wi-t20-2013
(dp101
g24
(dp102
Vinns
p103
I1
sVc
I1
sVro
p104
I0
sVm
I1
sVs
I0
ssg28
(dp105
Vinns
p106
I1
sV10w
p107
I0
sVnb
p108
I0
sVmaid
p109
I0
sVwb
p110
I1
sVbbmw
p111
I1
sV6s
p112
I1
sVbbmr
p113
I36
sVbbir
p114
I36
sVbbiw
p115
I1
sVa
V36.00
p116
sVb
I24
sVe
V9.00
p117
sVd
I8
sVwmaid
p118
I0
sV4w
p119
I0
sVm
I1
sV4s
p120
I4
sVr
I36
sVw
I1
sVsr
p121
V24.00
p122
sVov
p123
V4.00
p124
sV5w
p125
I0
ssg50
(dp126
Va
V-
sVb
I11
sVinns
p127
I1
sVno
p128
I1
sVsr
p129
V145.45
p130
sVm
I1
sV4s
p131
I0
sV6s
p132
I2
sVhs
p133
V16*
p134
sVr
V16
p135
sV100s
p136
I0
sV50s
p137
I0
ssg63
I2013
stp138
a(Vind-aus-2-2013
(dp139
g24
(dp140
Vinns
p141
I1
sVc
I0
sVro
p142
I1
sVm
I2
sVs
I0
ssg28
(dp143
Vinns
p144
I2
sV10w
p145
I0
sVnb
p146
I0
sVmaid
p147
I0
sVwb
p148
I4
sVbbmw
p149
I1
sV6s
p150
I4
sVbbmr
p151
I44
sVbbir
p152
I44
sVbbiw
p153
I1
sVa
V124.00
p154
sVb
I84
sVe
V8.85
p155
sVd
I34
sVwmaid
p156
I0
sV4w
p157
I0
sVm
I2
sV4s
p158
I15
sVr
I124
sVw
I1
sVsr
p159
V84.00
p160
sVov
p161
V14.00
p162
sV5w
p163
I0
ssg50
(dp164
Va
V15.00
p165
sVb
I16
sVinns
p166
I2
sVno
p167
I1
sVsr
p168
V93.75
p169
sVm
I2
sV4s
p170
I1
sV6s
p171
I0
sVhs
p172
V12*
p173
sVr
V15
p174
sV100s
p175
I0
sV50s
p176
I0
ssg63
I2013
stp177
a(Veng-aus-2013
(dp178
g24
(dp179
Vinns
p180
I1
sVc
I1
sVro
p181
I0
sVm
I2
sVs
I0
ssg28
(dp182
Vinns
p183
I2
sV10w
p184
I0
sVnb
p185
I1
sVmaid
p186
I0
sVwb
p187
I0
sVbbmw
p188
I1
sV6s
p189
I1
sVbbmr
p190
I34
sVbbir
p191
I34
sVbbiw
p192
I1
sVa
V81.00
p193
sVb
I84
sVe
V5.78
p194
sVd
I46
sVwmaid
p195
I0
sV4w
p196
I0
sVm
I2
sV4s
p197
I10
sVr
I81
sVw
I1
sVsr
p198
V84.00
p199
sVov
p200
V14.00
p201
sV5w
p202
I0
ssg50
(dp203
Va
V20.00
p204
sVb
I12
sVinns
p205
I2
sVno
p206
I1
sVsr
p207
V166.66
p208
sVm
I2
sV4s
p209
I1
sV6s
p210
I2
sVhs
p211
V13
p212
sVr
V20
p213
sV100s
p214
I0
sV50s
p215
I0
ssg63
I2013
stp216
a(Vclt20-2013
(dp217
g24
(dp218
Vinns
p219
I0
sVc
I0
sVro
p220
I0
sVm
I5
sVs
I0
ssg28
(dp221
Vinns
p222
I5
sV10w
p223
I0
sVnb
p224
I1
sVmaid
p225
I0
sVwb
p226
I1
sVbbmw
p227
I3
sV6s
p228
I3
sVbbmr
p229
I19
sVbbir
p230
I19
sVbbiw
p231
I3
sVa
V19.83
p232
sVb
I112
sVe
V6.37
p233
sVd
I48
sVwmaid
p234
I0
sV4w
p235
I0
sVm
I5
sV4s
p236
I11
sVr
I119
sVw
I6
sVsr
p237
V18.66
p238
sVov
p239
V18.66
p240
sV5w
p241
I0
ssg50
(dp242
Va
V-
sVb
I5
sVinns
p243
I1
sVno
p244
I1
sVsr
p245
V240.00
p246
sVm
I5
sV4s
p247
I1
sV6s
p248
I1
sVhs
p249
V12*
p250
sVr
V12
p251
sV100s
p252
I0
sV50s
p253
I0
ssg63
I2013
stp254
a(Vaus-eng-2013
(dp255
g24
(dp256
Vinns
p257
I2
sVc
I2
sVro
p258
I0
sVm
I8
sVs
I0
ssg28
(dp259
Vinns
p260
I8
sV10w
p261
I0
sVnb
p262
I0
sVmaid
p263
I1
sVwb
p264
I6
sVbbmw
p265
I4
sV6s
p266
I8
sVbbmr
p267
I30
sVbbir
p268
I30
sVbbiw
p269
I4
sVa
V19.35
p270
sVb
I366
sVe
V5.39
p271
sVd
I202
sVwmaid
p272
I0
sV4w
p273
I1
sVm
I8
sV4s
p274
I32
sVr
I329
sVw
I17
sVsr
p275
V21.52
p276
sVov
p277
V61.00
p278
sV5w
p279
I0
ssg50
(dp280
Va
V19.50
p281
sVb
I53
sVinns
p282
I3
sVno
p283
I1
sVsr
p284
V73.58
p285
sVm
I8
sV4s
p286
I1
sV6s
p287
I1
sVhs
p288
V16
p289
sVr
V39
p290
sV100s
p291
I0
sV50s
p292
I0
ssg63
I2013
stp293
a(Vchamptrophy-2013-warmups
(dp294
g24
(dp295
Vinns
p296
I0
sVc
I0
sVro
p297
I0
sVm
I2
sVs
I0
ssg28
(dp298
Vinns
p299
I0
sV10w
p300
I0
sVnb
p301
I0
sVmaid
p302
I0
sVwb
p303
I0
sVbbmw
p304
I0
sV6s
p305
I0
sVbbmr
p306
I0
sVbbir
p307
I0
sVbbiw
p308
I0
sVa
V-
sVb
I0
sVe
V-
sVd
I0
sVwmaid
p309
I0
sV4w
p310
I0
sVm
I2
sV4s
p311
I0
sVr
I0
sVw
I0
sVsr
p312
V-
sVov
p313
V-
sV5w
p314
I0
ssg50
(dp315
Va
V-
sVinns
p316
I0
sVno
p317
I0
sVsr
p318
V-
sVm
I2
sV4s
p319
I0
sV6s
p320
I0
sVhs
p321
V0*
p322
sVr
V0
sV100s
p323
I0
sV50s
p324
I0
ssg63
I2013
stp325
a(Vbigbash-2013
(dp326
g24
(dp327
Vinns
p328
I0
sVc
I0
sVro
p329
I0
sVm
I5
sVs
I0
ssg28
(dp330
Vinns
p331
I5
sV10w
p332
I0
sVnb
p333
I0
sVmaid
p334
I1
sVwb
p335
I0
sVbbmw
p336
I3
sV6s
p337
I6
sVbbmr
p338
I15
sVbbir
p339
I15
sVbbiw
p340
I3
sVa
V15.75
p341
sVb
I100
sVe
V7.56
p342
sVd
I34
sVwmaid
p343
I1
sV4w
p344
I0
sVm
I5
sV4s
p345
I9
sVr
I126
sVw
I8
sVsr
p346
V12.50
p347
sVov
p348
V16.66
p349
sV5w
p350
I0
ssg50
(dp351
Va
V26.00
p352
sVb
I39
sVinns
p353
I5
sVno
p354
I3
sVsr
p355
V133.33
p356
sVm
I5
sV4s
p357
I4
sV6s
p358
I3
sVhs
p359
V42*
p360
sVr
V52
p361
sV100s
p362
I0
sV50s
p363
I0
ssg63
I2013
stp364
a(Vipl2013
p365
(dp366
g24
(dp367
Vinns
p368
I1
sVc
I1
sVro
p369
I0
sVm
I1
sVs
I0
ssg28
(dp370
Vinns
p371
I1
sV10w
p372
I0
sVnb
p373
I0
sVmaid
p374
I0
sVwb
p375
I1
sVbbmw
p376
I1
sV6s
p377
I0
sVbbmr
p378
I29
sVbbir
p379
I29
sVbbiw
p380
I1
sVa
V29.00
p381
sVb
I24
sVe
V7.25
p382
sVd
I11
sVwmaid
p383
I0
sV4w
p384
I0
sVm
I1
sV4s
p385
I5
sVr
I29
sVw
I1
sVsr
p386
V24.00
p387
sVov
p388
V4.00
p389
sV5w
p390
I0
ssg50
(dp391
Va
V9.00
p392
sVb
I6
sVinns
p393
I1
sVno
p394
I0
sVsr
p395
V150.00
p396
sVm
I1
sV4s
p397
I0
sV6s
p398
I1
sVhs
p399
V9
sVr
V9
sV100s
p400
I0
sV50s
p401
I0
ssg63
I2013
stp402
a(Vclt20-2012
(dp403
g24
(dp404
Vinns
p405
I0
sVc
I0
sVro
p406
I0
sVm
I3
sVs
I0
ssg28
(dp407
Vinns
p408
I2
sV10w
p409
I0
sVnb
p410
I0
sVmaid
p411
I0
sVwb
p412
I3
sVbbmw
p413
I1
sV6s
p414
I2
sVbbmr
p415
I25
sVbbir
p416
I25
sVbbiw
p417
I1
sVa
V51.00
p418
sVb
I48
sVe
V6.37
p419
sVd
I21
sVwmaid
p420
I0
sV4w
p421
I0
sVm
I3
sV4s
p422
I3
sVr
I51
sVw
I1
sVsr
p423
V48.00
p424
sVov
p425
V8.00
p426
sV5w
p427
I0
ssg50
(dp428
Va
V-
sVb
I5
sVinns
p429
I2
sVno
p430
I2
sVsr
p431
V60.00
p432
sVm
I3
sV4s
p433
I0
sV6s
p434
I0
sVhs
p435
V2*
p436
sVr
V3
sV100s
p437
I0
sV50s
p438
I0
ssg63
I2012
stp439
a(Vbigbash-2012
(dp440
g24
(dp441
Vinns
p442
I3
sVc
I4
sVro
p443
I0
sVm
I10
sVs
I0
ssg28
(dp444
Vinns
p445
I10
sV10w
p446
I0
sVnb
p447
I1
sVmaid
p448
I0
sVwb
p449
I6
sVbbmw
p450
I3
sV6s
p451
I9
sVbbmr
p452
I13
sVbbir
p453
I13
sVbbiw
p454
I3
sVa
V27.60
p455
sVb
I207
sVe
V8.00
p456
sVd
I74
sVwmaid
p457
I0
sV4w
p458
I0
sVm
I10
sV4s
p459
I27
sVr
I276
sVw
I10
sVsr
p460
V20.70
p461
sVov
p462
V34.50
p463
sV5w
p464
I0
ssg50
(dp465
Va
V12.20
p466
sVb
I37
sVinns
p467
I8
sVno
p468
I3
sVsr
p469
V164.86
p470
sVm
I10
sV4s
p471
I4
sV6s
p472
I4
sVhs
p473
V23*
p474
sVr
V61
p475
sV100s
p476
I0
sV50s
p477
I0
ssg63
I2012
stp478
asb.