(iplayer
Player
p1
(dp2
S'is_batsman'
p3
I01
sS'name'
p4
S'Manish Pandey'
p5
sS'dob'
p6
S'1989/09/10'
p7
sS'price'
p8
S'800000'
p9
sS'is_allrounder'
p10
I00
sS'is_overseas'
p11
I00
sS'team'
p12
S'KKR'
p13
sS'nationality'
p14
S'Indian'
p15
sS'is_bowler'
p16
I00
sS'is_keeper'
p17
I00
sS'id'
p18
S'123'
p19
sS'is_uncapped'
p20
I01
sS'tournamentStats'
p21
(lp22
(Vipl2013
p23
(dp24
S'fieldingStats'
p25
(dp26
Vinns
p27
I5
sVc
I6
sVro
p28
I1
sVm
I7
sVs
I0
ssS'bowlingStats'
p29
(dp30
Vinns
p31
I0
sV10w
p32
I0
sVnb
p33
I0
sVmaid
p34
I0
sVwb
p35
I0
sVbbmw
p36
I0
sV6s
p37
I0
sVbbmr
p38
I0
sVbbir
p39
I0
sVbbiw
p40
I0
sVa
V-
sVb
I0
sVe
V-
sVd
I0
sVwmaid
p41
I0
sV4w
p42
I0
sVm
I7
sV4s
p43
I0
sVr
I0
sVw
I0
sVsr
p44
V-
sVov
p45
V-
sV5w
p46
I0
ssS'battingStats'
p47
(dp48
Va
V22.66
p49
sVb
I137
sVinns
p50
I7
sVno
p51
I1
sVsr
p52
V99.27
p53
sVm
I7
sV4s
p54
I11
sV6s
p55
I3
sVhs
p56
V66
p57
sVr
V136
p58
sV100s
p59
I0
sV50s
p60
I1
ssS'year'
p61
I2013
stp62
a(Vipl2012
(dp63
g25
(dp64
Vinns
p65
I3
sVc
I3
sVro
p66
I1
sVm
I10
sVs
I0
ssg29
(dp67
Vinns
p68
I0
sV10w
p69
I0
sVnb
p70
I0
sVmaid
p71
I0
sVwb
p72
I0
sVbbmw
p73
I0
sV6s
p74
I0
sVbbmr
p75
I0
sVbbir
p76
I0
sVbbiw
p77
I0
sVa
V-
sVb
I0
sVe
V-
sVd
I0
sVwmaid
p78
I0
sV4w
p79
I0
sVm
I10
sV4s
p80
I0
sVr
I0
sVw
I0
sVsr
p81
V-
sVov
p82
V-
sV5w
p83
I0
ssg47
(dp84
Va
V20.42
p85
sVb
I112
sVinns
p86
I9
sVno
p87
I2
sVsr
p88
V127.67
p89
sVm
I10
sV4s
p90
I12
sV6s
p91
I6
sVhs
p92
V80*
p93
sVr
V143
p94
sV100s
p95
I0
sV50s
p96
I1
ssg61
I2012
stp97
a(Vipl2011
(dp98
g25
(dp99
Vinns
p100
I3
sVc
I5
sVro
p101
I0
sVm
I10
sVs
I0
ssg29
(dp102
Vinns
p103
I0
sV10w
p104
I0
sVnb
p105
I0
sVmaid
p106
I0
sVwb
p107
I0
sVbbmw
p108
I0
sV6s
p109
I0
sVbbmr
p110
I0
sVbbir
p111
I0
sVbbiw
p112
I0
sVa
V-
sVb
I0
sVe
V-
sVd
I0
sVwmaid
p113
I0
sV4w
p114
I0
sVm
I10
sV4s
p115
I0
sVr
I0
sVw
I0
sVsr
p116
V-
sVov
p117
V-
sV5w
p118
I0
ssg47
(dp119
Va
V27.33
p120
sVb
I227
sVinns
p121
I9
sVno
p122
I0
sVsr
p123
V108.37
p124
sVm
I10
sV4s
p125
I28
sV6s
p126
I6
sVhs
p127
V59
p128
sVr
V246
p129
sV100s
p130
I0
sV50s
p131
I1
ssg61
I2011
stp132
a(Vclt20-2010
(dp133
g25
(dp134
Vinns
p135
I0
sVc
I0
sVro
p136
I0
sVm
I3
sVs
I0
ssg29
(dp137
Vinns
p138
I0
sV10w
p139
I0
sVnb
p140
I0
sVmaid
p141
I0
sVwb
p142
I0
sVbbmw
p143
I0
sV6s
p144
I0
sVbbmr
p145
I0
sVbbir
p146
I0
sVbbiw
p147
I0
sVa
V-
sVb
I0
sVe
V-
sVd
I0
sVwmaid
p148
I0
sV4w
p149
I0
sVm
I3
sV4s
p150
I0
sVr
I0
sVw
I0
sVsr
p151
V-
sVov
p152
V-
sV5w
p153
I0
ssg47
(dp154
Va
V33.33
p155
sVb
I85
sVinns
p156
I3
sVno
p157
I0
sVsr
p158
V117.64
p159
sVm
I3
sV4s
p160
I11
sV6s
p161
I3
sVhs
p162
V52
p163
sVr
V100
p164
sV100s
p165
I0
sV50s
p166
I1
ssg61
I2010
stp167
a(Vipl2010
(dp168
g25
(dp169
Vinns
p170
I8
sVc
I7
sVro
p171
I1
sVm
I13
sVs
I0
ssg29
(dp172
Vinns
p173
I0
sV10w
p174
I0
sVnb
p175
I0
sVmaid
p176
I0
sVwb
p177
I0
sVbbmw
p178
I0
sV6s
p179
I0
sVbbmr
p180
I0
sVbbir
p181
I0
sVbbiw
p182
I0
sVa
V-
sVb
I0
sVe
V-
sVd
I0
sVwmaid
p183
I0
sV4w
p184
I0
sVm
I13
sV4s
p185
I0
sVr
I0
sVw
I0
sVsr
p186
V-
sVov
p187
V-
sV5w
p188
I0
ssg47
(dp189
Va
V20.75
p190
sVb
I226
sVinns
p191
I13
sVno
p192
I1
sVsr
p193
V110.17
p194
sVm
I13
sV4s
p195
I27
sV6s
p196
I7
sVhs
p197
V42*
p198
sVr
V249
p199
sV100s
p200
I0
sV50s
p201
I0
ssg61
I2010
stp202
a(Vipl2009
(dp203
g25
(dp204
Vinns
p205
I3
sVc
I4
sVro
p206
I0
sVm
I5
sVs
I0
ssg29
(dp207
Vinns
p208
I0
sV10w
p209
I0
sVnb
p210
I0
sVmaid
p211
I0
sVwb
p212
I0
sVbbmw
p213
I0
sV6s
p214
I0
sVbbmr
p215
I0
sVbbir
p216
I0
sVbbiw
p217
I0
sVa
V-
sVb
I0
sVe
V-
sVd
I0
sVwmaid
p218
I0
sV4w
p219
I0
sVm
I5
sV4s
p220
I0
sVr
I0
sVw
I0
sVsr
p221
V-
sVov
p222
V-
sV5w
p223
I0
ssg47
(dp224
Va
V84.00
p225
sVb
I118
sVinns
p226
I4
sVno
p227
I2
sVsr
p228
V142.37
p229
sVm
I5
sV4s
p230
I17
sV6s
p231
I4
sVhs
p232
V114*
p233
sVr
V168
p234
sV100s
p235
I1
sV50s
p236
I0
ssg61
I2009
stp237
a(Vclt20-2009
(dp238
g25
(dp239
Vinns
p240
I1
sVc
I2
sVro
p241
I0
sVm
I3
sVs
I0
ssg29
(dp242
Vinns
p243
I0
sV10w
p244
I0
sVnb
p245
I0
sVmaid
p246
I0
sVwb
p247
I0
sVbbmw
p248
I0
sV6s
p249
I0
sVbbmr
p250
I0
sVbbir
p251
I0
sVbbiw
p252
I0
sVa
V-
sVb
I0
sVe
V-
sVd
I0
sVwmaid
p253
I0
sV4w
p254
I0
sVm
I3
sV4s
p255
I0
sVr
I0
sVw
I0
sVsr
p256
V-
sVov
p257
V-
sV5w
p258
I0
ssg47
(dp259
Va
V52.00
p260
sVb
I46
sVinns
p261
I3
sVno
p262
I2
sVsr
p263
V113.04
p264
sVm
I3
sV4s
p265
I7
sV6s
p266
I0
sVhs
p267
V39
p268
sVr
V52
p269
sV100s
p270
I0
sV50s
p271
I0
ssg61
I2009
stp272
a(Vipl2008
(dp273
g25
(dp274
Vinns
p275
I1
sVc
I0
sVro
p276
I1
sVm
I3
sVs
I0
ssg29
(dp277
Vinns
p278
I0
sV10w
p279
I0
sVnb
p280
I0
sVmaid
p281
I0
sVwb
p282
I0
sVbbmw
p283
I0
sV6s
p284
I0
sVbbmr
p285
I0
sVbbir
p286
I0
sVbbiw
p287
I0
sVa
V-
sVb
I0
sVe
V-
sVd
I0
sVwmaid
p288
I0
sV4w
p289
I0
sVm
I3
sV4s
p290
I0
sVr
I0
sVw
I0
sVsr
p291
V-
sVov
p292
V-
sV5w
p293
I0
ssg47
(dp294
Va
V1.50
p295
sVb
I9
sVinns
p296
I2
sVno
p297
I0
sVsr
p298
V33.33
p299
sVm
I3
sV4s
p300
I0
sV6s
p301
I0
sVhs
p302
V3
sVr
V3
sV100s
p303
I0
sV50s
p304
I0
ssg61
I2008
stp305
asb.