(iplayer
Player
p1
(dp2
S'is_batsman'
p3
I00
sS'name'
p4
S'Ashok Dinda'
p5
sS'dob'
p6
S'1984/03/25'
p7
sS'price'
p8
S'850000'
p9
sS'is_allrounder'
p10
I00
sS'is_overseas'
p11
I00
sS'team'
p12
S'RCB'
p13
sS'nationality'
p14
S'Indian'
p15
sS'is_bowler'
p16
I01
sS'is_keeper'
p17
I00
sS'id'
p18
S'48'
p19
sS'is_uncapped'
p20
I00
sS'tournamentStats'
p21
(lp22
(Vipl2013
p23
(dp24
S'fieldingStats'
p25
(dp26
Vinns
p27
I4
sVc
I3
sVro
p28
I1
sVm
I13
sVs
I0
ssS'bowlingStats'
p29
(dp30
Vinns
p31
I13
sV10w
p32
I0
sVnb
p33
I2
sVmaid
p34
I0
sVwb
p35
I8
sVbbmw
p36
I3
sV6s
p37
I15
sVbbmr
p38
I31
sVbbir
p39
I31
sVbbiw
p40
I3
sVa
V29.06
p41
sVb
I294
sVe
V9.48
p42
sVd
I105
sVwmaid
p43
I0
sV4w
p44
I0
sVm
I13
sV4s
p45
I55
sVr
I465
sVw
I16
sVsr
p46
V18.37
p47
sVov
p48
V49.00
p49
sV5w
p50
I0
ssS'battingStats'
p51
(dp52
Va
V4.50
p53
sVb
I11
sVinns
p54
I5
sVno
p55
I3
sVsr
p56
V81.81
p57
sVm
I13
sV4s
p58
I1
sV6s
p59
I0
sVhs
p60
V6*
p61
sVr
V9
sV100s
p62
I0
sV50s
p63
I0
ssS'year'
p64
I2013
stp65
a(Vipl2012
(dp66
g25
(dp67
Vinns
p68
I1
sVc
I1
sVro
p69
I0
sVm
I7
sVs
I0
ssg29
(dp70
Vinns
p71
I7
sV10w
p72
I0
sVnb
p73
I4
sVmaid
p74
I1
sVwb
p75
I6
sVbbmw
p76
I4
sV6s
p77
I5
sVbbmr
p78
I18
sVbbir
p79
I18
sVbbiw
p80
I4
sVa
V18.77
p81
sVb
I144
sVe
V7.04
p82
sVd
I61
sVwmaid
p83
I0
sV4w
p84
I1
sVm
I7
sV4s
p85
I14
sVr
I169
sVw
I9
sVsr
p86
V16.00
p87
sVov
p88
V24.00
p89
sV5w
p90
I0
ssg51
(dp91
Va
V2.00
p92
sVb
I5
sVinns
p93
I1
sVno
p94
I0
sVsr
p95
V40.00
p96
sVm
I7
sV4s
p97
I0
sV6s
p98
I0
sVhs
p99
V2
sVr
V2
sV100s
p100
I0
sV50s
p101
I0
ssg64
I2012
stp102
a(Vind-pak-2012-13
(dp103
g25
(dp104
Vinns
p105
I0
sVc
I0
sVro
p106
I0
sVm
I4
sVs
I0
ssg29
(dp107
Vinns
p108
I4
sV10w
p109
I0
sVnb
p110
I0
sVmaid
p111
I0
sVwb
p112
I5
sVbbmw
p113
I3
sV6s
p114
I2
sVbbmr
p115
I36
sVbbir
p116
I36
sVbbiw
p117
I3
sVa
V29.80
p118
sVb
I145
sVe
V6.16
p119
sVd
I73
sVwmaid
p120
I0
sV4w
p121
I0
sVm
I4
sV4s
p122
I16
sVr
I149
sVw
I5
sVsr
p123
V29.00
p124
sVov
p125
V24.16
p126
sV5w
p127
I0
ssg51
(dp128
Va
V3.00
p129
sVb
I6
sVinns
p130
I2
sVno
p131
I1
sVsr
p132
V50.00
p133
sVm
I4
sV4s
p134
I0
sV6s
p135
I0
sVhs
p136
V3*
p137
sVr
V3
sV100s
p138
I0
sV50s
p139
I0
ssg64
I2012
stp140
a(Vworldt20-2012
(dp141
g25
(dp142
Vinns
p143
I0
sVc
I0
sVro
p144
I0
sVm
I2
sVs
I0
ssg29
(dp145
Vinns
p146
I1
sV10w
p147
I0
sVnb
p148
I0
sVmaid
p149
I0
sVwb
p150
I0
sVbbmw
p151
I1
sV6s
p152
I1
sVbbmr
p153
I26
sVbbir
p154
I0
sVbbiw
p155
I0
sVa
V26.00
p156
sVb
I12
sVe
V13.00
p157
sVd
I3
sVwmaid
p158
I0
sV4w
p159
I0
sVm
I2
sV4s
p160
I4
sVr
I26
sVw
I1
sVsr
p161
V12.00
p162
sVov
p163
V2.00
p164
sV5w
p165
I0
ssg51
(dp166
Va
V-
sVinns
p167
I0
sVno
p168
I0
sVsr
p169
V-
sVm
I2
sV4s
p170
I0
sV6s
p171
I0
sVhs
p172
V0*
p173
sVr
V0
sV100s
p174
I0
sV50s
p175
I0
ssg64
I2012
stp176
a(Vind-eng-2012-13
(dp177
g25
(dp178
Vinns
p179
I2
sVc
I2
sVro
p180
I0
sVm
I3
sVs
I0
ssg29
(dp181
Vinns
p182
I3
sV10w
p183
I0
sVnb
p184
I2
sVmaid
p185
I0
sVwb
p186
I4
sVbbmw
p187
I2
sV6s
p188
I3
sVbbmr
p189
I18
sVbbir
p190
I18
sVbbiw
p191
I2
sVa
V23.00
p192
sVb
I90
sVe
V7.66
p193
sVd
I40
sVwmaid
p194
I0
sV4w
p195
I0
sVm
I3
sV4s
p196
I13
sVr
I115
sVw
I5
sVsr
p197
V18.00
p198
sVov
p199
V15.00
p200
sV5w
p201
I0
ssg51
(dp202
Va
V3.00
p203
sVb
I4
sVinns
p204
I1
sVno
p205
I0
sVsr
p206
V75.00
p207
sVm
I3
sV4s
p208
I0
sV6s
p209
I0
sVhs
p210
V3
sVr
V3
sV100s
p211
I0
sV50s
p212
I0
ssg64
I2012
stp213
a(Vipl2011
(dp214
g25
(dp215
Vinns
p216
I0
sVc
I0
sVro
p217
I0
sVm
I6
sVs
I0
ssg29
(dp218
Vinns
p219
I5
sV10w
p220
I0
sVnb
p221
I2
sVmaid
p222
I0
sVwb
p223
I3
sVbbmw
p224
I2
sV6s
p225
I5
sVbbmr
p226
I42
sVbbir
p227
I42
sVbbiw
p228
I2
sVa
V30.40
p229
sVb
I102
sVe
V8.94
p230
sVd
I41
sVwmaid
p231
I0
sV4w
p232
I0
sVm
I6
sV4s
p233
I20
sVr
I152
sVw
I5
sVsr
p234
V20.40
p235
sVov
p236
V17.00
p237
sV5w
p238
I0
ssg51
(dp239
Va
V0.00
p240
sVb
I5
sVinns
p241
I1
sVno
p242
I0
sVsr
p243
V0.00
p244
sVm
I6
sV4s
p245
I0
sV6s
p246
I0
sVhs
p247
V0*
p248
sVr
V0
sV100s
p249
I0
sV50s
p250
I0
ssg64
I2011
stp251
a(Vipl2010
(dp252
g25
(dp253
Vinns
p254
I1
sVc
I0
sVro
p255
I1
sVm
I7
sVs
I0
ssg29
(dp256
Vinns
p257
I7
sV10w
p258
I0
sVnb
p259
I0
sVmaid
p260
I0
sVwb
p261
I5
sVbbmw
p262
I2
sV6s
p263
I0
sVbbmr
p264
I15
sVbbir
p265
I15
sVbbiw
p266
I2
sVa
V16.88
p267
sVb
I139
sVe
V6.56
p268
sVd
I64
sVwmaid
p269
I0
sV4w
p270
I0
sVm
I7
sV4s
p271
I22
sVr
I152
sVw
I9
sVsr
p272
V15.44
p273
sVov
p274
V23.16
p275
sV5w
p276
I0
ssg51
(dp277
Va
V0.00
p278
sVb
I1
sVinns
p279
I1
sVno
p280
I0
sVsr
p281
V0.00
p282
sVm
I7
sV4s
p283
I0
sV6s
p284
I0
sVhs
p285
V0*
p286
sVr
V0
sV100s
p287
I0
sV50s
p288
I0
ssg64
I2010
stp289
a(Vipl2009
(dp290
g25
(dp291
Vinns
p292
I2
sVc
I1
sVro
p293
I1
sVm
I9
sVs
I0
ssg29
(dp294
Vinns
p295
I8
sV10w
p296
I0
sVnb
p297
I0
sVmaid
p298
I0
sVwb
p299
I6
sVbbmw
p300
I1
sV6s
p301
I9
sVbbmr
p302
I24
sVbbir
p303
I24
sVbbiw
p304
I1
sVa
V48.25
p305
sVb
I144
sVe
V8.04
p306
sVd
I67
sVwmaid
p307
I0
sV4w
p308
I0
sVm
I9
sV4s
p309
I18
sVr
I193
sVw
I4
sVsr
p310
V36.00
p311
sVov
p312
V24.00
p313
sV5w
p314
I0
ssg51
(dp315
Va
V1.00
p316
sVb
I3
sVinns
p317
I2
sVno
p318
I0
sVsr
p319
V66.66
p320
sVm
I9
sV4s
p321
I0
sV6s
p322
I0
sVhs
p323
V2
sVr
V2
sV100s
p324
I0
sV50s
p325
I0
ssg64
I2009
stp326
a(Vipl2008
(dp327
g25
(dp328
Vinns
p329
I2
sVc
I1
sVro
p330
I1
sVm
I13
sVs
I0
ssg29
(dp331
Vinns
p332
I12
sV10w
p333
I0
sVnb
p334
I1
sVmaid
p335
I0
sVwb
p336
I10
sVbbmw
p337
I3
sV6s
p338
I1
sVbbmr
p339
I33
sVbbir
p340
I33
sVbbiw
p341
I3
sVa
V32.25
p342
sVb
I228
sVe
V6.78
p343
sVd
I112
sVwmaid
p344
I0
sV4w
p345
I0
sVm
I13
sV4s
p346
I40
sVr
I258
sVw
I8
sVsr
p347
V28.50
p348
sVov
p349
V38.00
p350
sV5w
p351
I0
ssg51
(dp352
Va
V2.00
p353
sVb
I4
sVinns
p354
I3
sVno
p355
I2
sVsr
p356
V50.00
p357
sVm
I13
sV4s
p358
I0
sV6s
p359
I0
sVhs
p360
V1*
p361
sVr
V2
sV100s
p362
I0
sV50s
p363
I0
ssg64
I2008
stp364
asb.