(iplayer
Player
p1
(dp2
S'is_batsman'
p3
I00
sS'name'
p4
S'Naman Ojha'
p5
sS'dob'
p6
S'1983/07/20'
p7
sS'price'
p8
S'800000'
p9
sS'is_allrounder'
p10
I00
sS'is_overseas'
p11
I00
sS'team'
p12
S'SRH'
p13
sS'nationality'
p14
S'Indian'
p15
sS'is_bowler'
p16
I00
sS'is_keeper'
p17
I01
sS'id'
p18
S'52'
p19
sS'is_uncapped'
p20
I00
sS'tournamentStats'
p21
(lp22
(Vipl2013
p23
(dp24
S'fieldingStats'
p25
(dp26
Vinns
p27
I1
sVc
I1
sVro
p28
I0
sVm
I2
sVs
I0
ssS'bowlingStats'
p29
(dp30
Vinns
p31
I0
sV10w
p32
I0
sVnb
p33
I0
sVmaid
p34
I0
sVwb
p35
I0
sVbbmw
p36
I0
sV6s
p37
I0
sVbbmr
p38
I0
sVbbir
p39
I0
sVbbiw
p40
I0
sVa
V-
sVb
I0
sVe
V-
sVd
I0
sVwmaid
p41
I0
sV4w
p42
I0
sVm
I2
sV4s
p43
I0
sVr
I0
sVw
I0
sVsr
p44
V-
sVov
p45
V-
sV5w
p46
I0
ssS'battingStats'
p47
(dp48
Va
V9.00
p49
sVb
I10
sVinns
p50
I2
sVno
p51
I1
sVsr
p52
V90.00
p53
sVm
I2
sV4s
p54
I1
sV6s
p55
I0
sVhs
p56
V9
sVr
V9
sV100s
p57
I0
sV50s
p58
I0
ssS'year'
p59
I2013
stp60
a(Vipl2012
(dp61
g25
(dp62
Vinns
p63
I13
sVc
I13
sVro
p64
I1
sVm
I18
sVs
I2
ssg29
(dp65
Vinns
p66
I0
sV10w
p67
I0
sVnb
p68
I0
sVmaid
p69
I0
sVwb
p70
I0
sVbbmw
p71
I0
sV6s
p72
I0
sVbbmr
p73
I0
sVbbir
p74
I0
sVbbiw
p75
I0
sVa
V-
sVb
I0
sVe
V-
sVd
I0
sVwmaid
p76
I0
sV4w
p77
I0
sVm
I18
sV4s
p78
I0
sVr
I0
sVw
I0
sVsr
p79
V-
sVov
p80
V-
sV5w
p81
I0
ssg47
(dp82
Va
V23.18
p83
sVb
I224
sVinns
p84
I16
sVno
p85
I5
sVsr
p86
V113.83
p87
sVm
I18
sV4s
p88
I21
sV6s
p89
I13
sVhs
p90
V64*
p91
sVr
V255
p92
sV100s
p93
I0
sV50s
p94
I1
ssg59
I2012
stp95
a(Vclt20-2012
(dp96
g25
(dp97
Vinns
p98
I2
sVc
I4
sVro
p99
I0
sVm
I4
sVs
I0
ssg29
(dp100
Vinns
p101
I0
sV10w
p102
I0
sVnb
p103
I0
sVmaid
p104
I0
sVwb
p105
I0
sVbbmw
p106
I0
sV6s
p107
I0
sVbbmr
p108
I0
sVbbir
p109
I0
sVbbiw
p110
I0
sVa
V-
sVb
I0
sVe
V-
sVd
I0
sVwmaid
p111
I0
sV4w
p112
I0
sVm
I4
sV4s
p113
I0
sVr
I0
sVw
I0
sVsr
p114
V-
sVov
p115
V-
sV5w
p116
I0
ssg47
(dp117
Va
V4.33
p118
sVb
I17
sVinns
p119
I3
sVno
p120
I0
sVsr
p121
V76.47
p122
sVm
I4
sV4s
p123
I1
sV6s
p124
I1
sVhs
p125
V7
sVr
V13
p126
sV100s
p127
I0
sV50s
p128
I0
ssg59
I2012
stp129
a(Vipl2011
(dp130
g25
(dp131
Vinns
p132
I5
sVc
I8
sVro
p133
I0
sVm
I14
sVs
I0
ssg29
(dp134
Vinns
p135
I0
sV10w
p136
I0
sVnb
p137
I0
sVmaid
p138
I0
sVwb
p139
I0
sVbbmw
p140
I0
sV6s
p141
I0
sVbbmr
p142
I0
sVbbir
p143
I0
sVbbiw
p144
I0
sVa
V-
sVb
I0
sVe
V-
sVd
I0
sVwmaid
p145
I0
sV4w
p146
I0
sVm
I14
sV4s
p147
I0
sVr
I0
sVw
I0
sVsr
p148
V-
sVov
p149
V-
sV5w
p150
I0
ssg47
(dp151
Va
V12.30
p152
sVb
I161
sVinns
p153
I14
sVno
p154
I1
sVsr
p155
V99.37
p156
sVm
I14
sV4s
p157
I11
sV6s
p158
I11
sVhs
p159
V29
p160
sVr
V160
p161
sV100s
p162
I0
sV50s
p163
I0
ssg59
I2011
stp164
a(Vipl2010
(dp165
g25
(dp166
Vinns
p167
I6
sVc
I4
sVro
p168
I1
sVm
I14
sVs
I2
ssg29
(dp169
Vinns
p170
I0
sV10w
p171
I0
sVnb
p172
I0
sVmaid
p173
I0
sVwb
p174
I0
sVbbmw
p175
I0
sV6s
p176
I0
sVbbmr
p177
I0
sVbbir
p178
I0
sVbbiw
p179
I0
sVa
V-
sVb
I0
sVe
V-
sVd
I0
sVwmaid
p180
I0
sV4w
p181
I0
sVm
I14
sV4s
p182
I0
sVr
I0
sVw
I0
sVsr
p183
V-
sVov
p184
V-
sV5w
p185
I0
ssg47
(dp186
Va
V31.41
p187
sVb
I285
sVinns
p188
I14
sVno
p189
I2
sVsr
p190
V132.28
p191
sVm
I14
sV4s
p192
I42
sV6s
p193
I15
sVhs
p194
V94*
p195
sVr
V377
p196
sV100s
p197
I0
sV50s
p198
I2
ssg59
I2010
stp199
a(Vipl2009
(dp200
g25
(dp201
Vinns
p202
I6
sVc
I2
sVro
p203
I1
sVm
I8
sVs
I4
ssg29
(dp204
Vinns
p205
I0
sV10w
p206
I0
sVnb
p207
I0
sVmaid
p208
I0
sVwb
p209
I0
sVbbmw
p210
I0
sV6s
p211
I0
sVbbmr
p212
I0
sVbbir
p213
I0
sVbbiw
p214
I0
sVa
V-
sVb
I0
sVe
V-
sVd
I0
sVwmaid
p215
I0
sV4w
p216
I0
sVm
I8
sV4s
p217
I0
sVr
I0
sVw
I0
sVsr
p218
V-
sVov
p219
V-
sV5w
p220
I0
ssg47
(dp221
Va
V24.00
p222
sVb
I144
sVinns
p223
I8
sVno
p224
I1
sVsr
p225
V116.66
p226
sVm
I8
sV4s
p227
I11
sV6s
p228
I11
sVhs
p229
V68
p230
sVr
V168
p231
sV100s
p232
I0
sV50s
p233
I2
ssg59
I2009
stp234
asb.