(iplayer
Player
p1
(dp2
S'is_batsman'
p3
I01
sS'name'
p4
S'Abhishek Nayar'
p5
sS'dob'
p6
S'1983/10/08'
p7
sS'price'
p8
S'700000'
p9
sS'is_allrounder'
p10
I01
sS'is_overseas'
p11
I00
sS'team'
p12
S'RR'
p13
sS'nationality'
p14
S'Indian'
p15
sS'is_bowler'
p16
I00
sS'is_keeper'
p17
I00
sS'id'
p18
S'66'
p19
sS'is_uncapped'
p20
I00
sS'tournamentStats'
p21
(lp22
(Vipl2013
p23
(dp24
S'fieldingStats'
p25
(dp26
Vinns
p27
I1
sVc
I1
sVro
p28
I0
sVm
I11
sVs
I0
ssS'bowlingStats'
p29
(dp30
Vinns
p31
I3
sV10w
p32
I0
sVnb
p33
I0
sVmaid
p34
I0
sVwb
p35
I2
sVbbmw
p36
I1
sV6s
p37
I0
sVbbmr
p38
I15
sVbbir
p39
I15
sVbbiw
p40
I1
sVa
V29.50
p41
sVb
I48
sVe
V7.37
p42
sVd
I13
sVwmaid
p43
I0
sV4w
p44
I0
sVm
I11
sV4s
p45
I4
sVr
I59
sVw
I2
sVsr
p46
V24.00
p47
sVov
p48
V8.00
p49
sV5w
p50
I0
ssS'battingStats'
p51
(dp52
Va
V11.00
p53
sVb
I73
sVinns
p54
I9
sVno
p55
I3
sVsr
p56
V90.41
p57
sVm
I11
sV4s
p58
I5
sV6s
p59
I0
sVhs
p60
V25*
p61
sVr
V66
p62
sV100s
p63
I0
sV50s
p64
I0
ssS'year'
p65
I2013
stp66
a(Vipl2012
(dp67
g25
(dp68
Vinns
p69
I0
sVc
I0
sVro
p70
I0
sVm
I4
sVs
I0
ssg29
(dp71
Vinns
p72
I1
sV10w
p73
I0
sVnb
p74
I0
sVmaid
p75
I0
sVwb
p76
I0
sVbbmw
p77
I0
sV6s
p78
I2
sVbbmr
p79
I0
sVbbir
p80
I0
sVbbiw
p81
I0
sVa
V-
sVb
I6
sVe
V16.00
p82
sVd
I0
sVwmaid
p83
I0
sV4w
p84
I0
sVm
I4
sV4s
p85
I0
sVr
I16
sVw
I0
sVsr
p86
V-
sVov
p87
V1.00
p88
sV5w
p89
I0
ssg51
(dp90
Va
V15.00
p91
sVb
I49
sVinns
p92
I4
sVno
p93
I1
sVsr
p94
V91.83
p95
sVm
I4
sV4s
p96
I2
sV6s
p97
I1
sVhs
p98
V24
p99
sVr
V45
p100
sV100s
p101
I0
sV50s
p102
I0
ssg65
I2012
stp103
a(Vipl2011
(dp104
g25
(dp105
Vinns
p106
I2
sVc
I2
sVro
p107
I0
sVm
I10
sVs
I0
ssg29
(dp108
Vinns
p109
I6
sV10w
p110
I0
sVnb
p111
I0
sVmaid
p112
I0
sVwb
p113
I2
sVbbmw
p114
I1
sV6s
p115
I4
sVbbmr
p116
I22
sVbbir
p117
I22
sVbbiw
p118
I1
sVa
V47.50
p119
sVb
I61
sVe
V9.34
p120
sVd
I15
sVwmaid
p121
I0
sV4w
p122
I0
sVm
I10
sV4s
p123
I8
sVr
I95
sVw
I2
sVsr
p124
V30.50
p125
sVov
p126
V10.16
p127
sV5w
p128
I0
ssg51
(dp129
Va
V8.71
p130
sVb
I67
sVinns
p131
I9
sVno
p132
I2
sVsr
p133
V91.04
p134
sVm
I10
sV4s
p135
I9
sV6s
p136
I0
sVhs
p137
V17*
p138
sVr
V61
p139
sV100s
p140
I0
sV50s
p141
I0
ssg65
I2011
stp142
a(Vipl2010
(dp143
g25
(dp144
Vinns
p145
I2
sVc
I1
sVro
p146
I1
sVm
I3
sVs
I0
ssg29
(dp147
Vinns
p148
I0
sV10w
p149
I0
sVnb
p150
I0
sVmaid
p151
I0
sVwb
p152
I0
sVbbmw
p153
I0
sV6s
p154
I0
sVbbmr
p155
I0
sVbbir
p156
I0
sVbbiw
p157
I0
sVa
V-
sVb
I0
sVe
V-
sVd
I0
sVwmaid
p158
I0
sV4w
p159
I0
sVm
I3
sV4s
p160
I0
sVr
I0
sVw
I0
sVsr
p161
V-
sVov
p162
V-
sV5w
p163
I0
ssg51
(dp164
Va
V29.00
p165
sVb
I51
sVinns
p166
I3
sVno
p167
I1
sVsr
p168
V113.72
p169
sVm
I3
sV4s
p170
I4
sV6s
p171
I2
sVhs
p172
V27
p173
sVr
V58
p174
sV100s
p175
I0
sV50s
p176
I0
ssg65
I2010
stp177
a(Vipl2009
(dp178
g25
(dp179
Vinns
p180
I4
sVc
I4
sVro
p181
I0
sVm
I13
sVs
I0
ssg29
(dp182
Vinns
p183
I4
sV10w
p184
I0
sVnb
p185
I0
sVmaid
p186
I0
sVwb
p187
I5
sVbbmw
p188
I3
sV6s
p189
I1
sVbbmr
p190
I13
sVbbir
p191
I13
sVbbiw
p192
I3
sVa
V21.00
p193
sVb
I72
sVe
V7.00
p194
sVd
I27
sVwmaid
p195
I0
sV4w
p196
I0
sVm
I13
sV4s
p197
I7
sVr
I84
sVw
I4
sVsr
p198
V18.00
p199
sVov
p200
V12.00
p201
sV5w
p202
I0
ssg51
(dp203
Va
V21.44
p204
sVb
I152
sVinns
p205
I11
sVno
p206
I2
sVsr
p207
V126.97
p208
sVm
I13
sV4s
p209
I14
sV6s
p210
I7
sVhs
p211
V35
p212
sVr
V193
p213
sV100s
p214
I0
sV50s
p215
I0
ssg65
I2009
stp216
a(Vipl2008
(dp217
g25
(dp218
Vinns
p219
I2
sVc
I4
sVro
p220
I0
sVm
I14
sVs
I0
ssg29
(dp221
Vinns
p222
I5
sV10w
p223
I0
sVnb
p224
I0
sVmaid
p225
I0
sVwb
p226
I1
sVbbmw
p227
I1
sV6s
p228
I6
sVbbmr
p229
I18
sVbbir
p230
I18
sVbbiw
p231
I1
sVa
V68.00
p232
sVb
I42
sVe
V9.71
p233
sVd
I14
sVwmaid
p234
I0
sV4w
p235
I0
sVm
I14
sV4s
p236
I3
sVr
I68
sVw
I1
sVsr
p237
V42.00
p238
sVov
p239
V7.00
p240
sV5w
p241
I0
ssg51
(dp242
Va
V25.75
p243
sVb
I138
sVinns
p244
I10
sVno
p245
I2
sVsr
p246
V149.27
p247
sVm
I14
sV4s
p248
I16
sV6s
p249
I9
sVhs
p250
V45*
p251
sVr
V206
p252
sV100s
p253
I0
sV50s
p254
I0
ssg65
I2008
stp255
asb.