(iplayer
Player
p1
(dp2
S'is_batsman'
p3
I00
sS'name'
p4
S'Ryan ten Doeschate'
p5
sS'dob'
p6
S'1980/06/30'
p7
sS'price'
p8
S'950000'
p9
sS'is_allrounder'
p10
I01
sS'is_overseas'
p11
I01
sS'team'
p12
S'KKR'
p13
sS'nationality'
p14
S'Dutch'
p15
sS'is_bowler'
p16
I00
sS'is_keeper'
p17
I00
sS'id'
p18
S'200'
p19
sS'is_uncapped'
p20
I00
sS'tournamentStats'
p21
(lp22
(Vipl2013
(dp23
S'fieldingStats'
p24
(dp25
Vinns
p26
I1
sVc
I1
sVro
p27
I0
sVm
I4
sVs
I0
ssS'bowlingStats'
p28
(dp29
Vinns
p30
I3
sV10w
p31
I0
sVnb
p32
I0
sVmaid
p33
I0
sVwb
p34
I0
sVbbmw
p35
I0
sV6s
p36
I1
sVbbmr
p37
I0
sVbbir
p38
I0
sVbbiw
p39
I0
sVa
V-
sVb
I18
sVe
V8.00
p40
sVd
I4
sVwmaid
p41
I0
sV4w
p42
I0
sVm
I4
sV4s
p43
I1
sVr
I24
sVw
I0
sVsr
p44
V-
sVov
p45
V3.00
p46
sV5w
p47
I0
ssS'battingStats'
p48
(dp49
Va
V28.33
p50
sVb
I63
sVinns
p51
I4
sVno
p52
I1
sVsr
p53
V134.92
p54
sVm
I4
sV4s
p55
I9
sV6s
p56
I2
sVhs
p57
V42
p58
sVr
V85
p59
sV100s
p60
I0
sV50s
p61
I0
ssS'year'
p62
I2013
stp63
a(Vclt20-2013
(dp64
g24
(dp65
Vinns
p66
I2
sVc
I2
sVro
p67
I0
sVm
I5
sVs
I0
ssg28
(dp68
Vinns
p69
I2
sV10w
p70
I0
sVnb
p71
I0
sVmaid
p72
I0
sVwb
p73
I1
sVbbmw
p74
I2
sV6s
p75
I2
sVbbmr
p76
I9
sVbbir
p77
I9
sVbbiw
p78
I2
sVa
V23.00
p79
sVb
I36
sVe
V7.66
p80
sVd
I10
sVwmaid
p81
I0
sV4w
p82
I0
sVm
I5
sV4s
p83
I2
sVr
I46
sVw
I2
sVsr
p84
V18.00
p85
sVov
p86
V6.00
p87
sV5w
p88
I0
ssg48
(dp89
Va
V33.60
p90
sVb
I98
sVinns
p91
I5
sVno
p92
I0
sVsr
p93
V171.42
p94
sVm
I5
sV4s
p95
I9
sV6s
p96
I11
sVhs
p97
V66
p98
sVr
V168
p99
sV100s
p100
I0
sV50s
p101
I2
ssg62
I2013
stp102
a(Vipl2012
(dp103
g24
(dp104
Vinns
p105
I1
sVc
I1
sVro
p106
I0
sVm
I3
sVs
I0
ssg28
(dp107
Vinns
p108
I1
sV10w
p109
I0
sVnb
p110
I0
sVmaid
p111
I0
sVwb
p112
I3
sVbbmw
p113
I1
sV6s
p114
I0
sVbbmr
p115
I24
sVbbir
p116
I0
sVbbiw
p117
I0
sVa
V24.00
p118
sVb
I18
sVe
V8.00
p119
sVd
I2
sVwmaid
p120
I0
sV4w
p121
I0
sVm
I3
sV4s
p122
I1
sVr
I24
sVw
I1
sVsr
p123
V18.00
p124
sVov
p125
V3.00
p126
sV5w
p127
I0
ssg48
(dp128
Va
V10.50
p129
sVb
I21
sVinns
p130
I3
sVno
p131
I1
sVsr
p132
V100.00
p133
sVm
I3
sV4s
p134
I1
sV6s
p135
I1
sVhs
p136
V11
p137
sVr
V21
p138
sV100s
p139
I0
sV50s
p140
I0
ssg62
I2012
stp141
a(Vipl2011
(dp142
g24
(dp143
Vinns
p144
I2
sVc
I2
sVro
p145
I0
sVm
I6
sVs
I0
ssg28
(dp146
Vinns
p147
I1
sV10w
p148
I0
sVnb
p149
I0
sVmaid
p150
I0
sVwb
p151
I1
sVbbmw
p152
I0
sV6s
p153
I0
sVbbmr
p154
I0
sVbbir
p155
I0
sVbbiw
p156
I0
sVa
V-
sVb
I6
sVe
V7.00
p157
sVd
I0
sVwmaid
p158
I0
sV4w
p159
I0
sVm
I6
sV4s
p160
I0
sVr
I7
sVw
I0
sVsr
p161
V-
sVov
p162
V1.00
p163
sV5w
p164
I0
ssg48
(dp165
Va
V53.50
p166
sVb
I73
sVinns
p167
I3
sVno
p168
I1
sVsr
p169
V146.57
p170
sVm
I6
sV4s
p171
I9
sV6s
p172
I5
sVhs
p173
V70*
p174
sVr
V107
p175
sV100s
p176
I0
sV50s
p177
I1
ssg62
I2011
stp178
a(Vclt20-2011
p179
(dp180
g24
(dp181
Vinns
p182
I2
sVc
I1
sVro
p183
I1
sVm
I6
sVs
I0
ssg28
(dp184
Vinns
p185
I0
sV10w
p186
I0
sVnb
p187
I0
sVmaid
p188
I0
sVwb
p189
I0
sVbbmw
p190
I0
sV6s
p191
I0
sVbbmr
p192
I0
sVbbir
p193
I0
sVbbiw
p194
I0
sVa
V-
sVb
I0
sVe
V-
sVd
I0
sVwmaid
p195
I0
sV4w
p196
I0
sVm
I6
sV4s
p197
I0
sVr
I0
sVw
I0
sVsr
p198
V-
sVov
p199
V-
sV5w
p200
I0
ssg48
(dp201
Va
V27.00
p202
sVb
I50
sVinns
p203
I3
sVno
p204
I0
sVsr
p205
V162.00
p206
sVm
I6
sV4s
p207
I4
sV6s
p208
I5
sVhs
p209
V46
p210
sVr
V81
p211
sV100s
p212
I0
sV50s
p213
I0
ssg62
I2011
stp214
asb.