(iplayer
Player
p1
(dp2
S'is_batsman'
p3
I00
sS'name'
p4
S'Shane Watson'
p5
sS'dob'
p6
S'1981/06/17'
p7
sS'price'
p8
S'1100000'
p9
sS'is_allrounder'
p10
I01
sS'is_overseas'
p11
I01
sS'team'
p12
S'RR'
p13
sS'nationality'
p14
S'Australian'
p15
sS'is_bowler'
p16
I00
sS'is_keeper'
p17
I00
sS'id'
p18
S'227'
p19
sS'is_uncapped'
p20
I00
sS'tournamentStats'
p21
(lp22
(Vsa-aus-2014
(dp23
S'fieldingStats'
p24
(dp25
Vinns
p26
I1
sVc
I2
sVro
p27
I0
sVm
I3
sVs
I0
ssS'bowlingStats'
p28
(dp29
Vinns
p30
I4
sV10w
p31
I0
sVnb
p32
I1
sVmaid
p33
I7
sVwb
p34
I0
sVbbmw
p35
I1
sV6s
p36
I2
sVbbmr
p37
I40
sVbbir
p38
I34
sVbbiw
p39
I1
sVa
V65.00
p40
sVb
I120
sVe
V3.25
p41
sVd
I93
sVwmaid
p42
I1
sV4w
p43
I0
sVm
I3
sV4s
p44
I7
sVr
I65
sVw
I1
sVsr
p45
V120.00
p46
sVov
p47
V20.00
p48
sV5w
p49
I0
ssS'battingStats'
p50
(dp51
Va
V25.50
p52
sVb
I80
sVinns
p53
I4
sVno
p54
I0
sVsr
p55
V127.50
p56
sVm
I3
sV4s
p57
I5
sV6s
p58
I7
sVhs
p59
V40
p60
sVr
V102
p61
sV100s
p62
I0
sV50s
p63
I0
ssS'year'
p64
I2014
stp65
a(Vworldt20-2014
(dp66
g24
(dp67
Vinns
p68
I0
sVc
I0
sVro
p69
I0
sVm
I1
sVs
I0
ssg28
(dp70
Vinns
p71
I1
sV10w
p72
I0
sVnb
p73
I1
sVmaid
p74
I0
sVwb
p75
I0
sVbbmw
p76
I1
sV6s
p77
I2
sVbbmr
p78
I38
sVbbir
p79
I38
sVbbiw
p80
I1
sVa
V38.00
p81
sVb
I24
sVe
V9.50
p82
sVd
I8
sVwmaid
p83
I0
sV4w
p84
I0
sVm
I1
sV4s
p85
I2
sVr
I38
sVw
I1
sVsr
p86
V24.00
p87
sVov
p88
V4.00
p89
sV5w
p90
I0
ssg50
(dp91
Va
V4.00
p92
sVb
I4
sVinns
p93
I1
sVno
p94
I0
sVsr
p95
V100.00
p96
sVm
I1
sV4s
p97
I1
sV6s
p98
I0
sVhs
p99
V4
sVr
V4
sV100s
p100
I0
sV50s
p101
I0
ssg64
I2014
stp102
a(Veng-aus-2013
(dp103
g24
(dp104
Vinns
p105
I4
sVc
I5
sVro
p106
I0
sVm
I11
sVs
I0
ssg28
(dp107
Vinns
p108
I14
sV10w
p109
I0
sVnb
p110
I0
sVmaid
p111
I39
sVwb
p112
I5
sVbbmw
p113
I1
sV6s
p114
I3
sVbbmr
p115
I17
sVbbir
p116
I21
sVbbiw
p117
I1
sVa
V59.50
p118
sVb
I687
sVe
V3.11
p119
sVd
I503
sVwmaid
p120
I2
sV4w
p121
I0
sVm
I11
sV4s
p122
I36
sVr
I357
sVw
I6
sVsr
p123
V114.50
p124
sVov
p125
V114.50
p126
sV5w
p127
I0
ssg50
(dp128
Va
V43.26
p129
sVb
I841
sVinns
p130
I15
sVno
p131
I0
sVsr
p132
V77.17
p133
sVm
I11
sV4s
p134
I81
sV6s
p135
I11
sVhs
p136
V176
p137
sVr
V649
p138
sV100s
p139
I2
sV50s
p140
I1
ssg64
I2013
stp141
a(Vind-aus-2-2013
(dp142
g24
(dp143
Vinns
p144
I3
sVc
I3
sVro
p145
I0
sVm
I7
sVs
I0
ssg28
(dp146
Vinns
p147
I6
sV10w
p148
I0
sVnb
p149
I1
sVmaid
p150
I0
sVwb
p151
I7
sVbbmw
p152
I2
sV6s
p153
I3
sVbbmr
p154
I31
sVbbir
p155
I31
sVbbiw
p156
I2
sVa
V86.00
p157
sVb
I214
sVe
V7.23
p158
sVd
I87
sVwmaid
p159
I0
sV4w
p160
I0
sVm
I7
sV4s
p161
I30
sVr
I258
sVw
I3
sVsr
p162
V71.33
p163
sVov
p164
V35.66
p165
sV5w
p166
I0
ssg50
(dp167
Va
V34.71
p168
sVb
I214
sVinns
p169
I7
sVno
p170
I0
sVsr
p171
V113.55
p172
sVm
I7
sV4s
p173
I26
sV6s
p174
I12
sVhs
p175
V102
p176
sVr
V243
p177
sV100s
p178
I1
sV50s
p179
I1
ssg64
I2013
stp180
a(Vipl2013
(dp181
g24
(dp182
Vinns
p183
I4
sVc
I6
sVro
p184
I0
sVm
I16
sVs
I0
ssg28
(dp185
Vinns
p186
I13
sV10w
p187
I0
sVnb
p188
I0
sVmaid
p189
I0
sVwb
p190
I6
sVbbmw
p191
I3
sV6s
p192
I8
sVbbmr
p193
I22
sVbbir
p194
I22
sVbbiw
p195
I3
sVa
V22.92
p196
sVb
I250
sVe
V7.15
p197
sVd
I101
sVwmaid
p198
I0
sV4w
p199
I0
sVm
I16
sV4s
p200
I31
sVr
I298
sVw
I13
sVsr
p201
V19.23
p202
sVov
p203
V41.66
p204
sV5w
p205
I0
ssg50
(dp206
Va
V38.78
p207
sVb
I380
sVinns
p208
I16
sVno
p209
I2
sVsr
p210
V142.89
p211
sVm
I16
sV4s
p212
I59
sV6s
p213
I22
sVhs
p214
V101
p215
sVr
V543
p216
sV100s
p217
I1
sV50s
p218
I2
ssg64
I2013
stp219
a(Vclt20-2013
(dp220
g24
(dp221
Vinns
p222
I1
sVc
I1
sVro
p223
I0
sVm
I6
sVs
I0
ssg28
(dp224
Vinns
p225
I6
sV10w
p226
I0
sVnb
p227
I0
sVmaid
p228
I0
sVwb
p229
I8
sVbbmw
p230
I1
sV6s
p231
I4
sVbbmr
p232
I23
sVbbir
p233
I23
sVbbiw
p234
I1
sVa
V27.33
p235
sVb
I120
sVe
V8.20
p236
sVd
I51
sVwmaid
p237
I0
sV4w
p238
I0
sVm
I6
sV4s
p239
I19
sVr
I164
sVw
I6
sVsr
p240
V20.00
p241
sVov
p242
V20.00
p243
sV5w
p244
I0
ssg50
(dp245
Va
V25.50
p246
sVb
I86
sVinns
p247
I5
sVno
p248
I1
sVsr
p249
V118.60
p250
sVm
I6
sV4s
p251
I8
sV6s
p252
I5
sVhs
p253
V33
p254
sVr
V102
p255
sV100s
p256
I0
sV50s
p257
I0
ssg64
I2013
stp258
a(Vaus-eng-2013
(dp259
g24
(dp260
Vinns
p261
I4
sVc
I4
sVro
p262
I0
sVm
I7
sVs
I0
ssg28
(dp263
Vinns
p264
I10
sV10w
p265
I0
sVnb
p266
I0
sVmaid
p267
I17
sVwb
p268
I1
sVbbmw
p269
I2
sV6s
p270
I1
sVbbmr
p271
I87
sVbbir
p272
I0
sVbbiw
p273
I1
sVa
V38.60
p274
sVb
I356
sVe
V3.25
p275
sVd
I264
sVwmaid
p276
I2
sV4w
p277
I0
sVm
I7
sV4s
p278
I26
sVr
I193
sVw
I5
sVsr
p279
V71.20
p280
sVov
p281
V59.33
p282
sV5w
p283
I0
ssg50
(dp284
Va
V31.36
p285
sVb
I535
sVinns
p286
I12
sVno
p287
I1
sVsr
p288
V64.48
p289
sVm
I7
sV4s
p290
I45
sV6s
p291
I6
sVhs
p292
V103
p293
sVr
V345
p294
sV100s
p295
I1
sV50s
p296
I2
ssg64
I2013
stp297
a(Vchamptrophy-2013-warmups
(dp298
g24
(dp299
Vinns
p300
I0
sVc
I0
sVro
p301
I0
sVm
I2
sVs
I0
ssg28
(dp302
Vinns
p303
I2
sV10w
p304
I0
sVnb
p305
I0
sVmaid
p306
I0
sVwb
p307
I1
sVbbmw
p308
I1
sV6s
p309
I1
sVbbmr
p310
I12
sVbbir
p311
I12
sVbbiw
p312
I1
sVa
V35.00
p313
sVb
I66
sVe
V3.18
p314
sVd
I44
sVwmaid
p315
I0
sV4w
p316
I0
sVm
I2
sV4s
p317
I1
sVr
I35
sVw
I1
sVsr
p318
V66.00
p319
sVov
p320
V11.00
p321
sV5w
p322
I0
ssg50
(dp323
Va
V69.50
p324
sVb
I103
sVinns
p325
I2
sVno
p326
I0
sVsr
p327
V134.95
p328
sVm
I2
sV4s
p329
I16
sV6s
p330
I4
sVhs
p331
V135
p332
sVr
V139
p333
sV100s
p334
I1
sV50s
p335
I0
ssg64
I2013
stp336
a(Vind-aus-2013
(dp337
g24
(dp338
Vinns
p339
I1
sVc
I1
sVro
p340
I0
sVm
I3
sVs
I0
ssg28
(dp341
Vinns
p342
I0
sV10w
p343
I0
sVnb
p344
I0
sVmaid
p345
I0
sVwb
p346
I0
sVbbmw
p347
I0
sV6s
p348
I0
sVbbmr
p349
I0
sVbbir
p350
I0
sVbbiw
p351
I0
sVa
V-
sVb
I0
sVe
V-
sVd
I0
sVwmaid
p352
I0
sV4w
p353
I0
sVm
I3
sV4s
p354
I0
sVr
I0
sVw
I0
sVsr
p355
V-
sVov
p356
V-
sV5w
p357
I0
ssg50
(dp358
Va
V16.50
p359
sVb
I239
sVinns
p360
I6
sVno
p361
I0
sVsr
p362
V41.42
p363
sVm
I3
sV4s
p364
I12
sV6s
p365
I2
sVhs
p366
V28
p367
sVr
V99
p368
sV100s
p369
I0
sV50s
p370
I0
ssg64
I2013
stp371
a(Vaus-wi-2013
(dp372
g24
(dp373
Vinns
p374
I0
sVc
I0
sVro
p375
I0
sVm
I3
sVs
I0
ssg28
(dp376
Vinns
p377
I0
sV10w
p378
I0
sVnb
p379
I0
sVmaid
p380
I0
sVwb
p381
I0
sVbbmw
p382
I0
sV6s
p383
I0
sVbbmr
p384
I0
sVbbir
p385
I0
sVbbiw
p386
I0
sVa
V-
sVb
I0
sVe
V-
sVd
I0
sVwmaid
p387
I0
sV4w
p388
I0
sVm
I3
sV4s
p389
I0
sVr
I0
sVw
I0
sVsr
p390
V-
sVov
p391
V-
sV5w
p392
I0
ssg50
(dp393
Va
V66.00
p394
sVb
I196
sVinns
p395
I3
sVno
p396
I0
sVsr
p397
V101.02
p398
sVm
I3
sV4s
p399
I21
sV6s
p400
I2
sVhs
p401
V122
p402
sVr
V198
p403
sV100s
p404
I1
sV50s
p405
I1
ssg64
I2013
stp406
a(Vchamptrophy-2013
p407
(dp408
g24
(dp409
Vinns
p410
I2
sVc
I3
sVro
p411
I0
sVm
I3
sVs
I0
ssg28
(dp412
Vinns
p413
I3
sV10w
p414
I0
sVnb
p415
I0
sVmaid
p416
I1
sVwb
p417
I0
sVbbmw
p418
I1
sV6s
p419
I0
sVbbmr
p420
I26
sVbbir
p421
I26
sVbbiw
p422
I1
sVa
V51.00
p423
sVb
I84
sVe
V3.64
p424
sVd
I47
sVwmaid
p425
I0
sV4w
p426
I0
sVm
I3
sV4s
p427
I4
sVr
I51
sVw
I1
sVsr
p428
V84.00
p429
sVov
p430
V14.00
p431
sV5w
p432
I0
ssg50
(dp433
Va
V11.33
p434
sVb
I54
sVinns
p435
I3
sVno
p436
I0
sVsr
p437
V62.96
p438
sVm
I3
sV4s
p439
I3
sV6s
p440
I0
sVhs
p441
V24
p442
sVr
V34
p443
sV100s
p444
I0
sV50s
p445
I0
ssg64
I2013
stp446
a(Vipl2012
(dp447
g24
(dp448
Vinns
p449
I2
sVc
I2
sVro
p450
I0
sVm
I7
sVs
I0
ssg28
(dp451
Vinns
p452
I7
sV10w
p453
I0
sVnb
p454
I1
sVmaid
p455
I1
sVwb
p456
I5
sVbbmw
p457
I2
sV6s
p458
I2
sVbbmr
p459
I19
sVbbir
p460
I19
sVbbiw
p461
I2
sVa
V26.83
p462
sVb
I138
sVe
V7.00
p463
sVd
I62
sVwmaid
p464
I1
sV4w
p465
I0
sVm
I7
sV4s
p466
I23
sVr
I161
sVw
I6
sVsr
p467
V23.00
p468
sVov
p469
V23.00
p470
sV5w
p471
I0
ssg50
(dp472
Va
V42.50
p473
sVb
I168
sVinns
p474
I7
sVno
p475
I1
sVsr
p476
V151.78
p477
sVm
I7
sV4s
p478
I26
sV6s
p479
I14
sVhs
p480
V90*
p481
sVr
V255
p482
sV100s
p483
I0
sV50s
p484
I2
ssg64
I2012
stp485
a(Vaus-sa-2012
(dp486
g24
(dp487
Vinns
p488
I0
sVc
I0
sVro
p489
I0
sVm
I1
sVs
I0
ssg28
(dp490
Vinns
p491
I2
sV10w
p492
I0
sVnb
p493
I0
sVmaid
p494
I5
sVwb
p495
I1
sVbbmw
p496
I1
sV6s
p497
I0
sVbbmr
p498
I46
sVbbir
p499
I22
sVbbiw
p500
I1
sVa
V46.00
p501
sVb
I108
sVe
V2.55
p502
sVd
I80
sVwmaid
p503
I0
sV4w
p504
I0
sVm
I1
sV4s
p505
I5
sVr
I46
sVw
I1
sVsr
p506
V108.00
p507
sVov
p508
V18.00
p509
sV5w
p510
I0
ssg50
(dp511
Va
V17.50
p512
sVb
I58
sVinns
p513
I2
sVno
p514
I0
sVsr
p515
V60.34
p516
sVm
I1
sV4s
p517
I5
sV6s
p518
I0
sVhs
p519
V25
p520
sVr
V35
p521
sV100s
p522
I0
sV50s
p523
I0
ssg64
I2012
stp524
a(Vpre-worldt20-2012
(dp525
g24
(dp526
Vinns
p527
I1
sVc
I1
sVro
p528
I0
sVm
I3
sVs
I0
ssg28
(dp529
Vinns
p530
I3
sV10w
p531
I0
sVnb
p532
I0
sVmaid
p533
I0
sVwb
p534
I0
sVbbmw
p535
I1
sV6s
p536
I0
sVbbmr
p537
I9
sVbbir
p538
I9
sVbbiw
p539
I1
sVa
V17.00
p540
sVb
I59
sVe
V5.18
p541
sVd
I26
sVwmaid
p542
I0
sV4w
p543
I0
sVm
I3
sV4s
p544
I4
sVr
I51
sVw
I3
sVsr
p545
V19.66
p546
sVov
p547
V9.83
p548
sV5w
p549
I0
ssg50
(dp550
Va
V29.33
p551
sVb
I71
sVinns
p552
I3
sVno
p553
I0
sVsr
p554
V123.94
p555
sVm
I3
sV4s
p556
I4
sV6s
p557
I7
sVhs
p558
V47
p559
sVr
V88
p560
sV100s
p561
I0
sV50s
p562
I0
ssg64
I2012
stp563
a(Vbigbash-2012
(dp564
g24
(dp565
Vinns
p566
I0
sVc
I0
sVro
p567
I0
sVm
I1
sVs
I0
ssg28
(dp568
Vinns
p569
I1
sV10w
p570
I0
sVnb
p571
I0
sVmaid
p572
I0
sVwb
p573
I1
sVbbmw
p574
I0
sV6s
p575
I1
sVbbmr
p576
I17
sVbbir
p577
I17
sVbbiw
p578
I0
sVa
V-
sVb
I18
sVe
V5.66
p579
sVd
I9
sVwmaid
p580
I0
sV4w
p581
I0
sVm
I1
sV4s
p582
I1
sVr
I17
sVw
I0
sVsr
p583
V-
sVov
p584
V3.00
p585
sV5w
p586
I0
ssg50
(dp587
Va
V17.00
p588
sVb
I14
sVinns
p589
I1
sVno
p590
I0
sVsr
p591
V121.42
p592
sVm
I1
sV4s
p593
I0
sV6s
p594
I2
sVhs
p595
V17
p596
sVr
V17
p597
sV100s
p598
I0
sV50s
p599
I0
ssg64
I2012
stp600
a(Vworldt20-2012
(dp601
g24
(dp602
Vinns
p603
I4
sVc
I4
sVro
p604
I0
sVm
I8
sVs
I0
ssg28
(dp605
Vinns
p606
I8
sV10w
p607
I0
sVnb
p608
I0
sVmaid
p609
I0
sVwb
p610
I7
sVbbmw
p611
I3
sV6s
p612
I6
sVbbmr
p613
I26
sVbbir
p614
I26
sVbbiw
p615
I3
sVa
V15.78
p616
sVb
I186
sVe
V7.12
p617
sVd
I71
sVwmaid
p618
I0
sV4w
p619
I0
sVm
I8
sV4s
p620
I22
sVr
I221
sVw
I14
sVsr
p621
V13.28
p622
sVov
p623
V31.00
p624
sV5w
p625
I0
ssg50
(dp626
Va
V44.71
p627
sVb
I224
sVinns
p628
I8
sVno
p629
I1
sVsr
p630
V139.73
p631
sVm
I8
sV4s
p632
I21
sV6s
p633
I19
sVhs
p634
V72
p635
sVr
V313
p636
sV100s
p637
I0
sV50s
p638
I3
ssg64
I2012
stp639
a(Vclt20-2012
(dp640
g24
(dp641
Vinns
p642
I1
sVc
I0
sVro
p643
I1
sVm
I3
sVs
I0
ssg28
(dp644
Vinns
p645
I3
sV10w
p646
I0
sVnb
p647
I0
sVmaid
p648
I0
sVwb
p649
I2
sVbbmw
p650
I2
sV6s
p651
I1
sVbbmr
p652
I25
sVbbir
p653
I25
sVbbiw
p654
I2
sVa
V16.60
p655
sVb
I66
sVe
V7.54
p656
sVd
I22
sVwmaid
p657
I0
sV4w
p658
I0
sVm
I3
sV4s
p659
I9
sVr
I83
sVw
I5
sVsr
p660
V13.20
p661
sVov
p662
V11.00
p663
sV5w
p664
I0
ssg50
(dp665
Va
V34.66
p666
sVb
I74
sVinns
p667
I3
sVno
p668
I0
sVsr
p669
V140.54
p670
sVm
I3
sV4s
p671
I10
sV6s
p672
I6
sVhs
p673
V47
p674
sVr
V104
p675
sV100s
p676
I0
sV50s
p677
I0
ssg64
I2012
stp678
a(Vaus-sl-2012
(dp679
g24
(dp680
Vinns
p681
I0
sVc
I0
sVro
p682
I0
sVm
I3
sVs
I0
ssg28
(dp683
Vinns
p684
I3
sV10w
p685
I0
sVnb
p686
I0
sVmaid
p687
I13
sVwb
p688
I0
sVbbmw
p689
I2
sV6s
p690
I0
sVbbmr
p691
I109
sVbbir
p692
I54
sVbbiw
p693
I1
sVa
V56.00
p694
sVb
I304
sVe
V2.21
p695
sVd
I242
sVwmaid
p696
I0
sV4w
p697
I0
sVm
I3
sV4s
p698
I12
sVr
I112
sVw
I2
sVsr
p699
V152.00
p700
sVov
p701
V50.66
p702
sV5w
p703
I0
ssg50
(dp704
Va
V39.33
p705
sVb
I276
sVinns
p706
I3
sVno
p707
I0
sVsr
p708
V42.75
p709
sVm
I3
sV4s
p710
I11
sV6s
p711
I1
sVhs
p712
V83
p713
sVr
V118
p714
sV100s
p715
I0
sV50s
p716
I1
ssg64
I2012
stp717
a(Vclt20-2011
(dp718
g24
(dp719
Vinns
p720
I1
sVc
I1
sVro
p721
I0
sVm
I5
sVs
I0
ssg28
(dp722
Vinns
p723
I0
sV10w
p724
I0
sVnb
p725
I0
sVmaid
p726
I0
sVwb
p727
I0
sVbbmw
p728
I0
sV6s
p729
I0
sVbbmr
p730
I0
sVbbir
p731
I0
sVbbiw
p732
I0
sVa
V-
sVb
I0
sVe
V-
sVd
I0
sVwmaid
p733
I0
sV4w
p734
I0
sVm
I5
sV4s
p735
I0
sVr
I0
sVw
I0
sVsr
p736
V-
sVov
p737
V-
sV5w
p738
I0
ssg50
(dp739
Va
V15.00
p740
sVb
I73
sVinns
p741
I5
sVno
p742
I0
sVsr
p743
V102.73
p744
sVm
I5
sV4s
p745
I9
sV6s
p746
I1
sVhs
p747
V34
p748
sVr
V75
p749
sV100s
p750
I0
sV50s
p751
I0
ssg64
I2011
stp752
a(Vipl2011
(dp753
g24
(dp754
Vinns
p755
I3
sVc
I4
sVro
p756
I0
sVm
I11
sVs
I0
ssg28
(dp757
Vinns
p758
I10
sV10w
p759
I0
sVnb
p760
I1
sVmaid
p761
I0
sVwb
p762
I9
sVbbmw
p763
I3
sV6s
p764
I3
sVbbmr
p765
I19
sVbbir
p766
I19
sVbbiw
p767
I3
sVa
V40.16
p768
sVb
I216
sVe
V6.69
p769
sVd
I78
sVwmaid
p770
I0
sV4w
p771
I0
sVm
I11
sV4s
p772
I21
sVr
I241
sVw
I6
sVsr
p773
V36.00
p774
sVov
p775
V36.00
p776
sV5w
p777
I0
ssg50
(dp778
Va
V33.00
p779
sVb
I253
sVinns
p780
I11
sVno
p781
I1
sVsr
p782
V130.43
p783
sVm
I11
sV4s
p784
I31
sV6s
p785
I17
sVhs
p786
V89*
p787
sVr
V330
p788
sV100s
p789
I0
sV50s
p790
I1
ssg64
I2011
stp791
a(Vipl2010
(dp792
g24
(dp793
Vinns
p794
I3
sVc
I3
sVro
p795
I0
sVm
I6
sVs
I0
ssg28
(dp796
Vinns
p797
I6
sV10w
p798
I0
sVnb
p799
I0
sVmaid
p800
I0
sVwb
p801
I7
sVbbmw
p802
I3
sV6s
p803
I4
sVbbmr
p804
I37
sVbbir
p805
I37
sVbbiw
p806
I3
sVa
V30.66
p807
sVb
I132
sVe
V8.36
p808
sVd
I61
sVwmaid
p809
I0
sV4w
p810
I0
sVm
I6
sV4s
p811
I25
sVr
I184
sVw
I6
sVsr
p812
V22.00
p813
sVov
p814
V22.00
p815
sV5w
p816
I0
ssg50
(dp817
Va
V37.00
p818
sVb
I114
sVinns
p819
I5
sVno
p820
I0
sVsr
p821
V162.28
p822
sVm
I6
sV4s
p823
I18
sV6s
p824
I9
sVhs
p825
V60
p826
sVr
V185
p827
sV100s
p828
I0
sV50s
p829
I2
ssg64
I2010
stp830
a(Vipl2008
(dp831
g24
(dp832
Vinns
p833
I2
sVc
I2
sVro
p834
I0
sVm
I15
sVs
I0
ssg28
(dp835
Vinns
p836
I15
sV10w
p837
I0
sVnb
p838
I5
sVmaid
p839
I1
sVwb
p840
I14
sVbbmw
p841
I3
sV6s
p842
I6
sVbbmr
p843
I10
sVbbir
p844
I10
sVbbiw
p845
I3
sVa
V22.52
p846
sVb
I325
sVe
V7.07
p847
sVd
I158
sVwmaid
p848
I0
sV4w
p849
I0
sVm
I15
sV4s
p850
I53
sVr
I383
sVw
I17
sVsr
p851
V19.11
p852
sVov
p853
V54.16
p854
sV5w
p855
I0
ssg50
(dp856
Va
V47.20
p857
sVb
I311
sVinns
p858
I15
sVno
p859
I5
sVsr
p860
V151.76
p861
sVm
I15
sV4s
p862
I47
sV6s
p863
I19
sVhs
p864
V76*
p865
sVr
V472
p866
sV100s
p867
I0
sV50s
p868
I4
ssg64
I2008
stp869
asb.