(iplayer
Player
p1
(dp2
S'is_batsman'
p3
I00
sS'name'
p4
S'Albie Morkel'
p5
sS'dob'
p6
S'1981/06/10'
p7
sS'price'
p8
S'950000'
p9
sS'is_allrounder'
p10
I01
sS'is_overseas'
p11
I01
sS'team'
p12
S'RCB'
p13
sS'nationality'
p14
S'South African'
p15
sS'is_bowler'
p16
I00
sS'is_keeper'
p17
I00
sS'id'
p18
S'26'
p19
sS'is_uncapped'
p20
I00
sS'tournamentStats'
p21
(lp22
(Vsa-aus-2014
(dp23
S'fieldingStats'
p24
(dp25
Vinns
p26
I0
sVc
I0
sVro
p27
I0
sVm
I2
sVs
I0
ssS'bowlingStats'
p28
(dp29
Vinns
p30
I1
sV10w
p31
I0
sVnb
p32
I0
sVmaid
p33
I0
sVwb
p34
I0
sVbbmw
p35
I0
sV6s
p36
I2
sVbbmr
p37
I0
sVbbir
p38
I26
sVbbiw
p39
I0
sVa
V-
sVb
I12
sVe
V13.00
p40
sVd
I2
sVwmaid
p41
I0
sV4w
p42
I0
sVm
I2
sV4s
p43
I2
sVr
I26
sVw
I0
sVsr
p44
V-
sVov
p45
V2.00
p46
sV5w
p47
I0
ssS'battingStats'
p48
(dp49
Va
V18.00
p50
sVb
I11
sVinns
p51
I1
sVno
p52
I0
sVsr
p53
V163.63
p54
sVm
I2
sV4s
p55
I0
sV6s
p56
I2
sVhs
p57
V18
p58
sVr
V18
p59
sV100s
p60
I0
sV50s
p61
I0
ssS'year'
p62
I2014
stp63
a(Vworldt20-2014
(dp64
g24
(dp65
Vinns
p66
I0
sVc
I0
sVro
p67
I0
sVm
I3
sVs
I0
ssg28
(dp68
Vinns
p69
I3
sV10w
p70
I0
sVnb
p71
I0
sVmaid
p72
I0
sVwb
p73
I3
sVbbmw
p74
I1
sV6s
p75
I0
sVbbmr
p76
I13
sVbbir
p77
I13
sVbbiw
p78
I1
sVa
V56.00
p79
sVb
I36
sVe
V9.33
p80
sVd
I9
sVwmaid
p81
I0
sV4w
p82
I0
sVm
I3
sV4s
p83
I7
sVr
I56
sVw
I1
sVsr
p84
V36.00
p85
sVov
p86
V6.00
p87
sV5w
p88
I0
ssg48
(dp89
Va
V10.00
p90
sVb
I23
sVinns
p91
I3
sVno
p92
I0
sVsr
p93
V130.43
p94
sVm
I3
sV4s
p95
I0
sV6s
p96
I3
sVhs
p97
V13
p98
sVr
V30
p99
sV100s
p100
I0
sV50s
p101
I0
ssg62
I2014
stp102
a(Vclt20-2013
(dp103
g24
(dp104
Vinns
p105
I0
sVc
I0
sVro
p106
I0
sVm
I4
sVs
I0
ssg28
(dp107
Vinns
p108
I4
sV10w
p109
I0
sVnb
p110
I0
sVmaid
p111
I0
sVwb
p112
I0
sVbbmw
p113
I1
sV6s
p114
I0
sVbbmr
p115
I15
sVbbir
p116
I15
sVbbiw
p117
I1
sVa
V60.00
p118
sVb
I42
sVe
V8.57
p119
sVd
I16
sVwmaid
p120
I0
sV4w
p121
I0
sVm
I4
sV4s
p122
I11
sVr
I60
sVw
I1
sVsr
p123
V42.00
p124
sVov
p125
V7.00
p126
sV5w
p127
I0
ssg48
(dp128
Va
V8.00
p129
sVb
I18
sVinns
p130
I2
sVno
p131
I1
sVsr
p132
V44.44
p133
sVm
I4
sV4s
p134
I1
sV6s
p135
I0
sVhs
p136
V4*
p137
sVr
V8
sV100s
p138
I0
sV50s
p139
I0
ssg62
I2013
stp140
a(Vipl2013
(dp141
g24
(dp142
Vinns
p143
I3
sVc
I2
sVro
p144
I2
sVm
I8
sVs
I0
ssg28
(dp145
Vinns
p146
I7
sV10w
p147
I0
sVnb
p148
I0
sVmaid
p149
I0
sVwb
p150
I5
sVbbmw
p151
I3
sV6s
p152
I4
sVbbmr
p153
I32
sVbbir
p154
I32
sVbbiw
p155
I3
sVa
V22.71
p156
sVb
I144
sVe
V6.62
p157
sVd
I59
sVwmaid
p158
I0
sV4w
p159
I0
sVm
I8
sV4s
p160
I16
sVr
I159
sVw
I7
sVsr
p161
V20.57
p162
sVov
p163
V24.00
p164
sV5w
p165
I0
ssg48
(dp166
Va
V15.33
p167
sVb
I37
sVinns
p168
I3
sVno
p169
I0
sVsr
p170
V124.32
p171
sVm
I8
sV4s
p172
I2
sV6s
p173
I3
sVhs
p174
V23
p175
sVr
V46
p176
sV100s
p177
I0
sV50s
p178
I0
ssg62
I2013
stp179
a(Vipl2012
(dp180
g24
(dp181
Vinns
p182
I2
sVc
I2
sVro
p183
I0
sVm
I16
sVs
I0
ssg28
(dp184
Vinns
p185
I15
sV10w
p186
I0
sVnb
p187
I1
sVmaid
p188
I0
sVwb
p189
I17
sVbbmw
p190
I3
sV6s
p191
I9
sVbbmr
p192
I29
sVbbir
p193
I29
sVbbiw
p194
I3
sVa
V29.61
p195
sVb
I297
sVe
V7.77
p196
sVd
I118
sVwmaid
p197
I0
sV4w
p198
I0
sVm
I16
sV4s
p199
I44
sVr
I385
sVw
I13
sVsr
p200
V22.84
p201
sVov
p202
V49.50
p203
sV5w
p204
I0
ssg48
(dp205
Va
V15.28
p206
sVb
I68
sVinns
p207
I12
sVno
p208
I5
sVsr
p209
V157.35
p210
sVm
I16
sV4s
p211
I5
sV6s
p212
I6
sVhs
p213
V28
p214
sVr
V107
p215
sV100s
p216
I0
sV50s
p217
I0
ssg62
I2012
stp218
a(Vclt20-2012
(dp219
g24
(dp220
Vinns
p221
I0
sVc
I0
sVro
p222
I0
sVm
I3
sVs
I0
ssg28
(dp223
Vinns
p224
I3
sV10w
p225
I0
sVnb
p226
I1
sVmaid
p227
I0
sVwb
p228
I0
sVbbmw
p229
I2
sV6s
p230
I5
sVbbmr
p231
I12
sVbbir
p232
I12
sVbbiw
p233
I2
sVa
V15.00
p234
sVb
I69
sVe
V6.52
p235
sVd
I32
sVwmaid
p236
I0
sV4w
p237
I0
sVm
I3
sV4s
p238
I3
sVr
I75
sVw
I5
sVsr
p239
V13.80
p240
sVov
p241
V11.50
p242
sV5w
p243
I0
ssg48
(dp244
Va
V4.00
p245
sVb
I8
sVinns
p246
I3
sVno
p247
I1
sVsr
p248
V100.00
p249
sVm
I3
sV4s
p250
I2
sV6s
p251
I0
sVhs
p252
V4*
p253
sVr
V8
sV100s
p254
I0
sV50s
p255
I0
ssg62
I2012
stp256
a(Vpre-worldt20-2012
(dp257
g24
(dp258
Vinns
p259
I0
sVc
I0
sVro
p260
I0
sVm
I3
sVs
I0
ssg28
(dp261
Vinns
p262
I3
sV10w
p263
I0
sVnb
p264
I0
sVmaid
p265
I0
sVwb
p266
I0
sVbbmw
p267
I1
sV6s
p268
I0
sVbbmr
p269
I0
sVbbir
p270
I0
sVbbiw
p271
I1
sVa
V8.50
p272
sVb
I25
sVe
V4.08
p273
sVd
I10
sVwmaid
p274
I0
sV4w
p275
I0
sVm
I3
sV4s
p276
I0
sVr
I17
sVw
I2
sVsr
p277
V12.50
p278
sVov
p279
V4.16
p280
sV5w
p281
I0
ssg48
(dp282
Va
V20.00
p283
sVb
I19
sVinns
p284
I2
sVno
p285
I1
sVsr
p286
V105.26
p287
sVm
I3
sV4s
p288
I0
sV6s
p289
I1
sVhs
p290
V17*
p291
sVr
V20
p292
sV100s
p293
I0
sV50s
p294
I0
ssg62
I2012
stp295
a(Vworldt20-2012
(dp296
g24
(dp297
Vinns
p298
I1
sVc
I1
sVro
p299
I0
sVm
I5
sVs
I0
ssg28
(dp300
Vinns
p301
I4
sV10w
p302
I0
sVnb
p303
I1
sVmaid
p304
I0
sVwb
p305
I5
sVbbmw
p306
I1
sV6s
p307
I1
sVbbmr
p308
I8
sVbbir
p309
I8
sVbbiw
p310
I1
sVa
V22.66
p311
sVb
I51
sVe
V8.00
p312
sVd
I16
sVwmaid
p313
I0
sV4w
p314
I0
sVm
I5
sV4s
p315
I4
sVr
I68
sVw
I3
sVsr
p316
V17.00
p317
sVov
p318
V8.50
p319
sV5w
p320
I0
ssg48
(dp321
Va
V34.00
p322
sVb
I16
sVinns
p323
I4
sVno
p324
I3
sVsr
p325
V212.50
p326
sVm
I5
sV4s
p327
I3
sV6s
p328
I2
sVhs
p329
V15*
p330
sVr
V34
p331
sV100s
p332
I0
sV50s
p333
I0
ssg62
I2012
stp334
a(Vipl2011
(dp335
g24
(dp336
Vinns
p337
I4
sVc
I4
sVro
p338
I0
sVm
I15
sVs
I0
ssg28
(dp339
Vinns
p340
I14
sV10w
p341
I0
sVnb
p342
I1
sVmaid
p343
I1
sVwb
p344
I9
sVbbmw
p345
I3
sV6s
p346
I11
sVbbmr
p347
I29
sVbbir
p348
I29
sVbbiw
p349
I3
sVa
V25.46
p350
sVb
I270
sVe
V8.48
p351
sVd
I102
sVwmaid
p352
I0
sV4w
p353
I0
sVm
I15
sV4s
p354
I42
sVr
I382
sVw
I15
sVsr
p355
V18.00
p356
sVov
p357
V45.00
p358
sV5w
p359
I0
ssg48
(dp360
Va
V23.00
p361
sVb
I102
sVinns
p362
I13
sVno
p363
I7
sVsr
p364
V135.29
p365
sVm
I15
sV4s
p366
I8
sV6s
p367
I8
sVhs
p368
V30*
p369
sVr
V138
p370
sV100s
p371
I0
sV50s
p372
I0
ssg62
I2011
stp373
a(Vclt20-2011
p374
(dp375
g24
(dp376
Vinns
p377
I1
sVc
I1
sVro
p378
I0
sVm
I3
sVs
I0
ssg28
(dp379
Vinns
p380
I3
sV10w
p381
I0
sVnb
p382
I0
sVmaid
p383
I0
sVwb
p384
I5
sVbbmw
p385
I2
sV6s
p386
I1
sVbbmr
p387
I26
sVbbir
p388
I26
sVbbiw
p389
I2
sVa
V27.33
p390
sVb
I60
sVe
V8.20
p391
sVd
I22
sVwmaid
p392
I0
sV4w
p393
I0
sVm
I3
sV4s
p394
I10
sVr
I82
sVw
I3
sVsr
p395
V20.00
p396
sVov
p397
V10.00
p398
sV5w
p399
I0
ssg48
(dp400
Va
V-
sVb
I19
sVinns
p401
I3
sVno
p402
I3
sVsr
p403
V136.84
p404
sVm
I3
sV4s
p405
I0
sV6s
p406
I2
sVhs
p407
V18*
p408
sVr
V26
p409
sV100s
p410
I0
sV50s
p411
I0
ssg62
I2011
stp412
a(Vclt20-2010
(dp413
g24
(dp414
Vinns
p415
I1
sVc
I2
sVro
p416
I0
sVm
I4
sVs
I0
ssg28
(dp417
Vinns
p418
I4
sV10w
p419
I0
sVnb
p420
I0
sVmaid
p421
I0
sVwb
p422
I3
sVbbmw
p423
I3
sV6s
p424
I1
sVbbmr
p425
I22
sVbbir
p426
I22
sVbbiw
p427
I3
sVa
V14.33
p428
sVb
I78
sVe
V6.61
p429
sVd
I41
sVwmaid
p430
I0
sV4w
p431
I0
sVm
I4
sV4s
p432
I11
sVr
I86
sVw
I6
sVsr
p433
V13.00
p434
sVov
p435
V13.00
p436
sV5w
p437
I0
ssg48
(dp438
Va
V40.00
p439
sVb
I23
sVinns
p440
I3
sVno
p441
I2
sVsr
p442
V173.91
p443
sVm
I4
sV4s
p444
I3
sV6s
p445
I2
sVhs
p446
V26*
p447
sVr
V40
p448
sV100s
p449
I0
sV50s
p450
I0
ssg62
I2010
stp451
a(Vipl2010
(dp452
g24
(dp453
Vinns
p454
I3
sVc
I3
sVro
p455
I1
sVm
I14
sVs
I0
ssg28
(dp456
Vinns
p457
I14
sV10w
p458
I0
sVnb
p459
I0
sVmaid
p460
I1
sVwb
p461
I9
sVbbmw
p462
I2
sV6s
p463
I9
sVbbmr
p464
I23
sVbbir
p465
I23
sVbbiw
p466
I2
sVa
V36.81
p467
sVb
I286
sVe
V8.49
p468
sVd
I97
sVwmaid
p469
I1
sV4w
p470
I0
sVm
I14
sV4s
p471
I48
sVr
I405
sVw
I11
sVsr
p472
V26.00
p473
sVov
p474
V47.66
p475
sV5w
p476
I0
ssg48
(dp477
Va
V24.75
p478
sVb
I131
sVinns
p479
I11
sVno
p480
I3
sVsr
p481
V151.14
p482
sVm
I14
sV4s
p483
I10
sV6s
p484
I13
sVhs
p485
V62
p486
sVr
V198
p487
sV100s
p488
I0
sV50s
p489
I1
ssg62
I2010
stp490
a(Vipl2009
(dp491
g24
(dp492
Vinns
p493
I2
sVc
I1
sVro
p494
I1
sVm
I12
sVs
I0
ssg28
(dp495
Vinns
p496
I12
sV10w
p497
I0
sVnb
p498
I5
sVmaid
p499
I1
sVwb
p500
I4
sVbbmw
p501
I2
sV6s
p502
I8
sVbbmr
p503
I13
sVbbir
p504
I13
sVbbiw
p505
I2
sVa
V25.23
p506
sVb
I240
sVe
V8.20
p507
sVd
I99
sVwmaid
p508
I1
sV4w
p509
I0
sVm
I12
sV4s
p510
I37
sVr
I328
sVw
I13
sVsr
p511
V18.46
p512
sVov
p513
V40.00
p514
sV5w
p515
I0
ssg48
(dp516
Va
V24.25
p517
sVb
I70
sVinns
p518
I10
sVno
p519
I6
sVsr
p520
V138.57
p521
sVm
I12
sV4s
p522
I8
sV6s
p523
I4
sVhs
p524
V21*
p525
sVr
V97
p526
sV100s
p527
I0
sV50s
p528
I0
ssg62
I2009
stp529
a(Vipl2008
(dp530
g24
(dp531
Vinns
p532
I3
sVc
I3
sVro
p533
I0
sVm
I13
sVs
I0
ssg28
(dp534
Vinns
p535
I13
sV10w
p536
I0
sVnb
p537
I5
sVmaid
p538
I0
sVwb
p539
I17
sVbbmw
p540
I4
sV6s
p541
I11
sVbbmr
p542
I32
sVbbir
p543
I32
sVbbiw
p544
I4
sVa
V23.47
p545
sVb
I288
sVe
V8.31
p546
sVd
I100
sVwmaid
p547
I0
sV4w
p548
I1
sVm
I13
sV4s
p549
I39
sVr
I399
sVw
I17
sVsr
p550
V16.94
p551
sVov
p552
V48.00
p553
sV5w
p554
I0
ssg48
(dp555
Va
V34.42
p556
sVb
I163
sVinns
p557
I10
sVno
p558
I3
sVsr
p559
V147.85
p560
sVm
I13
sV4s
p561
I18
sV6s
p562
I14
sVhs
p563
V71
p564
sVr
V241
p565
sV100s
p566
I0
sV50s
p567
I1
ssg62
I2008
stp568
asb.