(iplayer
Player
p1
(dp2
S'is_batsman'
p3
I00
sS'name'
p4
S'Harbhajan Singh'
p5
sS'dob'
p6
S'1980/07/03'
p7
sS'price'
p8
S'950000'
p9
sS'is_allrounder'
p10
I01
sS'is_overseas'
p11
I00
sS'team'
p12
S'MI'
p13
sS'nationality'
p14
S'Indian'
p15
sS'is_bowler'
p16
I01
sS'is_keeper'
p17
I00
sS'id'
p18
S'103'
p19
sS'is_uncapped'
p20
I00
sS'tournamentStats'
p21
(lp22
(Vclt20-2013
(dp23
S'fieldingStats'
p24
(dp25
Vinns
p26
I1
sVc
I1
sVro
p27
I0
sVm
I5
sVs
I0
ssS'bowlingStats'
p28
(dp29
Vinns
p30
I5
sV10w
p31
I0
sVnb
p32
I0
sVmaid
p33
I0
sVwb
p34
I0
sVbbmw
p35
I4
sV6s
p36
I6
sVbbmr
p37
I32
sVbbir
p38
I32
sVbbiw
p39
I4
sVa
V23.16
p40
sVb
I114
sVe
V7.31
p41
sVd
I46
sVwmaid
p42
I0
sV4w
p43
I1
sVm
I5
sV4s
p44
I12
sVr
I139
sVw
I6
sVsr
p45
V19.00
p46
sVov
p47
V19.00
p48
sV5w
p49
I0
ssS'battingStats'
p50
(dp51
Va
V15.00
p52
sVb
I6
sVinns
p53
I2
sVno
p54
I1
sVsr
p55
V250.00
p56
sVm
I5
sV4s
p57
I1
sV6s
p58
I1
sVhs
p59
V8
sVr
V15
p60
sV100s
p61
I0
sV50s
p62
I0
ssS'year'
p63
I2013
stp64
a(Vind-aus-2013
(dp65
g24
(dp66
Vinns
p67
I0
sVc
I0
sVro
p68
I0
sVm
I2
sVs
I0
ssg28
(dp69
Vinns
p70
I4
sV10w
p71
I0
sVnb
p72
I0
sVmaid
p73
I17
sVwb
p74
I0
sVbbmw
p75
I3
sV6s
p76
I3
sVbbmr
p77
I142
sVbbir
p78
I52
sVbbiw
p79
I2
sVa
V40.80
p80
sVb
I504
sVe
V2.42
p81
sVd
I384
sVwmaid
p82
I2
sV4w
p83
I0
sVm
I2
sV4s
p84
I17
sVr
I204
sVw
I5
sVsr
p85
V100.80
p86
sVov
p87
V84.00
p88
sV5w
p89
I0
ssg50
(dp90
Va
V5.50
p91
sVb
I37
sVinns
p92
I2
sVno
p93
I0
sVsr
p94
V29.72
p95
sVm
I2
sV4s
p96
I0
sV6s
p97
I1
sVhs
p98
V11
p99
sVr
V11
p100
sV100s
p101
I0
sV50s
p102
I0
ssg63
I2013
stp103
a(Vipl2013
(dp104
g24
(dp105
Vinns
p106
I6
sVc
I9
sVro
p107
I0
sVm
I19
sVs
I0
ssg28
(dp108
Vinns
p109
I19
sV10w
p110
I0
sVnb
p111
I2
sVmaid
p112
I0
sVwb
p113
I8
sVbbmw
p114
I3
sV6s
p115
I15
sVbbmr
p116
I14
sVbbir
p117
I14
sVbbiw
p118
I3
sVa
V19.00
p119
sVb
I420
sVe
V6.51
p120
sVd
I163
sVwmaid
p121
I0
sV4w
p122
I0
sVm
I19
sV4s
p123
I30
sVr
I456
sVw
I24
sVsr
p124
V17.50
p125
sVov
p126
V70.00
p127
sV5w
p128
I0
ssg50
(dp129
Va
V19.33
p130
sVb
I79
sVinns
p131
I14
sVno
p132
I8
sVsr
p133
V146.83
p134
sVm
I19
sV4s
p135
I12
sV6s
p136
I5
sVhs
p137
V25*
p138
sVr
V116
p139
sV100s
p140
I0
sV50s
p141
I0
ssg63
I2013
stp142
a(Vipl2012
(dp143
g24
(dp144
Vinns
p145
I6
sVc
I6
sVro
p146
I2
sVm
I17
sVs
I0
ssg28
(dp147
Vinns
p148
I16
sV10w
p149
I0
sVnb
p150
I0
sVmaid
p151
I1
sVwb
p152
I11
sVbbmw
p153
I2
sV6s
p154
I14
sVbbmr
p155
I13
sVbbir
p156
I13
sVbbiw
p157
I2
sVa
V64.00
p158
sVb
I324
sVe
V7.11
p159
sVd
I117
sVwmaid
p160
I0
sV4w
p161
I0
sVm
I17
sV4s
p162
I27
sVr
I384
sVw
I6
sVsr
p163
V54.00
p164
sVov
p165
V54.00
p166
sV5w
p167
I0
ssg50
(dp168
Va
V12.00
p169
sVb
I80
sVinns
p170
I11
sVno
p171
I2
sVsr
p172
V135.00
p173
sVm
I17
sV4s
p174
I14
sV6s
p175
I3
sVhs
p176
V33
p177
sVr
V108
p178
sV100s
p179
I0
sV50s
p180
I0
ssg63
I2012
stp181
a(Vclt20-2012
(dp182
g24
(dp183
Vinns
p184
I0
sVc
I0
sVro
p185
I0
sVm
I4
sVs
I0
ssg28
(dp186
Vinns
p187
I3
sV10w
p188
I0
sVnb
p189
I0
sVmaid
p190
I0
sVwb
p191
I1
sVbbmw
p192
I1
sV6s
p193
I0
sVbbmr
p194
I22
sVbbir
p195
I22
sVbbiw
p196
I1
sVa
V37.50
p197
sVb
I60
sVe
V7.50
p198
sVd
I20
sVwmaid
p199
I0
sV4w
p200
I0
sVm
I4
sV4s
p201
I11
sVr
I75
sVw
I2
sVsr
p202
V30.00
p203
sVov
p204
V10.00
p205
sV5w
p206
I0
ssg50
(dp207
Va
V20.00
p208
sVb
I20
sVinns
p209
I3
sVno
p210
I1
sVsr
p211
V200.00
p212
sVm
I4
sV4s
p213
I4
sV6s
p214
I3
sVhs
p215
V22*
p216
sVr
V40
p217
sV100s
p218
I0
sV50s
p219
I0
ssg63
I2012
stp220
a(Vworldt20-2012
(dp221
g24
(dp222
Vinns
p223
I1
sVc
I2
sVro
p224
I0
sVm
I4
sVs
I0
ssg28
(dp225
Vinns
p226
I4
sV10w
p227
I0
sVnb
p228
I0
sVmaid
p229
I2
sVwb
p230
I0
sVbbmw
p231
I4
sV6s
p232
I4
sVbbmr
p233
I12
sVbbir
p234
I12
sVbbiw
p235
I4
sVa
V17.80
p236
sVb
I84
sVe
V6.35
p237
sVd
I39
sVwmaid
p238
I2
sV4w
p239
I1
sVm
I4
sV4s
p240
I6
sVr
I89
sVw
I5
sVsr
p241
V16.80
p242
sVov
p243
V14.00
p244
sV5w
p245
I0
ssg50
(dp246
Va
V-
sVb
I1
sVinns
p247
I1
sVno
p248
I1
sVsr
p249
V100.00
p250
sVm
I4
sV4s
p251
I0
sV6s
p252
I0
sVhs
p253
V1*
p254
sVr
V1
sV100s
p255
I0
sV50s
p256
I0
ssg63
I2012
stp257
a(Vind-eng-2012-13
(dp258
g24
(dp259
Vinns
p260
I0
sVc
I0
sVro
p261
I0
sVm
I1
sVs
I0
ssg28
(dp262
Vinns
p263
I2
sV10w
p264
I0
sVnb
p265
I0
sVmaid
p266
I1
sVwb
p267
I0
sVbbmw
p268
I2
sV6s
p269
I0
sVbbmr
p270
I84
sVbbir
p271
I74
sVbbiw
p272
I2
sVa
V42.00
p273
sVb
I138
sVe
V3.65
p274
sVd
I91
sVwmaid
p275
I0
sV4w
p276
I0
sVm
I1
sV4s
p277
I10
sVr
I84
sVw
I2
sVsr
p278
V69.00
p279
sVov
p280
V23.00
p281
sV5w
p282
I0
ssg50
(dp283
Va
V13.50
p284
sVb
I40
sVinns
p285
I2
sVno
p286
I0
sVsr
p287
V67.50
p288
sVm
I1
sV4s
p289
I3
sV6s
p290
I1
sVhs
p291
V21
p292
sVr
V27
p293
sV100s
p294
I0
sV50s
p295
I0
ssg63
I2012
stp296
a(Vipl2011
(dp297
g24
(dp298
Vinns
p299
I2
sVc
I2
sVro
p300
I1
sVm
I15
sVs
I0
ssg28
(dp301
Vinns
p302
I15
sV10w
p303
I0
sVnb
p304
I0
sVmaid
p305
I1
sVwb
p306
I10
sVbbmw
p307
I5
sV6s
p308
I11
sVbbmr
p309
I18
sVbbir
p310
I18
sVbbiw
p311
I5
sVa
V26.42
p312
sVb
I318
sVe
V6.98
p313
sVd
I127
sVwmaid
p314
I1
sV4w
p315
I0
sVm
I15
sV4s
p316
I32
sVr
I370
sVw
I14
sVsr
p317
V22.71
p318
sVov
p319
V53.00
p320
sV5w
p321
I1
ssg50
(dp322
Va
V34.33
p323
sVb
I71
sVinns
p324
I8
sVno
p325
I5
sVsr
p326
V145.07
p327
sVm
I15
sV4s
p328
I9
sV6s
p329
I6
sVhs
p330
V30
p331
sVr
V103
p332
sV100s
p333
I0
sV50s
p334
I0
ssg63
I2011
stp335
a(Vclt20-2011
p336
(dp337
g24
(dp338
Vinns
p339
I3
sVc
I3
sVro
p340
I0
sVm
I6
sVs
I0
ssg28
(dp341
Vinns
p342
I5
sV10w
p343
I0
sVnb
p344
I0
sVmaid
p345
I0
sVwb
p346
I4
sVbbmw
p347
I3
sV6s
p348
I3
sVbbmr
p349
I20
sVbbir
p350
I20
sVbbiw
p351
I3
sVa
V16.14
p352
sVb
I108
sVe
V6.27
p353
sVd
I44
sVwmaid
p354
I0
sV4w
p355
I0
sVm
I6
sV4s
p356
I7
sVr
I113
sVw
I7
sVsr
p357
V15.42
p358
sVov
p359
V18.00
p360
sV5w
p361
I0
ssg50
(dp362
Va
V14.33
p363
sVb
I43
sVinns
p364
I4
sVno
p365
I1
sVsr
p366
V100.00
p367
sVm
I6
sV4s
p368
I4
sV6s
p369
I1
sVhs
p370
V19*
p371
sVr
V43
p372
sV100s
p373
I0
sV50s
p374
I0
ssg63
I2011
stp375
a(Vclt20-2010
(dp376
g24
(dp377
Vinns
p378
I0
sVc
I0
sVro
p379
I0
sVm
I4
sVs
I0
ssg28
(dp380
Vinns
p381
I4
sV10w
p382
I0
sVnb
p383
I0
sVmaid
p384
I0
sVwb
p385
I2
sVbbmw
p386
I2
sV6s
p387
I3
sVbbmr
p388
I33
sVbbir
p389
I33
sVbbiw
p390
I2
sVa
V39.33
p391
sVb
I87
sVe
V8.13
p392
sVd
I22
sVwmaid
p393
I0
sV4w
p394
I0
sVm
I4
sV4s
p395
I8
sVr
I118
sVw
I3
sVsr
p396
V29.00
p397
sVov
p398
V14.50
p399
sV5w
p400
I0
ssg50
(dp401
Va
V19.00
p402
sVb
I11
sVinns
p403
I3
sVno
p404
I2
sVsr
p405
V172.72
p406
sVm
I4
sV4s
p407
I3
sV6s
p408
I0
sVhs
p409
V14
p410
sVr
V19
p411
sV100s
p412
I0
sV50s
p413
I0
ssg63
I2010
stp414
a(Vipl2010
(dp415
g24
(dp416
Vinns
p417
I5
sVc
I6
sVro
p418
I0
sVm
I15
sVs
I0
ssg28
(dp419
Vinns
p420
I14
sV10w
p421
I0
sVnb
p422
I1
sVmaid
p423
I1
sVwb
p424
I12
sVbbmw
p425
I3
sV6s
p426
I12
sVbbmr
p427
I31
sVbbir
p428
I31
sVbbiw
p429
I3
sVa
V22.17
p430
sVb
I321
sVe
V7.04
p431
sVd
I102
sVwmaid
p432
I1
sV4w
p433
I0
sVm
I15
sV4s
p434
I22
sVr
I377
sVw
I17
sVsr
p435
V18.88
p436
sVov
p437
V53.50
p438
sV5w
p439
I0
ssg50
(dp440
Va
V26.25
p441
sVb
I63
sVinns
p442
I7
sVno
p443
I3
sVsr
p444
V166.66
p445
sVm
I15
sV4s
p446
I12
sV6s
p447
I5
sVhs
p448
V49*
p449
sVr
V105
p450
sV100s
p451
I0
sV50s
p452
I0
ssg63
I2010
stp453
a(Vipl2009
(dp454
g24
(dp455
Vinns
p456
I3
sVc
I3
sVro
p457
I1
sVm
I13
sVs
I0
ssg28
(dp458
Vinns
p459
I13
sV10w
p460
I0
sVnb
p461
I0
sVmaid
p462
I0
sVwb
p463
I4
sVbbmw
p464
I4
sV6s
p465
I6
sVbbmr
p466
I17
sVbbir
p467
I17
sVbbiw
p468
I4
sVa
V21.33
p469
sVb
I264
sVe
V5.81
p470
sVd
I103
sVwmaid
p471
I0
sV4w
p472
I1
sVm
I13
sV4s
p473
I19
sVr
I256
sVw
I12
sVsr
p474
V22.00
p475
sVov
p476
V44.00
p477
sV5w
p478
I0
ssg50
(dp479
Va
V10.50
p480
sVb
I53
sVinns
p481
I10
sVno
p482
I2
sVsr
p483
V158.49
p484
sVm
I13
sV4s
p485
I6
sV6s
p486
I5
sVhs
p487
V20
p488
sVr
V84
p489
sV100s
p490
I0
sV50s
p491
I0
ssg63
I2009
stp492
a(Vipl2008
(dp493
g24
(dp494
Vinns
p495
I3
sVc
I2
sVro
p496
I2
sVm
I3
sVs
I0
ssg28
(dp497
Vinns
p498
I3
sV10w
p499
I0
sVnb
p500
I0
sVmaid
p501
I0
sVwb
p502
I2
sVbbmw
p503
I3
sV6s
p504
I3
sVbbmr
p505
I32
sVbbir
p506
I32
sVbbiw
p507
I3
sVa
V16.40
p508
sVb
I60
sVe
V8.20
p509
sVd
I16
sVwmaid
p510
I0
sV4w
p511
I0
sVm
I3
sV4s
p512
I6
sVr
I82
sVw
I5
sVsr
p513
V12.00
p514
sVov
p515
V10.00
p516
sV5w
p517
I0
ssg50
(dp518
Va
V15.00
p519
sVb
I17
sVinns
p520
I3
sVno
p521
I1
sVsr
p522
V176.47
p523
sVm
I3
sV4s
p524
I1
sV6s
p525
I3
sVhs
p526
V28
p527
sVr
V30
p528
sV100s
p529
I0
sV50s
p530
I0
ssg63
I2008
stp531
asb.