(iplayer
Player
p1
(dp2
S'is_batsman'
p3
I01
sS'name'
p4
S'Virender Sehwag'
p5
sS'dob'
p6
S'1978/10/20'
p7
sS'price'
p8
S'950000'
p9
sS'is_allrounder'
p10
I00
sS'is_overseas'
p11
I00
sS'team'
p12
S'KXIP'
p13
sS'nationality'
p14
S'Indian'
p15
sS'is_bowler'
p16
I00
sS'is_keeper'
p17
I00
sS'id'
p18
S'45'
p19
sS'is_uncapped'
p20
I00
sS'tournamentStats'
p21
(lp22
(Vind-aus-2013
(dp23
S'fieldingStats'
p24
(dp25
Vinns
p26
I3
sVc
I6
sVro
p27
I0
sVm
I2
sVs
I0
ssS'bowlingStats'
p28
(dp29
Vinns
p30
I0
sV10w
p31
I0
sVnb
p32
I0
sVmaid
p33
I0
sVwb
p34
I0
sVbbmw
p35
I0
sV6s
p36
I0
sVbbmr
p37
I0
sVbbir
p38
I0
sVbbiw
p39
I0
sVa
V-
sVb
I0
sVe
V-
sVd
I0
sVwmaid
p40
I0
sV4w
p41
I0
sVm
I2
sV4s
p42
I0
sVr
I0
sVw
I0
sVsr
p43
V-
sVov
p44
V-
sV5w
p45
I0
ssS'battingStats'
p46
(dp47
Va
V9.00
p48
sVb
I53
sVinns
p49
I3
sVno
p50
I0
sVsr
p51
V50.94
p52
sVm
I2
sV4s
p53
I4
sV6s
p54
I0
sVhs
p55
V19
p56
sVr
V27
p57
sV100s
p58
I0
sV50s
p59
I0
ssS'year'
p60
I2013
stp61
a(Vipl2013
p62
(dp63
g24
(dp64
Vinns
p65
I3
sVc
I5
sVro
p66
I0
sVm
I13
sVs
I0
ssg28
(dp67
Vinns
p68
I1
sV10w
p69
I0
sVnb
p70
I0
sVmaid
p71
I0
sVwb
p72
I0
sVbbmw
p73
I0
sV6s
p74
I0
sVbbmr
p75
I0
sVbbir
p76
I0
sVbbiw
p77
I0
sVa
V-
sVb
I6
sVe
V9.00
p78
sVd
I0
sVwmaid
p79
I0
sV4w
p80
I0
sVm
I13
sV4s
p81
I1
sVr
I9
sVw
I0
sVsr
p82
V-
sVov
p83
V1.00
p84
sV5w
p85
I0
ssg46
(dp86
Va
V24.58
p87
sVb
I233
sVinns
p88
I13
sVno
p89
I1
sVsr
p90
V126.60
p91
sVm
I13
sV4s
p92
I41
sV6s
p93
I6
sVhs
p94
V95*
p95
sVr
V295
p96
sV100s
p97
I0
sV50s
p98
I1
ssg60
I2013
stp99
a(Vipl2012
(dp100
g24
(dp101
Vinns
p102
I6
sVc
I7
sVro
p103
I2
sVm
I16
sVs
I0
ssg28
(dp104
Vinns
p105
I3
sV10w
p106
I0
sVnb
p107
I0
sVmaid
p108
I0
sVwb
p109
I0
sVbbmw
p110
I0
sV6s
p111
I2
sVbbmr
p112
I0
sVbbir
p113
I0
sVbbiw
p114
I0
sVa
V-
sVb
I24
sVe
V11.25
p115
sVd
I7
sVwmaid
p116
I0
sV4w
p117
I0
sVm
I16
sV4s
p118
I6
sVr
I45
sVw
I0
sVsr
p119
V-
sVov
p120
V4.00
p121
sV5w
p122
I0
ssg46
(dp123
Va
V33.00
p124
sVb
I307
sVinns
p125
I16
sVno
p126
I1
sVsr
p127
V161.23
p128
sVm
I16
sV4s
p129
I57
sV6s
p130
I19
sVhs
p131
V87*
p132
sVr
V495
p133
sV100s
p134
I0
sV50s
p135
I5
ssg60
I2012
stp136
a(Vind-pak-2012-13
(dp137
g24
(dp138
Vinns
p139
I1
sVc
I2
sVro
p140
I0
sVm
I2
sVs
I0
ssg28
(dp141
Vinns
p142
I0
sV10w
p143
I0
sVnb
p144
I0
sVmaid
p145
I0
sVwb
p146
I0
sVbbmw
p147
I0
sV6s
p148
I0
sVbbmr
p149
I0
sVbbir
p150
I0
sVbbiw
p151
I0
sVa
V-
sVb
I0
sVe
V-
sVd
I0
sVwmaid
p152
I0
sV4w
p153
I0
sVm
I2
sV4s
p154
I0
sVr
I0
sVw
I0
sVsr
p155
V-
sVov
p156
V-
sV5w
p157
I0
ssg46
(dp158
Va
V17.50
p159
sVb
I54
sVinns
p160
I2
sVno
p161
I0
sVsr
p162
V64.81
p163
sVm
I2
sV4s
p164
I4
sV6s
p165
I0
sVhs
p166
V31
p167
sVr
V35
p168
sV100s
p169
I0
sV50s
p170
I0
ssg60
I2012
stp171
a(Vclt20-2012
(dp172
g24
(dp173
Vinns
p174
I1
sVc
I1
sVro
p175
I0
sVm
I4
sVs
I0
ssg28
(dp176
Vinns
p177
I0
sV10w
p178
I0
sVnb
p179
I0
sVmaid
p180
I0
sVwb
p181
I0
sVbbmw
p182
I0
sV6s
p183
I0
sVbbmr
p184
I0
sVbbir
p185
I0
sVbbiw
p186
I0
sVa
V-
sVb
I0
sVe
V-
sVd
I0
sVwmaid
p187
I0
sV4w
p188
I0
sVm
I4
sV4s
p189
I0
sVr
I0
sVw
I0
sVsr
p190
V-
sVov
p191
V-
sV5w
p192
I0
ssg46
(dp193
Va
V24.66
p194
sVb
I62
sVinns
p195
I3
sVno
p196
I0
sVsr
p197
V119.35
p198
sVm
I4
sV4s
p199
I6
sV6s
p200
I2
sVhs
p201
V52
p202
sVr
V74
p203
sV100s
p204
I0
sV50s
p205
I1
ssg60
I2012
stp206
a(Vworldt20-2012
(dp207
g24
(dp208
Vinns
p209
I1
sVc
I1
sVro
p210
I0
sVm
I5
sVs
I0
ssg28
(dp211
Vinns
p212
I0
sV10w
p213
I0
sVnb
p214
I0
sVmaid
p215
I0
sVwb
p216
I0
sVbbmw
p217
I0
sV6s
p218
I0
sVbbmr
p219
I0
sVbbir
p220
I0
sVbbiw
p221
I0
sVa
V-
sVb
I0
sVe
V-
sVd
I0
sVwmaid
p222
I0
sV4w
p223
I0
sVm
I5
sV4s
p224
I0
sVr
I0
sVw
I0
sVsr
p225
V-
sVov
p226
V-
sV5w
p227
I0
ssg46
(dp228
Va
V18.40
p229
sVb
I72
sVinns
p230
I5
sVno
p231
I0
sVsr
p232
V127.77
p233
sVm
I5
sV4s
p234
I12
sV6s
p235
I2
sVhs
p236
V29
p237
sVr
V92
p238
sV100s
p239
I0
sV50s
p240
I0
ssg60
I2012
stp241
a(Vind-eng-2012-13
(dp242
g24
(dp243
Vinns
p244
I3
sVc
I5
sVro
p245
I0
sVm
I4
sVs
I0
ssg28
(dp246
Vinns
p247
I1
sV10w
p248
I0
sVnb
p249
I0
sVmaid
p250
I0
sVwb
p251
I0
sVbbmw
p252
I0
sV6s
p253
I0
sVbbmr
p254
I0
sVbbir
p255
I0
sVbbiw
p256
I0
sVa
V-
sVb
I6
sVe
V1.00
p257
sVd
I5
sVwmaid
p258
I0
sV4w
p259
I0
sVm
I4
sV4s
p260
I0
sVr
I1
sVw
I0
sVsr
p261
V-
sVov
p262
V1.00
p263
sV5w
p264
I0
ssg46
(dp265
Va
V36.14
p266
sVb
I280
sVinns
p267
I7
sVno
p268
I0
sVsr
p269
V90.35
p270
sVm
I4
sV4s
p271
I31
sV6s
p272
I2
sVhs
p273
V117
p274
sVr
V253
p275
sV100s
p276
I1
sV50s
p277
I0
ssg60
I2012
stp278
a(Vipl2011
(dp279
g24
(dp280
Vinns
p281
I6
sVc
I9
sVro
p282
I0
sVm
I11
sVs
I0
ssg28
(dp283
Vinns
p284
I0
sV10w
p285
I0
sVnb
p286
I0
sVmaid
p287
I0
sVwb
p288
I0
sVbbmw
p289
I0
sV6s
p290
I0
sVbbmr
p291
I0
sVbbir
p292
I0
sVbbiw
p293
I0
sVa
V-
sVb
I0
sVe
V-
sVd
I0
sVwmaid
p294
I0
sV4w
p295
I0
sVm
I11
sV4s
p296
I0
sVr
I0
sVw
I0
sVsr
p297
V-
sVov
p298
V-
sV5w
p299
I0
ssg46
(dp300
Va
V38.54
p301
sVb
I240
sVinns
p302
I11
sVno
p303
I0
sVsr
p304
V176.66
p305
sVm
I11
sV4s
p306
I51
sV6s
p307
I18
sVhs
p308
V119
p309
sVr
V424
p310
sV100s
p311
I1
sV50s
p312
I2
ssg60
I2011
stp313
a(Vipl2010
(dp314
g24
(dp315
Vinns
p316
I2
sVc
I2
sVro
p317
I0
sVm
I14
sVs
I0
ssg28
(dp318
Vinns
p319
I3
sV10w
p320
I0
sVnb
p321
I0
sVmaid
p322
I0
sVwb
p323
I0
sVbbmw
p324
I2
sV6s
p325
I0
sVbbmr
p326
I18
sVbbir
p327
I18
sVbbiw
p328
I2
sVa
V7.66
p329
sVb
I34
sVe
V4.05
p330
sVd
I18
sVwmaid
p331
I0
sV4w
p332
I0
sVm
I14
sV4s
p333
I2
sVr
I23
sVw
I3
sVsr
p334
V11.33
p335
sVov
p336
V5.66
p337
sV5w
p338
I0
ssg46
(dp339
Va
V25.42
p340
sVb
I218
sVinns
p341
I14
sVno
p342
I0
sVsr
p343
V163.30
p344
sVm
I14
sV4s
p345
I47
sV6s
p346
I14
sVhs
p347
V75
p348
sVr
V356
p349
sV100s
p350
I0
sV50s
p351
I3
ssg60
I2010
stp352
a(Vipl2009
(dp353
g24
(dp354
Vinns
p355
I3
sVc
I3
sVro
p356
I1
sVm
I11
sVs
I0
ssg28
(dp357
Vinns
p358
I1
sV10w
p359
I0
sVnb
p360
I1
sVmaid
p361
I0
sVwb
p362
I0
sVbbmw
p363
I0
sV6s
p364
I3
sVbbmr
p365
I0
sVbbir
p366
I0
sVbbiw
p367
I0
sVa
V-
sVb
I6
sVe
V25.00
p368
sVd
I1
sVwmaid
p369
I0
sV4w
p370
I0
sVm
I11
sV4s
p371
I1
sVr
I25
sVw
I0
sVsr
p372
V-
sVov
p373
V1.00
p374
sV5w
p375
I0
ssg46
(dp376
Va
V19.80
p377
sVb
I138
sVinns
p378
I11
sVno
p379
I1
sVsr
p380
V143.47
p381
sVm
I11
sV4s
p382
I24
sV6s
p383
I7
sVhs
p384
V50
p385
sVr
V198
p386
sV100s
p387
I0
sV50s
p388
I1
ssg60
I2009
stp389
a(Vclt20-2009
(dp390
g24
(dp391
Vinns
p392
I0
sVc
I0
sVro
p393
I0
sVm
I3
sVs
I0
ssg28
(dp394
Vinns
p395
I0
sV10w
p396
I0
sVnb
p397
I0
sVmaid
p398
I0
sVwb
p399
I0
sVbbmw
p400
I0
sV6s
p401
I0
sVbbmr
p402
I0
sVbbir
p403
I0
sVbbiw
p404
I0
sVa
V-
sVb
I0
sVe
V-
sVd
I0
sVwmaid
p405
I0
sV4w
p406
I0
sVm
I3
sV4s
p407
I0
sVr
I0
sVw
I0
sVsr
p408
V-
sVov
p409
V-
sV5w
p410
I0
ssg46
(dp411
Va
V44.66
p412
sVb
I86
sVinns
p413
I3
sVno
p414
I0
sVsr
p415
V155.81
p416
sVm
I3
sV4s
p417
I20
sV6s
p418
I2
sVhs
p419
V66
p420
sVr
V134
p421
sV100s
p422
I0
sV50s
p423
I1
ssg60
I2009
stp424
a(Vipl2008
(dp425
g24
(dp426
Vinns
p427
I8
sVc
I3
sVro
p428
I5
sVm
I14
sVs
I0
ssg28
(dp429
Vinns
p430
I7
sV10w
p431
I0
sVnb
p432
I0
sVmaid
p433
I0
sVwb
p434
I1
sVbbmw
p435
I1
sV6s
p436
I11
sVbbmr
p437
I2
sVbbir
p438
I2
sVbbiw
p439
I1
sVa
V44.33
p440
sVb
I66
sVe
V12.09
p441
sVd
I18
sVwmaid
p442
I0
sV4w
p443
I0
sVm
I14
sV4s
p444
I9
sVr
I133
sVw
I3
sVsr
p445
V22.00
p446
sVov
p447
V11.00
p448
sV5w
p449
I0
ssg46
(dp450
Va
V33.83
p451
sVb
I220
sVinns
p452
I14
sVno
p453
I2
sVsr
p454
V184.54
p455
sVm
I14
sV4s
p456
I46
sV6s
p457
I21
sVhs
p458
V94*
p459
sVr
V406
p460
sV100s
p461
I0
sV50s
p462
I3
ssg60
I2008
stp463
asb.