(iplayer
Player
p1
(dp2
S'is_batsman'
p3
I00
sS'name'
p4
S'Amit Mishra'
p5
sS'dob'
p6
S'1982/11/24'
p7
sS'price'
p8
S'950000'
p9
sS'is_allrounder'
p10
I00
sS'is_overseas'
p11
I00
sS'team'
p12
S'SRH'
p13
sS'nationality'
p14
S'Indian'
p15
sS'is_bowler'
p16
I01
sS'is_keeper'
p17
I00
sS'id'
p18
S'30'
p19
sS'is_uncapped'
p20
I00
sS'tournamentStats'
p21
(lp22
(Vasiacup-2014
(dp23
S'fieldingStats'
p24
(dp25
Vinns
p26
I1
sVc
I1
sVro
p27
I0
sVm
I2
sVs
I0
ssS'bowlingStats'
p28
(dp29
Vinns
p30
I2
sV10w
p31
I0
sVnb
p32
I0
sVmaid
p33
I1
sVwb
p34
I3
sVbbmw
p35
I2
sV6s
p36
I1
sVbbmr
p37
I28
sVbbir
p38
I28
sVbbiw
p39
I2
sVa
V16.33
p40
sVb
I120
sVe
V2.45
p41
sVd
I84
sVwmaid
p42
I1
sV4w
p43
I0
sVm
I2
sV4s
p44
I0
sVr
I49
sVw
I3
sVsr
p45
V40.00
p46
sVov
p47
V20.00
p48
sV5w
p49
I0
ssS'battingStats'
p50
(dp51
Va
V-
sVb
I1
sVinns
p52
I1
sVno
p53
I1
sVsr
p54
V100.00
p55
sVm
I2
sV4s
p56
I0
sV6s
p57
I0
sVhs
p58
V1*
p59
sVr
V1
sV100s
p60
I0
sV50s
p61
I0
ssS'year'
p62
I2014
stp63
a(Vworldt20-2014
(dp64
g24
(dp65
Vinns
p66
I0
sVc
I0
sVro
p67
I0
sVm
I2
sVs
I0
ssg28
(dp68
Vinns
p69
I2
sV10w
p70
I0
sVnb
p71
I0
sVmaid
p72
I1
sVwb
p73
I1
sVbbmw
p74
I2
sV6s
p75
I2
sVbbmr
p76
I18
sVbbir
p77
I18
sVbbiw
p78
I2
sVa
V10.00
p79
sVb
I48
sVe
V5.00
p80
sVd
I22
sVwmaid
p81
I1
sV4w
p82
I0
sVm
I2
sV4s
p83
I0
sVr
I40
sVw
I4
sVsr
p84
V12.00
p85
sVov
p86
V8.00
p87
sV5w
p88
I0
ssg50
(dp89
Va
V-
sVinns
p90
I0
sVno
p91
I0
sVsr
p92
V-
sVm
I2
sV4s
p93
I0
sV6s
p94
I0
sVhs
p95
V0*
p96
sVr
V0
sV100s
p97
I0
sV50s
p98
I0
ssg62
I2014
stp99
a(Vzim-ind-2013
(dp100
g24
(dp101
Vinns
p102
I1
sVc
I1
sVro
p103
I0
sVm
I5
sVs
I0
ssg28
(dp104
Vinns
p105
I5
sV10w
p106
I0
sVnb
p107
I5
sVmaid
p108
I2
sVwb
p109
I4
sVbbmw
p110
I6
sV6s
p111
I5
sVbbmr
p112
I48
sVbbir
p113
I48
sVbbiw
p114
I6
sVa
V11.61
p115
sVb
I285
sVe
V4.40
p116
sVd
I174
sVwmaid
p117
I2
sV4w
p118
I1
sVm
I5
sV4s
p119
I14
sVr
I209
sVw
I18
sVsr
p120
V15.83
p121
sVov
p122
V47.50
p123
sV5w
p124
I1
ssg50
(dp125
Va
V9.00
p126
sVb
I7
sVinns
p127
I1
sVno
p128
I0
sVsr
p129
V128.57
p130
sVm
I5
sV4s
p131
I1
sV6s
p132
I0
sVhs
p133
V9
sVr
V9
sV100s
p134
I0
sV50s
p135
I0
ssg62
I2013
stp136
a(Vind-aus-2-2013
(dp137
g24
(dp138
Vinns
p139
I0
sVc
I0
sVro
p140
I0
sVm
I1
sVs
I0
ssg28
(dp141
Vinns
p142
I1
sV10w
p143
I0
sVnb
p144
I0
sVmaid
p145
I0
sVwb
p146
I0
sVbbmw
p147
I0
sV6s
p148
I4
sVbbmr
p149
I78
sVbbir
p150
I78
sVbbiw
p151
I0
sVa
V-
sVb
I60
sVe
V7.80
p152
sVd
I25
sVwmaid
p153
I0
sV4w
p154
I0
sVm
I1
sV4s
p155
I7
sVr
I78
sVw
I0
sVsr
p156
V-
sVov
p157
V10.00
p158
sV5w
p159
I0
ssg50
(dp160
Va
V-
sVinns
p161
I0
sVno
p162
I0
sVsr
p163
V-
sVm
I1
sV4s
p164
I0
sV6s
p165
I0
sVhs
p166
V0*
p167
sVr
V0
sV100s
p168
I0
sV50s
p169
I0
ssg62
I2013
stp170
a(Vclt20-2013
(dp171
g24
(dp172
Vinns
p173
I1
sVc
I1
sVro
p174
I0
sVm
I6
sVs
I0
ssg28
(dp175
Vinns
p176
I6
sV10w
p177
I0
sVnb
p178
I0
sVmaid
p179
I1
sVwb
p180
I5
sVbbmw
p181
I1
sV6s
p182
I6
sVbbmr
p183
I13
sVbbir
p184
I13
sVbbiw
p185
I1
sVa
V52.50
p186
sVb
I96
sVe
V6.56
p187
sVd
I42
sVwmaid
p188
I1
sV4w
p189
I0
sVm
I6
sV4s
p190
I4
sVr
I105
sVw
I2
sVsr
p191
V48.00
p192
sVov
p193
V16.00
p194
sV5w
p195
I0
ssg50
(dp196
Va
V-
sVinns
p197
I0
sVno
p198
I0
sVsr
p199
V-
sVm
I6
sV4s
p200
I0
sV6s
p201
I0
sVhs
p202
V0*
p203
sVr
V0
sV100s
p204
I0
sV50s
p205
I0
ssg62
I2013
stp206
a(Vchamptrophy-2013-warmups
(dp207
g24
(dp208
Vinns
p209
I0
sVc
I0
sVro
p210
I0
sVm
I2
sVs
I0
ssg28
(dp211
Vinns
p212
I1
sV10w
p213
I0
sVnb
p214
I0
sVmaid
p215
I0
sVwb
p216
I2
sVbbmw
p217
I1
sV6s
p218
I1
sVbbmr
p219
I53
sVbbir
p220
I0
sVbbiw
p221
I0
sVa
V53.00
p222
sVb
I48
sVe
V6.62
p223
sVd
I17
sVwmaid
p224
I0
sV4w
p225
I0
sVm
I2
sV4s
p226
I5
sVr
I53
sVw
I1
sVsr
p227
V48.00
p228
sVov
p229
V8.00
p230
sV5w
p231
I0
ssg50
(dp232
Va
V-
sVinns
p233
I0
sVno
p234
I0
sVsr
p235
V-
sVm
I2
sV4s
p236
I0
sV6s
p237
I0
sVhs
p238
V0*
p239
sVr
V0
sV100s
p240
I0
sV50s
p241
I0
ssg62
I2013
stp242
a(Vipl2013
p243
(dp244
g24
(dp245
Vinns
p246
I3
sVc
I2
sVro
p247
I1
sVm
I17
sVs
I0
ssg28
(dp248
Vinns
p249
I17
sV10w
p250
I0
sVnb
p251
I2
sVmaid
p252
I1
sVwb
p253
I2
sVbbmw
p254
I4
sV6s
p255
I16
sVbbmr
p256
I19
sVbbir
p257
I19
sVbbiw
p258
I4
sVa
V18.76
p259
sVb
I372
sVe
V6.35
p260
sVd
I151
sVwmaid
p261
I1
sV4w
p262
I1
sVm
I17
sV4s
p263
I21
sVr
I394
sVw
I21
sVsr
p264
V17.71
p265
sVov
p266
V62.00
p267
sV5w
p268
I0
ssg50
(dp269
Va
V14.83
p270
sVb
I96
sVinns
p271
I8
sVno
p272
I2
sVsr
p273
V92.70
p274
sVm
I17
sV4s
p275
I9
sV6s
p276
I0
sVhs
p277
V30
p278
sVr
V89
p279
sV100s
p280
I0
sV50s
p281
I0
ssg62
I2013
stp282
a(Vipl2012
(dp283
g24
(dp284
Vinns
p285
I2
sVc
I1
sVro
p286
I1
sVm
I14
sVs
I0
ssg28
(dp287
Vinns
p288
I14
sV10w
p289
I0
sVnb
p290
I2
sVmaid
p291
I0
sVwb
p292
I5
sVbbmw
p293
I3
sV6s
p294
I19
sVbbmr
p295
I32
sVbbir
p296
I32
sVbbiw
p297
I3
sVa
V29.00
p298
sVb
I282
sVe
V8.02
p299
sVd
I89
sVwmaid
p300
I0
sV4w
p301
I0
sVm
I14
sV4s
p302
I18
sVr
I377
sVw
I13
sVsr
p303
V21.69
p304
sVov
p305
V47.00
p306
sV5w
p307
I0
ssg50
(dp308
Va
V5.33
p309
sVb
I20
sVinns
p310
I5
sVno
p311
I2
sVsr
p312
V80.00
p313
sVm
I14
sV4s
p314
I1
sV6s
p315
I0
sVhs
p316
V8*
p317
sVr
V16
p318
sV100s
p319
I0
sV50s
p320
I0
ssg62
I2012
stp321
a(Vipl2011
(dp322
g24
(dp323
Vinns
p324
I2
sVc
I2
sVro
p325
I0
sVm
I14
sVs
I0
ssg28
(dp326
Vinns
p327
I14
sV10w
p328
I0
sVnb
p329
I2
sVmaid
p330
I2
sVwb
p331
I2
sVbbmw
p332
I4
sV6s
p333
I14
sVbbmr
p334
I9
sVbbir
p335
I9
sVbbiw
p336
I4
sVa
V18.84
p337
sVb
I320
sVe
V6.71
p338
sVd
I130
sVwmaid
p339
I2
sV4w
p340
I1
sVm
I14
sV4s
p341
I26
sVr
I358
sVw
I19
sVsr
p342
V16.84
p343
sVov
p344
V53.33
p345
sV5w
p346
I0
ssg50
(dp347
Va
V17.00
p348
sVb
I49
sVinns
p349
I9
sVno
p350
I5
sVsr
p351
V138.77
p352
sVm
I14
sV4s
p353
I9
sV6s
p354
I1
sVhs
p355
V25*
p356
sVr
V68
p357
sV100s
p358
I0
sV50s
p359
I0
ssg62
I2011
stp360
a(Vipl2010
(dp361
g24
(dp362
Vinns
p363
I6
sVc
I4
sVro
p364
I3
sVm
I14
sVs
I0
ssg28
(dp365
Vinns
p366
I14
sV10w
p367
I0
sVnb
p368
I3
sVmaid
p369
I0
sVwb
p370
I8
sVbbmw
p371
I3
sV6s
p372
I16
sVbbmr
p373
I25
sVbbir
p374
I25
sVbbiw
p375
I3
sVa
V21.35
p376
sVb
I318
sVe
V6.84
p377
sVd
I131
sVwmaid
p378
I0
sV4w
p379
I0
sVm
I14
sV4s
p380
I26
sVr
I363
sVw
I17
sVsr
p381
V18.70
p382
sVov
p383
V53.00
p384
sV5w
p385
I0
ssg50
(dp386
Va
V9.75
p387
sVb
I51
sVinns
p388
I7
sVno
p389
I3
sVsr
p390
V76.47
p391
sVm
I14
sV4s
p392
I1
sV6s
p393
I0
sVhs
p394
V12
p395
sVr
V39
p396
sV100s
p397
I0
sV50s
p398
I0
ssg62
I2010
stp399
a(Vclt20-2009
(dp400
g24
(dp401
Vinns
p402
I1
sVc
I1
sVro
p403
I0
sVm
I4
sVs
I0
ssg28
(dp404
Vinns
p405
I4
sV10w
p406
I0
sVnb
p407
I1
sVmaid
p408
I1
sVwb
p409
I1
sVbbmw
p410
I2
sV6s
p411
I7
sVbbmr
p412
I19
sVbbir
p413
I19
sVbbiw
p414
I2
sVa
V31.50
p415
sVb
I96
sVe
V7.87
p416
sVd
I44
sVwmaid
p417
I1
sV4w
p418
I0
sVm
I4
sV4s
p419
I11
sVr
I126
sVw
I4
sVsr
p420
V24.00
p421
sVov
p422
V16.00
p423
sV5w
p424
I0
ssg50
(dp425
Va
V-
sVb
I23
sVinns
p426
I2
sVno
p427
I2
sVsr
p428
V65.21
p429
sVm
I4
sV4s
p430
I0
sV6s
p431
I0
sVhs
p432
V8*
p433
sVr
V15
p434
sV100s
p435
I0
sV50s
p436
I0
ssg62
I2009
stp437
a(Vipl2009
(dp438
g24
(dp439
Vinns
p440
I3
sVc
I2
sVro
p441
I1
sVm
I11
sVs
I0
ssg28
(dp442
Vinns
p443
I11
sV10w
p444
I0
sVnb
p445
I6
sVmaid
p446
I1
sVwb
p447
I3
sVbbmw
p448
I3
sV6s
p449
I13
sVbbmr
p450
I14
sVbbir
p451
I14
sVbbiw
p452
I3
sVa
V21.00
p453
sVb
I253
sVe
V6.97
p454
sVd
I98
sVwmaid
p455
I0
sV4w
p456
I0
sVm
I11
sV4s
p457
I13
sVr
I294
sVw
I14
sVsr
p458
V18.07
p459
sVov
p460
V42.16
p461
sV5w
p462
I0
ssg50
(dp463
Va
V8.66
p464
sVb
I20
sVinns
p465
I5
sVno
p466
I2
sVsr
p467
V130.00
p468
sVm
I11
sV4s
p469
I2
sV6s
p470
I2
sVhs
p471
V13*
p472
sVr
V26
p473
sV100s
p474
I0
sV50s
p475
I0
ssg62
I2009
stp476
a(Vipl2008
(dp477
g24
(dp478
Vinns
p479
I1
sVc
I2
sVro
p480
I0
sVm
I6
sVs
I0
ssg28
(dp481
Vinns
p482
I6
sV10w
p483
I0
sVnb
p484
I1
sVmaid
p485
I0
sVwb
p486
I3
sVbbmw
p487
I5
sV6s
p488
I8
sVbbmr
p489
I17
sVbbir
p490
I17
sVbbiw
p491
I5
sVa
V12.54
p492
sVb
I119
sVe
V6.95
p493
sVd
I42
sVwmaid
p494
I0
sV4w
p495
I0
sVm
I6
sV4s
p496
I4
sVr
I138
sVw
I11
sVsr
p497
V10.81
p498
sVov
p499
V19.83
p500
sV5w
p501
I1
ssg50
(dp502
Va
V12.33
p503
sVb
I42
sVinns
p504
I3
sVno
p505
I0
sVsr
p506
V88.09
p507
sVm
I6
sV4s
p508
I3
sV6s
p509
I0
sVhs
p510
V31
p511
sVr
V37
p512
sV100s
p513
I0
sV50s
p514
I0
ssg62
I2008
stp515
asb.