(iplayer
Player
p1
(dp2
S'is_batsman'
p3
I00
sS'name'
p4
S'Zaheer Khan'
p5
sS'dob'
p6
S'1978/10/07'
p7
sS'price'
p8
S'900000'
p9
sS'is_allrounder'
p10
I00
sS'is_overseas'
p11
I00
sS'team'
p12
S'MI'
p13
sS'nationality'
p14
S'Indian'
p15
sS'is_bowler'
p16
I01
sS'is_keeper'
p17
I00
sS'id'
p18
S'165'
p19
sS'is_uncapped'
p20
I00
sS'tournamentStats'
p21
(lp22
(Vnz-ind-2014
(dp23
S'fieldingStats'
p24
(dp25
Vinns
p26
I0
sVc
I0
sVro
p27
I0
sVm
I2
sVs
I0
ssS'bowlingStats'
p28
(dp29
Vinns
p30
I4
sV10w
p31
I0
sVnb
p32
I2
sVmaid
p33
I20
sVwb
p34
I4
sVbbmw
p35
I5
sV6s
p36
I4
sVbbmr
p37
I227
sVbbir
p38
I170
sVbbiw
p39
I5
sVa
V42.44
p40
sVb
I642
sVe
V3.57
p41
sVd
I483
sVwmaid
p42
I4
sV4w
p43
I0
sVm
I2
sV4s
p44
I50
sVr
I382
sVw
I9
sVsr
p45
V71.33
p46
sVov
p47
V107.00
p48
sV5w
p49
I1
ssS'battingStats'
p50
(dp51
Va
V17.66
p52
sVb
I67
sVinns
p53
I3
sVno
p54
I0
sVsr
p55
V79.10
p56
sVm
I2
sV4s
p57
I8
sV6s
p58
I1
sVhs
p59
V22
p60
sVr
V53
p61
sV100s
p62
I0
sV50s
p63
I0
ssS'year'
p64
I2014
stp65
a(Vsa-ind-2013
(dp66
g24
(dp67
Vinns
p68
I0
sVc
I0
sVro
p69
I0
sVm
I2
sVs
I0
ssg28
(dp70
Vinns
p71
I3
sV10w
p72
I0
sVnb
p73
I1
sVmaid
p74
I11
sVwb
p75
I3
sVbbmw
p76
I5
sV6s
p77
I0
sVbbmr
p78
I223
sVbbir
p79
I88
sVbbiw
p80
I4
sVa
V45.71
p81
sVb
I531
sVe
V3.61
p82
sVd
I373
sVwmaid
p83
I4
sV4w
p84
I1
sVm
I2
sV4s
p85
I46
sVr
I320
sVw
I7
sVsr
p86
V75.85
p87
sVov
p88
V88.50
p89
sV5w
p90
I0
ssg50
(dp91
Va
V10.66
p92
sVb
I75
sVinns
p93
I4
sVno
p94
I1
sVsr
p95
V42.66
p96
sVm
I2
sV4s
p97
I3
sV6s
p98
I2
sVhs
p99
V29*
p100
sVr
V32
p101
sV100s
p102
I0
sV50s
p103
I0
ssg64
I2013
stp104
a(Vipl2013
p105
(dp106
g24
(dp107
Vinns
p108
I1
sVc
I1
sVro
p109
I0
sVm
I2
sVs
I0
ssg28
(dp110
Vinns
p111
I2
sV10w
p112
I0
sVnb
p113
I0
sVmaid
p114
I0
sVwb
p115
I2
sVbbmw
p116
I4
sV6s
p117
I2
sVbbmr
p118
I17
sVbbir
p119
I17
sVbbiw
p120
I4
sVa
V9.40
p121
sVb
I36
sVe
V7.83
p122
sVd
I18
sVwmaid
p123
I0
sV4w
p124
I1
sVm
I2
sV4s
p125
I5
sVr
I47
sVw
I5
sVsr
p126
V7.20
p127
sVov
p128
V6.00
p129
sV5w
p130
I0
ssg50
(dp131
Va
V-
sVinns
p132
I0
sVno
p133
I0
sVsr
p134
V-
sVm
I2
sV4s
p135
I0
sV6s
p136
I0
sVhs
p137
V0*
p138
sVr
V0
sV100s
p139
I0
sV50s
p140
I0
ssg64
I2013
stp141
a(Vipl2012
(dp142
g24
(dp143
Vinns
p144
I5
sVc
I5
sVro
p145
I0
sVm
I16
sVs
I0
ssg28
(dp146
Vinns
p147
I15
sV10w
p148
I0
sVnb
p149
I0
sVmaid
p150
I1
sVwb
p151
I10
sVbbmw
p152
I3
sV6s
p153
I12
sVbbmr
p154
I38
sVbbir
p155
I38
sVbbiw
p156
I3
sVa
V26.64
p157
sVb
I360
sVe
V7.55
p158
sVd
I146
sVwmaid
p159
I0
sV4w
p160
I0
sVm
I16
sV4s
p161
I49
sVr
I453
sVw
I17
sVsr
p162
V21.17
p163
sVov
p164
V60.00
p165
sV5w
p166
I0
ssg50
(dp167
Va
V6.00
p168
sVb
I17
sVinns
p169
I5
sVno
p170
I3
sVsr
p171
V70.58
p172
sVm
I16
sV4s
p173
I1
sV6s
p174
I0
sVhs
p175
V11*
p176
sVr
V12
p177
sV100s
p178
I0
sV50s
p179
I0
ssg64
I2012
stp180
a(Vpre-worldt20-2012
(dp181
g24
(dp182
Vinns
p183
I0
sVc
I0
sVro
p184
I0
sVm
I1
sVs
I0
ssg28
(dp185
Vinns
p186
I1
sV10w
p187
I0
sVnb
p188
I0
sVmaid
p189
I0
sVwb
p190
I1
sVbbmw
p191
I1
sV6s
p192
I0
sVbbmr
p193
I27
sVbbir
p194
I27
sVbbiw
p195
I1
sVa
V27.00
p196
sVb
I24
sVe
V6.75
p197
sVd
I10
sVwmaid
p198
I0
sV4w
p199
I0
sVm
I1
sV4s
p200
I4
sVr
I27
sVw
I1
sVsr
p201
V24.00
p202
sVov
p203
V4.00
p204
sV5w
p205
I0
ssg50
(dp206
Va
V-
sVinns
p207
I0
sVno
p208
I0
sVsr
p209
V-
sVm
I1
sV4s
p210
I0
sV6s
p211
I0
sVhs
p212
V0*
p213
sVr
V0
sV100s
p214
I0
sV50s
p215
I0
ssg64
I2012
stp216
a(Vworldt20-2012
(dp217
g24
(dp218
Vinns
p219
I1
sVc
I1
sVro
p220
I0
sVm
I6
sVs
I0
ssg28
(dp221
Vinns
p222
I6
sV10w
p223
I0
sVnb
p224
I0
sVmaid
p225
I0
sVwb
p226
I6
sVbbmw
p227
I3
sV6s
p228
I4
sVbbmr
p229
I22
sVbbir
p230
I22
sVbbiw
p231
I3
sVa
V38.50
p232
sVb
I120
sVe
V7.70
p233
sVd
I55
sVwmaid
p234
I0
sV4w
p235
I0
sVm
I6
sV4s
p236
I16
sVr
I154
sVw
I4
sVsr
p237
V30.00
p238
sVov
p239
V20.00
p240
sV5w
p241
I0
ssg50
(dp242
Va
V-
sVinns
p243
I0
sVno
p244
I0
sVsr
p245
V-
sVm
I6
sV4s
p246
I0
sV6s
p247
I0
sVhs
p248
V0*
p249
sVr
V0
sV100s
p250
I0
sV50s
p251
I0
ssg64
I2012
stp252
a(Vind-eng-2012-13
(dp253
g24
(dp254
Vinns
p255
I1
sVc
I1
sVro
p256
I0
sVm
I3
sVs
I0
ssg28
(dp257
Vinns
p258
I4
sV10w
p259
I0
sVnb
p260
I0
sVmaid
p261
I22
sVwb
p262
I1
sVbbmw
p263
I3
sV6s
p264
I1
sVbbmr
p265
I82
sVbbir
p266
I59
sVbbiw
p267
I2
sVa
V53.25
p268
sVb
I531
sVe
V2.40
p269
sVd
I411
sVwmaid
p270
I1
sV4w
p271
I0
sVm
I3
sV4s
p272
I26
sVr
I213
sVw
I4
sVsr
p273
V132.75
p274
sVov
p275
V88.50
p276
sV5w
p277
I0
ssg50
(dp278
Va
V5.00
p279
sVb
I57
sVinns
p280
I5
sVno
p281
I0
sVsr
p282
V43.85
p283
sVm
I3
sV4s
p284
I3
sV6s
p285
I1
sVhs
p286
V11
p287
sVr
V25
p288
sV100s
p289
I0
sV50s
p290
I0
ssg64
I2012
stp291
a(Vipl2011
(dp292
g24
(dp293
Vinns
p294
I4
sVc
I4
sVro
p295
I0
sVm
I15
sVs
I0
ssg28
(dp296
Vinns
p297
I15
sV10w
p298
I0
sVnb
p299
I0
sVmaid
p300
I1
sVwb
p301
I19
sVbbmw
p302
I3
sV6s
p303
I11
sVbbmr
p304
I32
sVbbir
p305
I32
sVbbiw
p306
I3
sVa
V32.50
p307
sVb
I354
sVe
V7.71
p308
sVd
I141
sVwmaid
p309
I1
sV4w
p310
I0
sVm
I15
sV4s
p311
I49
sVr
I455
sVw
I14
sVsr
p312
V25.28
p313
sVov
p314
V59.00
p315
sV5w
p316
I0
ssg50
(dp317
Va
V10.50
p318
sVb
I24
sVinns
p319
I2
sVno
p320
I0
sVsr
p321
V87.50
p322
sVm
I15
sV4s
p323
I2
sV6s
p324
I0
sVhs
p325
V21
p326
sVr
V21
p327
sV100s
p328
I0
sV50s
p329
I0
ssg64
I2011
stp330
a(Vclt20-2010
(dp331
g24
(dp332
Vinns
p333
I1
sVc
I1
sVro
p334
I0
sVm
I4
sVs
I0
ssg28
(dp335
Vinns
p336
I4
sV10w
p337
I0
sVnb
p338
I0
sVmaid
p339
I0
sVwb
p340
I6
sVbbmw
p341
I1
sV6s
p342
I2
sVbbmr
p343
I17
sVbbir
p344
I17
sVbbiw
p345
I1
sVa
V43.66
p346
sVb
I96
sVe
V8.18
p347
sVd
I39
sVwmaid
p348
I0
sV4w
p349
I0
sVm
I4
sV4s
p350
I18
sVr
I131
sVw
I3
sVsr
p351
V32.00
p352
sVov
p353
V16.00
p354
sV5w
p355
I0
ssg50
(dp356
Va
V-
sVb
I1
sVinns
p357
I2
sVno
p358
I2
sVsr
p359
V0.00
p360
sVm
I4
sV4s
p361
I0
sV6s
p362
I0
sVhs
p363
V0*
p364
sVr
V0
sV100s
p365
I0
sV50s
p366
I0
ssg64
I2010
stp367
a(Vipl2010
(dp368
g24
(dp369
Vinns
p370
I4
sVc
I5
sVro
p371
I0
sVm
I14
sVs
I0
ssg28
(dp372
Vinns
p373
I14
sV10w
p374
I0
sVnb
p375
I1
sVmaid
p376
I1
sVwb
p377
I4
sVbbmw
p378
I3
sV6s
p379
I8
sVbbmr
p380
I21
sVbbir
p381
I21
sVbbiw
p382
I3
sVa
V25.06
p383
sVb
I290
sVe
V7.77
p384
sVd
I107
sVwmaid
p385
I0
sV4w
p386
I0
sVm
I14
sV4s
p387
I45
sVr
I376
sVw
I15
sVsr
p388
V19.33
p389
sVov
p390
V48.33
p391
sV5w
p392
I0
ssg50
(dp393
Va
V24.00
p394
sVb
I13
sVinns
p395
I4
sVno
p396
I3
sVsr
p397
V184.61
p398
sVm
I14
sV4s
p399
I3
sV6s
p400
I1
sVhs
p401
V23*
p402
sVr
V24
p403
sV100s
p404
I0
sV50s
p405
I0
ssg64
I2010
stp406
a(Vipl2009
(dp407
g24
(dp408
Vinns
p409
I2
sVc
I2
sVro
p410
I0
sVm
I6
sVs
I0
ssg28
(dp411
Vinns
p412
I6
sV10w
p413
I0
sVnb
p414
I1
sVmaid
p415
I0
sVwb
p416
I5
sVbbmw
p417
I3
sV6s
p418
I3
sVbbmr
p419
I31
sVbbir
p420
I31
sVbbiw
p421
I3
sVa
V23.66
p422
sVb
I126
sVe
V6.76
p423
sVd
I49
sVwmaid
p424
I0
sV4w
p425
I0
sVm
I6
sV4s
p426
I12
sVr
I142
sVw
I6
sVsr
p427
V21.00
p428
sVov
p429
V21.00
p430
sV5w
p431
I0
ssg50
(dp432
Va
V8.00
p433
sVb
I11
sVinns
p434
I4
sVno
p435
I3
sVsr
p436
V72.72
p437
sVm
I6
sV4s
p438
I0
sV6s
p439
I0
sVhs
p440
V4*
p441
sVr
V8
sV100s
p442
I0
sV50s
p443
I0
ssg64
I2009
stp444
a(Vipl2008
(dp445
g24
(dp446
Vinns
p447
I1
sVc
I1
sVro
p448
I1
sVm
I11
sVs
I0
ssg28
(dp449
Vinns
p450
I11
sV10w
p451
I0
sVnb
p452
I0
sVmaid
p453
I0
sVwb
p454
I6
sVbbmw
p455
I3
sV6s
p456
I7
sVbbmr
p457
I38
sVbbir
p458
I38
sVbbiw
p459
I3
sVa
V27.46
p460
sVb
I252
sVe
V8.50
p461
sVd
I100
sVwmaid
p462
I0
sV4w
p463
I0
sVm
I11
sV4s
p464
I52
sVr
I357
sVw
I13
sVsr
p465
V19.38
p466
sVov
p467
V42.00
p468
sV5w
p469
I0
ssg50
(dp470
Va
V8.50
p471
sVb
I43
sVinns
p472
I8
sVno
p473
I4
sVsr
p474
V79.06
p475
sVm
I11
sV4s
p476
I4
sV6s
p477
I0
sVhs
p478
V17*
p479
sVr
V34
p480
sV100s
p481
I0
sV50s
p482
I0
ssg64
I2008
stp483
asb.