(iplayer
Player
p1
(dp2
S'is_batsman'
p3
I00
sS'name'
p4
S'Varun Aaron'
p5
sS'dob'
p6
S'1989/10/29'
p7
sS'price'
p8
S'800000'
p9
sS'is_allrounder'
p10
I00
sS'is_overseas'
p11
I00
sS'team'
p12
S'RCB'
p13
sS'nationality'
p14
S'Indian'
p15
sS'is_bowler'
p16
I01
sS'is_keeper'
p17
I00
sS'id'
p18
S'61'
p19
sS'is_uncapped'
p20
I00
sS'tournamentStats'
p21
(lp22
(Vasiacup-2014
(dp23
S'fieldingStats'
p24
(dp25
Vinns
p26
I1
sVc
I1
sVro
p27
I0
sVm
I1
sVs
I0
ssS'bowlingStats'
p28
(dp29
Vinns
p30
I1
sV10w
p31
I0
sVnb
p32
I2
sVmaid
p33
I0
sVwb
p34
I3
sVbbmw
p35
I1
sV6s
p36
I3
sVbbmr
p37
I74
sVbbir
p38
I74
sVbbiw
p39
I1
sVa
V74.00
p40
sVb
I47
sVe
V9.44
p41
sVd
I21
sVwmaid
p42
I0
sV4w
p43
I0
sVm
I1
sV4s
p44
I7
sVr
I74
sVw
I1
sVsr
p45
V47.00
p46
sVov
p47
V7.83
p48
sV5w
p49
I0
ssS'battingStats'
p50
(dp51
Va
V-
sVinns
p52
I0
sVno
p53
I0
sVsr
p54
V-
sVm
I1
sV4s
p55
I0
sV6s
p56
I0
sVhs
p57
V0*
p58
sVr
V0
sV100s
p59
I0
sV50s
p60
I0
ssS'year'
p61
I2014
stp62
a(Vnz-ind-2014
(dp63
g24
(dp64
Vinns
p65
I0
sVc
I0
sVro
p66
I0
sVm
I3
sVs
I0
ssg28
(dp67
Vinns
p68
I3
sV10w
p69
I0
sVnb
p70
I0
sVmaid
p71
I0
sVwb
p72
I5
sVbbmw
p73
I2
sV6s
p74
I3
sVbbmr
p75
I60
sVbbir
p76
I60
sVbbiw
p77
I2
sVa
V40.75
p78
sVb
I139
sVe
V7.03
p79
sVd
I60
sVwmaid
p80
I0
sV4w
p81
I0
sVm
I3
sV4s
p82
I19
sVr
I163
sVw
I4
sVsr
p83
V34.75
p84
sVov
p85
V23.16
p86
sV5w
p87
I0
ssg50
(dp88
Va
V2.00
p89
sVb
I4
sVinns
p90
I2
sVno
p91
I1
sVsr
p92
V50.00
p93
sVm
I3
sV4s
p94
I0
sV6s
p95
I0
sVhs
p96
V2*
p97
sVr
V2
sV100s
p98
I0
sV50s
p99
I0
ssg61
I2014
stp100
a(Vipl2012
(dp101
g24
(dp102
Vinns
p103
I2
sVc
I1
sVro
p104
I1
sVm
I8
sVs
I0
ssg28
(dp105
Vinns
p106
I8
sV10w
p107
I0
sVnb
p108
I0
sVmaid
p109
I0
sVwb
p110
I6
sVbbmw
p111
I2
sV6s
p112
I8
sVbbmr
p113
I19
sVbbir
p114
I19
sVbbiw
p115
I2
sVa
V33.87
p116
sVb
I186
sVe
V8.74
p117
sVd
I73
sVwmaid
p118
I0
sV4w
p119
I0
sVm
I8
sV4s
p120
I33
sVr
I271
sVw
I8
sVsr
p121
V23.25
p122
sVov
p123
V31.00
p124
sV5w
p125
I0
ssg50
(dp126
Va
V0.50
p127
sVb
I3
sVinns
p128
I2
sVno
p129
I0
sVsr
p130
V33.33
p131
sVm
I8
sV4s
p132
I0
sV6s
p133
I0
sVhs
p134
V1
sVr
V1
sV100s
p135
I0
sV50s
p136
I0
ssg61
I2012
stp137
a(Vipl2011
p138
(dp139
g24
(dp140
Vinns
p141
I0
sVc
I0
sVro
p142
I0
sVm
I4
sVs
I0
ssg28
(dp143
Vinns
p144
I3
sV10w
p145
I0
sVnb
p146
I0
sVmaid
p147
I0
sVwb
p148
I5
sVbbmw
p149
I1
sV6s
p150
I1
sVbbmr
p151
I20
sVbbir
p152
I20
sVbbiw
p153
I1
sVa
V41.00
p154
sVb
I72
sVe
V6.83
p155
sVd
I31
sVwmaid
p156
I0
sV4w
p157
I0
sVm
I4
sV4s
p158
I10
sVr
I82
sVw
I2
sVsr
p159
V36.00
p160
sVov
p161
V12.00
p162
sV5w
p163
I0
ssg50
(dp164
Va
V-
sVb
I5
sVinns
p165
I1
sVno
p166
I1
sVsr
p167
V0.00
p168
sVm
I4
sV4s
p169
I0
sV6s
p170
I0
sVhs
p171
V0*
p172
sVr
V0
sV100s
p173
I0
sV50s
p174
I0
ssg61
I2011
stp175
asb.