(iplayer
Player
p1
(dp2
S'is_batsman'
p3
I00
sS'name'
p4
S'Ben Cutting'
p5
sS'dob'
p6
S'1987/01/30'
p7
sS'price'
p8
S'850000'
p9
sS'is_allrounder'
p10
I01
sS'is_overseas'
p11
I01
sS'team'
p12
S'RR'
p13
sS'nationality'
p14
S'Australian'
p15
sS'is_bowler'
p16
I00
sS'is_keeper'
p17
I00
sS'id'
p18
S'913'
p19
sS'is_uncapped'
p20
I00
sS'tournamentStats'
p21
(lp22
(Vaus-wi-t20-2013
(dp23
S'fieldingStats'
p24
(dp25
Vinns
p26
I0
sVc
I0
sVro
p27
I0
sVm
I1
sVs
I0
ssS'bowlingStats'
p28
(dp29
Vinns
p30
I1
sV10w
p31
I0
sVnb
p32
I0
sVmaid
p33
I0
sVwb
p34
I0
sVbbmw
p35
I0
sV6s
p36
I1
sVbbmr
p37
I43
sVbbir
p38
I43
sVbbiw
p39
I0
sVa
V-
sVb
I24
sVe
V10.75
p40
sVd
I2
sVwmaid
p41
I0
sV4w
p42
I0
sVm
I1
sV4s
p43
I3
sVr
I43
sVw
I0
sVsr
p44
V-
sVov
p45
V4.00
p46
sV5w
p47
I0
ssS'battingStats'
p48
(dp49
Va
V0.00
p50
sVb
I1
sVinns
p51
I1
sVno
p52
I0
sVsr
p53
V0.00
p54
sVm
I1
sV4s
p55
I0
sV6s
p56
I0
sVhs
p57
V0*
p58
sVr
V0
sV100s
p59
I0
sV50s
p60
I0
ssS'year'
p61
I2013
stp62
a(Vclt20-2013
(dp63
g24
(dp64
Vinns
p65
I2
sVc
I2
sVro
p66
I1
sVm
I3
sVs
I0
ssg28
(dp67
Vinns
p68
I3
sV10w
p69
I0
sVnb
p70
I0
sVmaid
p71
I0
sVwb
p72
I1
sVbbmw
p73
I1
sV6s
p74
I3
sVbbmr
p75
I23
sVbbir
p76
I23
sVbbiw
p77
I1
sVa
V28.33
p78
sVb
I59
sVe
V8.64
p79
sVd
I17
sVwmaid
p80
I0
sV4w
p81
I0
sVm
I3
sV4s
p82
I9
sVr
I85
sVw
I3
sVsr
p83
V19.66
p84
sVov
p85
V9.83
p86
sV5w
p87
I0
ssg48
(dp88
Va
V29.50
p89
sVb
I37
sVinns
p90
I3
sVno
p91
I1
sVsr
p92
V159.45
p93
sVm
I3
sV4s
p94
I2
sV6s
p95
I6
sVhs
p96
V42*
p97
sVr
V59
p98
sV100s
p99
I0
sV50s
p100
I0
ssg61
I2013
stp101
a(Vaus-eng-2013
(dp102
g24
(dp103
Vinns
p104
I1
sVc
I3
sVro
p105
I0
sVm
I1
sVs
I0
ssg28
(dp106
Vinns
p107
I1
sV10w
p108
I0
sVnb
p109
I0
sVmaid
p110
I0
sVwb
p111
I1
sVbbmw
p112
I1
sV6s
p113
I0
sVbbmr
p114
I18
sVbbir
p115
I18
sVbbiw
p116
I1
sVa
V18.00
p117
sVb
I18
sVe
V6.00
p118
sVd
I7
sVwmaid
p119
I0
sV4w
p120
I0
sVm
I1
sV4s
p121
I2
sVr
I18
sVw
I1
sVsr
p122
V18.00
p123
sVov
p124
V3.00
p125
sV5w
p126
I0
ssg48
(dp127
Va
V29.00
p128
sVb
I16
sVinns
p129
I1
sVno
p130
I0
sVsr
p131
V181.25
p132
sVm
I1
sV4s
p133
I1
sV6s
p134
I3
sVhs
p135
V29
p136
sVr
V29
p137
sV100s
p138
I0
sV50s
p139
I0
ssg61
I2013
stp140
a(Vbigbash-2013
(dp141
g24
(dp142
Vinns
p143
I3
sVc
I4
sVro
p144
I0
sVm
I8
sVs
I0
ssg28
(dp145
Vinns
p146
I8
sV10w
p147
I0
sVnb
p148
I0
sVmaid
p149
I0
sVwb
p150
I8
sVbbmw
p151
I3
sV6s
p152
I8
sVbbmr
p153
I31
sVbbir
p154
I31
sVbbiw
p155
I3
sVa
V33.42
p156
sVb
I149
sVe
V9.42
p157
sVd
I40
sVwmaid
p158
I0
sV4w
p159
I0
sVm
I8
sV4s
p160
I18
sVr
I234
sVw
I7
sVsr
p161
V21.28
p162
sVov
p163
V24.83
p164
sV5w
p165
I0
ssg48
(dp166
Va
V26.00
p167
sVb
I73
sVinns
p168
I7
sVno
p169
I2
sVsr
p170
V178.08
p171
sVm
I8
sV4s
p172
I3
sV6s
p173
I12
sVhs
p174
V40
p175
sVr
V130
p176
sV100s
p177
I0
sV50s
p178
I0
ssg61
I2013
stp179
a(Vaus-wi-2013
p180
(dp181
g24
(dp182
Vinns
p183
I1
sVc
I1
sVro
p184
I0
sVm
I2
sVs
I0
ssg28
(dp185
Vinns
p186
I2
sV10w
p187
I0
sVnb
p188
I0
sVmaid
p189
I1
sVwb
p190
I2
sVbbmw
p191
I3
sV6s
p192
I2
sVbbmr
p193
I45
sVbbir
p194
I45
sVbbiw
p195
I3
sVa
V24.50
p196
sVb
I120
sVe
V4.90
p197
sVd
I71
sVwmaid
p198
I0
sV4w
p199
I0
sVm
I2
sV4s
p200
I9
sVr
I98
sVw
I4
sVsr
p201
V30.00
p202
sVov
p203
V20.00
p204
sV5w
p205
I0
ssg48
(dp206
Va
V-
sVinns
p207
I0
sVno
p208
I0
sVsr
p209
V-
sVm
I2
sV4s
p210
I0
sV6s
p211
I0
sVhs
p212
V0*
p213
sVr
V0
sV100s
p214
I0
sV50s
p215
I0
ssg61
I2013
stp216
a(Vbigbash-2012
(dp217
g24
(dp218
Vinns
p219
I2
sVc
I2
sVro
p220
I0
sVm
I9
sVs
I0
ssg28
(dp221
Vinns
p222
I9
sV10w
p223
I0
sVnb
p224
I0
sVmaid
p225
I1
sVwb
p226
I3
sVbbmw
p227
I3
sV6s
p228
I8
sVbbmr
p229
I25
sVbbir
p230
I25
sVbbiw
p231
I3
sVa
V14.07
p232
sVb
I174
sVe
V6.31
p233
sVd
I77
sVwmaid
p234
I1
sV4w
p235
I0
sVm
I9
sV4s
p236
I13
sVr
I183
sVw
I13
sVsr
p237
V13.38
p238
sVov
p239
V29.00
p240
sV5w
p241
I0
ssg48
(dp242
Va
V23.00
p243
sVb
I52
sVinns
p244
I5
sVno
p245
I2
sVsr
p246
V132.69
p247
sVm
I9
sV4s
p248
I3
sV6s
p249
I3
sVhs
p250
V33*
p251
sVr
V69
p252
sV100s
p253
I0
sV50s
p254
I0
ssg61
I2012
stp255
a(Vaus-sl-2012
(dp256
g24
(dp257
Vinns
p258
I1
sVc
I1
sVro
p259
I0
sVm
I2
sVs
I0
ssg28
(dp260
Vinns
p261
I2
sV10w
p262
I0
sVnb
p263
I0
sVmaid
p264
I0
sVwb
p265
I1
sVbbmw
p266
I1
sV6s
p267
I1
sVbbmr
p268
I42
sVbbir
p269
I42
sVbbiw
p270
I1
sVa
V69.00
p271
sVb
I78
sVe
V5.30
p272
sVd
I40
sVwmaid
p273
I0
sV4w
p274
I0
sVm
I2
sV4s
p275
I5
sVr
I69
sVw
I1
sVsr
p276
V78.00
p277
sVov
p278
V13.00
p279
sV5w
p280
I0
ssg48
(dp281
Va
V27.00
p282
sVb
I45
sVinns
p283
I1
sVno
p284
I0
sVsr
p285
V60.00
p286
sVm
I2
sV4s
p287
I2
sV6s
p288
I0
sVhs
p289
V27
p290
sVr
V27
p291
sV100s
p292
I0
sV50s
p293
I0
ssg61
I2012
stp294
asb.