(iplayer
Player
p1
(dp2
S'is_batsman'
p3
I00
sS'name'
p4
S'Josh Hazlewood'
p5
sS'dob'
p6
S'1991/01/08'
p7
sS'price'
p8
S'800000'
p9
sS'is_allrounder'
p10
I00
sS'is_overseas'
p11
I01
sS'team'
p12
S'MI'
p13
sS'nationality'
p14
S'Australian'
p15
sS'is_bowler'
p16
I01
sS'is_keeper'
p17
I00
sS'id'
p18
S'857'
p19
sS'is_uncapped'
p20
I00
sS'tournamentStats'
p21
(lp22
(Vaus-wi-t20-2013
(dp23
S'fieldingStats'
p24
(dp25
Vinns
p26
I0
sVc
I0
sVro
p27
I0
sVm
I1
sVs
I0
ssS'bowlingStats'
p28
(dp29
Vinns
p30
I1
sV10w
p31
I0
sVnb
p32
I0
sVmaid
p33
I0
sVwb
p34
I0
sVbbmw
p35
I1
sV6s
p36
I1
sVbbmr
p37
I36
sVbbir
p38
I36
sVbbiw
p39
I1
sVa
V36.00
p40
sVb
I24
sVe
V9.00
p41
sVd
I5
sVwmaid
p42
I0
sV4w
p43
I0
sVm
I1
sV4s
p44
I3
sVr
I36
sVw
I1
sVsr
p45
V24.00
p46
sVov
p47
V4.00
p48
sV5w
p49
I0
ssS'battingStats'
p50
(dp51
Va
V-
sVinns
p52
I0
sVno
p53
I0
sVsr
p54
V-
sVm
I1
sV4s
p55
I0
sV6s
p56
I0
sVhs
p57
V0*
p58
sVr
V0
sV100s
p59
I0
sV50s
p60
I0
ssS'year'
p61
I2013
stp62
a(Vaus-eng-2013
(dp63
g24
(dp64
Vinns
p65
I0
sVc
I0
sVro
p66
I0
sVm
I2
sVs
I0
ssg28
(dp67
Vinns
p68
I2
sV10w
p69
I0
sVnb
p70
I0
sVmaid
p71
I0
sVwb
p72
I4
sVbbmw
p73
I4
sV6s
p74
I5
sVbbmr
p75
I30
sVbbir
p76
I30
sVbbiw
p77
I4
sVa
V19.00
p78
sVb
I48
sVe
V9.50
p79
sVd
I26
sVwmaid
p80
I0
sV4w
p81
I1
sVm
I2
sV4s
p82
I6
sVr
I76
sVw
I4
sVsr
p83
V12.00
p84
sVov
p85
V8.00
p86
sV5w
p87
I0
ssg50
(dp88
Va
V-
sVinns
p89
I0
sVno
p90
I0
sVsr
p91
V-
sVm
I2
sV4s
p92
I0
sV6s
p93
I0
sVhs
p94
V0*
p95
sVr
V0
sV100s
p96
I0
sV50s
p97
I0
ssg61
I2013
stp98
a(Vbigbash-2013
(dp99
g24
(dp100
Vinns
p101
I1
sVc
I1
sVro
p102
I0
sVm
I9
sVs
I0
ssg28
(dp103
Vinns
p104
I9
sV10w
p105
I0
sVnb
p106
I0
sVmaid
p107
I0
sVwb
p108
I12
sVbbmw
p109
I3
sV6s
p110
I8
sVbbmr
p111
I16
sVbbir
p112
I16
sVbbiw
p113
I3
sVa
V19.71
p114
sVb
I210
sVe
V7.88
p115
sVd
I77
sVwmaid
p116
I0
sV4w
p117
I0
sVm
I9
sV4s
p118
I25
sVr
I276
sVw
I14
sVsr
p119
V15.00
p120
sVov
p121
V35.00
p122
sV5w
p123
I0
ssg50
(dp124
Va
V-
sVb
I6
sVinns
p125
I2
sVno
p126
I2
sVsr
p127
V50.00
p128
sVm
I9
sV4s
p129
I0
sV6s
p130
I0
sVhs
p131
V2*
p132
sVr
V3
sV100s
p133
I0
sV50s
p134
I0
ssg61
I2013
stp135
a(Veng-aus-2013
p136
(dp137
g24
(dp138
Vinns
p139
I0
sVc
I0
sVro
p140
I0
sVm
I2
sVs
I0
ssg28
(dp141
Vinns
p142
I2
sV10w
p143
I0
sVnb
p144
I0
sVmaid
p145
I0
sVwb
p146
I1
sVbbmw
p147
I2
sV6s
p148
I2
sVbbmr
p149
I43
sVbbir
p150
I43
sVbbiw
p151
I2
sVa
V24.50
p152
sVb
I36
sVe
V8.16
p153
sVd
I18
sVwmaid
p154
I0
sV4w
p155
I0
sVm
I2
sV4s
p156
I6
sVr
I49
sVw
I2
sVsr
p157
V18.00
p158
sVov
p159
V6.00
p160
sV5w
p161
I0
ssg50
(dp162
Va
V-
sVinns
p163
I0
sVno
p164
I0
sVsr
p165
V-
sVm
I2
sV4s
p166
I0
sV6s
p167
I0
sVhs
p168
V0*
p169
sVr
V0
sV100s
p170
I0
sV50s
p171
I0
ssg61
I2013
stp172
a(Vclt20-2012
(dp173
g24
(dp174
Vinns
p175
I3
sVc
I3
sVro
p176
I0
sVm
I6
sVs
I0
ssg28
(dp177
Vinns
p178
I6
sV10w
p179
I0
sVnb
p180
I0
sVmaid
p181
I2
sVwb
p182
I2
sVbbmw
p183
I3
sV6s
p184
I4
sVbbmr
p185
I22
sVbbir
p186
I22
sVbbiw
p187
I3
sVa
V16.14
p188
sVb
I144
sVe
V4.70
p189
sVd
I84
sVwmaid
p190
I2
sV4w
p191
I0
sVm
I6
sV4s
p192
I7
sVr
I113
sVw
I7
sVsr
p193
V20.57
p194
sVov
p195
V24.00
p196
sV5w
p197
I0
ssg50
(dp198
Va
V-
sVinns
p199
I0
sVno
p200
I0
sVsr
p201
V-
sVm
I6
sV4s
p202
I0
sV6s
p203
I0
sVhs
p204
V0*
p205
sVr
V0
sV100s
p206
I0
sV50s
p207
I0
ssg61
I2012
stp208
a(Vbigbash-2012
(dp209
g24
(dp210
Vinns
p211
I0
sVc
I0
sVro
p212
I0
sVm
I2
sVs
I0
ssg28
(dp213
Vinns
p214
I2
sV10w
p215
I0
sVnb
p216
I0
sVmaid
p217
I0
sVwb
p218
I0
sVbbmw
p219
I3
sV6s
p220
I3
sVbbmr
p221
I32
sVbbir
p222
I32
sVbbiw
p223
I3
sVa
V19.00
p224
sVb
I48
sVe
V9.50
p225
sVd
I12
sVwmaid
p226
I0
sV4w
p227
I0
sVm
I2
sV4s
p228
I5
sVr
I76
sVw
I4
sVsr
p229
V12.00
p230
sVov
p231
V8.00
p232
sV5w
p233
I0
ssg50
(dp234
Va
V0.00
p235
sVb
I1
sVinns
p236
I1
sVno
p237
I0
sVsr
p238
V0.00
p239
sVm
I2
sV4s
p240
I0
sV6s
p241
I0
sVhs
p242
V0*
p243
sVr
V0
sV100s
p244
I0
sV50s
p245
I0
ssg61
I2012
stp246
a(Vaus-sl-2012
(dp247
g24
(dp248
Vinns
p249
I0
sVc
I0
sVro
p250
I0
sVm
I1
sVs
I0
ssg28
(dp251
Vinns
p252
I0
sV10w
p253
I0
sVnb
p254
I0
sVmaid
p255
I0
sVwb
p256
I0
sVbbmw
p257
I0
sV6s
p258
I0
sVbbmr
p259
I0
sVbbir
p260
I0
sVbbiw
p261
I0
sVa
V-
sVb
I0
sVe
V-
sVd
I0
sVwmaid
p262
I0
sV4w
p263
I0
sVm
I1
sV4s
p264
I0
sVr
I0
sVw
I0
sVsr
p265
V-
sVov
p266
V-
sV5w
p267
I0
ssg50
(dp268
Va
V-
sVinns
p269
I0
sVno
p270
I0
sVsr
p271
V-
sVm
I1
sV4s
p272
I0
sV6s
p273
I0
sVhs
p274
V0*
p275
sVr
V0
sV100s
p276
I0
sV50s
p277
I0
ssg61
I2012
stp278
asb.