(iplayer
Player
p1
(dp2
S'is_batsman'
p3
I00
sS'name'
p4
S'Dishant Yagnik'
p5
sS'dob'
p6
S'1983/06/22'
p7
sS'price'
p8
S'700000'
p9
sS'is_allrounder'
p10
I00
sS'is_overseas'
p11
I00
sS'team'
p12
S'RR'
p13
sS'nationality'
p14
S'Indian'
p15
sS'is_bowler'
p16
I00
sS'is_keeper'
p17
I01
sS'id'
p18
S'141'
p19
sS'is_uncapped'
p20
I01
sS'tournamentStats'
p21
(lp22
(Vipl2013
(dp23
S'fieldingStats'
p24
(dp25
Vinns
p26
I6
sVc
I6
sVro
p27
I1
sVm
I12
sVs
I1
ssS'bowlingStats'
p28
(dp29
Vinns
p30
I0
sV10w
p31
I0
sVnb
p32
I0
sVmaid
p33
I0
sVwb
p34
I0
sVbbmw
p35
I0
sV6s
p36
I0
sVbbmr
p37
I0
sVbbir
p38
I0
sVbbiw
p39
I0
sVa
V-
sVb
I0
sVe
V-
sVd
I0
sVwmaid
p40
I0
sV4w
p41
I0
sVm
I12
sV4s
p42
I0
sVr
I0
sVw
I0
sVsr
p43
V-
sVov
p44
V-
sV5w
p45
I0
ssS'battingStats'
p46
(dp47
Va
V15.62
p48
sVb
I96
sVinns
p49
I9
sVno
p50
I1
sVsr
p51
V130.20
p52
sVm
I12
sV4s
p53
I17
sV6s
p54
I2
sVhs
p55
V34
p56
sVr
V125
p57
sV100s
p58
I0
sV50s
p59
I0
ssS'year'
p60
I2013
stp61
a(Vclt20-2013
(dp62
g24
(dp63
Vinns
p64
I1
sVc
I1
sVro
p65
I0
sVm
I2
sVs
I1
ssg28
(dp66
Vinns
p67
I0
sV10w
p68
I0
sVnb
p69
I0
sVmaid
p70
I0
sVwb
p71
I0
sVbbmw
p72
I0
sV6s
p73
I0
sVbbmr
p74
I0
sVbbir
p75
I0
sVbbiw
p76
I0
sVa
V-
sVb
I0
sVe
V-
sVd
I0
sVwmaid
p77
I0
sV4w
p78
I0
sVm
I2
sV4s
p79
I0
sVr
I0
sVw
I0
sVsr
p80
V-
sVov
p81
V-
sV5w
p82
I0
ssg46
(dp83
Va
V3.00
p84
sVb
I6
sVinns
p85
I2
sVno
p86
I0
sVsr
p87
V100.00
p88
sVm
I2
sV4s
p89
I1
sV6s
p90
I0
sVhs
p91
V6
sVr
V6
sV100s
p92
I0
sV50s
p93
I0
ssg60
I2013
stp94
a(Vipl2012
(dp95
g24
(dp96
Vinns
p97
I2
sVc
I2
sVro
p98
I0
sVm
I5
sVs
I0
ssg28
(dp99
Vinns
p100
I0
sV10w
p101
I0
sVnb
p102
I0
sVmaid
p103
I0
sVwb
p104
I0
sVbbmw
p105
I0
sV6s
p106
I0
sVbbmr
p107
I0
sVbbir
p108
I0
sVbbiw
p109
I0
sVa
V-
sVb
I0
sVe
V-
sVd
I0
sVwmaid
p110
I0
sV4w
p111
I0
sVm
I5
sV4s
p112
I0
sVr
I0
sVw
I0
sVsr
p113
V-
sVov
p114
V-
sV5w
p115
I0
ssg46
(dp116
Va
V25.00
p117
sVb
I13
sVinns
p118
I3
sVno
p119
I2
sVsr
p120
V192.30
p121
sVm
I5
sV4s
p122
I5
sV6s
p123
I0
sVhs
p124
V10*
p125
sVr
V25
p126
sV100s
p127
I0
sV50s
p128
I0
ssg60
I2012
stp129
a(Vipl2011
p130
(dp131
g24
(dp132
Vinns
p133
I4
sVc
I3
sVro
p134
I1
sVm
I7
sVs
I4
ssg28
(dp135
Vinns
p136
I0
sV10w
p137
I0
sVnb
p138
I0
sVmaid
p139
I0
sVwb
p140
I0
sVbbmw
p141
I0
sV6s
p142
I0
sVbbmr
p143
I0
sVbbir
p144
I0
sVbbiw
p145
I0
sVa
V-
sVb
I0
sVe
V-
sVd
I0
sVwmaid
p146
I0
sV4w
p147
I0
sVm
I7
sV4s
p148
I0
sVr
I0
sVw
I0
sVsr
p149
V-
sVov
p150
V-
sV5w
p151
I0
ssg46
(dp152
Va
V16.00
p153
sVb
I22
sVinns
p154
I4
sVno
p155
I3
sVsr
p156
V72.72
p157
sVm
I7
sV4s
p158
I1
sV6s
p159
I0
sVhs
p160
V10*
p161
sVr
V16
p162
sV100s
p163
I0
sV50s
p164
I0
ssg60
I2011
stp165
asb.