(iplayer
Player
p1
(dp2
S'is_batsman'
p3
I01
sS'name'
p4
S'Mithun Manhas'
p5
sS'dob'
p6
S'1979/10/12'
p7
sS'price'
p8
S'750000'
p9
sS'is_allrounder'
p10
I00
sS'is_overseas'
p11
I00
sS'team'
p12
S'CSK'
p13
sS'nationality'
p14
S'Indian'
p15
sS'is_bowler'
p16
I00
sS'is_keeper'
p17
I00
sS'id'
p18
S'124'
p19
sS'is_uncapped'
p20
I01
sS'tournamentStats'
p21
(lp22
(Vipl2013
p23
(dp24
S'fieldingStats'
p25
(dp26
Vinns
p27
I2
sVc
I2
sVro
p28
I0
sVm
I3
sVs
I0
ssS'bowlingStats'
p29
(dp30
Vinns
p31
I0
sV10w
p32
I0
sVnb
p33
I0
sVmaid
p34
I0
sVwb
p35
I0
sVbbmw
p36
I0
sV6s
p37
I0
sVbbmr
p38
I0
sVbbir
p39
I0
sVbbiw
p40
I0
sVa
V-
sVb
I0
sVe
V-
sVd
I0
sVwmaid
p41
I0
sV4w
p42
I0
sVm
I3
sV4s
p43
I0
sVr
I0
sVw
I0
sVsr
p44
V-
sVov
p45
V-
sV5w
p46
I0
ssS'battingStats'
p47
(dp48
Va
V-
sVb
I17
sVinns
p49
I2
sVno
p50
I2
sVsr
p51
V76.47
p52
sVm
I3
sV4s
p53
I1
sV6s
p54
I0
sVhs
p55
V11*
p56
sVr
V13
p57
sV100s
p58
I0
sV50s
p59
I0
ssS'year'
p60
I2013
stp61
a(Vipl2012
(dp62
g25
(dp63
Vinns
p64
I4
sVc
I4
sVro
p65
I0
sVm
I10
sVs
I0
ssg29
(dp66
Vinns
p67
I0
sV10w
p68
I0
sVnb
p69
I0
sVmaid
p70
I0
sVwb
p71
I0
sVbbmw
p72
I0
sV6s
p73
I0
sVbbmr
p74
I0
sVbbir
p75
I0
sVbbiw
p76
I0
sVa
V-
sVb
I0
sVe
V-
sVd
I0
sVwmaid
p77
I0
sV4w
p78
I0
sVm
I10
sV4s
p79
I0
sVr
I0
sVw
I0
sVsr
p80
V-
sVov
p81
V-
sV5w
p82
I0
ssg47
(dp83
Va
V30.00
p84
sVb
I96
sVinns
p85
I7
sVno
p86
I3
sVsr
p87
V125.00
p88
sVm
I10
sV4s
p89
I10
sV6s
p90
I4
sVhs
p91
V42*
p92
sVr
V120
p93
sV100s
p94
I0
sV50s
p95
I0
ssg60
I2012
stp96
a(Vipl2011
(dp97
g25
(dp98
Vinns
p99
I3
sVc
I3
sVro
p100
I0
sVm
I10
sVs
I0
ssg29
(dp101
Vinns
p102
I3
sV10w
p103
I0
sVnb
p104
I0
sVmaid
p105
I0
sVwb
p106
I0
sVbbmw
p107
I0
sV6s
p108
I1
sVbbmr
p109
I0
sVbbir
p110
I0
sVbbiw
p111
I0
sVa
V-
sVb
I42
sVe
V6.00
p112
sVd
I15
sVwmaid
p113
I0
sV4w
p114
I0
sVm
I10
sV4s
p115
I2
sVr
I42
sVw
I0
sVsr
p116
V-
sVov
p117
V7.00
p118
sV5w
p119
I0
ssg47
(dp120
Va
V11.40
p121
sVb
I123
sVinns
p122
I10
sVno
p123
I0
sVsr
p124
V92.68
p125
sVm
I10
sV4s
p126
I8
sV6s
p127
I4
sVhs
p128
V35
p129
sVr
V114
p130
sV100s
p131
I0
sV50s
p132
I0
ssg60
I2011
stp133
a(Vipl2010
(dp134
g25
(dp135
Vinns
p136
I4
sVc
I5
sVro
p137
I2
sVm
I9
sVs
I0
ssg29
(dp138
Vinns
p139
I0
sV10w
p140
I0
sVnb
p141
I0
sVmaid
p142
I0
sVwb
p143
I0
sVbbmw
p144
I0
sV6s
p145
I0
sVbbmr
p146
I0
sVbbir
p147
I0
sVbbiw
p148
I0
sVa
V-
sVb
I0
sVe
V-
sVd
I0
sVwmaid
p149
I0
sV4w
p150
I0
sVm
I9
sV4s
p151
I0
sVr
I0
sVw
I0
sVsr
p152
V-
sVov
p153
V-
sV5w
p154
I0
ssg47
(dp155
Va
V39.25
p156
sVb
I149
sVinns
p157
I8
sVno
p158
I4
sVsr
p159
V105.36
p160
sVm
I9
sV4s
p161
I14
sV6s
p162
I0
sVhs
p163
V32*
p164
sVr
V157
p165
sV100s
p166
I0
sV50s
p167
I0
ssg60
I2010
stp168
a(Vclt20-2009
(dp169
g25
(dp170
Vinns
p171
I0
sVc
I0
sVro
p172
I0
sVm
I1
sVs
I0
ssg29
(dp173
Vinns
p174
I0
sV10w
p175
I0
sVnb
p176
I0
sVmaid
p177
I0
sVwb
p178
I0
sVbbmw
p179
I0
sV6s
p180
I0
sVbbmr
p181
I0
sVbbir
p182
I0
sVbbiw
p183
I0
sVa
V-
sVb
I0
sVe
V-
sVd
I0
sVwmaid
p184
I0
sV4w
p185
I0
sVm
I1
sV4s
p186
I0
sVr
I0
sVw
I0
sVsr
p187
V-
sVov
p188
V-
sV5w
p189
I0
ssg47
(dp190
Va
V25.00
p191
sVb
I34
sVinns
p192
I1
sVno
p193
I0
sVsr
p194
V73.52
p195
sVm
I1
sV4s
p196
I2
sV6s
p197
I0
sVhs
p198
V25
p199
sVr
V25
p200
sV100s
p201
I0
sV50s
p202
I0
ssg60
I2009
stp203
a(Vipl2009
(dp204
g25
(dp205
Vinns
p206
I2
sVc
I2
sVro
p207
I0
sVm
I10
sVs
I0
ssg29
(dp208
Vinns
p209
I0
sV10w
p210
I0
sVnb
p211
I0
sVmaid
p212
I0
sVwb
p213
I0
sVbbmw
p214
I0
sV6s
p215
I0
sVbbmr
p216
I0
sVbbir
p217
I0
sVbbiw
p218
I0
sVa
V-
sVb
I0
sVe
V-
sVd
I0
sVwmaid
p219
I0
sV4w
p220
I0
sVm
I10
sV4s
p221
I0
sVr
I0
sVw
I0
sVsr
p222
V-
sVov
p223
V-
sV5w
p224
I0
ssg47
(dp225
Va
V25.00
p226
sVb
I62
sVinns
p227
I6
sVno
p228
I3
sVsr
p229
V120.96
p230
sVm
I10
sV4s
p231
I7
sV6s
p232
I1
sVhs
p233
V26
p234
sVr
V75
p235
sV100s
p236
I0
sV50s
p237
I0
ssg60
I2009
stp238
a(Vipl2008
(dp239
g25
(dp240
Vinns
p241
I1
sVc
I1
sVro
p242
I1
sVm
I1
sVs
I0
ssg29
(dp243
Vinns
p244
I0
sV10w
p245
I0
sVnb
p246
I0
sVmaid
p247
I0
sVwb
p248
I0
sVbbmw
p249
I0
sV6s
p250
I0
sVbbmr
p251
I0
sVbbir
p252
I0
sVbbiw
p253
I0
sVa
V-
sVb
I0
sVe
V-
sVd
I0
sVwmaid
p254
I0
sV4w
p255
I0
sVm
I1
sV4s
p256
I0
sVr
I0
sVw
I0
sVsr
p257
V-
sVov
p258
V-
sV5w
p259
I0
ssg47
(dp260
Va
V-
sVinns
p261
I0
sVno
p262
I0
sVsr
p263
V-
sVm
I1
sV4s
p264
I0
sV6s
p265
I0
sVhs
p266
V0*
p267
sVr
V0
sV100s
p268
I0
sV50s
p269
I0
ssg60
I2008
stp270
asb.