(iplayer
Player
p1
(dp2
S'is_batsman'
p3
I01
sS'name'
p4
S'Corey Anderson'
p5
sS'dob'
p6
S'1990/12/13'
p7
sS'price'
p8
S'850000'
p9
sS'is_allrounder'
p10
I01
sS'is_overseas'
p11
I01
sS'team'
p12
S'MI'
p13
sS'nationality'
p14
S'New Zealander'
p15
sS'is_bowler'
p16
I00
sS'is_keeper'
p17
I00
sS'id'
p18
S'968'
p19
sS'is_uncapped'
p20
I00
sS'tournamentStats'
p21
(lp22
(Vnz-ind-2014
(dp23
S'fieldingStats'
p24
(dp25
Vinns
p26
I1
sVc
I1
sVro
p27
I0
sVm
I5
sVs
I0
ssS'bowlingStats'
p28
(dp29
Vinns
p30
I7
sV10w
p31
I0
sVnb
p32
I0
sVmaid
p33
I5
sVwb
p34
I17
sVbbmw
p35
I5
sV6s
p36
I5
sVbbmr
p37
I63
sVbbir
p38
I63
sVbbiw
p39
I5
sVa
V30.40
p40
sVb
I357
sVe
V5.10
p41
sVd
I219
sVwmaid
p42
I1
sV4w
p43
I0
sVm
I5
sV4s
p44
I34
sVr
I304
sVw
I10
sVsr
p45
V35.70
p46
sVov
p47
V59.50
p48
sV5w
p49
I1
ssS'battingStats'
p50
(dp51
Va
V37.50
p52
sVb
I239
sVinns
p53
I7
sVno
p54
I1
sVsr
p55
V94.14
p56
sVm
I5
sV4s
p57
I21
sV6s
p58
I12
sVhs
p59
V77
p60
sVr
V225
p61
sV100s
p62
I0
sV50s
p63
I2
ssS'year'
p64
I2014
stp65
a(Vworldt20-2014
(dp66
g24
(dp67
Vinns
p68
I2
sVc
I4
sVro
p69
I0
sVm
I2
sVs
I0
ssg28
(dp70
Vinns
p71
I2
sV10w
p72
I0
sVnb
p73
I0
sVmaid
p74
I0
sVwb
p75
I1
sVbbmw
p76
I2
sV6s
p77
I3
sVbbmr
p78
I28
sVbbir
p79
I28
sVbbiw
p80
I2
sVa
V15.00
p81
sVb
I42
sVe
V8.57
p82
sVd
I12
sVwmaid
p83
I0
sV4w
p84
I0
sVm
I2
sV4s
p85
I3
sVr
I60
sVw
I4
sVsr
p86
V10.50
p87
sVov
p88
V7.00
p89
sV5w
p90
I0
ssg50
(dp91
Va
V7.00
p92
sVb
I4
sVinns
p93
I1
sVno
p94
I0
sVsr
p95
V175.00
p96
sVm
I2
sV4s
p97
I1
sV6s
p98
I0
sVhs
p99
V7
sVr
V7
sV100s
p100
I0
sV50s
p101
I0
ssg64
I2014
stp102
a(Veng-nz-2013
(dp103
g24
(dp104
Vinns
p105
I0
sVc
I0
sVro
p106
I0
sVm
I1
sVs
I0
ssg28
(dp107
Vinns
p108
I1
sV10w
p109
I0
sVnb
p110
I0
sVmaid
p111
I0
sVwb
p112
I1
sVbbmw
p113
I0
sV6s
p114
I2
sVbbmr
p115
I40
sVbbir
p116
I40
sVbbiw
p117
I0
sVa
V-
sVb
I24
sVe
V10.00
p118
sVd
I6
sVwmaid
p119
I0
sV4w
p120
I0
sVm
I1
sV4s
p121
I3
sVr
I40
sVw
I0
sVsr
p122
V-
sVov
p123
V4.00
p124
sV5w
p125
I0
ssg50
(dp126
Va
V-
sVinns
p127
I0
sVno
p128
I0
sVsr
p129
V-
sVm
I1
sV4s
p130
I0
sV6s
p131
I0
sVhs
p132
V0*
p133
sVr
V0
sV100s
p134
I0
sV50s
p135
I0
ssg64
I2013
stp136
a(Vban-nz-2013
(dp137
g24
(dp138
Vinns
p139
I3
sVc
I2
sVro
p140
I1
sVm
I6
sVs
I0
ssg28
(dp141
Vinns
p142
I8
sV10w
p143
I0
sVnb
p144
I0
sVmaid
p145
I13
sVwb
p146
I5
sVbbmw
p147
I4
sV6s
p148
I0
sVbbmr
p149
I40
sVbbir
p150
I40
sVbbiw
p151
I4
sVa
V19.08
p152
sVb
I377
sVe
V3.64
p153
sVd
I230
sVwmaid
p154
I1
sV4w
p155
I1
sVm
I6
sV4s
p156
I23
sVr
I229
sVw
I12
sVsr
p157
V31.41
p158
sVov
p159
V62.83
p160
sV5w
p161
I0
ssg50
(dp162
Va
V32.42
p163
sVb
I265
sVinns
p164
I7
sVno
p165
I0
sVsr
p166
V85.66
p167
sVm
I6
sV4s
p168
I22
sV6s
p169
I10
sVhs
p170
V116
p171
sVr
V227
p172
sV100s
p173
I1
sV50s
p174
I0
ssg64
I2013
stp175
a(Vsl-nz-2013
(dp176
g24
(dp177
Vinns
p178
I0
sVc
I0
sVro
p179
I0
sVm
I1
sVs
I0
ssg28
(dp180
Vinns
p181
I1
sV10w
p182
I0
sVnb
p183
I0
sVmaid
p184
I0
sVwb
p185
I1
sVbbmw
p186
I1
sV6s
p187
I0
sVbbmr
p188
I32
sVbbir
p189
I32
sVbbiw
p190
I1
sVa
V32.00
p191
sVb
I24
sVe
V8.00
p192
sVd
I10
sVwmaid
p193
I0
sV4w
p194
I0
sVm
I1
sV4s
p195
I6
sVr
I32
sVw
I1
sVsr
p196
V24.00
p197
sVov
p198
V4.00
p199
sV5w
p200
I0
ssg50
(dp201
Va
V-
sVinns
p202
I0
sVno
p203
I0
sVsr
p204
V-
sVm
I1
sV4s
p205
I0
sV6s
p206
I0
sVhs
p207
V0*
p208
sVr
V0
sV100s
p209
I0
sV50s
p210
I0
ssg64
I2013
stp211
a(Vchamptrophy-2013
(dp212
g24
(dp213
Vinns
p214
I0
sVc
I0
sVro
p215
I0
sVm
I1
sVs
I0
ssg28
(dp216
Vinns
p217
I1
sV10w
p218
I0
sVnb
p219
I0
sVmaid
p220
I0
sVwb
p221
I0
sVbbmw
p222
I0
sV6s
p223
I0
sVbbmr
p224
I4
sVbbir
p225
I4
sVbbiw
p226
I0
sVa
V-
sVb
I6
sVe
V4.00
p227
sVd
I4
sVwmaid
p228
I0
sV4w
p229
I0
sVm
I1
sV4s
p230
I0
sVr
I4
sVw
I0
sVsr
p231
V-
sVov
p232
V1.00
p233
sV5w
p234
I0
ssg50
(dp235
Va
V30.00
p236
sVb
I24
sVinns
p237
I1
sVno
p238
I0
sVsr
p239
V125.00
p240
sVm
I1
sV4s
p241
I2
sV6s
p242
I1
sVhs
p243
V30
p244
sVr
V30
p245
sV100s
p246
I0
sV50s
p247
I0
ssg64
I2013
stp248
a(Vnz-wi-2013
(dp249
g24
(dp250
Vinns
p251
I2
sVc
I2
sVro
p252
I0
sVm
I9
sVs
I0
ssg28
(dp253
Vinns
p254
I10
sV10w
p255
I0
sVnb
p256
I0
sVmaid
p257
I8
sVwb
p258
I13
sVbbmw
p259
I4
sV6s
p260
I6
sVbbmr
p261
I69
sVbbir
p262
I47
sVbbiw
p263
I3
sVa
V35.33
p264
sVb
I486
sVe
V3.92
p265
sVd
I314
sVwmaid
p266
I3
sV4w
p267
I0
sVm
I9
sV4s
p268
I28
sVr
I318
sVw
I9
sVsr
p269
V54.00
p270
sVov
p271
V81.00
p272
sV5w
p273
I0
ssg50
(dp274
Va
V41.85
p275
sVb
I305
sVinns
p276
I10
sVno
p277
I3
sVsr
p278
V96.06
p279
sVm
I9
sV4s
p280
I28
sV6s
p281
I17
sVhs
p282
V131*
p283
sVr
V293
p284
sV100s
p285
I1
sV50s
p286
I0
ssg64
I2013
stp287
a(Vsa-nz-2012
p288
(dp289
g24
(dp290
Vinns
p291
I2
sVc
I5
sVro
p292
I0
sVm
I3
sVs
I0
ssg28
(dp293
Vinns
p294
I2
sV10w
p295
I0
sVnb
p296
I0
sVmaid
p297
I0
sVwb
p298
I0
sVbbmw
p299
I0
sV6s
p300
I0
sVbbmr
p301
I0
sVbbir
p302
I0
sVbbiw
p303
I0
sVa
V-
sVb
I18
sVe
V10.66
p304
sVd
I6
sVwmaid
p305
I0
sV4w
p306
I0
sVm
I3
sV4s
p307
I6
sVr
I32
sVw
I0
sVsr
p308
V-
sVov
p309
V3.00
p310
sV5w
p311
I0
ssg50
(dp312
Va
V8.50
p313
sVb
I14
sVinns
p314
I2
sVno
p315
I0
sVsr
p316
V121.42
p317
sVm
I3
sV4s
p318
I2
sV6s
p319
I0
sVhs
p320
V12
p321
sVr
V17
p322
sV100s
p323
I0
sV50s
p324
I0
ssg64
I2012
stp325
asb.