(iplayer
Player
p1
(dp2
S'is_batsman'
p3
I01
sS'name'
p4
S'Brendon McCullum'
p5
sS'dob'
p6
S'1981/09/27'
p7
sS'price'
p8
S'1000000'
p9
sS'is_allrounder'
p10
I00
sS'is_overseas'
p11
I01
sS'team'
p12
S'CSK'
p13
sS'nationality'
p14
S'New Zealander'
p15
sS'is_bowler'
p16
I00
sS'is_keeper'
p17
I01
sS'id'
p18
S'202'
p19
sS'is_uncapped'
p20
I00
sS'tournamentStats'
p21
(lp22
(Vnz-ind-2014
(dp23
S'fieldingStats'
p24
(dp25
Vinns
p26
I0
sVc
I0
sVro
p27
I0
sVm
I7
sVs
I0
ssS'bowlingStats'
p28
(dp29
Vinns
p30
I0
sV10w
p31
I0
sVnb
p32
I0
sVmaid
p33
I0
sVwb
p34
I0
sVbbmw
p35
I0
sV6s
p36
I0
sVbbmr
p37
I0
sVbbir
p38
I0
sVbbiw
p39
I0
sVa
V-
sVb
I0
sVe
V-
sVd
I0
sVwmaid
p40
I0
sV4w
p41
I0
sVm
I7
sV4s
p42
I0
sVr
I0
sVw
I0
sVsr
p43
V-
sVov
p44
V-
sV5w
p45
I0
ssS'battingStats'
p46
(dp47
Va
V79.62
p48
sVb
I970
sVinns
p49
I9
sVno
p50
I1
sVsr
p51
V65.67
p52
sVm
I7
sV4s
p53
I71
sV6s
p54
I13
sVhs
p55
V302
p56
sVr
V637
p57
sV100s
p58
I2
sV50s
p59
I0
ssS'year'
p60
I2014
stp61
a(Vworldt20-2014
(dp62
g24
(dp63
Vinns
p64
I1
sVc
I1
sVro
p65
I0
sVm
I2
sVs
I0
ssg28
(dp66
Vinns
p67
I0
sV10w
p68
I0
sVnb
p69
I0
sVmaid
p70
I0
sVwb
p71
I0
sVbbmw
p72
I0
sV6s
p73
I0
sVbbmr
p74
I0
sVbbir
p75
I0
sVbbiw
p76
I0
sVa
V-
sVb
I0
sVe
V-
sVd
I0
sVwmaid
p77
I0
sV4w
p78
I0
sVm
I2
sV4s
p79
I0
sVr
I0
sVw
I0
sVsr
p80
V-
sVov
p81
V-
sV5w
p82
I0
ssg46
(dp83
Va
V20.00
p84
sVb
I10
sVinns
p85
I2
sVno
p86
I1
sVsr
p87
V200.00
p88
sVm
I2
sV4s
p89
I1
sV6s
p90
I2
sVhs
p91
V16*
p92
sVr
V20
p93
sV100s
p94
I0
sV50s
p95
I0
ssg60
I2014
stp96
a(Vnz-wi-2013
(dp97
g24
(dp98
Vinns
p99
I3
sVc
I2
sVro
p100
I1
sVm
I9
sVs
I0
ssg28
(dp101
Vinns
p102
I0
sV10w
p103
I0
sVnb
p104
I0
sVmaid
p105
I0
sVwb
p106
I0
sVbbmw
p107
I0
sV6s
p108
I0
sVbbmr
p109
I0
sVbbir
p110
I0
sVbbiw
p111
I0
sVa
V-
sVb
I0
sVe
V-
sVd
I0
sVwmaid
p112
I0
sV4w
p113
I0
sVm
I9
sV4s
p114
I0
sVr
I0
sVw
I0
sVsr
p115
V-
sVov
p116
V-
sV5w
p117
I0
ssg46
(dp118
Va
V39.11
p119
sVb
I401
sVinns
p120
I10
sVno
p121
I1
sVsr
p122
V87.78
p123
sVm
I9
sV4s
p124
I35
sV6s
p125
I13
sVhs
p126
V113
p127
sVr
V352
p128
sV100s
p129
I1
sV50s
p130
I2
ssg60
I2013
stp131
a(Vban-nz-2013
(dp132
g24
(dp133
Vinns
p134
I2
sVc
I5
sVro
p135
I0
sVm
I4
sVs
I0
ssg28
(dp136
Vinns
p137
I0
sV10w
p138
I0
sVnb
p139
I0
sVmaid
p140
I0
sVwb
p141
I0
sVbbmw
p142
I0
sV6s
p143
I0
sVbbmr
p144
I0
sVbbir
p145
I0
sVbbiw
p146
I0
sVa
V-
sVb
I0
sVe
V-
sVd
I0
sVwmaid
p147
I0
sV4w
p148
I0
sVm
I4
sV4s
p149
I0
sVr
I0
sVw
I0
sVsr
p150
V-
sVov
p151
V-
sV5w
p152
I0
ssg46
(dp153
Va
V13.60
p154
sVb
I93
sVinns
p155
I5
sVno
p156
I0
sVsr
p157
V73.11
p158
sVm
I4
sV4s
p159
I7
sV6s
p160
I1
sVhs
p161
V22
p162
sVr
V68
p163
sV100s
p164
I0
sV50s
p165
I0
ssg60
I2013
stp166
a(Vclt20-2013
(dp167
g24
(dp168
Vinns
p169
I3
sVc
I4
sVro
p170
I0
sVm
I6
sVs
I0
ssg28
(dp171
Vinns
p172
I0
sV10w
p173
I0
sVnb
p174
I0
sVmaid
p175
I0
sVwb
p176
I0
sVbbmw
p177
I0
sV6s
p178
I0
sVbbmr
p179
I0
sVbbir
p180
I0
sVbbiw
p181
I0
sVa
V-
sVb
I0
sVe
V-
sVd
I0
sVwmaid
p182
I0
sV4w
p183
I0
sVm
I6
sV4s
p184
I0
sVr
I0
sVw
I0
sVsr
p185
V-
sVov
p186
V-
sV5w
p187
I0
ssg46
(dp188
Va
V40.75
p189
sVb
I128
sVinns
p190
I6
sVno
p191
I2
sVsr
p192
V127.34
p193
sVm
I6
sV4s
p194
I16
sV6s
p195
I7
sVhs
p196
V83*
p197
sVr
V163
p198
sV100s
p199
I0
sV50s
p200
I2
ssg60
I2013
stp201
a(Veng-nz-2013
(dp202
g24
(dp203
Vinns
p204
I3
sVc
I7
sVro
p205
I0
sVm
I6
sVs
I0
ssg28
(dp206
Vinns
p207
I0
sV10w
p208
I0
sVnb
p209
I0
sVmaid
p210
I0
sVwb
p211
I0
sVbbmw
p212
I0
sV6s
p213
I0
sVbbmr
p214
I0
sVbbir
p215
I0
sVbbiw
p216
I0
sVa
V-
sVb
I0
sVe
V-
sVd
I0
sVwmaid
p217
I0
sV4w
p218
I0
sVm
I6
sV4s
p219
I0
sVr
I0
sVw
I0
sVsr
p220
V-
sVov
p221
V-
sV5w
p222
I0
ssg46
(dp223
Va
V21.42
p224
sVb
I167
sVinns
p225
I8
sVno
p226
I1
sVsr
p227
V89.82
p228
sVm
I6
sV4s
p229
I15
sV6s
p230
I4
sVhs
p231
V68
p232
sVr
V150
p233
sV100s
p234
I0
sV50s
p235
I1
ssg60
I2013
stp236
a(Vchamptrophy-2013
(dp237
g24
(dp238
Vinns
p239
I3
sVc
I4
sVro
p240
I0
sVm
I3
sVs
I0
ssg28
(dp241
Vinns
p242
I0
sV10w
p243
I0
sVnb
p244
I0
sVmaid
p245
I0
sVwb
p246
I0
sVbbmw
p247
I0
sV6s
p248
I0
sVbbmr
p249
I0
sVbbir
p250
I0
sVbbiw
p251
I0
sVa
V-
sVb
I0
sVe
V-
sVd
I0
sVwmaid
p252
I0
sV4w
p253
I0
sVm
I3
sV4s
p254
I0
sVr
I0
sVw
I0
sVsr
p255
V-
sVov
p256
V-
sV5w
p257
I0
ssg46
(dp258
Va
V13.00
p259
sVb
I66
sVinns
p260
I2
sVno
p261
I0
sVsr
p262
V39.39
p263
sVm
I3
sV4s
p264
I1
sV6s
p265
I0
sVhs
p266
V18
p267
sVr
V26
p268
sV100s
p269
I0
sV50s
p270
I0
ssg60
I2013
stp271
a(Vipl2013
(dp272
g24
(dp273
Vinns
p274
I0
sVc
I0
sVro
p275
I0
sVm
I1
sVs
I0
ssg28
(dp276
Vinns
p277
I0
sV10w
p278
I0
sVnb
p279
I0
sVmaid
p280
I0
sVwb
p281
I0
sVbbmw
p282
I0
sV6s
p283
I0
sVbbmr
p284
I0
sVbbir
p285
I0
sVbbiw
p286
I0
sVa
V-
sVb
I0
sVe
V-
sVd
I0
sVwmaid
p287
I0
sV4w
p288
I0
sVm
I1
sV4s
p289
I0
sVr
I0
sVw
I0
sVsr
p290
V-
sVov
p291
V-
sV5w
p292
I0
ssg46
(dp293
Va
V6.00
p294
sVb
I7
sVinns
p295
I1
sVno
p296
I0
sVsr
p297
V85.71
p298
sVm
I1
sV4s
p299
I1
sV6s
p300
I0
sVhs
p301
V6
sVr
V6
sV100s
p302
I0
sV50s
p303
I0
ssg60
I2013
stp304
a(Vipl2012
(dp305
g24
(dp306
Vinns
p307
I9
sVc
I9
sVro
p308
I2
sVm
I12
sVs
I7
ssg28
(dp309
Vinns
p310
I0
sV10w
p311
I0
sVnb
p312
I0
sVmaid
p313
I0
sVwb
p314
I0
sVbbmw
p315
I0
sV6s
p316
I0
sVbbmr
p317
I0
sVbbir
p318
I0
sVbbiw
p319
I0
sVa
V-
sVb
I0
sVe
V-
sVd
I0
sVwmaid
p320
I0
sV4w
p321
I0
sVm
I12
sV4s
p322
I0
sVr
I0
sVw
I0
sVsr
p323
V-
sVov
p324
V-
sV5w
p325
I0
ssg46
(dp326
Va
V24.08
p327
sVb
I283
sVinns
p328
I12
sVno
p329
I0
sVsr
p330
V102.12
p331
sVm
I12
sV4s
p332
I37
sV6s
p333
I3
sVhs
p334
V56
p335
sVr
V289
p336
sV100s
p337
I0
sV50s
p338
I1
ssg60
I2012
stp339
a(Vclt20-2012
(dp340
g24
(dp341
Vinns
p342
I2
sVc
I2
sVro
p343
I0
sVm
I4
sVs
I0
ssg28
(dp344
Vinns
p345
I0
sV10w
p346
I0
sVnb
p347
I0
sVmaid
p348
I0
sVwb
p349
I0
sVbbmw
p350
I0
sV6s
p351
I0
sVbbmr
p352
I0
sVbbir
p353
I0
sVbbiw
p354
I0
sVa
V-
sVb
I0
sVe
V-
sVd
I0
sVwmaid
p355
I0
sV4w
p356
I0
sVm
I4
sV4s
p357
I0
sVr
I0
sVw
I0
sVsr
p358
V-
sVov
p359
V-
sV5w
p360
I0
ssg46
(dp361
Va
V25.33
p362
sVb
I57
sVinns
p363
I3
sVno
p364
I0
sVsr
p365
V133.33
p366
sVm
I4
sV4s
p367
I6
sV6s
p368
I5
sVhs
p369
V40
p370
sVr
V76
p371
sV100s
p372
I0
sV50s
p373
I0
ssg60
I2012
stp374
a(Vpre-worldt20-2012
(dp375
g24
(dp376
Vinns
p377
I0
sVc
I0
sVro
p378
I0
sVm
I2
sVs
I0
ssg28
(dp379
Vinns
p380
I0
sV10w
p381
I0
sVnb
p382
I0
sVmaid
p383
I0
sVwb
p384
I0
sVbbmw
p385
I0
sV6s
p386
I0
sVbbmr
p387
I0
sVbbir
p388
I0
sVbbiw
p389
I0
sVa
V-
sVb
I0
sVe
V-
sVd
I0
sVwmaid
p390
I0
sV4w
p391
I0
sVm
I2
sV4s
p392
I0
sVr
I0
sVw
I0
sVsr
p393
V-
sVov
p394
V-
sV5w
p395
I0
ssg46
(dp396
Va
V91.00
p397
sVb
I110
sVinns
p398
I2
sVno
p399
I0
sVsr
p400
V165.45
p401
sVm
I2
sV4s
p402
I22
sV6s
p403
I6
sVhs
p404
V91
p405
sVr
V182
p406
sV100s
p407
I0
sV50s
p408
I2
ssg60
I2012
stp409
a(Vworldt20-2012
(dp410
g24
(dp411
Vinns
p412
I1
sVc
I1
sVro
p413
I0
sVm
I7
sVs
I0
ssg28
(dp414
Vinns
p415
I0
sV10w
p416
I0
sVnb
p417
I0
sVmaid
p418
I0
sVwb
p419
I0
sVbbmw
p420
I0
sV6s
p421
I0
sVbbmr
p422
I0
sVbbir
p423
I0
sVbbiw
p424
I0
sVa
V-
sVb
I0
sVe
V-
sVd
I0
sVwmaid
p425
I0
sV4w
p426
I0
sVm
I7
sV4s
p427
I0
sVr
I0
sVw
I0
sVsr
p428
V-
sVov
p429
V-
sV5w
p430
I0
ssg46
(dp431
Va
V36.83
p432
sVb
I139
sVinns
p433
I6
sVno
p434
I0
sVsr
p435
V158.99
p436
sVm
I7
sV4s
p437
I22
sV6s
p438
I10
sVhs
p439
V123
p440
sVr
V221
p441
sV100s
p442
I1
sV50s
p443
I0
ssg60
I2012
stp444
a(Vsa-nz-2012
p445
(dp446
g24
(dp447
Vinns
p448
I1
sVc
I1
sVro
p449
I0
sVm
I7
sVs
I0
ssg28
(dp450
Vinns
p451
I0
sV10w
p452
I0
sVnb
p453
I0
sVmaid
p454
I0
sVwb
p455
I0
sVbbmw
p456
I0
sV6s
p457
I0
sVbbmr
p458
I0
sVbbir
p459
I0
sVbbiw
p460
I0
sVa
V-
sVb
I0
sVe
V-
sVd
I0
sVwmaid
p461
I0
sV4w
p462
I0
sVm
I7
sV4s
p463
I0
sVr
I0
sVw
I0
sVsr
p464
V-
sVov
p465
V-
sV5w
p466
I0
ssg46
(dp467
Va
V17.87
p468
sVb
I313
sVinns
p469
I8
sVno
p470
I0
sVsr
p471
V45.68
p472
sVm
I7
sV4s
p473
I18
sV6s
p474
I1
sVhs
p475
V51
p476
sVr
V143
p477
sV100s
p478
I0
sV50s
p479
I1
ssg60
I2012
stp480
a(Vipl2011
(dp481
g24
(dp482
Vinns
p483
I2
sVc
I2
sVro
p484
I0
sVm
I13
sVs
I0
ssg28
(dp485
Vinns
p486
I0
sV10w
p487
I0
sVnb
p488
I0
sVmaid
p489
I0
sVwb
p490
I0
sVbbmw
p491
I0
sV6s
p492
I0
sVbbmr
p493
I0
sVbbir
p494
I0
sVbbiw
p495
I0
sVa
V-
sVb
I0
sVe
V-
sVd
I0
sVwmaid
p496
I0
sV4w
p497
I0
sVm
I13
sV4s
p498
I0
sVr
I0
sVw
I0
sVsr
p499
V-
sVov
p500
V-
sV5w
p501
I0
ssg46
(dp502
Va
V27.46
p503
sVb
I275
sVinns
p504
I13
sVno
p505
I0
sVsr
p506
V129.81
p507
sVm
I13
sV4s
p508
I35
sV6s
p509
I16
sVhs
p510
V81
p511
sVr
V357
p512
sV100s
p513
I0
sV50s
p514
I1
ssg60
I2011
stp515
a(Vipl2010
(dp516
g24
(dp517
Vinns
p518
I2
sVc
I2
sVro
p519
I0
sVm
I5
sVs
I0
ssg28
(dp520
Vinns
p521
I0
sV10w
p522
I0
sVnb
p523
I0
sVmaid
p524
I0
sVwb
p525
I0
sVbbmw
p526
I0
sV6s
p527
I0
sVbbmr
p528
I0
sVbbir
p529
I0
sVbbiw
p530
I0
sVa
V-
sVb
I0
sVe
V-
sVd
I0
sVwmaid
p531
I0
sV4w
p532
I0
sVm
I5
sV4s
p533
I0
sVr
I0
sVw
I0
sVsr
p534
V-
sVov
p535
V-
sV5w
p536
I0
ssg46
(dp537
Va
V28.50
p538
sVb
I110
sVinns
p539
I5
sVno
p540
I1
sVsr
p541
V103.63
p542
sVm
I5
sV4s
p543
I14
sV6s
p544
I2
sVhs
p545
V57*
p546
sVr
V114
p547
sV100s
p548
I0
sV50s
p549
I1
ssg60
I2010
stp550
a(Vipl2009
(dp551
g24
(dp552
Vinns
p553
I4
sVc
I6
sVro
p554
I0
sVm
I13
sVs
I0
ssg28
(dp555
Vinns
p556
I0
sV10w
p557
I0
sVnb
p558
I0
sVmaid
p559
I0
sVwb
p560
I0
sVbbmw
p561
I0
sV6s
p562
I0
sVbbmr
p563
I0
sVbbir
p564
I0
sVbbiw
p565
I0
sVa
V-
sVb
I0
sVe
V-
sVd
I0
sVwmaid
p566
I0
sV4w
p567
I0
sVm
I13
sV4s
p568
I0
sVr
I0
sVw
I0
sVsr
p569
V-
sVov
p570
V-
sV5w
p571
I0
ssg46
(dp572
Va
V23.75
p573
sVb
I239
sVinns
p574
I13
sVno
p575
I1
sVsr
p576
V119.24
p577
sVm
I13
sV4s
p578
I27
sV6s
p579
I12
sVhs
p580
V84*
p581
sVr
V285
p582
sV100s
p583
I0
sV50s
p584
I2
ssg60
I2009
stp585
a(Vclt20-2009
(dp586
g24
(dp587
Vinns
p588
I0
sVc
I0
sVro
p589
I0
sVm
I2
sVs
I0
ssg28
(dp590
Vinns
p591
I0
sV10w
p592
I0
sVnb
p593
I0
sVmaid
p594
I0
sVwb
p595
I0
sVbbmw
p596
I0
sV6s
p597
I0
sVbbmr
p598
I0
sVbbir
p599
I0
sVbbiw
p600
I0
sVa
V-
sVb
I0
sVe
V-
sVd
I0
sVwmaid
p601
I0
sV4w
p602
I0
sVm
I2
sV4s
p603
I0
sVr
I0
sVw
I0
sVsr
p604
V-
sVov
p605
V-
sV5w
p606
I0
ssg46
(dp607
Va
V13.00
p608
sVb
I28
sVinns
p609
I2
sVno
p610
I0
sVsr
p611
V92.85
p612
sVm
I2
sV4s
p613
I4
sV6s
p614
I0
sVhs
p615
V21
p616
sVr
V26
p617
sV100s
p618
I0
sV50s
p619
I0
ssg60
I2009
stp620
a(Vipl2008
(dp621
g24
(dp622
Vinns
p623
I1
sVc
I1
sVro
p624
I0
sVm
I4
sVs
I0
ssg28
(dp625
Vinns
p626
I0
sV10w
p627
I0
sVnb
p628
I0
sVmaid
p629
I0
sVwb
p630
I0
sVbbmw
p631
I0
sV6s
p632
I0
sVbbmr
p633
I0
sVbbir
p634
I0
sVbbiw
p635
I0
sVa
V-
sVb
I0
sVe
V-
sVd
I0
sVwmaid
p636
I0
sV4w
p637
I0
sVm
I4
sV4s
p638
I0
sVr
I0
sVw
I0
sVsr
p639
V-
sVov
p640
V-
sV5w
p641
I0
ssg46
(dp642
Va
V62.66
p643
sVb
I92
sVinns
p644
I4
sVno
p645
I1
sVsr
p646
V204.34
p647
sVm
I4
sV4s
p648
I13
sV6s
p649
I15
sVhs
p650
V158*
p651
sVr
V188
p652
sV100s
p653
I1
sV50s
p654
I0
ssg60
I2008
stp655
asb.