(iplayer
Player
p1
(dp2
S'is_batsman'
p3
I00
sS'name'
p4
S'Ishant Sharma'
p5
sS'dob'
p6
S'1988/09/02'
p7
sS'price'
p8
S'850000'
p9
sS'is_allrounder'
p10
I00
sS'is_overseas'
p11
I00
sS'team'
p12
S'SRH'
p13
sS'nationality'
p14
S'Indian'
p15
sS'is_bowler'
p16
I01
sS'is_keeper'
p17
I00
sS'id'
p18
S'38'
p19
sS'is_uncapped'
p20
I00
sS'tournamentStats'
p21
(lp22
(Vnz-ind-2014
(dp23
S'fieldingStats'
p24
(dp25
Vinns
p26
I0
sVc
I0
sVro
p27
I0
sVm
I2
sVs
I0
ssS'bowlingStats'
p28
(dp29
Vinns
p30
I4
sV10w
p31
I0
sVnb
p32
I13
sVmaid
p33
I14
sVwb
p34
I2
sVbbmw
p35
I9
sV6s
p36
I7
sVbbmr
p37
I162
sVbbir
p38
I51
sVbbiw
p39
I6
sVa
V25.13
p40
sVb
I636
sVe
V3.55
p41
sVd
I474
sVwmaid
p42
I4
sV4w
p43
I0
sVm
I2
sV4s
p44
I43
sVr
I377
sVw
I15
sVsr
p45
V42.40
p46
sVov
p47
V106.00
p48
sV5w
p49
I2
ssS'battingStats'
p50
(dp51
Va
V10.00
p52
sVb
I57
sVinns
p53
I3
sVno
p54
I0
sVsr
p55
V52.63
p56
sVm
I2
sV4s
p57
I4
sV6s
p58
I0
sVhs
p59
V26
p60
sVr
V30
p61
sV100s
p62
I0
sV50s
p63
I0
ssS'year'
p64
I2014
stp65
a(Vtriseries-wi-2013
(dp66
g24
(dp67
Vinns
p68
I2
sVc
I2
sVro
p69
I0
sVm
I5
sVs
I0
ssg28
(dp70
Vinns
p71
I5
sV10w
p72
I0
sVnb
p73
I0
sVmaid
p74
I2
sVwb
p75
I7
sVbbmw
p76
I2
sV6s
p77
I6
sVbbmr
p78
I17
sVbbir
p79
I17
sVbbiw
p80
I2
sVa
V26.37
p81
sVb
I222
sVe
V5.70
p82
sVd
I123
sVwmaid
p83
I0
sV4w
p84
I0
sVm
I5
sV4s
p85
I22
sVr
I211
sVw
I8
sVsr
p86
V27.75
p87
sVov
p88
V37.00
p89
sV5w
p90
I0
ssg50
(dp91
Va
V4.00
p92
sVb
I14
sVinns
p93
I2
sVno
p94
I1
sVsr
p95
V28.57
p96
sVm
I5
sV4s
p97
I0
sV6s
p98
I0
sVhs
p99
V2*
p100
sVr
V4
sV100s
p101
I0
sV50s
p102
I0
ssg64
I2013
stp103
a(Vind-aus-2-2013
(dp104
g24
(dp105
Vinns
p106
I2
sVc
I2
sVro
p107
I0
sVm
I4
sVs
I0
ssg28
(dp108
Vinns
p109
I4
sV10w
p110
I0
sVnb
p111
I0
sVmaid
p112
I2
sVwb
p113
I3
sVbbmw
p114
I1
sV6s
p115
I8
sVbbmr
p116
I56
sVbbir
p117
I56
sVbbiw
p118
I1
sVa
V120.50
p119
sVb
I168
sVe
V8.60
p120
sVd
I67
sVwmaid
p121
I1
sV4w
p122
I0
sVm
I4
sV4s
p123
I28
sVr
I241
sVw
I2
sVsr
p124
V84.00
p125
sVov
p126
V28.00
p127
sV5w
p128
I0
ssg50
(dp129
Va
V-
sVb
I3
sVinns
p130
I2
sVno
p131
I2
sVsr
p132
V33.33
p133
sVm
I4
sV4s
p134
I0
sV6s
p135
I0
sVhs
p136
V1*
p137
sVr
V1
sV100s
p138
I0
sV50s
p139
I0
ssg64
I2013
stp140
a(Vclt20-2013
(dp141
g24
(dp142
Vinns
p143
I0
sVc
I0
sVro
p144
I0
sVm
I6
sVs
I0
ssg28
(dp145
Vinns
p146
I6
sV10w
p147
I0
sVnb
p148
I1
sVmaid
p149
I0
sVwb
p150
I3
sVbbmw
p151
I2
sV6s
p152
I6
sVbbmr
p153
I20
sVbbir
p154
I20
sVbbiw
p155
I2
sVa
V32.33
p156
sVb
I138
sVe
V8.43
p157
sVd
I58
sVwmaid
p158
I0
sV4w
p159
I0
sVm
I6
sV4s
p160
I22
sVr
I194
sVw
I6
sVsr
p161
V23.00
p162
sVov
p163
V23.00
p164
sV5w
p165
I0
ssg50
(dp166
Va
V-
sVinns
p167
I0
sVno
p168
I0
sVsr
p169
V-
sVm
I6
sV4s
p170
I0
sV6s
p171
I0
sVhs
p172
V0*
p173
sVr
V0
sV100s
p174
I0
sV50s
p175
I0
ssg64
I2013
stp176
a(Vind-aus-2013
(dp177
g24
(dp178
Vinns
p179
I1
sVc
I1
sVro
p180
I0
sVm
I4
sVs
I0
ssg28
(dp181
Vinns
p182
I8
sV10w
p183
I0
sVnb
p184
I2
sVmaid
p185
I23
sVwb
p186
I1
sVbbmw
p187
I3
sV6s
p188
I0
sVbbmr
p189
I48
sVbbir
p190
I72
sVbbiw
p191
I3
sVa
V37.85
p192
sVb
I582
sVe
V2.73
p193
sVd
I438
sVwmaid
p194
I2
sV4w
p195
I0
sVm
I4
sV4s
p196
I38
sVr
I265
sVw
I7
sVsr
p197
V83.14
p198
sVov
p199
V97.00
p200
sV5w
p201
I0
ssg50
(dp202
Va
V3.00
p203
sVb
I39
sVinns
p204
I4
sVno
p205
I2
sVsr
p206
V15.38
p207
sVm
I4
sV4s
p208
I0
sV6s
p209
I0
sVhs
p210
V4*
p211
sVr
V6
sV100s
p212
I0
sV50s
p213
I0
ssg64
I2013
stp214
a(Vchamptrophy-2013-warmups
(dp215
g24
(dp216
Vinns
p217
I0
sVc
I0
sVro
p218
I0
sVm
I2
sVs
I0
ssg28
(dp219
Vinns
p220
I2
sV10w
p221
I0
sVnb
p222
I0
sVmaid
p223
I0
sVwb
p224
I1
sVbbmw
p225
I3
sV6s
p226
I2
sVbbmr
p227
I11
sVbbir
p228
I11
sVbbiw
p229
I3
sVa
V13.00
p230
sVb
I66
sVe
V4.72
p231
sVd
I40
sVwmaid
p232
I0
sV4w
p233
I0
sVm
I2
sV4s
p234
I5
sVr
I52
sVw
I4
sVsr
p235
V16.50
p236
sVov
p237
V11.00
p238
sV5w
p239
I0
ssg50
(dp240
Va
V-
sVinns
p241
I0
sVno
p242
I0
sVsr
p243
V-
sVm
I2
sV4s
p244
I0
sV6s
p245
I0
sVhs
p246
V0*
p247
sVr
V0
sV100s
p248
I0
sV50s
p249
I0
ssg64
I2013
stp250
a(Vchamptrophy-2013
(dp251
g24
(dp252
Vinns
p253
I2
sVc
I1
sVro
p254
I1
sVm
I5
sVs
I0
ssg28
(dp255
Vinns
p256
I5
sV10w
p257
I0
sVnb
p258
I0
sVmaid
p259
I2
sVwb
p260
I8
sVbbmw
p261
I3
sV6s
p262
I6
sVbbmr
p263
I33
sVbbir
p264
I33
sVbbiw
p265
I3
sVa
V21.80
p266
sVb
I228
sVe
V5.73
p267
sVd
I128
sVwmaid
p268
I1
sV4w
p269
I0
sVm
I5
sV4s
p270
I21
sVr
I218
sVw
I10
sVsr
p271
V22.80
p272
sVov
p273
V38.00
p274
sV5w
p275
I0
ssg50
(dp276
Va
V-
sVinns
p277
I0
sVno
p278
I0
sVsr
p279
V-
sVm
I5
sV4s
p280
I0
sV6s
p281
I0
sVhs
p282
V0*
p283
sVr
V0
sV100s
p284
I0
sV50s
p285
I0
ssg64
I2013
stp286
a(Vipl2013
(dp287
g24
(dp288
Vinns
p289
I5
sVc
I6
sVro
p290
I2
sVm
I16
sVs
I0
ssg28
(dp291
Vinns
p292
I16
sV10w
p293
I0
sVnb
p294
I3
sVmaid
p295
I2
sVwb
p296
I13
sVbbmw
p297
I3
sV6s
p298
I16
sVbbmr
p299
I27
sVbbir
p300
I27
sVbbiw
p301
I3
sVa
V31.06
p302
sVb
I358
sVe
V7.81
p303
sVd
I160
sVwmaid
p304
I1
sV4w
p305
I0
sVm
I16
sV4s
p306
I48
sVr
I466
sVw
I15
sVsr
p307
V23.86
p308
sVov
p309
V59.66
p310
sV5w
p311
I0
ssg50
(dp312
Va
V-
sVinns
p313
I2
sVno
p314
I2
sVsr
p315
V-
sVm
I16
sV4s
p316
I0
sV6s
p317
I0
sVhs
p318
V0*
p319
sVr
V0
sV100s
p320
I0
sV50s
p321
I0
ssg64
I2013
stp322
a(Vsa-ind-2013
p323
(dp324
g24
(dp325
Vinns
p326
I0
sVc
I0
sVro
p327
I0
sVm
I2
sVs
I0
ssg28
(dp328
Vinns
p329
I4
sV10w
p330
I0
sVnb
p331
I7
sVmaid
p332
I17
sVwb
p333
I3
sVbbmw
p334
I5
sV6s
p335
I0
sVbbmr
p336
I170
sVbbir
p337
I79
sVbbiw
p338
I4
sVa
V62.60
p339
sVb
I540
sVe
V3.47
p340
sVd
I397
sVwmaid
p341
I1
sV4w
p342
I1
sVm
I2
sV4s
p343
I46
sVr
I313
sVw
I5
sVsr
p344
V108.00
p345
sVov
p346
V90.00
p347
sV5w
p348
I0
ssg50
(dp349
Va
V2.25
p350
sVb
I31
sVinns
p351
I4
sVno
p352
I0
sVsr
p353
V29.03
p354
sVm
I2
sV4s
p355
I1
sV6s
p356
I0
sVhs
p357
V4
sVr
V9
sV100s
p358
I0
sV50s
p359
I0
ssg64
I2013
stp360
a(Vind-pak-2012-13
(dp361
g24
(dp362
Vinns
p363
I1
sVc
I1
sVro
p364
I0
sVm
I5
sVs
I0
ssg28
(dp365
Vinns
p366
I5
sV10w
p367
I0
sVnb
p368
I2
sVmaid
p369
I0
sVwb
p370
I4
sVbbmw
p371
I3
sV6s
p372
I2
sVbbmr
p373
I34
sVbbir
p374
I34
sVbbiw
p375
I3
sVa
V18.44
p376
sVb
I224
sVe
V4.44
p377
sVd
I135
sVwmaid
p378
I0
sV4w
p379
I0
sVm
I5
sV4s
p380
I17
sVr
I166
sVw
I9
sVsr
p381
V24.88
p382
sVov
p383
V37.33
p384
sV5w
p385
I0
ssg50
(dp386
Va
V2.33
p387
sVb
I28
sVinns
p388
I3
sVno
p389
I0
sVsr
p390
V25.00
p391
sVm
I5
sV4s
p392
I1
sV6s
p393
I0
sVhs
p394
V5
sVr
V7
sV100s
p395
I0
sV50s
p396
I0
ssg64
I2012
stp397
a(Vind-eng-2012-13
(dp398
g24
(dp399
Vinns
p400
I0
sVc
I0
sVro
p401
I0
sVm
I2
sVs
I0
ssg28
(dp402
Vinns
p403
I3
sV10w
p404
I0
sVnb
p405
I8
sVmaid
p406
I20
sVwb
p407
I0
sVbbmw
p408
I3
sV6s
p409
I1
sVbbmr
p410
I91
sVbbir
p411
I49
sVbbiw
p412
I3
sVa
V42.25
p413
sVb
I432
sVe
V2.34
p414
sVd
I352
sVwmaid
p415
I1
sV4w
p416
I0
sVm
I2
sV4s
p417
I23
sVr
I169
sVw
I4
sVsr
p418
V108.00
p419
sVov
p420
V72.00
p421
sV5w
p422
I0
ssg50
(dp423
Va
V6.00
p424
sVb
I63
sVinns
p425
I3
sVno
p426
I1
sVsr
p427
V19.04
p428
sVm
I2
sV4s
p429
I2
sV6s
p430
I0
sVhs
p431
V10
p432
sVr
V12
p433
sV100s
p434
I0
sV50s
p435
I0
ssg64
I2012
stp436
a(Vipl2011
(dp437
g24
(dp438
Vinns
p439
I3
sVc
I3
sVro
p440
I0
sVm
I12
sVs
I0
ssg28
(dp441
Vinns
p442
I12
sV10w
p443
I0
sVnb
p444
I5
sVmaid
p445
I0
sVwb
p446
I6
sVbbmw
p447
I5
sV6s
p448
I7
sVbbmr
p449
I12
sVbbir
p450
I12
sVbbiw
p451
I5
sVa
V28.54
p452
sVb
I264
sVe
V7.13
p453
sVd
I121
sVwmaid
p454
I0
sV4w
p455
I0
sVm
I12
sV4s
p456
I39
sVr
I314
sVw
I11
sVsr
p457
V24.00
p458
sVov
p459
V44.00
p460
sV5w
p461
I1
ssg50
(dp462
Va
V-
sVb
I5
sVinns
p463
I5
sVno
p464
I5
sVsr
p465
V80.00
p466
sVm
I12
sV4s
p467
I0
sV6s
p468
I0
sVhs
p469
V1*
p470
sVr
V4
sV100s
p471
I0
sV50s
p472
I0
ssg64
I2011
stp473
a(Vipl2010
(dp474
g24
(dp475
Vinns
p476
I1
sVc
I1
sVro
p477
I0
sVm
I7
sVs
I0
ssg28
(dp478
Vinns
p479
I7
sV10w
p480
I0
sVnb
p481
I1
sVmaid
p482
I1
sVwb
p483
I9
sVbbmw
p484
I2
sV6s
p485
I6
sVbbmr
p486
I33
sVbbir
p487
I33
sVbbiw
p488
I2
sVa
V33.71
p489
sVb
I150
sVe
V9.44
p490
sVd
I54
sVwmaid
p491
I0
sV4w
p492
I0
sVm
I7
sV4s
p493
I30
sVr
I236
sVw
I7
sVsr
p494
V21.42
p495
sVov
p496
V25.00
p497
sV5w
p498
I0
ssg50
(dp499
Va
V6.00
p500
sVb
I17
sVinns
p501
I2
sVno
p502
I1
sVsr
p503
V35.29
p504
sVm
I7
sV4s
p505
I0
sV6s
p506
I0
sVhs
p507
V6*
p508
sVr
V6
sV100s
p509
I0
sV50s
p510
I0
ssg64
I2010
stp511
a(Vipl2009
(dp512
g24
(dp513
Vinns
p514
I2
sVc
I2
sVro
p515
I0
sVm
I11
sVs
I0
ssg28
(dp516
Vinns
p517
I11
sV10w
p518
I0
sVnb
p519
I2
sVmaid
p520
I0
sVwb
p521
I10
sVbbmw
p522
I2
sV6s
p523
I7
sVbbmr
p524
I15
sVbbir
p525
I15
sVbbiw
p526
I2
sVa
V27.00
p527
sVb
I258
sVe
V6.90
p528
sVd
I130
sVwmaid
p529
I0
sV4w
p530
I0
sVm
I11
sV4s
p531
I34
sVr
I297
sVw
I11
sVsr
p532
V23.45
p533
sVov
p534
V43.00
p535
sV5w
p536
I0
ssg50
(dp537
Va
V8.00
p538
sVb
I13
sVinns
p539
I3
sVno
p540
I1
sVsr
p541
V123.07
p542
sVm
I11
sV4s
p543
I1
sV6s
p544
I1
sVhs
p545
V9
sVr
V16
p546
sV100s
p547
I0
sV50s
p548
I0
ssg64
I2009
stp549
a(Vipl2008
(dp550
g24
(dp551
Vinns
p552
I2
sVc
I2
sVro
p553
I0
sVm
I13
sVs
I0
ssg28
(dp554
Vinns
p555
I13
sV10w
p556
I0
sVnb
p557
I4
sVmaid
p558
I1
sVwb
p559
I9
sVbbmw
p560
I2
sV6s
p561
I5
sVbbmr
p562
I9
sVbbir
p563
I9
sVbbiw
p564
I2
sVa
V41.37
p565
sVb
I259
sVe
V7.66
p566
sVd
I114
sVwmaid
p567
I1
sV4w
p568
I0
sVm
I13
sV4s
p569
I46
sVr
I331
sVw
I8
sVsr
p570
V32.37
p571
sVov
p572
V43.16
p573
sV5w
p574
I0
ssg50
(dp575
Va
V11.00
p576
sVb
I11
sVinns
p577
I6
sVno
p578
I5
sVsr
p579
V100.00
p580
sVm
I13
sV4s
p581
I1
sV6s
p582
I0
sVhs
p583
V4*
p584
sVr
V11
p585
sV100s
p586
I0
sV50s
p587
I0
ssg64
I2008
stp588
asb.