(iplayer
Player
p1
(dp2
S'is_batsman'
p3
I01
sS'name'
p4
S'Manoj Tiwary'
p5
sS'dob'
p6
S'1985/11/14'
p7
sS'price'
p8
S'850000'
p9
sS'is_allrounder'
p10
I00
sS'is_overseas'
p11
I00
sS'team'
p12
S'DD'
p13
sS'nationality'
p14
S'Indian'
p15
sS'is_bowler'
p16
I00
sS'is_keeper'
p17
I00
sS'id'
p18
S'89'
p19
sS'is_uncapped'
p20
I00
sS'tournamentStats'
p21
(lp22
(Vipl2013
(dp23
S'fieldingStats'
p24
(dp25
Vinns
p26
I5
sVc
I10
sVro
p27
I0
sVm
I10
sVs
I0
ssS'bowlingStats'
p28
(dp29
Vinns
p30
I0
sV10w
p31
I0
sVnb
p32
I0
sVmaid
p33
I0
sVwb
p34
I0
sVbbmw
p35
I0
sV6s
p36
I0
sVbbmr
p37
I0
sVbbir
p38
I0
sVbbiw
p39
I0
sVa
V-
sVb
I0
sVe
V-
sVd
I0
sVwmaid
p40
I0
sV4w
p41
I0
sVm
I10
sV4s
p42
I0
sVr
I0
sVw
I0
sVsr
p43
V-
sVov
p44
V-
sV5w
p45
I0
ssS'battingStats'
p46
(dp47
Va
V18.25
p48
sVb
I140
sVinns
p49
I9
sVno
p50
I1
sVsr
p51
V104.28
p52
sVm
I10
sV4s
p53
I12
sV6s
p54
I1
sVhs
p55
V33
p56
sVr
V146
p57
sV100s
p58
I0
sV50s
p59
I0
ssS'year'
p60
I2013
stp61
a(Vipl2012
(dp62
g24
(dp63
Vinns
p64
I9
sVc
I10
sVro
p65
I0
sVm
I16
sVs
I0
ssg28
(dp66
Vinns
p67
I0
sV10w
p68
I0
sVnb
p69
I0
sVmaid
p70
I0
sVwb
p71
I0
sVbbmw
p72
I0
sV6s
p73
I0
sVbbmr
p74
I0
sVbbir
p75
I0
sVbbiw
p76
I0
sVa
V-
sVb
I0
sVe
V-
sVd
I0
sVwmaid
p77
I0
sV4w
p78
I0
sVm
I16
sV4s
p79
I0
sVr
I0
sVw
I0
sVsr
p80
V-
sVov
p81
V-
sV5w
p82
I0
ssg46
(dp83
Va
V26.00
p84
sVb
I246
sVinns
p85
I15
sVno
p86
I5
sVsr
p87
V105.69
p88
sVm
I16
sV4s
p89
I21
sV6s
p90
I3
sVhs
p91
V59
p92
sVr
V260
p93
sV100s
p94
I0
sV50s
p95
I1
ssg60
I2012
stp96
a(Vclt20-2012
(dp97
g24
(dp98
Vinns
p99
I1
sVc
I1
sVro
p100
I0
sVm
I4
sVs
I0
ssg28
(dp101
Vinns
p102
I1
sV10w
p103
I0
sVnb
p104
I0
sVmaid
p105
I0
sVwb
p106
I0
sVbbmw
p107
I2
sV6s
p108
I1
sVbbmr
p109
I8
sVbbir
p110
I8
sVbbiw
p111
I2
sVa
V4.00
p112
sVb
I6
sVe
V8.00
p113
sVd
I3
sVwmaid
p114
I0
sV4w
p115
I0
sVm
I4
sV4s
p116
I0
sVr
I8
sVw
I2
sVsr
p117
V3.00
p118
sVov
p119
V1.00
p120
sV5w
p121
I0
ssg46
(dp122
Va
V23.00
p123
sVb
I49
sVinns
p124
I3
sVno
p125
I1
sVsr
p126
V93.87
p127
sVm
I4
sV4s
p128
I4
sV6s
p129
I1
sVhs
p130
V33
p131
sVr
V46
p132
sV100s
p133
I0
sV50s
p134
I0
ssg60
I2012
stp135
a(Vpre-worldt20-2012
(dp136
g24
(dp137
Vinns
p138
I0
sVc
I0
sVro
p139
I0
sVm
I1
sVs
I0
ssg28
(dp140
Vinns
p141
I0
sV10w
p142
I0
sVnb
p143
I0
sVmaid
p144
I0
sVwb
p145
I0
sVbbmw
p146
I0
sV6s
p147
I0
sVbbmr
p148
I0
sVbbir
p149
I0
sVbbiw
p150
I0
sVa
V-
sVb
I0
sVe
V-
sVd
I0
sVwmaid
p151
I0
sV4w
p152
I0
sVm
I1
sV4s
p153
I0
sVr
I0
sVw
I0
sVsr
p154
V-
sVov
p155
V-
sV5w
p156
I0
ssg46
(dp157
Va
V-
sVinns
p158
I0
sVno
p159
I0
sVsr
p160
V-
sVm
I1
sV4s
p161
I0
sV6s
p162
I0
sVhs
p163
V0*
p164
sVr
V0
sV100s
p165
I0
sV50s
p166
I0
ssg60
I2012
stp167
a(Vworldt20-2012
(dp168
g24
(dp169
Vinns
p170
I0
sVc
I0
sVro
p171
I0
sVm
I1
sVs
I0
ssg28
(dp172
Vinns
p173
I0
sV10w
p174
I0
sVnb
p175
I0
sVmaid
p176
I0
sVwb
p177
I0
sVbbmw
p178
I0
sV6s
p179
I0
sVbbmr
p180
I0
sVbbir
p181
I0
sVbbiw
p182
I0
sVa
V-
sVb
I0
sVe
V-
sVd
I0
sVwmaid
p183
I0
sV4w
p184
I0
sVm
I1
sV4s
p185
I0
sVr
I0
sVw
I0
sVsr
p186
V-
sVov
p187
V-
sV5w
p188
I0
ssg46
(dp189
Va
V-
sVinns
p190
I0
sVno
p191
I0
sVsr
p192
V-
sVm
I1
sV4s
p193
I0
sV6s
p194
I0
sVhs
p195
V0*
p196
sVr
V0
sV100s
p197
I0
sV50s
p198
I0
ssg60
I2012
stp199
a(Vipl2011
(dp200
g24
(dp201
Vinns
p202
I5
sVc
I6
sVro
p203
I0
sVm
I15
sVs
I0
ssg28
(dp204
Vinns
p205
I2
sV10w
p206
I0
sVnb
p207
I0
sVmaid
p208
I0
sVwb
p209
I1
sVbbmw
p210
I0
sV6s
p211
I2
sVbbmr
p212
I0
sVbbir
p213
I0
sVbbiw
p214
I0
sVa
V-
sVb
I12
sVe
V11.50
p215
sVd
I4
sVwmaid
p216
I0
sV4w
p217
I0
sVm
I15
sV4s
p218
I1
sVr
I23
sVw
I0
sVsr
p219
V-
sVov
p220
V2.00
p221
sV5w
p222
I0
ssg46
(dp223
Va
V51.28
p224
sVb
I325
sVinns
p225
I14
sVno
p226
I7
sVsr
p227
V110.46
p228
sVm
I15
sV4s
p229
I26
sV6s
p230
I14
sVhs
p231
V61*
p232
sVr
V359
p233
sV100s
p234
I0
sV50s
p235
I1
ssg60
I2011
stp236
a(Vclt20-2011
p237
(dp238
g24
(dp239
Vinns
p240
I4
sVc
I3
sVro
p241
I1
sVm
I6
sVs
I0
ssg28
(dp242
Vinns
p243
I0
sV10w
p244
I0
sVnb
p245
I0
sVmaid
p246
I0
sVwb
p247
I0
sVbbmw
p248
I0
sV6s
p249
I0
sVbbmr
p250
I0
sVbbir
p251
I0
sVbbiw
p252
I0
sVa
V-
sVb
I0
sVe
V-
sVd
I0
sVwmaid
p253
I0
sV4w
p254
I0
sVm
I6
sV4s
p255
I0
sVr
I0
sVw
I0
sVsr
p256
V-
sVov
p257
V-
sV5w
p258
I0
ssg46
(dp259
Va
V22.00
p260
sVb
I83
sVinns
p261
I4
sVno
p262
I0
sVsr
p263
V106.02
p264
sVm
I6
sV4s
p265
I8
sV6s
p266
I2
sVhs
p267
V40
p268
sVr
V88
p269
sV100s
p270
I0
sV50s
p271
I0
ssg60
I2011
stp272
a(Vipl2010
(dp273
g24
(dp274
Vinns
p275
I4
sVc
I4
sVro
p276
I0
sVm
I13
sVs
I0
ssg28
(dp277
Vinns
p278
I1
sV10w
p279
I0
sVnb
p280
I0
sVmaid
p281
I0
sVwb
p282
I1
sVbbmw
p283
I1
sV6s
p284
I1
sVbbmr
p285
I11
sVbbir
p286
I0
sVbbiw
p287
I0
sVa
V11.00
p288
sVb
I6
sVe
V11.00
p289
sVd
I2
sVwmaid
p290
I0
sV4w
p291
I0
sVm
I13
sV4s
p292
I0
sVr
I11
sVw
I1
sVsr
p293
V6.00
p294
sVov
p295
V1.00
p296
sV5w
p297
I0
ssg46
(dp298
Va
V26.33
p299
sVb
I186
sVinns
p300
I11
sVno
p301
I2
sVsr
p302
V127.41
p303
sVm
I13
sV4s
p304
I23
sV6s
p305
I5
sVhs
p306
V75*
p307
sVr
V237
p308
sV100s
p309
I0
sV50s
p310
I2
ssg60
I2010
stp311
a(Vipl2009
(dp312
g24
(dp313
Vinns
p314
I1
sVc
I0
sVro
p315
I1
sVm
I2
sVs
I0
ssg28
(dp316
Vinns
p317
I1
sV10w
p318
I0
sVnb
p319
I0
sVmaid
p320
I0
sVwb
p321
I0
sVbbmw
p322
I0
sV6s
p323
I1
sVbbmr
p324
I0
sVbbir
p325
I0
sVbbiw
p326
I0
sVa
V-
sVb
I6
sVe
V11.00
p327
sVd
I0
sVwmaid
p328
I0
sV4w
p329
I0
sVm
I2
sV4s
p330
I0
sVr
I11
sVw
I0
sVsr
p331
V-
sVov
p332
V1.00
p333
sV5w
p334
I0
ssg46
(dp335
Va
V9.00
p336
sVb
I13
sVinns
p337
I1
sVno
p338
I0
sVsr
p339
V69.23
p340
sVm
I2
sV4s
p341
I1
sV6s
p342
I0
sVhs
p343
V9
sVr
V9
sV100s
p344
I0
sV50s
p345
I0
ssg60
I2009
stp346
a(Vclt20-2009
(dp347
g24
(dp348
Vinns
p349
I0
sVc
I0
sVro
p350
I0
sVm
I3
sVs
I0
ssg28
(dp351
Vinns
p352
I0
sV10w
p353
I0
sVnb
p354
I0
sVmaid
p355
I0
sVwb
p356
I0
sVbbmw
p357
I0
sV6s
p358
I0
sVbbmr
p359
I0
sVbbir
p360
I0
sVbbiw
p361
I0
sVa
V-
sVb
I0
sVe
V-
sVd
I0
sVwmaid
p362
I0
sV4w
p363
I0
sVm
I3
sV4s
p364
I0
sVr
I0
sVw
I0
sVsr
p365
V-
sVov
p366
V-
sV5w
p367
I0
ssg46
(dp368
Va
V16.50
p369
sVb
I41
sVinns
p370
I3
sVno
p371
I1
sVsr
p372
V80.48
p373
sVm
I3
sV4s
p374
I1
sV6s
p375
I0
sVhs
p376
V19
p377
sVr
V33
p378
sV100s
p379
I0
sV50s
p380
I0
ssg60
I2009
stp381
a(Vipl2008
(dp382
g24
(dp383
Vinns
p384
I4
sVc
I3
sVro
p385
I1
sVm
I9
sVs
I0
ssg28
(dp386
Vinns
p387
I0
sV10w
p388
I0
sVnb
p389
I0
sVmaid
p390
I0
sVwb
p391
I0
sVbbmw
p392
I0
sV6s
p393
I0
sVbbmr
p394
I0
sVbbir
p395
I0
sVbbiw
p396
I0
sVa
V-
sVb
I0
sVe
V-
sVd
I0
sVwmaid
p397
I0
sV4w
p398
I0
sVm
I9
sV4s
p399
I0
sVr
I0
sVw
I0
sVsr
p400
V-
sVov
p401
V-
sV5w
p402
I0
ssg46
(dp403
Va
V26.00
p404
sVb
I85
sVinns
p405
I7
sVno
p406
I3
sVsr
p407
V122.35
p408
sVm
I9
sV4s
p409
I16
sV6s
p410
I0
sVhs
p411
V39
p412
sVr
V104
p413
sV100s
p414
I0
sV50s
p415
I0
ssg60
I2008
stp416
asb.