(iplayer
Player
p1
(dp2
S'is_batsman'
p3
I00
sS'name'
p4
S'Jaidev Unadkat'
p5
sS'dob'
p6
S'1991/10/18'
p7
sS'price'
p8
S'800000'
p9
sS'is_allrounder'
p10
I00
sS'is_overseas'
p11
I00
sS'team'
p12
S'DD'
p13
sS'nationality'
p14
S'Indian'
p15
sS'is_bowler'
p16
I01
sS'is_keeper'
p17
I00
sS'id'
p18
S'86'
p19
sS'is_uncapped'
p20
I00
sS'tournamentStats'
p21
(lp22
(Vind-wi-2013
(dp23
S'fieldingStats'
p24
(dp25
Vinns
p26
I0
sVc
I0
sVro
p27
I0
sVm
I1
sVs
I0
ssS'bowlingStats'
p28
(dp29
Vinns
p30
I1
sV10w
p31
I0
sVnb
p32
I0
sVmaid
p33
I0
sVwb
p34
I0
sVbbmw
p35
I0
sV6s
p36
I2
sVbbmr
p37
I39
sVbbir
p38
I39
sVbbiw
p39
I0
sVa
V-
sVb
I36
sVe
V6.50
p40
sVd
I22
sVwmaid
p41
I0
sV4w
p42
I0
sVm
I1
sV4s
p43
I5
sVr
I39
sVw
I0
sVsr
p44
V-
sVov
p45
V6.00
p46
sV5w
p47
I0
ssS'battingStats'
p48
(dp49
Va
V-
sVinns
p50
I0
sVno
p51
I0
sVsr
p52
V-
sVm
I1
sV4s
p53
I0
sV6s
p54
I0
sVhs
p55
V0*
p56
sVr
V0
sV100s
p57
I0
sV50s
p58
I0
ssS'year'
p59
I2013
stp60
a(Vzim-ind-2013
(dp61
g24
(dp62
Vinns
p63
I1
sVc
I0
sVro
p64
I1
sVm
I5
sVs
I0
ssg28
(dp65
Vinns
p66
I5
sV10w
p67
I0
sVnb
p68
I0
sVmaid
p69
I5
sVwb
p70
I2
sVbbmw
p71
I4
sV6s
p72
I1
sVbbmr
p73
I41
sVbbir
p74
I41
sVbbiw
p75
I4
sVa
V17.37
p76
sVb
I240
sVe
V3.47
p77
sVd
I157
sVwmaid
p78
I3
sV4w
p79
I1
sVm
I5
sV4s
p80
I11
sVr
I139
sVw
I8
sVsr
p81
V30.00
p82
sVov
p83
V40.00
p84
sV5w
p85
I0
ssg48
(dp86
Va
V-
sVinns
p87
I0
sVno
p88
I0
sVsr
p89
V-
sVm
I5
sV4s
p90
I0
sV6s
p91
I0
sVhs
p92
V0*
p93
sVr
V0
sV100s
p94
I0
sV50s
p95
I0
ssg59
I2013
stp96
a(Vind-aus-2-2013
(dp97
g24
(dp98
Vinns
p99
I0
sVc
I0
sVro
p100
I0
sVm
I1
sVs
I0
ssg28
(dp101
Vinns
p102
I1
sV10w
p103
I0
sVnb
p104
I0
sVmaid
p105
I0
sVwb
p106
I0
sVbbmw
p107
I0
sV6s
p108
I0
sVbbmr
p109
I31
sVbbir
p110
I31
sVbbiw
p111
I0
sVa
V-
sVb
I36
sVe
V5.16
p112
sVd
I21
sVwmaid
p113
I0
sV4w
p114
I0
sVm
I1
sV4s
p115
I4
sVr
I31
sVw
I0
sVsr
p116
V-
sVov
p117
V6.00
p118
sV5w
p119
I0
ssg48
(dp120
Va
V-
sVinns
p121
I0
sVno
p122
I0
sVsr
p123
V-
sVm
I1
sV4s
p124
I0
sV6s
p125
I0
sVhs
p126
V0*
p127
sVr
V0
sV100s
p128
I0
sV50s
p129
I0
ssg59
I2013
stp130
a(Vipl2013
(dp131
g24
(dp132
Vinns
p133
I2
sVc
I1
sVro
p134
I1
sVm
I13
sVs
I0
ssg28
(dp135
Vinns
p136
I13
sV10w
p137
I0
sVnb
p138
I0
sVmaid
p139
I0
sVwb
p140
I5
sVbbmw
p141
I5
sV6s
p142
I7
sVbbmr
p143
I25
sVbbir
p144
I25
sVbbiw
p145
I5
sVa
V28.46
p146
sVb
I294
sVe
V7.55
p147
sVd
I102
sVwmaid
p148
I0
sV4w
p149
I0
sVm
I13
sV4s
p150
I40
sVr
I370
sVw
I13
sVsr
p151
V22.61
p152
sVov
p153
V49.00
p154
sV5w
p155
I1
ssg48
(dp156
Va
V-
sVb
I2
sVinns
p157
I2
sVno
p158
I2
sVsr
p159
V100.00
p160
sVm
I13
sV4s
p161
I0
sV6s
p162
I0
sVhs
p163
V1*
p164
sVr
V2
sV100s
p165
I0
sV50s
p166
I0
ssg59
I2013
stp167
a(Vipl2012
(dp168
g24
(dp169
Vinns
p170
I0
sVc
I0
sVro
p171
I0
sVm
I1
sVs
I0
ssg28
(dp172
Vinns
p173
I1
sV10w
p174
I0
sVnb
p175
I0
sVmaid
p176
I0
sVwb
p177
I0
sVbbmw
p178
I0
sV6s
p179
I2
sVbbmr
p180
I32
sVbbir
p181
I32
sVbbiw
p182
I0
sVa
V-
sVb
I18
sVe
V10.66
p183
sVd
I2
sVwmaid
p184
I0
sV4w
p185
I0
sVm
I1
sV4s
p186
I1
sVr
I32
sVw
I0
sVsr
p187
V-
sVov
p188
V3.00
p189
sV5w
p190
I0
ssg48
(dp191
Va
V-
sVinns
p192
I0
sVno
p193
I0
sVsr
p194
V-
sVm
I1
sV4s
p195
I0
sV6s
p196
I0
sVhs
p197
V0*
p198
sVr
V0
sV100s
p199
I0
sV50s
p200
I0
ssg59
I2012
stp201
a(Vipl2011
(dp202
g24
(dp203
Vinns
p204
I1
sVc
I2
sVro
p205
I0
sVm
I7
sVs
I0
ssg28
(dp206
Vinns
p207
I6
sV10w
p208
I0
sVnb
p209
I0
sVmaid
p210
I0
sVwb
p211
I3
sVbbmw
p212
I2
sV6s
p213
I6
sVbbmr
p214
I25
sVbbir
p215
I25
sVbbiw
p216
I2
sVa
V25.00
p217
sVb
I108
sVe
V8.33
p218
sVd
I40
sVwmaid
p219
I0
sV4w
p220
I0
sVm
I7
sV4s
p221
I13
sVr
I150
sVw
I6
sVsr
p222
V18.00
p223
sVov
p224
V18.00
p225
sV5w
p226
I0
ssg48
(dp227
Va
V-
sVinns
p228
I0
sVno
p229
I0
sVsr
p230
V-
sVm
I7
sV4s
p231
I0
sV6s
p232
I0
sVhs
p233
V0*
p234
sVr
V0
sV100s
p235
I0
sV50s
p236
I0
ssg59
I2011
stp237
a(Vclt20-2011
p238
(dp239
g24
(dp240
Vinns
p241
I0
sVc
I0
sVro
p242
I0
sVm
I3
sVs
I0
ssg28
(dp243
Vinns
p244
I3
sV10w
p245
I0
sVnb
p246
I0
sVmaid
p247
I0
sVwb
p248
I2
sVbbmw
p249
I2
sV6s
p250
I2
sVbbmr
p251
I31
sVbbir
p252
I31
sVbbiw
p253
I2
sVa
V20.00
p254
sVb
I48
sVe
V10.00
p255
sVd
I13
sVwmaid
p256
I0
sV4w
p257
I0
sVm
I3
sV4s
p258
I10
sVr
I80
sVw
I4
sVsr
p259
V12.00
p260
sVov
p261
V8.00
p262
sV5w
p263
I0
ssg48
(dp264
Va
V-
sVinns
p265
I0
sVno
p266
I0
sVsr
p267
V-
sVm
I3
sV4s
p268
I0
sV6s
p269
I0
sVhs
p270
V0*
p271
sVr
V0
sV100s
p272
I0
sV50s
p273
I0
ssg59
I2011
stp274
a(Vipl2010
(dp275
g24
(dp276
Vinns
p277
I1
sVc
I1
sVro
p278
I1
sVm
I3
sVs
I0
ssg28
(dp279
Vinns
p280
I3
sV10w
p281
I0
sVnb
p282
I0
sVmaid
p283
I0
sVwb
p284
I0
sVbbmw
p285
I3
sV6s
p286
I2
sVbbmr
p287
I26
sVbbir
p288
I26
sVbbiw
p289
I3
sVa
V21.25
p290
sVb
I62
sVe
V8.22
p291
sVd
I20
sVwmaid
p292
I0
sV4w
p293
I0
sVm
I3
sV4s
p294
I10
sVr
I85
sVw
I4
sVsr
p295
V15.50
p296
sVov
p297
V10.33
p298
sV5w
p299
I0
ssg48
(dp300
Va
V-
sVinns
p301
I0
sVno
p302
I0
sVsr
p303
V-
sVm
I3
sV4s
p304
I0
sV6s
p305
I0
sVhs
p306
V0*
p307
sVr
V0
sV100s
p308
I0
sV50s
p309
I0
ssg59
I2010
stp310
asb.