(iplayer
Player
p1
(dp2
S'is_batsman'
p3
I01
sS'name'
p4
S'JP Duminy'
p5
sS'dob'
p6
S'1984/04/14'
p7
sS'price'
p8
S'1000000'
p9
sS'is_allrounder'
p10
I01
sS'is_overseas'
p11
I01
sS'team'
p12
S'DD'
p13
sS'nationality'
p14
S'South African'
p15
sS'is_bowler'
p16
I00
sS'is_keeper'
p17
I00
sS'id'
p18
S'182'
p19
sS'is_uncapped'
p20
I00
sS'tournamentStats'
p21
(lp22
(Vsa-aus-2014
(dp23
S'fieldingStats'
p24
(dp25
Vinns
p26
I2
sVc
I2
sVro
p27
I0
sVm
I5
sVs
I0
ssS'bowlingStats'
p28
(dp29
Vinns
p30
I8
sV10w
p31
I0
sVnb
p32
I0
sVmaid
p33
I7
sVwb
p34
I1
sVbbmw
p35
I4
sV6s
p36
I9
sVbbmr
p37
I149
sVbbir
p38
I73
sVbbiw
p39
I4
sVa
V32.66
p40
sVb
I444
sVe
V3.97
p41
sVd
I280
sVwmaid
p42
I1
sV4w
p43
I1
sVm
I5
sV4s
p44
I18
sVr
I294
sVw
I9
sVsr
p45
V49.33
p46
sVov
p47
V74.00
p48
sV5w
p49
I0
ssS'battingStats'
p50
(dp51
Va
V39.33
p52
sVb
I480
sVinns
p53
I7
sVno
p54
I1
sVsr
p55
V49.16
p56
sVm
I5
sV4s
p57
I27
sV6s
p58
I1
sVhs
p59
V123
p60
sVr
V236
p61
sV100s
p62
I1
sV50s
p63
I0
ssS'year'
p64
I2014
stp65
a(Vworldt20-2014
(dp66
g24
(dp67
Vinns
p68
I1
sVc
I1
sVro
p69
I0
sVm
I3
sVs
I0
ssg28
(dp70
Vinns
p71
I3
sV10w
p72
I0
sVnb
p73
I0
sVmaid
p74
I0
sVwb
p75
I2
sVbbmw
p76
I1
sV6s
p77
I1
sVbbmr
p78
I12
sVbbir
p79
I12
sVbbiw
p80
I1
sVa
V55.00
p81
sVb
I36
sVe
V9.16
p82
sVd
I9
sVwmaid
p83
I0
sV4w
p84
I0
sVm
I3
sV4s
p85
I6
sVr
I55
sVw
I1
sVsr
p86
V36.00
p87
sVov
p88
V6.00
p89
sV5w
p90
I0
ssg50
(dp91
Va
V68.50
p92
sVb
I88
sVinns
p93
I3
sVno
p94
I1
sVsr
p95
V155.68
p96
sVm
I3
sV4s
p97
I13
sV6s
p98
I5
sVhs
p99
V86*
p100
sVr
V137
p101
sV100s
p102
I0
sV50s
p103
I1
ssg64
I2014
stp104
a(Vsl-sa-2013
(dp105
g24
(dp106
Vinns
p107
I5
sVc
I5
sVro
p108
I0
sVm
I8
sVs
I0
ssg28
(dp109
Vinns
p110
I6
sV10w
p111
I0
sVnb
p112
I0
sVmaid
p113
I2
sVwb
p114
I3
sVbbmw
p115
I3
sV6s
p116
I3
sVbbmr
p117
I18
sVbbir
p118
I9
sVbbiw
p119
I1
sVa
V36.20
p120
sVb
I242
sVe
V4.48
p121
sVd
I127
sVwmaid
p122
I0
sV4w
p123
I0
sVm
I8
sV4s
p124
I14
sVr
I181
sVw
I5
sVsr
p125
V48.40
p126
sVov
p127
V40.33
p128
sV5w
p129
I0
ssg50
(dp130
Va
V42.42
p131
sVb
I327
sVinns
p132
I8
sVno
p133
I1
sVsr
p134
V90.82
p135
sVm
I8
sV4s
p136
I27
sV6s
p137
I5
sVhs
p138
V97
p139
sVr
V297
p140
sV100s
p141
I0
sV50s
p142
I3
ssg64
I2013
stp143
a(Vsa-ind-2013
(dp144
g24
(dp145
Vinns
p146
I2
sVc
I2
sVro
p147
I0
sVm
I5
sVs
I0
ssg28
(dp148
Vinns
p149
I5
sV10w
p150
I0
sVnb
p151
I0
sVmaid
p152
I2
sVwb
p153
I0
sVbbmw
p154
I2
sV6s
p155
I0
sVbbmr
p156
I117
sVbbir
p157
I87
sVbbiw
p158
I2
sVa
V55.66
p159
sVb
I276
sVe
V3.63
p160
sVd
I163
sVwmaid
p161
I0
sV4w
p162
I0
sVm
I5
sV4s
p163
I15
sVr
I167
sVw
I3
sVsr
p164
V92.00
p165
sVov
p166
V46.00
p167
sV5w
p168
I0
ssg50
(dp169
Va
V24.00
p170
sVb
I164
sVinns
p171
I6
sVno
p172
I1
sVsr
p173
V73.17
p174
sVm
I5
sV4s
p175
I9
sV6s
p176
I5
sVhs
p177
V59*
p178
sVr
V120
p179
sV100s
p180
I0
sV50s
p181
I1
ssg64
I2013
stp182
a(Vclt20-2013
(dp183
g24
(dp184
Vinns
p185
I1
sVc
I0
sVro
p186
I1
sVm
I6
sVs
I0
ssg28
(dp187
Vinns
p188
I3
sV10w
p189
I0
sVnb
p190
I0
sVmaid
p191
I0
sVwb
p192
I1
sVbbmw
p193
I2
sV6s
p194
I4
sVbbmr
p195
I27
sVbbir
p196
I27
sVbbiw
p197
I2
sVa
V32.50
p198
sVb
I48
sVe
V8.12
p199
sVd
I14
sVwmaid
p200
I0
sV4w
p201
I0
sVm
I6
sV4s
p202
I2
sVr
I65
sVw
I2
sVsr
p203
V24.00
p204
sVov
p205
V8.00
p206
sV5w
p207
I0
ssg50
(dp208
Va
V39.00
p209
sVb
I118
sVinns
p210
I6
sVno
p211
I3
sVsr
p212
V99.15
p213
sVm
I6
sV4s
p214
I10
sV6s
p215
I0
sVhs
p216
V57*
p217
sVr
V117
p218
sV100s
p219
I0
sV50s
p220
I1
ssg64
I2013
stp221
a(Vpak-sa-2013
(dp222
g24
(dp223
Vinns
p224
I0
sVc
I0
sVro
p225
I0
sVm
I8
sVs
I0
ssg28
(dp226
Vinns
p227
I6
sV10w
p228
I0
sVnb
p229
I0
sVmaid
p230
I5
sVwb
p231
I0
sVbbmw
p232
I3
sV6s
p233
I1
sVbbmr
p234
I67
sVbbir
p235
I67
sVbbiw
p236
I3
sVa
V26.00
p237
sVb
I307
sVe
V3.55
p238
sVd
I198
sVwmaid
p239
I1
sV4w
p240
I0
sVm
I8
sV4s
p241
I16
sVr
I182
sVw
I7
sVsr
p242
V43.85
p243
sVov
p244
V51.16
p245
sV5w
p246
I0
ssg50
(dp247
Va
V28.57
p248
sVb
I326
sVinns
p249
I8
sVno
p250
I1
sVsr
p251
V61.34
p252
sVm
I8
sV4s
p253
I16
sV6s
p254
I2
sVhs
p255
V64
p256
sVr
V200
p257
sV100s
p258
I0
sV50s
p259
I2
ssg64
I2013
stp260
a(Vchamptrophy-2013-warmups
(dp261
g24
(dp262
Vinns
p263
I0
sVc
I0
sVro
p264
I0
sVm
I1
sVs
I0
ssg28
(dp265
Vinns
p266
I0
sV10w
p267
I0
sVnb
p268
I0
sVmaid
p269
I0
sVwb
p270
I0
sVbbmw
p271
I0
sV6s
p272
I0
sVbbmr
p273
I0
sVbbir
p274
I0
sVbbiw
p275
I0
sVa
V-
sVb
I0
sVe
V-
sVd
I0
sVwmaid
p276
I0
sV4w
p277
I0
sVm
I1
sV4s
p278
I0
sVr
I0
sVw
I0
sVsr
p279
V-
sVov
p280
V-
sV5w
p281
I0
ssg50
(dp282
Va
V43.00
p283
sVb
I91
sVinns
p284
I1
sVno
p285
I0
sVsr
p286
V47.25
p287
sVm
I1
sV4s
p288
I1
sV6s
p289
I0
sVhs
p290
V43
p291
sVr
V43
p292
sV100s
p293
I0
sV50s
p294
I0
ssg64
I2013
stp295
a(Vchamptrophy-2013
(dp296
g24
(dp297
Vinns
p298
I1
sVc
I1
sVro
p299
I0
sVm
I4
sVs
I0
ssg28
(dp300
Vinns
p301
I4
sV10w
p302
I0
sVnb
p303
I0
sVmaid
p304
I0
sVwb
p305
I2
sVbbmw
p306
I1
sV6s
p307
I2
sVbbmr
p308
I26
sVbbir
p309
I26
sVbbiw
p310
I1
sVa
V41.33
p311
sVb
I150
sVe
V4.96
p312
sVd
I74
sVwmaid
p313
I0
sV4w
p314
I0
sVm
I4
sV4s
p315
I9
sVr
I124
sVw
I3
sVsr
p316
V50.00
p317
sVov
p318
V25.00
p319
sV5w
p320
I0
ssg50
(dp321
Va
V10.75
p322
sVb
I78
sVinns
p323
I4
sVno
p324
I0
sVsr
p325
V55.12
p326
sVm
I4
sV4s
p327
I1
sV6s
p328
I0
sVhs
p329
V24
p330
sVr
V43
p331
sV100s
p332
I0
sV50s
p333
I0
ssg64
I2013
stp334
a(Vsa-pak-2-2013
(dp335
g24
(dp336
Vinns
p337
I3
sVc
I3
sVro
p338
I0
sVm
I5
sVs
I0
ssg28
(dp339
Vinns
p340
I4
sV10w
p341
I0
sVnb
p342
I0
sVmaid
p343
I0
sVwb
p344
I0
sVbbmw
p345
I1
sV6s
p346
I1
sVbbmr
p347
I3
sVbbir
p348
I3
sVbbiw
p349
I1
sVa
V62.00
p350
sVb
I61
sVe
V6.09
p351
sVd
I23
sVwmaid
p352
I0
sV4w
p353
I0
sVm
I5
sV4s
p354
I5
sVr
I62
sVw
I1
sVsr
p355
V61.00
p356
sVov
p357
V10.16
p358
sV5w
p359
I0
ssg50
(dp360
Va
V34.50
p361
sVb
I153
sVinns
p362
I5
sVno
p363
I1
sVsr
p364
V90.19
p365
sVm
I5
sV4s
p366
I11
sV6s
p367
I2
sVhs
p368
V49
p369
sVr
V138
p370
sV100s
p371
I0
sV50s
p372
I0
ssg64
I2013
stp373
a(Vipl2012
(dp374
g24
(dp375
Vinns
p376
I4
sVc
I6
sVro
p377
I0
sVm
I9
sVs
I0
ssg28
(dp378
Vinns
p379
I6
sV10w
p380
I0
sVnb
p381
I0
sVmaid
p382
I0
sVwb
p383
I6
sVbbmw
p384
I1
sV6s
p385
I5
sVbbmr
p386
I8
sVbbir
p387
I8
sVbbiw
p388
I1
sVa
V104.00
p389
sVb
I72
sVe
V8.66
p390
sVd
I22
sVwmaid
p391
I0
sV4w
p392
I0
sVm
I9
sV4s
p393
I6
sVr
I104
sVw
I1
sVsr
p394
V72.00
p395
sVov
p396
V12.00
p397
sV5w
p398
I0
ssg50
(dp399
Va
V81.33
p400
sVb
I190
sVinns
p401
I9
sVno
p402
I6
sVsr
p403
V128.42
p404
sVm
I9
sV4s
p405
I13
sV6s
p406
I11
sVhs
p407
V74
p408
sVr
V244
p409
sV100s
p410
I0
sV50s
p411
I2
ssg64
I2012
stp412
a(Vaus-sa-2012
(dp413
g24
(dp414
Vinns
p415
I0
sVc
I0
sVro
p416
I0
sVm
I1
sVs
I0
ssg28
(dp417
Vinns
p418
I0
sV10w
p419
I0
sVnb
p420
I0
sVmaid
p421
I0
sVwb
p422
I0
sVbbmw
p423
I0
sV6s
p424
I0
sVbbmr
p425
I0
sVbbir
p426
I0
sVbbiw
p427
I0
sVa
V-
sVb
I0
sVe
V-
sVd
I0
sVwmaid
p428
I0
sV4w
p429
I0
sVm
I1
sV4s
p430
I0
sVr
I0
sVw
I0
sVsr
p431
V-
sVov
p432
V-
sV5w
p433
I0
ssg50
(dp434
Va
V-
sVinns
p435
I1
sVno
p436
I0
sVsr
p437
V-
sVm
I1
sV4s
p438
I0
sV6s
p439
I0
sVhs
p440
V0*
p441
sVr
V0
sV100s
p442
I0
sV50s
p443
I0
ssg64
I2012
stp444
a(Vpre-worldt20-2012
(dp445
g24
(dp446
Vinns
p447
I0
sVc
I0
sVro
p448
I0
sVm
I2
sVs
I0
ssg28
(dp449
Vinns
p450
I0
sV10w
p451
I0
sVnb
p452
I0
sVmaid
p453
I0
sVwb
p454
I0
sVbbmw
p455
I0
sV6s
p456
I0
sVbbmr
p457
I0
sVbbir
p458
I0
sVbbiw
p459
I0
sVa
V-
sVb
I0
sVe
V-
sVd
I0
sVwmaid
p460
I0
sV4w
p461
I0
sVm
I2
sV4s
p462
I0
sVr
I0
sVw
I0
sVsr
p463
V-
sVov
p464
V-
sV5w
p465
I0
ssg50
(dp466
Va
V52.00
p467
sVb
I60
sVinns
p468
I2
sVno
p469
I1
sVsr
p470
V86.66
p471
sVm
I2
sV4s
p472
I4
sV6s
p473
I0
sVhs
p474
V47*
p475
sVr
V52
p476
sV100s
p477
I0
sV50s
p478
I0
ssg64
I2012
stp479
a(Vworldt20-2012
(dp480
g24
(dp481
Vinns
p482
I2
sVc
I2
sVro
p483
I0
sVm
I6
sVs
I0
ssg28
(dp484
Vinns
p485
I3
sV10w
p486
I0
sVnb
p487
I0
sVmaid
p488
I0
sVwb
p489
I0
sVbbmw
p490
I1
sV6s
p491
I0
sVbbmr
p492
I5
sVbbir
p493
I5
sVbbiw
p494
I1
sVa
V15.00
p495
sVb
I24
sVe
V3.75
p496
sVd
I9
sVwmaid
p497
I0
sV4w
p498
I0
sVm
I6
sV4s
p499
I0
sVr
I15
sVw
I1
sVsr
p500
V24.00
p501
sVov
p502
V4.00
p503
sV5w
p504
I0
ssg50
(dp505
Va
V34.00
p506
sVb
I115
sVinns
p507
I5
sVno
p508
I1
sVsr
p509
V118.26
p510
sVm
I6
sV4s
p511
I9
sV6s
p512
I4
sVhs
p513
V48
p514
sVr
V136
p515
sV100s
p516
I0
sV50s
p517
I0
ssg64
I2012
stp518
a(Vipl2011
(dp519
g24
(dp520
Vinns
p521
I2
sVc
I2
sVro
p522
I0
sVm
I10
sVs
I0
ssg28
(dp523
Vinns
p524
I8
sV10w
p525
I0
sVnb
p526
I0
sVmaid
p527
I0
sVwb
p528
I3
sVbbmw
p529
I1
sV6s
p530
I9
sVbbmr
p531
I3
sVbbir
p532
I3
sVbbiw
p533
I1
sVa
V35.75
p534
sVb
I108
sVe
V7.94
p535
sVd
I44
sVwmaid
p536
I0
sV4w
p537
I0
sVm
I10
sV4s
p538
I9
sVr
I143
sVw
I4
sVsr
p539
V27.00
p540
sVov
p541
V18.00
p542
sV5w
p543
I0
ssg50
(dp544
Va
V20.50
p545
sVb
I174
sVinns
p546
I10
sVno
p547
I0
sVsr
p548
V117.81
p549
sVm
I10
sV4s
p550
I9
sV6s
p551
I8
sVhs
p552
V55
p553
sVr
V205
p554
sV100s
p555
I0
sV50s
p556
I1
ssg64
I2011
stp557
a(Vclt20-2011
p558
(dp559
g24
(dp560
Vinns
p561
I2
sVc
I2
sVro
p562
I0
sVm
I3
sVs
I0
ssg28
(dp563
Vinns
p564
I2
sV10w
p565
I0
sVnb
p566
I0
sVmaid
p567
I0
sVwb
p568
I1
sVbbmw
p569
I4
sV6s
p570
I1
sVbbmr
p571
I20
sVbbir
p572
I20
sVbbiw
p573
I4
sVa
V9.75
p574
sVb
I36
sVe
V6.50
p575
sVd
I12
sVwmaid
p576
I0
sV4w
p577
I1
sVm
I3
sV4s
p578
I2
sVr
I39
sVw
I4
sVsr
p579
V9.00
p580
sVov
p581
V6.00
p582
sV5w
p583
I0
ssg50
(dp584
Va
V26.00
p585
sVb
I51
sVinns
p586
I3
sVno
p587
I1
sVsr
p588
V101.96
p589
sVm
I3
sV4s
p590
I3
sV6s
p591
I1
sVhs
p592
V29
p593
sVr
V52
p594
sV100s
p595
I0
sV50s
p596
I0
ssg64
I2011
stp597
a(Vclt20-2010
(dp598
g24
(dp599
Vinns
p600
I2
sVc
I2
sVro
p601
I0
sVm
I4
sVs
I0
ssg28
(dp602
Vinns
p603
I1
sV10w
p604
I0
sVnb
p605
I0
sVmaid
p606
I0
sVwb
p607
I0
sVbbmw
p608
I0
sV6s
p609
I1
sVbbmr
p610
I0
sVbbir
p611
I0
sVbbiw
p612
I0
sVa
V-
sVb
I6
sVe
V13.00
p613
sVd
I1
sVwmaid
p614
I0
sV4w
p615
I0
sVm
I4
sV4s
p616
I1
sVr
I13
sVw
I0
sVsr
p617
V-
sVov
p618
V1.00
p619
sV5w
p620
I0
ssg50
(dp621
Va
V19.00
p622
sVb
I52
sVinns
p623
I4
sVno
p624
I1
sVsr
p625
V109.61
p626
sVm
I4
sV4s
p627
I4
sV6s
p628
I1
sVhs
p629
V30
p630
sVr
V57
p631
sV100s
p632
I0
sV50s
p633
I0
ssg64
I2010
stp634
a(Vipl2010
(dp635
g24
(dp636
Vinns
p637
I3
sVc
I3
sVro
p638
I0
sVm
I7
sVs
I0
ssg28
(dp639
Vinns
p640
I2
sV10w
p641
I0
sVnb
p642
I0
sVmaid
p643
I0
sVwb
p644
I0
sVbbmw
p645
I1
sV6s
p646
I1
sVbbmr
p647
I15
sVbbir
p648
I15
sVbbiw
p649
I1
sVa
V37.00
p650
sVb
I33
sVe
V6.72
p651
sVd
I13
sVwmaid
p652
I0
sV4w
p653
I0
sVm
I7
sV4s
p654
I4
sVr
I37
sVw
I1
sVsr
p655
V33.00
p656
sVov
p657
V5.50
p658
sV5w
p659
I0
ssg50
(dp660
Va
V31.40
p661
sVb
I131
sVinns
p662
I7
sVno
p663
I2
sVsr
p664
V119.84
p665
sVm
I7
sV4s
p666
I13
sV6s
p667
I5
sVhs
p668
V42*
p669
sVr
V157
p670
sV100s
p671
I0
sV50s
p672
I0
ssg64
I2010
stp673
a(Vipl2009
(dp674
g24
(dp675
Vinns
p676
I4
sVc
I4
sVro
p677
I1
sVm
I13
sVs
I0
ssg28
(dp678
Vinns
p679
I6
sV10w
p680
I0
sVnb
p681
I0
sVmaid
p682
I0
sVwb
p683
I2
sVbbmw
p684
I2
sV6s
p685
I3
sVbbmr
p686
I15
sVbbir
p687
I15
sVbbiw
p688
I2
sVa
V23.25
p689
sVb
I105
sVe
V5.31
p690
sVd
I44
sVwmaid
p691
I0
sV4w
p692
I0
sVm
I13
sV4s
p693
I4
sVr
I93
sVw
I4
sVsr
p694
V26.25
p695
sVov
p696
V17.50
p697
sV5w
p698
I0
ssg50
(dp699
Va
V41.33
p700
sVb
I325
sVinns
p701
I12
sVno
p702
I3
sVsr
p703
V114.46
p704
sVm
I13
sV4s
p705
I26
sV6s
p706
I11
sVhs
p707
V62
p708
sVr
V372
p709
sV100s
p710
I0
sV50s
p711
I5
ssg64
I2009
stp712
a(Vclt20-2009
(dp713
g24
(dp714
Vinns
p715
I0
sVc
I0
sVro
p716
I0
sVm
I5
sVs
I0
ssg28
(dp717
Vinns
p718
I4
sV10w
p719
I0
sVnb
p720
I0
sVmaid
p721
I0
sVwb
p722
I7
sVbbmw
p723
I2
sV6s
p724
I2
sVbbmr
p725
I10
sVbbir
p726
I10
sVbbiw
p727
I2
sVa
V20.75
p728
sVb
I55
sVe
V9.05
p729
sVd
I13
sVwmaid
p730
I0
sV4w
p731
I0
sVm
I5
sV4s
p732
I5
sVr
I83
sVw
I4
sVsr
p733
V13.75
p734
sVov
p735
V9.16
p736
sV5w
p737
I0
ssg50
(dp738
Va
V112.00
p739
sVb
I160
sVinns
p740
I5
sVno
p741
I3
sVsr
p742
V140.00
p743
sVm
I5
sV4s
p744
I16
sV6s
p745
I10
sVhs
p746
V99*
p747
sVr
V224
p748
sV100s
p749
I0
sV50s
p750
I2
ssg64
I2009
stp751
asb.