(iplayer
Player
p1
(dp2
S'is_batsman'
p3
I00
sS'name'
p4
S'Tim Southee'
p5
sS'dob'
p6
S'1988/12/11'
p7
sS'price'
p8
S'850000'
p9
sS'is_allrounder'
p10
I00
sS'is_overseas'
p11
I01
sS'team'
p12
S'RR'
p13
sS'nationality'
p14
S'New Zealander'
p15
sS'is_bowler'
p16
I01
sS'is_keeper'
p17
I00
sS'id'
p18
S'307'
p19
sS'is_uncapped'
p20
I00
sS'tournamentStats'
p21
(lp22
(Vnz-ind-2014
(dp23
S'fieldingStats'
p24
(dp25
Vinns
p26
I4
sVc
I6
sVro
p27
I0
sVm
I6
sVs
I0
ssS'bowlingStats'
p28
(dp29
Vinns
p30
I8
sV10w
p31
I0
sVnb
p32
I0
sVmaid
p33
I16
sVwb
p34
I9
sVbbmw
p35
I6
sV6s
p36
I8
sVbbmr
p37
I119
sVbbir
p38
I72
sVbbiw
p39
I4
sVa
V25.63
p40
sVb
I700
sVe
V4.17
p41
sVd
I465
sVwmaid
p42
I2
sV4w
p43
I1
sVm
I6
sV4s
p44
I56
sVr
I487
sVw
I19
sVsr
p45
V36.84
p46
sVov
p47
V116.66
p48
sV5w
p49
I0
ssS'battingStats'
p50
(dp51
Va
V23.00
p52
sVb
I103
sVinns
p53
I6
sVno
p54
I1
sVsr
p55
V111.65
p56
sVm
I6
sV4s
p57
I7
sV6s
p58
I9
sVhs
p59
V32
p60
sVr
V115
p61
sV100s
p62
I0
sV50s
p63
I0
ssS'year'
p64
I2014
stp65
a(Vworldt20-2014
p66
(dp67
g24
(dp68
Vinns
p69
I1
sVc
I1
sVro
p70
I0
sVm
I2
sVs
I0
ssg28
(dp71
Vinns
p72
I2
sV10w
p73
I0
sVnb
p74
I0
sVmaid
p75
I0
sVwb
p76
I2
sVbbmw
p77
I2
sV6s
p78
I3
sVbbmr
p79
I46
sVbbir
p80
I46
sVbbiw
p81
I2
sVa
V30.66
p82
sVb
I48
sVe
V11.50
p83
sVd
I16
sVwmaid
p84
I0
sV4w
p85
I0
sVm
I2
sV4s
p86
I12
sVr
I92
sVw
I3
sVsr
p87
V16.00
p88
sVov
p89
V8.00
p90
sV5w
p91
I0
ssg50
(dp92
Va
V-
sVinns
p93
I1
sVno
p94
I1
sVsr
p95
V-
sVm
I2
sV4s
p96
I0
sV6s
p97
I0
sVhs
p98
V0*
p99
sVr
V0
sV100s
p100
I0
sV50s
p101
I0
ssg64
I2014
stp102
a(Vnz-wi-2013
(dp103
g24
(dp104
Vinns
p105
I3
sVc
I4
sVro
p106
I0
sVm
I6
sVs
I0
ssg28
(dp107
Vinns
p108
I9
sV10w
p109
I0
sVnb
p110
I0
sVmaid
p111
I18
sVwb
p112
I6
sVbbmw
p113
I7
sV6s
p114
I4
sVbbmr
p115
I91
sVbbir
p116
I52
sVbbiw
p117
I4
sVa
V24.83
p118
sVb
I767
sVe
V3.49
p119
sVd
I547
sVwmaid
p120
I2
sV4w
p121
I2
sVm
I6
sV4s
p122
I56
sVr
I447
sVw
I18
sVsr
p123
V42.61
p124
sVov
p125
V127.83
p126
sV5w
p127
I0
ssg50
(dp128
Va
V12.50
p129
sVb
I51
sVinns
p130
I4
sVno
p131
I0
sVsr
p132
V98.03
p133
sVm
I6
sV4s
p134
I7
sV6s
p135
I1
sVhs
p136
V21
p137
sVr
V50
p138
sV100s
p139
I0
sV50s
p140
I0
ssg64
I2013
stp141
a(Vban-nz-2013
(dp142
g24
(dp143
Vinns
p144
I1
sVc
I1
sVro
p145
I0
sVm
I3
sVs
I0
ssg28
(dp146
Vinns
p147
I3
sV10w
p148
I0
sVnb
p149
I1
sVmaid
p150
I4
sVwb
p151
I2
sVbbmw
p152
I3
sV6s
p153
I4
sVbbmr
p154
I34
sVbbir
p155
I34
sVbbiw
p156
I3
sVa
V19.50
p157
sVb
I144
sVe
V4.87
p158
sVd
I83
sVwmaid
p159
I1
sV4w
p160
I0
sVm
I3
sV4s
p161
I10
sVr
I117
sVw
I6
sVsr
p162
V24.00
p163
sVov
p164
V24.00
p165
sV5w
p166
I0
ssg50
(dp167
Va
V0.00
p168
sVb
I2
sVinns
p169
I2
sVno
p170
I0
sVsr
p171
V0.00
p172
sVm
I3
sV4s
p173
I0
sV6s
p174
I0
sVhs
p175
V0*
p176
sVr
V0
sV100s
p177
I0
sV50s
p178
I0
ssg64
I2013
stp179
a(Veng-nz-2013
(dp180
g24
(dp181
Vinns
p182
I3
sVc
I4
sVro
p183
I0
sVm
I4
sVs
I0
ssg28
(dp184
Vinns
p185
I6
sV10w
p186
I1
sVnb
p187
I1
sVmaid
p188
I24
sVwb
p189
I6
sVbbmw
p190
I10
sV6s
p191
I3
sVbbmr
p192
I108
sVbbir
p193
I50
sVbbiw
p194
I6
sVa
V22.46
p195
sVb
I644
sVe
V3.13
p196
sVd
I480
sVwmaid
p197
I6
sV4w
p198
I1
sVm
I4
sV4s
p199
I35
sVr
I337
sVw
I15
sVsr
p200
V42.93
p201
sVov
p202
V107.33
p203
sV5w
p204
I1
ssg50
(dp205
Va
V18.20
p206
sVb
I94
sVinns
p207
I5
sVno
p208
I0
sVsr
p209
V96.80
p210
sVm
I4
sV4s
p211
I13
sV6s
p212
I2
sVhs
p213
V38
p214
sVr
V91
p215
sV100s
p216
I0
sV50s
p217
I0
ssg64
I2013
stp218
a(Vchamptrophy-2013
(dp219
g24
(dp220
Vinns
p221
I0
sVc
I0
sVro
p222
I0
sVm
I2
sVs
I0
ssg28
(dp223
Vinns
p224
I2
sV10w
p225
I0
sVnb
p226
I0
sVmaid
p227
I2
sVwb
p228
I1
sVbbmw
p229
I0
sV6s
p230
I0
sVbbmr
p231
I0
sVbbir
p232
I0
sVbbiw
p233
I0
sVa
V-
sVb
I66
sVe
V4.63
p234
sVd
I40
sVwmaid
p235
I0
sV4w
p236
I0
sVm
I2
sV4s
p237
I7
sVr
I51
sVw
I0
sVsr
p238
V-
sVov
p239
V11.00
p240
sV5w
p241
I0
ssg50
(dp242
Va
V-
sVb
I21
sVinns
p243
I1
sVno
p244
I1
sVsr
p245
V61.90
p246
sVm
I2
sV4s
p247
I1
sV6s
p248
I0
sVhs
p249
V13*
p250
sVr
V13
p251
sV100s
p252
I0
sV50s
p253
I0
ssg64
I2013
stp254
a(Vworldt20-2012
(dp255
g24
(dp256
Vinns
p257
I3
sVc
I2
sVro
p258
I1
sVm
I7
sVs
I0
ssg28
(dp259
Vinns
p260
I6
sV10w
p261
I0
sVnb
p262
I0
sVmaid
p263
I1
sVwb
p264
I9
sVbbmw
p265
I3
sV6s
p266
I6
sVbbmr
p267
I16
sVbbir
p268
I16
sVbbiw
p269
I3
sVa
V22.00
p270
sVb
I132
sVe
V8.00
p271
sVd
I47
sVwmaid
p272
I1
sV4w
p273
I0
sVm
I7
sV4s
p274
I14
sVr
I176
sVw
I8
sVsr
p275
V16.50
p276
sVov
p277
V22.00
p278
sV5w
p279
I0
ssg50
(dp280
Va
V3.00
p281
sVb
I7
sVinns
p282
I2
sVno
p283
I0
sVsr
p284
V85.71
p285
sVm
I7
sV4s
p286
I1
sV6s
p287
I0
sVhs
p288
V5
sVr
V6
sV100s
p289
I0
sV50s
p290
I0
ssg64
I2012
stp291
a(Vipl2011
(dp292
g24
(dp293
Vinns
p294
I0
sVc
I0
sVro
p295
I0
sVm
I5
sVs
I0
ssg28
(dp296
Vinns
p297
I5
sV10w
p298
I0
sVnb
p299
I0
sVmaid
p300
I0
sVwb
p301
I5
sVbbmw
p302
I1
sV6s
p303
I4
sVbbmr
p304
I30
sVbbir
p305
I30
sVbbiw
p306
I1
sVa
V41.50
p307
sVb
I114
sVe
V8.73
p308
sVd
I43
sVwmaid
p309
I0
sV4w
p310
I0
sVm
I5
sV4s
p311
I20
sVr
I166
sVw
I4
sVsr
p312
V28.50
p313
sVov
p314
V19.00
p315
sV5w
p316
I0
ssg50
(dp317
Va
V-
sVinns
p318
I0
sVno
p319
I0
sVsr
p320
V-
sVm
I5
sV4s
p321
I0
sV6s
p322
I0
sVhs
p323
V0*
p324
sVr
V0
sV100s
p325
I0
sV50s
p326
I0
ssg64
I2011
stp327
asb.