(iplayer
Player
p1
(dp2
S'is_batsman'
p3
I01
sS'name'
p4
S'Kevin Pietersen'
p5
sS'dob'
p6
S'1980/06/27'
p7
sS'price'
p8
S'1050000'
p9
sS'is_allrounder'
p10
I00
sS'is_overseas'
p11
I01
sS'team'
p12
S'DD'
p13
sS'nationality'
p14
S'English'
p15
sS'is_bowler'
p16
I00
sS'is_keeper'
p17
I00
sS'id'
p18
S'172'
p19
sS'is_uncapped'
p20
I00
sS'tournamentStats'
p21
(lp22
(Veng-aus-2013
(dp23
S'fieldingStats'
p24
(dp25
Vinns
p26
I4
sVc
I5
sVro
p27
I0
sVm
I5
sVs
I0
ssS'bowlingStats'
p28
(dp29
Vinns
p30
I0
sV10w
p31
I0
sVnb
p32
I0
sVmaid
p33
I0
sVwb
p34
I0
sVbbmw
p35
I0
sV6s
p36
I0
sVbbmr
p37
I0
sVbbir
p38
I0
sVbbiw
p39
I0
sVa
V-
sVb
I0
sVe
V-
sVd
I0
sVwmaid
p40
I0
sV4w
p41
I0
sVm
I5
sV4s
p42
I0
sVr
I0
sVw
I0
sVsr
p43
V-
sVov
p44
V-
sV5w
p45
I0
ssS'battingStats'
p46
(dp47
Va
V38.80
p48
sVb
I717
sVinns
p49
I10
sVno
p50
I0
sVsr
p51
V54.11
p52
sVm
I5
sV4s
p53
I52
sV6s
p54
I2
sVhs
p55
V113
p56
sVr
V388
p57
sV100s
p58
I1
sV50s
p59
I3
ssS'year'
p60
I2013
stp61
a(Veng-nz-2013
(dp62
g24
(dp63
Vinns
p64
I0
sVc
I0
sVro
p65
I0
sVm
I1
sVs
I0
ssg28
(dp66
Vinns
p67
I0
sV10w
p68
I0
sVnb
p69
I0
sVmaid
p70
I0
sVwb
p71
I0
sVbbmw
p72
I0
sV6s
p73
I0
sVbbmr
p74
I0
sVbbir
p75
I0
sVbbiw
p76
I0
sVa
V-
sVb
I0
sVe
V-
sVd
I0
sVwmaid
p77
I0
sV4w
p78
I0
sVm
I1
sV4s
p79
I0
sVr
I0
sVw
I0
sVsr
p80
V-
sVov
p81
V-
sV5w
p82
I0
ssg46
(dp83
Va
V-
sVinns
p84
I0
sVno
p85
I0
sVsr
p86
V-
sVm
I1
sV4s
p87
I0
sV6s
p88
I0
sVhs
p89
V0*
p90
sVr
V0
sV100s
p91
I0
sV50s
p92
I0
ssg60
I2013
stp93
a(Vaus-eng-2013
(dp94
g24
(dp95
Vinns
p96
I3
sVc
I3
sVro
p97
I0
sVm
I5
sVs
I0
ssg28
(dp98
Vinns
p99
I1
sV10w
p100
I0
sVnb
p101
I0
sVmaid
p102
I1
sVwb
p103
I0
sVbbmw
p104
I0
sV6s
p105
I0
sVbbmr
p106
I0
sVbbir
p107
I17
sVbbiw
p108
I0
sVa
V-
sVb
I24
sVe
V4.25
p109
sVd
I16
sVwmaid
p110
I0
sV4w
p111
I0
sVm
I5
sV4s
p112
I2
sVr
I17
sVw
I0
sVsr
p113
V-
sVov
p114
V4.00
p115
sV5w
p116
I0
ssg46
(dp117
Va
V29.40
p118
sVb
I591
sVinns
p119
I10
sVno
p120
I0
sVsr
p121
V49.74
p122
sVm
I5
sV4s
p123
I25
sV6s
p124
I5
sVhs
p125
V71
p126
sVr
V294
p127
sV100s
p128
I0
sV50s
p129
I2
ssg60
I2013
stp130
a(Vipl2012
(dp131
g24
(dp132
Vinns
p133
I5
sVc
I3
sVro
p134
I2
sVm
I8
sVs
I0
ssg28
(dp135
Vinns
p136
I3
sV10w
p137
I0
sVnb
p138
I0
sVmaid
p139
I0
sVwb
p140
I4
sVbbmw
p141
I0
sV6s
p142
I2
sVbbmr
p143
I0
sVbbir
p144
I0
sVbbiw
p145
I0
sVa
V-
sVb
I36
sVe
V8.83
p146
sVd
I10
sVwmaid
p147
I0
sV4w
p148
I0
sVm
I8
sV4s
p149
I3
sVr
I53
sVw
I0
sVsr
p150
V-
sVov
p151
V6.00
p152
sV5w
p153
I0
ssg46
(dp154
Va
V61.00
p155
sVb
I207
sVinns
p156
I8
sVno
p157
I3
sVsr
p158
V147.34
p159
sVm
I8
sV4s
p160
I22
sV6s
p161
I20
sVhs
p162
V103*
p163
sVr
V305
p164
sV100s
p165
I1
sV50s
p166
I1
ssg60
I2012
stp167
a(Vind-eng-2012-13
(dp168
g24
(dp169
Vinns
p170
I1
sVc
I1
sVro
p171
I0
sVm
I4
sVs
I0
ssg28
(dp172
Vinns
p173
I1
sV10w
p174
I0
sVnb
p175
I0
sVmaid
p176
I1
sVwb
p177
I0
sVbbmw
p178
I1
sV6s
p179
I0
sVbbmr
p180
I25
sVbbir
p181
I0
sVbbiw
p182
I0
sVa
V25.00
p183
sVb
I48
sVe
V3.12
p184
sVd
I28
sVwmaid
p185
I0
sV4w
p186
I0
sVm
I4
sV4s
p187
I1
sVr
I25
sVw
I1
sVsr
p188
V48.00
p189
sVov
p190
V8.00
p191
sV5w
p192
I0
ssg46
(dp193
Va
V48.28
p194
sVb
I586
sVinns
p195
I7
sVno
p196
I0
sVsr
p197
V57.67
p198
sVm
I4
sV4s
p199
I42
sV6s
p200
I5
sVhs
p201
V186
p202
sVr
V338
p203
sV100s
p204
I1
sV50s
p205
I2
ssg60
I2012
stp206
a(Vclt20-2012
p207
(dp208
g24
(dp209
Vinns
p210
I2
sVc
I2
sVro
p211
I0
sVm
I4
sVs
I0
ssg28
(dp212
Vinns
p213
I2
sV10w
p214
I0
sVnb
p215
I0
sVmaid
p216
I0
sVwb
p217
I0
sVbbmw
p218
I0
sV6s
p219
I0
sVbbmr
p220
I0
sVbbir
p221
I0
sVbbiw
p222
I0
sVa
V-
sVb
I24
sVe
V9.00
p223
sVd
I7
sVwmaid
p224
I0
sV4w
p225
I0
sVm
I4
sV4s
p226
I6
sVr
I36
sVw
I0
sVsr
p227
V-
sVov
p228
V4.00
p229
sV5w
p230
I0
ssg46
(dp231
Va
V24.33
p232
sVb
I71
sVinns
p233
I3
sVno
p234
I0
sVsr
p235
V102.81
p236
sVm
I4
sV4s
p237
I5
sV6s
p238
I1
sVhs
p239
V50
p240
sVr
V73
p241
sV100s
p242
I0
sV50s
p243
I1
ssg60
I2012
stp244
a(Vipl2010
(dp245
g24
(dp246
Vinns
p247
I3
sVc
I3
sVro
p248
I0
sVm
I7
sVs
I0
ssg28
(dp249
Vinns
p250
I6
sV10w
p251
I0
sVnb
p252
I0
sVmaid
p253
I0
sVwb
p254
I0
sVbbmw
p255
I1
sV6s
p256
I4
sVbbmr
p257
I10
sVbbir
p258
I10
sVbbiw
p259
I1
sVa
V25.66
p260
sVb
I60
sVe
V7.70
p261
sVd
I18
sVwmaid
p262
I0
sV4w
p263
I0
sVm
I7
sV4s
p264
I4
sVr
I77
sVw
I3
sVsr
p265
V20.00
p266
sVov
p267
V10.00
p268
sV5w
p269
I0
ssg46
(dp270
Va
V59.00
p271
sVb
I157
sVinns
p272
I7
sVno
p273
I3
sVsr
p274
V150.31
p275
sVm
I7
sV4s
p276
I23
sV6s
p277
I8
sVhs
p278
V66*
p279
sVr
V236
p280
sV100s
p281
I0
sV50s
p282
I2
ssg60
I2010
stp283
a(Vipl2009
(dp284
g24
(dp285
Vinns
p286
I3
sVc
I3
sVro
p287
I0
sVm
I6
sVs
I0
ssg28
(dp288
Vinns
p289
I4
sV10w
p290
I0
sVnb
p291
I0
sVmaid
p292
I0
sVwb
p293
I2
sVbbmw
p294
I2
sV6s
p295
I3
sVbbmr
p296
I31
sVbbir
p297
I31
sVbbiw
p298
I2
sVa
V21.25
p299
sVb
I78
sVe
V6.53
p300
sVd
I26
sVwmaid
p301
I0
sV4w
p302
I0
sVm
I6
sV4s
p303
I4
sVr
I85
sVw
I4
sVsr
p304
V19.50
p305
sVov
p306
V13.00
p307
sV5w
p308
I0
ssg46
(dp309
Va
V15.50
p310
sVb
I85
sVinns
p311
I6
sVno
p312
I0
sVsr
p313
V109.41
p314
sVm
I6
sV4s
p315
I8
sV6s
p316
I2
sVhs
p317
V37
p318
sVr
V93
p319
sV100s
p320
I0
sV50s
p321
I0
ssg60
I2009
stp322
asb.