(iplayer
Player
p1
(dp2
S'is_batsman'
p3
I01
sS'name'
p4
S'Saurabh Tiwary'
p5
sS'dob'
p6
S'1989/12/30'
p7
sS'price'
p8
S'800000'
p9
sS'is_allrounder'
p10
I00
sS'is_overseas'
p11
I00
sS'team'
p12
S'DD'
p13
sS'nationality'
p14
S'Indian'
p15
sS'is_bowler'
p16
I00
sS'is_keeper'
p17
I00
sS'id'
p18
S'163'
p19
sS'is_uncapped'
p20
I00
sS'tournamentStats'
p21
(lp22
(Vipl2013
(dp23
S'fieldingStats'
p24
(dp25
Vinns
p26
I2
sVc
I2
sVro
p27
I0
sVm
I9
sVs
I0
ssS'bowlingStats'
p28
(dp29
Vinns
p30
I0
sV10w
p31
I0
sVnb
p32
I0
sVmaid
p33
I0
sVwb
p34
I0
sVbbmw
p35
I0
sV6s
p36
I0
sVbbmr
p37
I0
sVbbir
p38
I0
sVbbiw
p39
I0
sVa
V-
sVb
I0
sVe
V-
sVd
I0
sVwmaid
p40
I0
sV4w
p41
I0
sVm
I9
sV4s
p42
I0
sVr
I0
sVw
I0
sVsr
p43
V-
sVov
p44
V-
sV5w
p45
I0
ssS'battingStats'
p46
(dp47
Va
V27.25
p48
sVb
I106
sVinns
p49
I6
sVno
p50
I2
sVsr
p51
V102.83
p52
sVm
I9
sV4s
p53
I4
sV6s
p54
I4
sVhs
p55
V52
p56
sVr
V109
p57
sV100s
p58
I0
sV50s
p59
I1
ssS'year'
p60
I2013
stp61
a(Vipl2012
(dp62
g24
(dp63
Vinns
p64
I2
sVc
I3
sVro
p65
I0
sVm
I15
sVs
I0
ssg28
(dp66
Vinns
p67
I0
sV10w
p68
I0
sVnb
p69
I0
sVmaid
p70
I0
sVwb
p71
I0
sVbbmw
p72
I0
sV6s
p73
I0
sVbbmr
p74
I0
sVbbir
p75
I0
sVbbiw
p76
I0
sVa
V-
sVb
I0
sVe
V-
sVd
I0
sVwmaid
p77
I0
sV4w
p78
I0
sVm
I15
sV4s
p79
I0
sVr
I0
sVw
I0
sVsr
p80
V-
sVov
p81
V-
sV5w
p82
I0
ssg46
(dp83
Va
V23.87
p84
sVb
I170
sVinns
p85
I11
sVno
p86
I3
sVsr
p87
V112.35
p88
sVm
I15
sV4s
p89
I9
sV6s
p90
I8
sVhs
p91
V36*
p92
sVr
V191
p93
sV100s
p94
I0
sV50s
p95
I0
ssg60
I2012
stp96
a(Vipl2011
(dp97
g24
(dp98
Vinns
p99
I5
sVc
I5
sVro
p100
I0
sVm
I16
sVs
I0
ssg28
(dp101
Vinns
p102
I0
sV10w
p103
I0
sVnb
p104
I0
sVmaid
p105
I0
sVwb
p106
I0
sVbbmw
p107
I0
sV6s
p108
I0
sVbbmr
p109
I0
sVbbir
p110
I0
sVbbiw
p111
I0
sVa
V-
sVb
I0
sVe
V-
sVd
I0
sVwmaid
p112
I0
sV4w
p113
I0
sVm
I16
sV4s
p114
I0
sVr
I0
sVw
I0
sVsr
p115
V-
sVov
p116
V-
sV5w
p117
I0
ssg46
(dp118
Va
V23.37
p119
sVb
I188
sVinns
p120
I13
sVno
p121
I5
sVsr
p122
V99.46
p123
sVm
I16
sV4s
p124
I13
sV6s
p125
I5
sVhs
p126
V42*
p127
sVr
V187
p128
sV100s
p129
I0
sV50s
p130
I0
ssg60
I2011
stp131
a(Vclt20-2011
p132
(dp133
g24
(dp134
Vinns
p135
I1
sVc
I1
sVro
p136
I0
sVm
I6
sVs
I0
ssg28
(dp137
Vinns
p138
I0
sV10w
p139
I0
sVnb
p140
I0
sVmaid
p141
I0
sVwb
p142
I0
sVbbmw
p143
I0
sV6s
p144
I0
sVbbmr
p145
I0
sVbbir
p146
I0
sVbbiw
p147
I0
sVa
V-
sVb
I0
sVe
V-
sVd
I0
sVwmaid
p148
I0
sV4w
p149
I0
sVm
I6
sV4s
p150
I0
sVr
I0
sVw
I0
sVsr
p151
V-
sVov
p152
V-
sV5w
p153
I0
ssg46
(dp154
Va
V15.16
p155
sVb
I78
sVinns
p156
I6
sVno
p157
I0
sVsr
p158
V116.66
p159
sVm
I6
sV4s
p160
I4
sV6s
p161
I6
sVhs
p162
V28
p163
sVr
V91
p164
sV100s
p165
I0
sV50s
p166
I0
ssg60
I2011
stp167
a(Vclt20-2010
(dp168
g24
(dp169
Vinns
p170
I2
sVc
I3
sVro
p171
I0
sVm
I3
sVs
I0
ssg28
(dp172
Vinns
p173
I0
sV10w
p174
I0
sVnb
p175
I0
sVmaid
p176
I0
sVwb
p177
I0
sVbbmw
p178
I0
sV6s
p179
I0
sVbbmr
p180
I0
sVbbir
p181
I0
sVbbiw
p182
I0
sVa
V-
sVb
I0
sVe
V-
sVd
I0
sVwmaid
p183
I0
sV4w
p184
I0
sVm
I3
sV4s
p185
I0
sVr
I0
sVw
I0
sVsr
p186
V-
sVov
p187
V-
sV5w
p188
I0
ssg46
(dp189
Va
V41.00
p190
sVb
I58
sVinns
p191
I3
sVno
p192
I1
sVsr
p193
V141.37
p194
sVm
I3
sV4s
p195
I4
sV6s
p196
I5
sVhs
p197
V44
p198
sVr
V82
p199
sV100s
p200
I0
sV50s
p201
I0
ssg60
I2010
stp202
a(Vipl2010
(dp203
g24
(dp204
Vinns
p205
I4
sVc
I3
sVro
p206
I1
sVm
I16
sVs
I0
ssg28
(dp207
Vinns
p208
I0
sV10w
p209
I0
sVnb
p210
I0
sVmaid
p211
I0
sVwb
p212
I0
sVbbmw
p213
I0
sV6s
p214
I0
sVbbmr
p215
I0
sVbbir
p216
I0
sVbbiw
p217
I0
sVa
V-
sVb
I0
sVe
V-
sVd
I0
sVwmaid
p218
I0
sV4w
p219
I0
sVm
I16
sV4s
p220
I0
sVr
I0
sVw
I0
sVsr
p221
V-
sVov
p222
V-
sV5w
p223
I0
ssg46
(dp224
Va
V29.92
p225
sVb
I309
sVinns
p226
I15
sVno
p227
I1
sVsr
p228
V135.59
p229
sVm
I16
sV4s
p230
I29
sV6s
p231
I18
sVhs
p232
V61
p233
sVr
V419
p234
sV100s
p235
I0
sV50s
p236
I3
ssg60
I2010
stp237
a(Vipl2009
(dp238
g24
(dp239
Vinns
p240
I0
sVc
I0
sVro
p241
I0
sVm
I4
sVs
I0
ssg28
(dp242
Vinns
p243
I0
sV10w
p244
I0
sVnb
p245
I0
sVmaid
p246
I0
sVwb
p247
I0
sVbbmw
p248
I0
sV6s
p249
I0
sVbbmr
p250
I0
sVbbir
p251
I0
sVbbiw
p252
I0
sVa
V-
sVb
I0
sVe
V-
sVd
I0
sVwmaid
p253
I0
sV4w
p254
I0
sVm
I4
sV4s
p255
I0
sVr
I0
sVw
I0
sVsr
p256
V-
sVov
p257
V-
sV5w
p258
I0
ssg46
(dp259
Va
V13.00
p260
sVb
I12
sVinns
p261
I3
sVno
p262
I2
sVsr
p263
V108.33
p264
sVm
I4
sV4s
p265
I0
sV6s
p266
I0
sVhs
p267
V6*
p268
sVr
V13
p269
sV100s
p270
I0
sV50s
p271
I0
ssg60
I2009
stp272
a(Vipl2008
(dp273
g24
(dp274
Vinns
p275
I1
sVc
I1
sVro
p276
I0
sVm
I3
sVs
I0
ssg28
(dp277
Vinns
p278
I0
sV10w
p279
I0
sVnb
p280
I0
sVmaid
p281
I0
sVwb
p282
I0
sVbbmw
p283
I0
sV6s
p284
I0
sVbbmr
p285
I0
sVbbir
p286
I0
sVbbiw
p287
I0
sVa
V-
sVb
I0
sVe
V-
sVd
I0
sVwmaid
p288
I0
sV4w
p289
I0
sVm
I3
sV4s
p290
I0
sVr
I0
sVw
I0
sVsr
p291
V-
sVov
p292
V-
sV5w
p293
I0
ssg46
(dp294
Va
V13.00
p295
sVb
I20
sVinns
p296
I2
sVno
p297
I0
sVsr
p298
V130.00
p299
sVm
I3
sV4s
p300
I3
sV6s
p301
I1
sVhs
p302
V17
p303
sVr
V26
p304
sV100s
p305
I0
sV50s
p306
I0
ssg60
I2008
stp307
asb.