(iplayer
Player
p1
(dp2
S'is_batsman'
p3
I00
sS'name'
p4
S'Muttiah Muralitharan'
p5
sS'dob'
p6
S'1972/04/17'
p7
sS'price'
p8
S'900000'
p9
sS'is_allrounder'
p10
I00
sS'is_overseas'
p11
I01
sS'team'
p12
S'RCB'
p13
sS'nationality'
p14
S'Sri Lankan'
p15
sS'is_bowler'
p16
I01
sS'is_keeper'
p17
I00
sS'id'
p18
S'241'
p19
sS'is_uncapped'
p20
I00
sS'tournamentStats'
p21
(lp22
(Vbigbash-2013
(dp23
S'fieldingStats'
p24
(dp25
Vinns
p26
I0
sVc
I0
sVro
p27
I0
sVm
I8
sVs
I0
ssS'bowlingStats'
p28
(dp29
Vinns
p30
I8
sV10w
p31
I0
sVnb
p32
I0
sVmaid
p33
I0
sVwb
p34
I2
sVbbmw
p35
I2
sV6s
p36
I5
sVbbmr
p37
I15
sVbbir
p38
I15
sVbbiw
p39
I2
sVa
V19.62
p40
sVb
I174
sVe
V5.41
p41
sVd
I64
sVwmaid
p42
I0
sV4w
p43
I0
sVm
I8
sV4s
p44
I3
sVr
I157
sVw
I8
sVsr
p45
V21.75
p46
sVov
p47
V29.00
p48
sV5w
p49
I0
ssS'battingStats'
p50
(dp51
Va
V0.00
p52
sVb
I2
sVinns
p53
I2
sVno
p54
I1
sVsr
p55
V0.00
p56
sVm
I8
sV4s
p57
I0
sV6s
p58
I0
sVhs
p59
V0*
p60
sVr
V0
sV100s
p61
I0
sV50s
p62
I0
ssS'year'
p63
I2013
stp64
a(Vipl2013
p65
(dp66
g24
(dp67
Vinns
p68
I2
sVc
I1
sVro
p69
I1
sVm
I6
sVs
I0
ssg28
(dp70
Vinns
p71
I6
sV10w
p72
I0
sVnb
p73
I1
sVmaid
p74
I0
sVwb
p75
I2
sVbbmw
p76
I1
sV6s
p77
I8
sVbbmr
p78
I18
sVbbir
p79
I18
sVbbiw
p80
I1
sVa
V59.00
p81
sVb
I138
sVe
V7.69
p82
sVd
I42
sVwmaid
p83
I0
sV4w
p84
I0
sVm
I6
sV4s
p85
I14
sVr
I177
sVw
I3
sVsr
p86
V46.00
p87
sVov
p88
V23.00
p89
sV5w
p90
I0
ssg50
(dp91
Va
V-
sVinns
p92
I0
sVno
p93
I0
sVsr
p94
V-
sVm
I6
sV4s
p95
I0
sV6s
p96
I0
sVhs
p97
V0*
p98
sVr
V0
sV100s
p99
I0
sV50s
p100
I0
ssg63
I2013
stp101
a(Vipl2012
(dp102
g24
(dp103
Vinns
p104
I2
sVc
I2
sVro
p105
I0
sVm
I10
sVs
I0
ssg28
(dp106
Vinns
p107
I10
sV10w
p108
I0
sVnb
p109
I0
sVmaid
p110
I0
sVwb
p111
I5
sVbbmw
p112
I3
sV6s
p113
I9
sVbbmr
p114
I21
sVbbir
p115
I21
sVbbiw
p116
I3
sVa
V17.33
p117
sVb
I240
sVe
V6.50
p118
sVd
I82
sVwmaid
p119
I0
sV4w
p120
I0
sVm
I10
sV4s
p121
I13
sVr
I260
sVw
I15
sVsr
p122
V16.00
p123
sVov
p124
V40.00
p125
sV5w
p126
I0
ssg50
(dp127
Va
V3.00
p128
sVb
I9
sVinns
p129
I2
sVno
p130
I0
sVsr
p131
V66.66
p132
sVm
I10
sV4s
p133
I0
sV6s
p134
I0
sVhs
p135
V6
sVr
V6
sV100s
p136
I0
sV50s
p137
I0
ssg63
I2012
stp138
a(Vbigbash-2012
(dp139
g24
(dp140
Vinns
p141
I2
sVc
I2
sVro
p142
I0
sVm
I8
sVs
I0
ssg28
(dp143
Vinns
p144
I8
sV10w
p145
I0
sVnb
p146
I0
sVmaid
p147
I0
sVwb
p148
I5
sVbbmw
p149
I3
sV6s
p150
I4
sVbbmr
p151
I18
sVbbir
p152
I18
sVbbiw
p153
I3
sVa
V17.36
p154
sVb
I192
sVe
V5.96
p155
sVd
I60
sVwmaid
p156
I0
sV4w
p157
I0
sVm
I8
sV4s
p158
I9
sVr
I191
sVw
I11
sVsr
p159
V17.45
p160
sVov
p161
V32.00
p162
sV5w
p163
I0
ssg50
(dp164
Va
V1.00
p165
sVb
I3
sVinns
p166
I2
sVno
p167
I1
sVsr
p168
V33.33
p169
sVm
I8
sV4s
p170
I0
sV6s
p171
I0
sVhs
p172
V1
sVr
V1
sV100s
p173
I0
sV50s
p174
I0
ssg63
I2012
stp175
a(Vipl2011
(dp176
g24
(dp177
Vinns
p178
I1
sVc
I1
sVro
p179
I0
sVm
I5
sVs
I0
ssg28
(dp180
Vinns
p181
I5
sV10w
p182
I0
sVnb
p183
I0
sVmaid
p184
I0
sVwb
p185
I3
sVbbmw
p186
I1
sV6s
p187
I8
sVbbmr
p188
I18
sVbbir
p189
I18
sVbbiw
p190
I1
sVa
V70.50
p191
sVb
I114
sVe
V7.42
p192
sVd
I46
sVwmaid
p193
I0
sV4w
p194
I0
sVm
I5
sV4s
p195
I8
sVr
I141
sVw
I2
sVsr
p196
V57.00
p197
sVov
p198
V19.00
p199
sV5w
p200
I0
ssg50
(dp201
Va
V-
sVb
I8
sVinns
p202
I1
sVno
p203
I1
sVsr
p204
V62.50
p205
sVm
I5
sV4s
p206
I0
sV6s
p207
I0
sVhs
p208
V5*
p209
sVr
V5
sV100s
p210
I0
sV50s
p211
I0
ssg63
I2011
stp212
a(Vclt20-2010
(dp213
g24
(dp214
Vinns
p215
I2
sVc
I4
sVro
p216
I0
sVm
I6
sVs
I0
ssg28
(dp217
Vinns
p218
I6
sV10w
p219
I0
sVnb
p220
I2
sVmaid
p221
I0
sVwb
p222
I4
sVbbmw
p223
I3
sV6s
p224
I4
sVbbmr
p225
I16
sVbbir
p226
I16
sVbbiw
p227
I3
sVa
V11.00
p228
sVb
I139
sVe
V5.69
p229
sVd
I60
sVwmaid
p230
I0
sV4w
p231
I0
sVm
I6
sV4s
p232
I5
sVr
I132
sVw
I12
sVsr
p233
V11.58
p234
sVov
p235
V23.16
p236
sV5w
p237
I0
ssg50
(dp238
Va
V-
sVinns
p239
I0
sVno
p240
I0
sVsr
p241
V-
sVm
I6
sV4s
p242
I0
sV6s
p243
I0
sVhs
p244
V0*
p245
sVr
V0
sV100s
p246
I0
sV50s
p247
I0
ssg63
I2010
stp248
a(Vipl2010
(dp249
g24
(dp250
Vinns
p251
I3
sVc
I3
sVro
p252
I0
sVm
I12
sVs
I0
ssg28
(dp253
Vinns
p254
I12
sV10w
p255
I0
sVnb
p256
I0
sVmaid
p257
I0
sVwb
p258
I14
sVbbmw
p259
I3
sV6s
p260
I14
sVbbmr
p261
I16
sVbbir
p262
I16
sVbbiw
p263
I3
sVa
V21.93
p264
sVb
I288
sVe
V6.85
p265
sVd
I121
sVwmaid
p266
I0
sV4w
p267
I0
sVm
I12
sV4s
p268
I22
sVr
I329
sVw
I15
sVsr
p269
V19.20
p270
sVov
p271
V48.00
p272
sV5w
p273
I0
ssg50
(dp274
Va
V1.00
p275
sVb
I2
sVinns
p276
I1
sVno
p277
I0
sVsr
p278
V50.00
p279
sVm
I12
sV4s
p280
I0
sV6s
p281
I0
sVhs
p282
V1
sVr
V1
sV100s
p283
I0
sV50s
p284
I0
ssg63
I2010
stp285
a(Vipl2009
(dp286
g24
(dp287
Vinns
p288
I6
sVc
I4
sVro
p289
I2
sVm
I13
sVs
I0
ssg28
(dp290
Vinns
p291
I13
sV10w
p292
I0
sVnb
p293
I0
sVmaid
p294
I1
sVwb
p295
I4
sVbbmw
p296
I3
sV6s
p297
I6
sVbbmr
p298
I11
sVbbir
p299
I11
sVbbiw
p300
I3
sVa
V18.64
p301
sVb
I300
sVe
V5.22
p302
sVd
I144
sVwmaid
p303
I1
sV4w
p304
I0
sVm
I13
sV4s
p305
I19
sVr
I261
sVw
I14
sVsr
p306
V21.42
p307
sVov
p308
V50.00
p309
sV5w
p310
I0
ssg50
(dp311
Va
V4.00
p312
sVb
I8
sVinns
p313
I4
sVno
p314
I2
sVsr
p315
V100.00
p316
sVm
I13
sV4s
p317
I1
sV6s
p318
I0
sVhs
p319
V4
sVr
V8
sV100s
p320
I0
sV50s
p321
I0
ssg63
I2009
stp322
a(Vipl2008
(dp323
g24
(dp324
Vinns
p325
I4
sVc
I4
sVro
p326
I0
sVm
I15
sVs
I0
ssg28
(dp327
Vinns
p328
I15
sV10w
p329
I0
sVnb
p330
I1
sVmaid
p331
I0
sVwb
p332
I20
sVbbmw
p333
I2
sV6s
p334
I14
sVbbmr
p335
I39
sVbbir
p336
I39
sVbbiw
p337
I2
sVa
V36.72
p338
sVb
I348
sVe
V6.96
p339
sVd
I127
sVwmaid
p340
I0
sV4w
p341
I0
sVm
I15
sV4s
p342
I23
sVr
I404
sVw
I11
sVsr
p343
V31.63
p344
sVov
p345
V58.00
p346
sV5w
p347
I0
ssg50
(dp348
Va
V0.00
p349
sVb
I3
sVinns
p350
I1
sVno
p351
I0
sVsr
p352
V0.00
p353
sVm
I15
sV4s
p354
I0
sV6s
p355
I0
sVhs
p356
V0*
p357
sVr
V0
sV100s
p358
I0
sV50s
p359
I0
ssg63
I2008
stp360
asb.