(iplayer
Player
p1
(dp2
S'is_batsman'
p3
I00
sS'name'
p4
S'Rahul Sharma'
p5
sS'dob'
p6
S'1986/11/30'
p7
sS'price'
p8
S'850000'
p9
sS'is_allrounder'
p10
I00
sS'is_overseas'
p11
I00
sS'team'
p12
S'DD'
p13
sS'nationality'
p14
S'Indian'
p15
sS'is_bowler'
p16
I01
sS'is_keeper'
p17
I00
sS'id'
p18
S'126'
p19
sS'is_uncapped'
p20
I00
sS'tournamentStats'
p21
(lp22
(Vipl2013
(dp23
S'fieldingStats'
p24
(dp25
Vinns
p26
I2
sVc
I2
sVro
p27
I0
sVm
I11
sVs
I0
ssS'bowlingStats'
p28
(dp29
Vinns
p30
I11
sV10w
p31
I0
sVnb
p32
I0
sVmaid
p33
I0
sVwb
p34
I1
sVbbmw
p35
I2
sV6s
p36
I7
sVbbmr
p37
I16
sVbbir
p38
I16
sVbbiw
p39
I2
sVa
V31.22
p40
sVb
I246
sVe
V6.85
p41
sVd
I85
sVwmaid
p42
I0
sV4w
p43
I0
sVm
I11
sV4s
p44
I21
sVr
I281
sVw
I9
sVsr
p45
V27.33
p46
sVov
p47
V41.00
p48
sV5w
p49
I0
ssS'battingStats'
p50
(dp51
Va
V2.75
p52
sVb
I17
sVinns
p53
I6
sVno
p54
I2
sVsr
p55
V64.70
p56
sVm
I11
sV4s
p57
I1
sV6s
p58
I0
sVhs
p59
V10*
p60
sVr
V11
p61
sV100s
p62
I0
sV50s
p63
I0
ssS'year'
p64
I2013
stp65
a(Vipl2012
(dp66
g24
(dp67
Vinns
p68
I2
sVc
I2
sVro
p69
I0
sVm
I11
sVs
I0
ssg28
(dp70
Vinns
p71
I11
sV10w
p72
I0
sVnb
p73
I0
sVmaid
p74
I0
sVwb
p75
I2
sVbbmw
p76
I2
sV6s
p77
I16
sVbbmr
p78
I16
sVbbir
p79
I16
sVbbiw
p80
I2
sVa
V33.33
p81
sVb
I222
sVe
V8.10
p82
sVd
I72
sVwmaid
p83
I0
sV4w
p84
I0
sVm
I11
sV4s
p85
I20
sVr
I300
sVw
I9
sVsr
p86
V24.66
p87
sVov
p88
V37.00
p89
sV5w
p90
I0
ssg50
(dp91
Va
V0.50
p92
sVb
I11
sVinns
p93
I5
sVno
p94
I1
sVsr
p95
V18.18
p96
sVm
I11
sV4s
p97
I0
sV6s
p98
I0
sVhs
p99
V2
sVr
V2
sV100s
p100
I0
sV50s
p101
I0
ssg64
I2012
stp102
a(Vipl2011
p103
(dp104
g24
(dp105
Vinns
p106
I6
sVc
I7
sVro
p107
I0
sVm
I14
sVs
I0
ssg28
(dp108
Vinns
p109
I14
sV10w
p110
I0
sVnb
p111
I0
sVmaid
p112
I1
sVwb
p113
I2
sVbbmw
p114
I3
sV6s
p115
I6
sVbbmr
p116
I13
sVbbir
p117
I13
sVbbiw
p118
I3
sVa
V17.06
p119
sVb
I300
sVe
V5.46
p120
sVd
I128
sVwmaid
p121
I1
sV4w
p122
I0
sVm
I14
sV4s
p123
I18
sVr
I273
sVw
I16
sVsr
p124
V18.75
p125
sVov
p126
V50.00
p127
sV5w
p128
I0
ssg50
(dp129
Va
V8.00
p130
sVb
I21
sVinns
p131
I5
sVno
p132
I2
sVsr
p133
V114.28
p134
sVm
I14
sV4s
p135
I1
sV6s
p136
I2
sVhs
p137
V13
p138
sVr
V24
p139
sV100s
p140
I0
sV50s
p141
I0
ssg64
I2011
stp142
a(Vipl2010
(dp143
g24
(dp144
Vinns
p145
I0
sVc
I0
sVro
p146
I0
sVm
I6
sVs
I0
ssg28
(dp147
Vinns
p148
I6
sV10w
p149
I0
sVnb
p150
I0
sVmaid
p151
I0
sVwb
p152
I2
sVbbmw
p153
I2
sV6s
p154
I11
sVbbmr
p155
I42
sVbbir
p156
I42
sVbbiw
p157
I2
sVa
V33.40
p158
sVb
I124
sVe
V8.08
p159
sVd
I40
sVwmaid
p160
I0
sV4w
p161
I0
sVm
I6
sV4s
p162
I8
sVr
I167
sVw
I5
sVsr
p163
V24.80
p164
sVov
p165
V20.66
p166
sV5w
p167
I0
ssg50
(dp168
Va
V9.66
p169
sVb
I26
sVinns
p170
I4
sVno
p171
I1
sVsr
p172
V111.53
p173
sVm
I6
sV4s
p174
I3
sV6s
p175
I1
sVhs
p176
V14*
p177
sVr
V29
p178
sV100s
p179
I0
sV50s
p180
I0
ssg64
I2010
stp181
asb.