(iplayer
Player
p1
(dp2
S'is_batsman'
p3
I01
sS'name'
p4
S'Virat Kohli'
p5
sS'dob'
p6
S'1988/11/05'
p7
sS'price'
p8
S'1050000'
p9
sS'is_allrounder'
p10
I00
sS'is_overseas'
p11
I00
sS'team'
p12
S'RCB'
p13
sS'nationality'
p14
S'Indian'
p15
sS'is_bowler'
p16
I00
sS'is_keeper'
p17
I00
sS'id'
p18
S'164'
p19
sS'is_uncapped'
p20
I00
sS'tournamentStats'
p21
(lp22
(Vasiacup-2014
(dp23
S'fieldingStats'
p24
(dp25
Vinns
p26
I1
sVc
I2
sVro
p27
I0
sVm
I4
sVs
I0
ssS'bowlingStats'
p28
(dp29
Vinns
p30
I1
sV10w
p31
I0
sVnb
p32
I0
sVmaid
p33
I0
sVwb
p34
I0
sVbbmw
p35
I0
sV6s
p36
I0
sVbbmr
p37
I0
sVbbir
p38
I0
sVbbiw
p39
I0
sVa
V-
sVb
I7
sVe
V5.14
p40
sVd
I2
sVwmaid
p41
I0
sV4w
p42
I0
sVm
I4
sV4s
p43
I0
sVr
I6
sVw
I0
sVsr
p44
V-
sVov
p45
V1.16
p46
sV5w
p47
I0
ssS'battingStats'
p48
(dp49
Va
V63.00
p50
sVb
I184
sVinns
p51
I3
sVno
p52
I0
sVsr
p53
V102.71
p54
sVm
I4
sV4s
p55
I20
sV6s
p56
I3
sVhs
p57
V136
p58
sVr
V189
p59
sV100s
p60
I1
sV50s
p61
I0
ssS'year'
p62
I2014
stp63
a(Vnz-ind-2014
(dp64
g24
(dp65
Vinns
p66
I3
sVc
I2
sVro
p67
I1
sVm
I7
sVs
I0
ssg28
(dp68
Vinns
p69
I5
sV10w
p70
I0
sVnb
p71
I1
sVmaid
p72
I1
sVwb
p73
I0
sVbbmw
p74
I1
sV6s
p75
I1
sVbbmr
p76
I36
sVbbir
p77
I36
sVbbiw
p78
I1
sVa
V78.00
p79
sVb
I114
sVe
V4.10
p80
sVd
I62
sVwmaid
p81
I0
sV4w
p82
I0
sVm
I7
sV4s
p83
I6
sVr
I78
sVw
I1
sVsr
p84
V114.00
p85
sVov
p86
V19.00
p87
sV5w
p88
I0
ssg48
(dp89
Va
V63.12
p90
sVb
I627
sVinns
p91
I9
sVno
p92
I1
sVsr
p93
V80.54
p94
sVm
I7
sV4s
p95
I58
sV6s
p96
I8
sVhs
p97
V123
p98
sVr
V505
p99
sV100s
p100
I2
sV50s
p101
I3
ssg62
I2014
stp102
a(Vworldt20-2014
(dp103
g24
(dp104
Vinns
p105
I1
sVc
I1
sVro
p106
I0
sVm
I2
sVs
I0
ssg28
(dp107
Vinns
p108
I0
sV10w
p109
I0
sVnb
p110
I0
sVmaid
p111
I0
sVwb
p112
I0
sVbbmw
p113
I0
sV6s
p114
I0
sVbbmr
p115
I0
sVbbir
p116
I0
sVbbiw
p117
I0
sVa
V-
sVb
I0
sVe
V-
sVd
I0
sVwmaid
p118
I0
sV4w
p119
I0
sVm
I2
sV4s
p120
I0
sVr
I0
sVw
I0
sVsr
p121
V-
sVov
p122
V-
sV5w
p123
I0
ssg48
(dp124
Va
V90.00
p125
sVb
I73
sVinns
p126
I2
sVno
p127
I1
sVsr
p128
V123.28
p129
sVm
I2
sV4s
p130
I9
sV6s
p131
I2
sVhs
p132
V54
p133
sVr
V90
p134
sV100s
p135
I0
sV50s
p136
I1
ssg62
I2014
stp137
a(Vind-aus-2-2013
(dp138
g24
(dp139
Vinns
p140
I3
sVc
I4
sVro
p141
I0
sVm
I7
sVs
I0
ssg28
(dp142
Vinns
p143
I4
sV10w
p144
I0
sVnb
p145
I0
sVmaid
p146
I0
sVwb
p147
I2
sVbbmw
p148
I0
sV6s
p149
I3
sVbbmr
p150
I0
sVbbir
p151
I0
sVbbiw
p152
I0
sVa
V-
sVb
I36
sVe
V11.50
p153
sVd
I8
sVwmaid
p154
I0
sV4w
p155
I0
sVm
I7
sV4s
p156
I7
sVr
I69
sVw
I0
sVsr
p157
V-
sVov
p158
V6.00
p159
sV5w
p160
I0
ssg48
(dp161
Va
V93.25
p162
sVb
I301
sVinns
p163
I6
sVno
p164
I2
sVsr
p165
V123.92
p166
sVm
I7
sV4s
p167
I43
sV6s
p168
I9
sVhs
p169
V115*
p170
sVr
V373
p171
sV100s
p172
I2
sV50s
p173
I2
ssg62
I2013
stp174
a(Vipl2013
(dp175
g24
(dp176
Vinns
p177
I8
sVc
I7
sVro
p178
I3
sVm
I16
sVs
I0
ssg28
(dp179
Vinns
p180
I0
sV10w
p181
I0
sVnb
p182
I0
sVmaid
p183
I0
sVwb
p184
I0
sVbbmw
p185
I0
sV6s
p186
I0
sVbbmr
p187
I0
sVbbir
p188
I0
sVbbiw
p189
I0
sVa
V-
sVb
I0
sVe
V-
sVd
I0
sVwmaid
p190
I0
sV4w
p191
I0
sVm
I16
sV4s
p192
I0
sVr
I0
sVw
I0
sVsr
p193
V-
sVov
p194
V-
sV5w
p195
I0
ssg48
(dp196
Va
V45.28
p197
sVb
I457
sVinns
p198
I16
sVno
p199
I2
sVsr
p200
V138.73
p201
sVm
I16
sV4s
p202
I64
sV6s
p203
I22
sVhs
p204
V99
p205
sVr
V634
p206
sV100s
p207
I0
sV50s
p208
I6
ssg62
I2013
stp209
a(Vchamptrophy-2013-warmups
(dp210
g24
(dp211
Vinns
p212
I0
sVc
I0
sVro
p213
I0
sVm
I2
sVs
I0
ssg28
(dp214
Vinns
p215
I0
sV10w
p216
I0
sVnb
p217
I0
sVmaid
p218
I0
sVwb
p219
I0
sVbbmw
p220
I0
sV6s
p221
I0
sVbbmr
p222
I0
sVbbir
p223
I0
sVbbiw
p224
I0
sVa
V-
sVb
I0
sVe
V-
sVd
I0
sVwmaid
p225
I0
sV4w
p226
I0
sVm
I2
sV4s
p227
I0
sVr
I0
sVw
I0
sVsr
p228
V-
sVov
p229
V-
sV5w
p230
I0
ssg48
(dp231
Va
V76.50
p232
sVb
I132
sVinns
p233
I2
sVno
p234
I0
sVsr
p235
V115.90
p236
sVm
I2
sV4s
p237
I12
sV6s
p238
I3
sVhs
p239
V144
p240
sVr
V153
p241
sV100s
p242
I1
sV50s
p243
I0
ssg62
I2013
stp244
a(Vsa-ind-2013
(dp245
g24
(dp246
Vinns
p247
I2
sVc
I2
sVro
p248
I0
sVm
I5
sVs
I0
ssg28
(dp249
Vinns
p250
I4
sV10w
p251
I0
sVnb
p252
I0
sVmaid
p253
I0
sVwb
p254
I0
sVbbmw
p255
I1
sV6s
p256
I3
sVbbmr
p257
I15
sVbbir
p258
I15
sVbbiw
p259
I1
sVa
V72.00
p260
sVb
I84
sVe
V5.14
p261
sVd
I40
sVwmaid
p262
I0
sV4w
p263
I0
sVm
I5
sV4s
p264
I2
sVr
I72
sVw
I1
sVsr
p265
V84.00
p266
sVov
p267
V14.00
p268
sV5w
p269
I0
ssg48
(dp270
Va
V50.50
p271
sVb
I528
sVinns
p272
I6
sVno
p273
I0
sVsr
p274
V57.38
p275
sVm
I5
sV4s
p276
I38
sV6s
p277
I0
sVhs
p278
V119
p279
sVr
V303
p280
sV100s
p281
I1
sV50s
p282
I1
ssg62
I2013
stp283
a(Vzim-ind-2013
(dp284
g24
(dp285
Vinns
p286
I2
sVc
I3
sVro
p287
I0
sVm
I5
sVs
I0
ssg28
(dp288
Vinns
p289
I1
sV10w
p290
I0
sVnb
p291
I0
sVmaid
p292
I0
sVwb
p293
I0
sVbbmw
p294
I0
sV6s
p295
I0
sVbbmr
p296
I0
sVbbir
p297
I0
sVbbiw
p298
I0
sVa
V-
sVb
I6
sVe
V7.00
p299
sVd
I2
sVwmaid
p300
I0
sV4w
p301
I0
sVm
I5
sV4s
p302
I1
sVr
I7
sVw
I0
sVsr
p303
V-
sVov
p304
V1.00
p305
sV5w
p306
I0
ssg48
(dp307
Va
V98.50
p308
sVb
I214
sVinns
p309
I3
sVno
p310
I1
sVsr
p311
V92.05
p312
sVm
I5
sV4s
p313
I20
sV6s
p314
I2
sVhs
p315
V115
p316
sVr
V197
p317
sV100s
p318
I1
sV50s
p319
I1
ssg62
I2013
stp320
a(Vind-aus-2013
(dp321
g24
(dp322
Vinns
p323
I4
sVc
I5
sVro
p324
I0
sVm
I4
sVs
I0
ssg28
(dp325
Vinns
p326
I0
sV10w
p327
I0
sVnb
p328
I0
sVmaid
p329
I0
sVwb
p330
I0
sVbbmw
p331
I0
sV6s
p332
I0
sVbbmr
p333
I0
sVbbir
p334
I0
sVbbiw
p335
I0
sVa
V-
sVb
I0
sVe
V-
sVd
I0
sVwmaid
p336
I0
sV4w
p337
I0
sVm
I4
sV4s
p338
I0
sVr
I0
sVw
I0
sVsr
p339
V-
sVov
p340
V-
sV5w
p341
I0
ssg48
(dp342
Va
V56.80
p343
sVb
I556
sVinns
p344
I6
sVno
p345
I1
sVsr
p346
V51.07
p347
sVm
I4
sV4s
p348
I35
sV6s
p349
I2
sVhs
p350
V107
p351
sVr
V284
p352
sV100s
p353
I1
sV50s
p354
I1
ssg62
I2013
stp355
a(Vind-wi-2013
(dp356
g24
(dp357
Vinns
p358
I1
sVc
I1
sVro
p359
I0
sVm
I5
sVs
I0
ssg28
(dp360
Vinns
p361
I0
sV10w
p362
I0
sVnb
p363
I0
sVmaid
p364
I0
sVwb
p365
I0
sVbbmw
p366
I0
sV6s
p367
I0
sVbbmr
p368
I0
sVbbir
p369
I0
sVbbiw
p370
I0
sVa
V-
sVb
I0
sVe
V-
sVd
I0
sVwmaid
p371
I0
sV4w
p372
I0
sVm
I5
sV4s
p373
I0
sVr
I0
sVw
I0
sVsr
p374
V-
sVov
p375
V-
sV5w
p376
I0
ssg48
(dp377
Va
V52.80
p378
sVb
I285
sVinns
p379
I5
sVno
p380
I0
sVsr
p381
V92.63
p382
sVm
I5
sV4s
p383
I26
sV6s
p384
I2
sVhs
p385
V99
p386
sVr
V264
p387
sV100s
p388
I0
sV50s
p389
I3
ssg62
I2013
stp390
a(Vtriseries-wi-2013
(dp391
g24
(dp392
Vinns
p393
I1
sVc
I1
sVro
p394
I0
sVm
I5
sVs
I0
ssg28
(dp395
Vinns
p396
I2
sV10w
p397
I0
sVnb
p398
I0
sVmaid
p399
I0
sVwb
p400
I1
sVbbmw
p401
I0
sV6s
p402
I0
sVbbmr
p403
I0
sVbbir
p404
I0
sVbbiw
p405
I0
sVa
V-
sVb
I30
sVe
V5.20
p406
sVd
I13
sVwmaid
p407
I0
sV4w
p408
I0
sVm
I5
sV4s
p409
I2
sVr
I26
sVw
I0
sVsr
p410
V-
sVov
p411
V5.00
p412
sV5w
p413
I0
ssg48
(dp414
Va
V29.60
p415
sVb
I166
sVinns
p416
I5
sVno
p417
I0
sVsr
p418
V89.15
p419
sVm
I5
sV4s
p420
I17
sV6s
p421
I3
sVhs
p422
V102
p423
sVr
V148
p424
sV100s
p425
I1
sV50s
p426
I0
ssg62
I2013
stp427
a(Vchamptrophy-2013
p428
(dp429
g24
(dp430
Vinns
p431
I1
sVc
I1
sVro
p432
I1
sVm
I5
sVs
I0
ssg28
(dp433
Vinns
p434
I2
sV10w
p435
I0
sVnb
p436
I0
sVmaid
p437
I0
sVwb
p438
I0
sVbbmw
p439
I0
sV6s
p440
I1
sVbbmr
p441
I0
sVbbir
p442
I0
sVbbiw
p443
I0
sVa
V-
sVb
I36
sVe
V6.16
p444
sVd
I16
sVwmaid
p445
I0
sV4w
p446
I0
sVm
I5
sV4s
p447
I3
sVr
I37
sVw
I0
sVsr
p448
V-
sVov
p449
V6.00
p450
sV5w
p451
I0
ssg48
(dp452
Va
V58.66
p453
sVb
I184
sVinns
p454
I5
sVno
p455
I2
sVsr
p456
V95.65
p457
sVm
I5
sV4s
p458
I17
sV6s
p459
I2
sVhs
p460
V58*
p461
sVr
V176
p462
sV100s
p463
I0
sV50s
p464
I1
ssg62
I2013
stp465
a(Vipl2012
(dp466
g24
(dp467
Vinns
p468
I9
sVc
I7
sVro
p469
I2
sVm
I16
sVs
I0
ssg28
(dp470
Vinns
p471
I2
sV10w
p472
I0
sVnb
p473
I0
sVmaid
p474
I0
sVwb
p475
I0
sVbbmw
p476
I0
sV6s
p477
I4
sVbbmr
p478
I0
sVbbir
p479
I0
sVbbiw
p480
I0
sVa
V-
sVb
I18
sVe
V16.33
p481
sVd
I2
sVwmaid
p482
I0
sV4w
p483
I0
sVm
I16
sV4s
p484
I4
sVr
I49
sVw
I0
sVsr
p485
V-
sVov
p486
V3.00
p487
sV5w
p488
I0
ssg48
(dp489
Va
V28.00
p490
sVb
I326
sVinns
p491
I15
sVno
p492
I2
sVsr
p493
V111.65
p494
sVm
I16
sV4s
p495
I33
sV6s
p496
I10
sVhs
p497
V73*
p498
sVr
V364
p499
sV100s
p500
I0
sV50s
p501
I2
ssg62
I2012
stp502
a(Vpre-worldt20-2012
(dp503
g24
(dp504
Vinns
p505
I0
sVc
I0
sVro
p506
I0
sVm
I2
sVs
I0
ssg28
(dp507
Vinns
p508
I2
sV10w
p509
I0
sVnb
p510
I0
sVmaid
p511
I0
sVwb
p512
I0
sVbbmw
p513
I0
sV6s
p514
I0
sVbbmr
p515
I27
sVbbir
p516
I27
sVbbiw
p517
I0
sVa
V-
sVb
I36
sVe
V9.00
p518
sVd
I4
sVwmaid
p519
I0
sV4w
p520
I0
sVm
I2
sV4s
p521
I6
sVr
I54
sVw
I0
sVsr
p522
V-
sVov
p523
V6.00
p524
sV5w
p525
I0
ssg48
(dp526
Va
V70.00
p527
sVb
I41
sVinns
p528
I1
sVno
p529
I0
sVsr
p530
V170.73
p531
sVm
I2
sV4s
p532
I10
sV6s
p533
I1
sVhs
p534
V70
p535
sVr
V70
p536
sV100s
p537
I0
sV50s
p538
I1
ssg62
I2012
stp539
a(Vind-eng-2012-13
(dp540
g24
(dp541
Vinns
p542
I7
sVc
I6
sVro
p543
I1
sVm
I11
sVs
I0
ssg28
(dp544
Vinns
p545
I2
sV10w
p546
I0
sVnb
p547
I0
sVmaid
p548
I0
sVwb
p549
I0
sVbbmw
p550
I0
sV6s
p551
I1
sVbbmr
p552
I0
sVbbir
p553
I0
sVbbiw
p554
I0
sVa
V-
sVb
I12
sVe
V9.50
p555
sVd
I2
sVwmaid
p556
I0
sV4w
p557
I0
sVm
I11
sV4s
p558
I1
sVr
I19
sVw
I0
sVsr
p559
V-
sVov
p560
V2.00
p561
sV5w
p562
I0
ssg48
(dp563
Va
V33.50
p564
sVb
I761
sVinns
p565
I14
sVno
p566
I2
sVsr
p567
V52.82
p568
sVm
I11
sV4s
p569
I48
sV6s
p570
I3
sVhs
p571
V103
p572
sVr
V402
p573
sV100s
p574
I1
sV50s
p575
I1
ssg62
I2012
stp576
a(Vind-pak-2012-13
(dp577
g24
(dp578
Vinns
p579
I1
sVc
I2
sVro
p580
I0
sVm
I5
sVs
I0
ssg28
(dp581
Vinns
p582
I2
sV10w
p583
I0
sVnb
p584
I0
sVmaid
p585
I0
sVwb
p586
I0
sVbbmw
p587
I0
sV6s
p588
I0
sVbbmr
p589
I0
sVbbir
p590
I0
sVbbiw
p591
I0
sVa
V-
sVb
I29
sVe
V8.68
p592
sVd
I4
sVwmaid
p593
I0
sV4w
p594
I0
sVm
I5
sV4s
p595
I4
sVr
I42
sVw
I0
sVsr
p596
V-
sVov
p597
V4.83
p598
sV5w
p599
I0
ssg48
(dp600
Va
V9.80
p601
sVb
I64
sVinns
p602
I5
sVno
p603
I0
sVsr
p604
V76.56
p605
sVm
I5
sV4s
p606
I6
sV6s
p607
I0
sVhs
p608
V27
p609
sVr
V49
p610
sV100s
p611
I0
sV50s
p612
I0
ssg62
I2012
stp613
a(Vworldt20-2012
(dp614
g24
(dp615
Vinns
p616
I2
sVc
I2
sVro
p617
I0
sVm
I7
sVs
I0
ssg28
(dp618
Vinns
p619
I2
sV10w
p620
I0
sVnb
p621
I1
sVmaid
p622
I0
sVwb
p623
I0
sVbbmw
p624
I1
sV6s
p625
I1
sVbbmr
p626
I21
sVbbir
p627
I21
sVbbiw
p628
I1
sVa
V31.00
p629
sVb
I24
sVe
V7.75
p630
sVd
I8
sVwmaid
p631
I0
sV4w
p632
I0
sVm
I7
sV4s
p633
I2
sVr
I31
sVw
I1
sVsr
p634
V24.00
p635
sVov
p636
V4.00
p637
sV5w
p638
I0
ssg48
(dp639
Va
V53.60
p640
sVb
I208
sVinns
p641
I7
sVno
p642
I2
sVsr
p643
V128.84
p644
sVm
I7
sV4s
p645
I28
sV6s
p646
I6
sVhs
p647
V78*
p648
sVr
V268
p649
sV100s
p650
I0
sV50s
p651
I3
ssg62
I2012
stp652
a(Vclt20-2011
(dp653
g24
(dp654
Vinns
p655
I3
sVc
I4
sVro
p656
I0
sVm
I6
sVs
I0
ssg28
(dp657
Vinns
p658
I3
sV10w
p659
I0
sVnb
p660
I1
sVmaid
p661
I0
sVwb
p662
I0
sVbbmw
p663
I0
sV6s
p664
I0
sVbbmr
p665
I0
sVbbir
p666
I0
sVbbiw
p667
I0
sVa
V-
sVb
I21
sVe
V9.42
p668
sVd
I3
sVwmaid
p669
I0
sV4w
p670
I0
sVm
I6
sV4s
p671
I3
sVr
I33
sVw
I0
sVsr
p672
V-
sVov
p673
V3.50
p674
sV5w
p675
I0
ssg48
(dp676
Va
V46.40
p677
sVb
I159
sVinns
p678
I6
sVno
p679
I1
sVsr
p680
V145.91
p681
sVm
I6
sV4s
p682
I23
sV6s
p683
I10
sVhs
p684
V84*
p685
sVr
V232
p686
sV100s
p687
I0
sV50s
p688
I2
ssg62
I2011
stp689
a(Vipl2011
(dp690
g24
(dp691
Vinns
p692
I5
sVc
I7
sVro
p693
I0
sVm
I16
sVs
I0
ssg28
(dp694
Vinns
p695
I10
sV10w
p696
I0
sVnb
p697
I2
sVmaid
p698
I0
sVwb
p699
I2
sVbbmw
p700
I1
sV6s
p701
I2
sVbbmr
p702
I8
sVbbir
p703
I8
sVbbiw
p704
I1
sVa
V69.50
p705
sVb
I102
sVe
V8.17
p706
sVd
I23
sVwmaid
p707
I0
sV4w
p708
I0
sVm
I16
sV4s
p709
I13
sVr
I139
sVw
I2
sVsr
p710
V51.00
p711
sVov
p712
V17.00
p713
sV5w
p714
I0
ssg48
(dp715
Va
V46.41
p716
sVb
I460
sVinns
p717
I16
sVno
p718
I4
sVsr
p719
V121.08
p720
sVm
I16
sV4s
p721
I55
sV6s
p722
I16
sVhs
p723
V71
p724
sVr
V557
p725
sV100s
p726
I0
sV50s
p727
I4
ssg62
I2011
stp728
a(Vclt20-2010
(dp729
g24
(dp730
Vinns
p731
I4
sVc
I4
sVro
p732
I2
sVm
I5
sVs
I0
ssg28
(dp733
Vinns
p734
I2
sV10w
p735
I0
sVnb
p736
I0
sVmaid
p737
I0
sVwb
p738
I1
sVbbmw
p739
I0
sV6s
p740
I2
sVbbmr
p741
I0
sVbbir
p742
I0
sVbbiw
p743
I0
sVa
V-
sVb
I24
sVe
V9.75
p744
sVd
I3
sVwmaid
p745
I0
sV4w
p746
I0
sVm
I5
sV4s
p747
I2
sVr
I39
sVw
I0
sVsr
p748
V-
sVov
p749
V4.00
p750
sV5w
p751
I0
ssg48
(dp752
Va
V37.66
p753
sVb
I72
sVinns
p754
I4
sVno
p755
I1
sVsr
p756
V156.94
p757
sVm
I5
sV4s
p758
I10
sV6s
p759
I4
sVhs
p760
V49*
p761
sVr
V113
p762
sV100s
p763
I0
sV50s
p764
I0
ssg62
I2010
stp765
a(Vipl2010
(dp766
g24
(dp767
Vinns
p768
I5
sVc
I3
sVro
p769
I2
sVm
I16
sVs
I0
ssg28
(dp770
Vinns
p771
I4
sV10w
p772
I0
sVnb
p773
I1
sVmaid
p774
I0
sVwb
p775
I0
sVbbmw
p776
I0
sV6s
p777
I2
sVbbmr
p778
I0
sVbbir
p779
I0
sVbbiw
p780
I0
sVa
V-
sVb
I32
sVe
V9.37
p781
sVd
I7
sVwmaid
p782
I0
sV4w
p783
I0
sVm
I16
sV4s
p784
I3
sVr
I50
sVw
I0
sVsr
p785
V-
sVov
p786
V5.33
p787
sV5w
p788
I0
ssg48
(dp789
Va
V27.90
p790
sVb
I212
sVinns
p791
I13
sVno
p792
I2
sVsr
p793
V144.81
p794
sVm
I16
sV4s
p795
I26
sV6s
p796
I12
sVhs
p797
V58
p798
sVr
V307
p799
sV100s
p800
I0
sV50s
p801
I1
ssg62
I2010
stp802
a(Vclt20-2009
(dp803
g24
(dp804
Vinns
p805
I1
sVc
I2
sVro
p806
I0
sVm
I4
sVs
I0
ssg28
(dp807
Vinns
p808
I1
sV10w
p809
I0
sVnb
p810
I0
sVmaid
p811
I0
sVwb
p812
I0
sVbbmw
p813
I0
sV6s
p814
I0
sVbbmr
p815
I0
sVbbir
p816
I0
sVbbiw
p817
I0
sVa
V-
sVb
I12
sVe
V11.50
p818
sVd
I0
sVwmaid
p819
I0
sV4w
p820
I0
sVm
I4
sV4s
p821
I3
sVr
I23
sVw
I0
sVsr
p822
V-
sVov
p823
V2.00
p824
sV5w
p825
I0
ssg48
(dp826
Va
V26.33
p827
sVb
I51
sVinns
p828
I4
sVno
p829
I1
sVsr
p830
V154.90
p831
sVm
I4
sV4s
p832
I12
sV6s
p833
I0
sVhs
p834
V32
p835
sVr
V79
p836
sV100s
p837
I0
sV50s
p838
I0
ssg62
I2009
stp839
a(Vipl2009
(dp840
g24
(dp841
Vinns
p842
I8
sVc
I9
sVro
p843
I2
sVm
I16
sVs
I0
ssg28
(dp844
Vinns
p845
I3
sV10w
p846
I0
sVnb
p847
I0
sVmaid
p848
I0
sVwb
p849
I3
sVbbmw
p850
I0
sV6s
p851
I1
sVbbmr
p852
I0
sVbbir
p853
I0
sVbbiw
p854
I0
sVa
V-
sVb
I36
sVe
V7.66
p855
sVd
I10
sVwmaid
p856
I0
sV4w
p857
I0
sVm
I16
sV4s
p858
I2
sVr
I46
sVw
I0
sVsr
p859
V-
sVov
p860
V6.00
p861
sV5w
p862
I0
ssg48
(dp863
Va
V22.36
p864
sVb
I219
sVinns
p865
I13
sVno
p866
I2
sVsr
p867
V112.32
p868
sVm
I16
sV4s
p869
I22
sV6s
p870
I8
sVhs
p871
V50
p872
sVr
V246
p873
sV100s
p874
I0
sV50s
p875
I1
ssg62
I2009
stp876
a(Vipl2008
(dp877
g24
(dp878
Vinns
p879
I1
sVc
I2
sVro
p880
I0
sVm
I13
sVs
I0
ssg28
(dp881
Vinns
p882
I4
sV10w
p883
I0
sVnb
p884
I1
sVmaid
p885
I0
sVwb
p886
I2
sVbbmw
p887
I2
sV6s
p888
I1
sVbbmr
p889
I25
sVbbir
p890
I25
sVbbiw
p891
I2
sVa
V30.50
p892
sVb
I46
sVe
V7.95
p893
sVd
I7
sVwmaid
p894
I0
sV4w
p895
I0
sVm
I13
sV4s
p896
I3
sVr
I61
sVw
I2
sVsr
p897
V23.00
p898
sVov
p899
V7.66
p900
sV5w
p901
I0
ssg48
(dp902
Va
V15.00
p903
sVb
I157
sVinns
p904
I12
sVno
p905
I1
sVsr
p906
V105.09
p907
sVm
I13
sV4s
p908
I18
sV6s
p909
I4
sVhs
p910
V38
p911
sVr
V165
p912
sV100s
p913
I0
sV50s
p914
I0
ssg62
I2008
stp915
asb.