(iplayer
Player
p1
(dp2
S'is_batsman'
p3
I00
sS'name'
p4
S'Dhawal Kulkarni'
p5
sS'dob'
p6
S'1988/12/10'
p7
sS'price'
p8
S'750000'
p9
sS'is_allrounder'
p10
I00
sS'is_overseas'
p11
I00
sS'team'
p12
S'RR'
p13
sS'nationality'
p14
S'Indian'
p15
sS'is_bowler'
p16
I01
sS'is_keeper'
p17
I00
sS'id'
p18
S'101'
p19
sS'is_uncapped'
p20
I01
sS'tournamentStats'
p21
(lp22
(Vipl2013
p23
(dp24
S'fieldingStats'
p25
(dp26
Vinns
p27
I0
sVc
I0
sVro
p28
I0
sVm
I6
sVs
I0
ssS'bowlingStats'
p29
(dp30
Vinns
p31
I6
sV10w
p32
I0
sVnb
p33
I1
sVmaid
p34
I0
sVwb
p35
I6
sVbbmw
p36
I3
sV6s
p37
I6
sVbbmr
p38
I19
sVbbir
p39
I19
sVbbiw
p40
I3
sVa
V18.87
p41
sVb
I112
sVe
V8.08
p42
sVd
I53
sVwmaid
p43
I0
sV4w
p44
I0
sVm
I6
sV4s
p45
I15
sVr
I151
sVw
I8
sVsr
p46
V14.00
p47
sVov
p48
V18.66
p49
sV5w
p50
I0
ssS'battingStats'
p51
(dp52
Va
V-
sVinns
p53
I1
sVno
p54
I1
sVsr
p55
V-
sVm
I6
sV4s
p56
I0
sV6s
p57
I0
sVhs
p58
V0*
p59
sVr
V0
sV100s
p60
I0
sV50s
p61
I0
ssS'year'
p62
I2013
stp63
a(Vipl2012
(dp64
g25
(dp65
Vinns
p66
I2
sVc
I2
sVro
p67
I0
sVm
I2
sVs
I0
ssg29
(dp68
Vinns
p69
I2
sV10w
p70
I0
sVnb
p71
I0
sVmaid
p72
I1
sVwb
p73
I5
sVbbmw
p74
I3
sV6s
p75
I2
sVbbmr
p76
I18
sVbbir
p77
I18
sVbbiw
p78
I3
sVa
V10.66
p79
sVb
I48
sVe
V8.00
p80
sVd
I23
sVwmaid
p81
I1
sV4w
p82
I0
sVm
I2
sV4s
p83
I6
sVr
I64
sVw
I6
sVsr
p84
V8.00
p85
sVov
p86
V8.00
p87
sV5w
p88
I0
ssg51
(dp89
Va
V-
sVb
I5
sVinns
p90
I1
sVno
p91
I1
sVsr
p92
V200.00
p93
sVm
I2
sV4s
p94
I2
sV6s
p95
I0
sVhs
p96
V10*
p97
sVr
V10
p98
sV100s
p99
I0
sV50s
p100
I0
ssg62
I2012
stp101
a(Vclt20-2012
(dp102
g25
(dp103
Vinns
p104
I0
sVc
I0
sVro
p105
I0
sVm
I3
sVs
I0
ssg29
(dp106
Vinns
p107
I2
sV10w
p108
I0
sVnb
p109
I0
sVmaid
p110
I0
sVwb
p111
I4
sVbbmw
p112
I0
sV6s
p113
I2
sVbbmr
p114
I0
sVbbir
p115
I0
sVbbiw
p116
I0
sVa
V-
sVb
I42
sVe
V10.14
p117
sVd
I18
sVwmaid
p118
I0
sV4w
p119
I0
sVm
I3
sV4s
p120
I9
sVr
I71
sVw
I0
sVsr
p121
V-
sVov
p122
V7.00
p123
sV5w
p124
I0
ssg51
(dp125
Va
V-
sVinns
p126
I0
sVno
p127
I0
sVsr
p128
V-
sVm
I3
sV4s
p129
I0
sV6s
p130
I0
sVhs
p131
V0*
p132
sVr
V0
sV100s
p133
I0
sV50s
p134
I0
ssg62
I2012
stp135
a(Vipl2011
(dp136
g25
(dp137
Vinns
p138
I1
sVc
I1
sVro
p139
I0
sVm
I6
sVs
I0
ssg29
(dp140
Vinns
p141
I6
sV10w
p142
I0
sVnb
p143
I0
sVmaid
p144
I0
sVwb
p145
I6
sVbbmw
p146
I3
sV6s
p147
I3
sVbbmr
p148
I26
sVbbir
p149
I26
sVbbiw
p150
I3
sVa
V29.80
p151
sVb
I120
sVe
V7.45
p152
sVd
I42
sVwmaid
p153
I0
sV4w
p154
I0
sVm
I6
sV4s
p155
I14
sVr
I149
sVw
I5
sVsr
p156
V24.00
p157
sVov
p158
V20.00
p159
sV5w
p160
I0
ssg51
(dp161
Va
V2.00
p162
sVb
I4
sVinns
p163
I2
sVno
p164
I1
sVsr
p165
V50.00
p166
sVm
I6
sV4s
p167
I0
sV6s
p168
I0
sVhs
p169
V2
sVr
V2
sV100s
p170
I0
sV50s
p171
I0
ssg62
I2011
stp172
a(Vipl2010
(dp173
g25
(dp174
Vinns
p175
I0
sVc
I0
sVro
p176
I0
sVm
I1
sVs
I0
ssg29
(dp177
Vinns
p178
I1
sV10w
p179
I0
sVnb
p180
I0
sVmaid
p181
I0
sVwb
p182
I1
sVbbmw
p183
I1
sV6s
p184
I2
sVbbmr
p185
I40
sVbbir
p186
I40
sVbbiw
p187
I1
sVa
V40.00
p188
sVb
I24
sVe
V10.00
p189
sVd
I10
sVwmaid
p190
I0
sV4w
p191
I0
sVm
I1
sV4s
p192
I4
sVr
I40
sVw
I1
sVsr
p193
V24.00
p194
sVov
p195
V4.00
p196
sV5w
p197
I0
ssg51
(dp198
Va
V-
sVinns
p199
I0
sVno
p200
I0
sVsr
p201
V-
sVm
I1
sV4s
p202
I0
sV6s
p203
I0
sVhs
p204
V0*
p205
sVr
V0
sV100s
p206
I0
sV50s
p207
I0
ssg62
I2010
stp208
a(Vipl2009
(dp209
g25
(dp210
Vinns
p211
I1
sVc
I1
sVro
p212
I0
sVm
I8
sVs
I0
ssg29
(dp213
Vinns
p214
I8
sV10w
p215
I0
sVnb
p216
I0
sVmaid
p217
I1
sVwb
p218
I4
sVbbmw
p219
I1
sV6s
p220
I6
sVbbmr
p221
I21
sVbbir
p222
I21
sVbbiw
p223
I1
sVa
V41.20
p224
sVb
I156
sVe
V7.92
p225
sVd
I65
sVwmaid
p226
I1
sV4w
p227
I0
sVm
I8
sV4s
p228
I24
sVr
I206
sVw
I5
sVsr
p229
V31.20
p230
sVov
p231
V26.00
p232
sV5w
p233
I0
ssg51
(dp234
Va
V4.50
p235
sVb
I17
sVinns
p236
I4
sVno
p237
I2
sVsr
p238
V52.94
p239
sVm
I8
sV4s
p240
I0
sV6s
p241
I0
sVhs
p242
V7*
p243
sVr
V9
sV100s
p244
I0
sV50s
p245
I0
ssg62
I2009
stp246
a(Vipl2008
(dp247
g25
(dp248
Vinns
p249
I2
sVc
I2
sVro
p250
I1
sVm
I10
sVs
I0
ssg29
(dp251
Vinns
p252
I10
sV10w
p253
I0
sVnb
p254
I4
sVmaid
p255
I0
sVwb
p256
I12
sVbbmw
p257
I3
sV6s
p258
I6
sVbbmr
p259
I33
sVbbir
p260
I33
sVbbiw
p261
I3
sVa
V21.45
p262
sVb
I177
sVe
V8.00
p263
sVd
I77
sVwmaid
p264
I0
sV4w
p265
I0
sVm
I10
sV4s
p266
I27
sVr
I236
sVw
I11
sVsr
p267
V16.09
p268
sVov
p269
V29.50
p270
sV5w
p271
I0
ssg51
(dp272
Va
V-
sVb
I16
sVinns
p273
I1
sVno
p274
I1
sVsr
p275
V12.50
p276
sVm
I10
sV4s
p277
I0
sV6s
p278
I0
sVhs
p279
V2*
p280
sVr
V2
sV100s
p281
I0
sV50s
p282
I0
ssg62
I2008
stp283
asb.