(iplayer
Player
p1
(dp2
S'is_batsman'
p3
I00
sS'name'
p4
S'Wayne Parnell'
p5
sS'dob'
p6
S'1989/07/30'
p7
sS'price'
p8
S'900000'
p9
sS'is_allrounder'
p10
I00
sS'is_overseas'
p11
I01
sS'team'
p12
S'DD'
p13
sS'nationality'
p14
S'South African'
p15
sS'is_bowler'
p16
I01
sS'is_keeper'
p17
I00
sS'id'
p18
S'223'
p19
sS'is_uncapped'
p20
I00
sS'tournamentStats'
p21
(lp22
(Vsa-aus-2014
(dp23
S'fieldingStats'
p24
(dp25
Vinns
p26
I0
sVc
I0
sVro
p27
I0
sVm
I3
sVs
I0
ssS'bowlingStats'
p28
(dp29
Vinns
p30
I3
sV10w
p31
I0
sVnb
p32
I0
sVmaid
p33
I2
sVwb
p34
I2
sVbbmw
p35
I2
sV6s
p36
I2
sVbbmr
p37
I31
sVbbir
p38
I31
sVbbiw
p39
I2
sVa
V16.00
p40
sVb
I73
sVe
V5.26
p41
sVd
I43
sVwmaid
p42
I1
sV4w
p43
I0
sVm
I3
sV4s
p44
I6
sVr
I64
sVw
I4
sVsr
p45
V18.25
p46
sVov
p47
V12.16
p48
sV5w
p49
I0
ssS'battingStats'
p50
(dp51
Va
V27.00
p52
sVb
I54
sVinns
p53
I2
sVno
p54
I1
sVsr
p55
V50.00
p56
sVm
I3
sV4s
p57
I2
sV6s
p58
I0
sVhs
p59
V17*
p60
sVr
V27
p61
sV100s
p62
I0
sV50s
p63
I0
ssS'year'
p64
I2014
stp65
a(Vsl-sa-2013
(dp66
g24
(dp67
Vinns
p68
I1
sVc
I1
sVro
p69
I0
sVm
I3
sVs
I0
ssg28
(dp70
Vinns
p71
I3
sV10w
p72
I0
sVnb
p73
I0
sVmaid
p74
I1
sVwb
p75
I2
sVbbmw
p76
I2
sV6s
p77
I1
sVbbmr
p78
I8
sVbbir
p79
I8
sVbbiw
p80
I2
sVa
V17.50
p81
sVb
I60
sVe
V7.00
p82
sVd
I29
sVwmaid
p83
I1
sV4w
p84
I0
sVm
I3
sV4s
p85
I9
sVr
I70
sVw
I4
sVsr
p86
V15.00
p87
sVov
p88
V10.00
p89
sV5w
p90
I0
ssg50
(dp91
Va
V-
sVb
I6
sVinns
p92
I2
sVno
p93
I2
sVsr
p94
V166.66
p95
sVm
I3
sV4s
p96
I1
sV6s
p97
I0
sVhs
p98
V10*
p99
sVr
V10
p100
sV100s
p101
I0
sV50s
p102
I0
ssg64
I2013
stp103
a(Vsa-ind-2013
(dp104
g24
(dp105
Vinns
p106
I0
sVc
I0
sVro
p107
I0
sVm
I2
sVs
I0
ssg28
(dp108
Vinns
p109
I1
sV10w
p110
I0
sVnb
p111
I0
sVmaid
p112
I0
sVwb
p113
I6
sVbbmw
p114
I0
sV6s
p115
I0
sVbbmr
p116
I0
sVbbir
p117
I0
sVbbiw
p118
I0
sVa
V-
sVb
I30
sVe
V7.40
p119
sVd
I17
sVwmaid
p120
I0
sV4w
p121
I0
sVm
I2
sV4s
p122
I6
sVr
I37
sVw
I0
sVsr
p123
V-
sVov
p124
V5.00
p125
sV5w
p126
I0
ssg50
(dp127
Va
V9.00
p128
sVb
I8
sVinns
p129
I1
sVno
p130
I0
sVsr
p131
V112.50
p132
sVm
I2
sV4s
p133
I1
sV6s
p134
I0
sVhs
p135
V9
sVr
V9
sV100s
p136
I0
sV50s
p137
I0
ssg64
I2013
stp138
a(Vpak-sa-2013
(dp139
g24
(dp140
Vinns
p141
I1
sVc
I1
sVro
p142
I0
sVm
I5
sVs
I0
ssg28
(dp143
Vinns
p144
I5
sV10w
p145
I0
sVnb
p146
I1
sVmaid
p147
I2
sVwb
p148
I9
sVbbmw
p149
I3
sV6s
p150
I1
sVbbmr
p151
I25
sVbbir
p152
I25
sVbbiw
p153
I3
sVa
V17.80
p154
sVb
I184
sVe
V5.80
p155
sVd
I91
sVwmaid
p156
I1
sV4w
p157
I0
sVm
I5
sV4s
p158
I19
sVr
I178
sVw
I10
sVsr
p159
V18.40
p160
sVov
p161
V30.66
p162
sV5w
p163
I0
ssg50
(dp164
Va
V42.50
p165
sVb
I96
sVinns
p166
I3
sVno
p167
I1
sVsr
p168
V88.54
p169
sVm
I5
sV4s
p170
I10
sV6s
p171
I1
sVhs
p172
V56
p173
sVr
V85
p174
sV100s
p175
I0
sV50s
p176
I1
ssg64
I2013
stp177
a(Vipl2013
(dp178
g24
(dp179
Vinns
p180
I1
sVc
I1
sVro
p181
I0
sVm
I4
sVs
I0
ssg28
(dp182
Vinns
p183
I4
sV10w
p184
I0
sVnb
p185
I1
sVmaid
p186
I0
sVwb
p187
I7
sVbbmw
p188
I3
sV6s
p189
I3
sVbbmr
p190
I27
sVbbir
p191
I27
sVbbiw
p192
I3
sVa
V22.83
p193
sVb
I89
sVe
V9.23
p194
sVd
I33
sVwmaid
p195
I0
sV4w
p196
I0
sVm
I4
sV4s
p197
I18
sVr
I137
sVw
I6
sVsr
p198
V14.83
p199
sVov
p200
V14.83
p201
sV5w
p202
I0
ssg50
(dp203
Va
V5.00
p204
sVb
I7
sVinns
p205
I1
sVno
p206
I0
sVsr
p207
V71.42
p208
sVm
I4
sV4s
p209
I0
sV6s
p210
I0
sVhs
p211
V5
sVr
V5
sV100s
p212
I0
sV50s
p213
I0
ssg64
I2013
stp214
a(Vsa-pak-2-2013
(dp215
g24
(dp216
Vinns
p217
I1
sVc
I1
sVro
p218
I0
sVm
I3
sVs
I0
ssg28
(dp219
Vinns
p220
I2
sV10w
p221
I0
sVnb
p222
I2
sVmaid
p223
I1
sVwb
p224
I4
sVbbmw
p225
I1
sV6s
p226
I2
sVbbmr
p227
I30
sVbbir
p228
I30
sVbbiw
p229
I1
sVa
V33.50
p230
sVb
I77
sVe
V5.22
p231
sVd
I39
sVwmaid
p232
I1
sV4w
p233
I0
sVm
I3
sV4s
p234
I3
sVr
I67
sVw
I2
sVsr
p235
V38.50
p236
sVov
p237
V12.83
p238
sV5w
p239
I0
ssg50
(dp240
Va
V13.00
p241
sVb
I15
sVinns
p242
I2
sVno
p243
I1
sVsr
p244
V86.66
p245
sVm
I3
sV4s
p246
I1
sV6s
p247
I0
sVhs
p248
V7*
p249
sVr
V13
p250
sV100s
p251
I0
sV50s
p252
I0
ssg64
I2013
stp253
a(Vipl2012
(dp254
g24
(dp255
Vinns
p256
I1
sVc
I1
sVro
p257
I0
sVm
I6
sVs
I0
ssg28
(dp258
Vinns
p259
I6
sV10w
p260
I0
sVnb
p261
I3
sVmaid
p262
I1
sVwb
p263
I1
sVbbmw
p264
I2
sV6s
p265
I1
sVbbmr
p266
I18
sVbbir
p267
I18
sVbbiw
p268
I2
sVa
V25.60
p269
sVb
I126
sVe
V6.09
p270
sVd
I51
sVwmaid
p271
I0
sV4w
p272
I0
sVm
I6
sV4s
p273
I11
sVr
I128
sVw
I5
sVsr
p274
V25.20
p275
sVov
p276
V21.00
p277
sV5w
p278
I0
ssg50
(dp279
Va
V4.75
p280
sVb
I27
sVinns
p281
I5
sVno
p282
I1
sVsr
p283
V70.37
p284
sVm
I6
sV4s
p285
I2
sV6s
p286
I0
sVhs
p287
V11
p288
sVr
V19
p289
sV100s
p290
I0
sV50s
p291
I0
ssg64
I2012
stp292
a(Vpre-worldt20-2012
(dp293
g24
(dp294
Vinns
p295
I0
sVc
I0
sVro
p296
I0
sVm
I1
sVs
I0
ssg28
(dp297
Vinns
p298
I1
sV10w
p299
I0
sVnb
p300
I2
sVmaid
p301
I0
sVwb
p302
I0
sVbbmw
p303
I1
sV6s
p304
I3
sVbbmr
p305
I37
sVbbir
p306
I37
sVbbiw
p307
I1
sVa
V37.00
p308
sVb
I12
sVe
V18.50
p309
sVd
I4
sVwmaid
p310
I0
sV4w
p311
I0
sVm
I1
sV4s
p312
I3
sVr
I37
sVw
I1
sVsr
p313
V12.00
p314
sVov
p315
V2.00
p316
sV5w
p317
I0
ssg50
(dp318
Va
V-
sVinns
p319
I0
sVno
p320
I0
sVsr
p321
V-
sVm
I1
sV4s
p322
I0
sV6s
p323
I0
sVhs
p324
V0*
p325
sVr
V0
sV100s
p326
I0
sV50s
p327
I0
ssg64
I2012
stp328
a(Vworldt20-2012
(dp329
g24
(dp330
Vinns
p331
I2
sVc
I2
sVro
p332
I0
sVm
I2
sVs
I0
ssg28
(dp333
Vinns
p334
I2
sV10w
p335
I0
sVnb
p336
I1
sVmaid
p337
I0
sVwb
p338
I1
sVbbmw
p339
I0
sV6s
p340
I2
sVbbmr
p341
I24
sVbbir
p342
I24
sVbbiw
p343
I0
sVa
V-
sVb
I30
sVe
V9.80
p344
sVd
I4
sVwmaid
p345
I0
sV4w
p346
I0
sVm
I2
sV4s
p347
I2
sVr
I49
sVw
I0
sVsr
p348
V-
sVov
p349
V5.00
p350
sV5w
p351
I0
ssg50
(dp352
Va
V-
sVinns
p353
I0
sVno
p354
I0
sVsr
p355
V-
sVm
I2
sV4s
p356
I0
sV6s
p357
I0
sVhs
p358
V0*
p359
sVr
V0
sV100s
p360
I0
sV50s
p361
I0
ssg64
I2012
stp362
a(Vipl2011
(dp363
g24
(dp364
Vinns
p365
I1
sVc
I1
sVro
p366
I1
sVm
I8
sVs
I0
ssg28
(dp367
Vinns
p368
I8
sV10w
p369
I0
sVnb
p370
I0
sVmaid
p371
I0
sVwb
p372
I8
sVbbmw
p373
I3
sV6s
p374
I2
sVbbmr
p375
I35
sVbbir
p376
I35
sVbbiw
p377
I3
sVa
V23.66
p378
sVb
I176
sVe
V7.26
p379
sVd
I75
sVwmaid
p380
I0
sV4w
p381
I0
sVm
I8
sV4s
p382
I28
sVr
I213
sVw
I9
sVsr
p383
V19.55
p384
sVov
p385
V29.33
p386
sV5w
p387
I0
ssg50
(dp388
Va
V12.33
p389
sVb
I39
sVinns
p390
I5
sVno
p391
I2
sVsr
p392
V94.87
p393
sVm
I8
sV4s
p394
I2
sV6s
p395
I1
sVhs
p396
V16
p397
sVr
V37
p398
sV100s
p399
I0
sV50s
p400
I0
ssg64
I2011
stp401
a(Vclt20-2011
p402
(dp403
g24
(dp404
Vinns
p405
I1
sVc
I2
sVro
p406
I0
sVm
I4
sVs
I0
ssg28
(dp407
Vinns
p408
I4
sV10w
p409
I0
sVnb
p410
I0
sVmaid
p411
I0
sVwb
p412
I3
sVbbmw
p413
I1
sV6s
p414
I2
sVbbmr
p415
I17
sVbbir
p416
I17
sVbbiw
p417
I1
sVa
V28.66
p418
sVb
I66
sVe
V7.81
p419
sVd
I25
sVwmaid
p420
I0
sV4w
p421
I0
sVm
I4
sV4s
p422
I10
sVr
I86
sVw
I3
sVsr
p423
V22.00
p424
sVov
p425
V11.00
p426
sV5w
p427
I0
ssg50
(dp428
Va
V6.00
p429
sVb
I4
sVinns
p430
I2
sVno
p431
I1
sVsr
p432
V150.00
p433
sVm
I4
sV4s
p434
I1
sV6s
p435
I0
sVhs
p436
V6*
p437
sVr
V6
sV100s
p438
I0
sV50s
p439
I0
ssg64
I2011
stp440
asb.