(iplayer
Player
p1
(dp2
S'is_batsman'
p3
I00
sS'name'
p4
S'Shakib Al Hasan'
p5
sS'dob'
p6
S'1987/03/24'
p7
sS'price'
p8
S'950000'
p9
sS'is_allrounder'
p10
I01
sS'is_overseas'
p11
I01
sS'team'
p12
S'KKR'
p13
sS'nationality'
p14
S'Bangladeshi'
p15
sS'is_bowler'
p16
I00
sS'is_keeper'
p17
I00
sS'id'
p18
S'201'
p19
sS'is_uncapped'
p20
I00
sS'tournamentStats'
p21
(lp22
(Vban-sl-2014
(dp23
S'fieldingStats'
p24
(dp25
Vinns
p26
I1
sVc
I0
sVro
p27
I1
sVm
I6
sVs
I0
ssS'bowlingStats'
p28
(dp29
Vinns
p30
I7
sV10w
p31
I0
sVnb
p32
I0
sVmaid
p33
I12
sVwb
p34
I4
sVbbmw
p35
I6
sV6s
p36
I14
sVbbmr
p37
I228
sVbbir
p38
I148
sVbbiw
p39
I5
sVa
V33.13
p40
sVb
I732
sVe
V4.07
p41
sVd
I463
sVwmaid
p42
I4
sV4w
p43
I0
sVm
I6
sV4s
p44
I41
sVr
I497
sVw
I15
sVsr
p45
V48.80
p46
sVov
p47
V122.00
p48
sV5w
p49
I1
ssS'battingStats'
p50
(dp51
Va
V34.00
p52
sVb
I355
sVinns
p53
I8
sVno
p54
I1
sVsr
p55
V67.04
p56
sVm
I6
sV4s
p57
I32
sV6s
p58
I3
sVhs
p59
V55
p60
sVr
V238
p61
sV100s
p62
I0
sV50s
p63
I2
ssS'year'
p64
I2014
stp65
a(Vasiacup-2014
(dp66
g24
(dp67
Vinns
p68
I1
sVc
I0
sVro
p69
I1
sVm
I2
sVs
I0
ssg28
(dp70
Vinns
p71
I2
sV10w
p72
I0
sVnb
p73
I0
sVmaid
p74
I2
sVwb
p75
I4
sVbbmw
p76
I1
sV6s
p77
I3
sVbbmr
p78
I53
sVbbir
p79
I53
sVbbiw
p80
I1
sVa
V80.00
p81
sVb
I120
sVe
V4.00
p82
sVd
I69
sVwmaid
p83
I0
sV4w
p84
I0
sVm
I2
sV4s
p85
I2
sVr
I80
sVw
I1
sVsr
p86
V120.00
p87
sVov
p88
V20.00
p89
sV5w
p90
I0
ssg50
(dp91
Va
V64.00
p92
sVb
I48
sVinns
p93
I2
sVno
p94
I1
sVsr
p95
V133.33
p96
sVm
I2
sV4s
p97
I8
sV6s
p98
I2
sVhs
p99
V44*
p100
sVr
V64
p101
sV100s
p102
I0
sV50s
p103
I0
ssg64
I2014
stp104
a(Vworldt20-2014
(dp105
g24
(dp106
Vinns
p107
I2
sVc
I2
sVro
p108
I0
sVm
I4
sVs
I0
ssg28
(dp109
Vinns
p110
I5
sV10w
p111
I0
sVnb
p112
I0
sVmaid
p113
I0
sVwb
p114
I3
sVbbmw
p115
I3
sV6s
p116
I1
sVbbmr
p117
I8
sVbbir
p118
I8
sVbbiw
p119
I3
sVa
V6.90
p120
sVb
I109
sVe
V3.79
p121
sVd
I61
sVwmaid
p122
I0
sV4w
p123
I0
sVm
I5
sV4s
p124
I4
sVr
I69
sVw
I10
sVsr
p125
V10.90
p126
sVov
p127
V18.16
p128
sV5w
p129
I0
ssg50
(dp130
Va
V38.33
p131
sVb
I85
sVinns
p132
I5
sVno
p133
I2
sVsr
p134
V135.29
p135
sVm
I5
sV4s
p136
I14
sV6s
p137
I4
sVhs
p138
V37*
p139
sVr
V115
p140
sV100s
p141
I0
sV50s
p142
I0
ssg64
I2014
stp143
a(Vban-nz-2013
(dp144
g24
(dp145
Vinns
p146
I1
sVc
I1
sVro
p147
I0
sVm
I2
sVs
I0
ssg28
(dp148
Vinns
p149
I3
sV10w
p150
I0
sVnb
p151
I0
sVmaid
p152
I19
sVwb
p153
I0
sVbbmw
p154
I5
sV6s
p155
I5
sVbbmr
p156
I103
sVbbir
p157
I103
sVbbiw
p158
I5
sVa
V30.14
p159
sVb
I456
sVe
V2.77
p160
sVd
I344
sVwmaid
p161
I2
sV4w
p162
I0
sVm
I2
sV4s
p163
I18
sVr
I211
sVw
I7
sVsr
p164
V65.14
p165
sVov
p166
V76.00
p167
sV5w
p168
I1
ssg50
(dp169
Va
V60.50
p170
sVb
I174
sVinns
p171
I4
sVno
p172
I2
sVsr
p173
V69.54
p174
sVm
I2
sV4s
p175
I13
sV6s
p176
I3
sVhs
p177
V50*
p178
sVr
V121
p179
sV100s
p180
I0
sV50s
p181
I1
ssg64
I2013
stp182
a(Vbigbash-2013
(dp183
g24
(dp184
Vinns
p185
I1
sVc
I1
sVro
p186
I0
sVm
I2
sVs
I0
ssg28
(dp187
Vinns
p188
I2
sV10w
p189
I0
sVnb
p190
I0
sVmaid
p191
I0
sVwb
p192
I0
sVbbmw
p193
I2
sV6s
p194
I0
sVbbmr
p195
I21
sVbbir
p196
I21
sVbbiw
p197
I2
sVa
V15.50
p198
sVb
I30
sVe
V6.20
p199
sVd
I12
sVwmaid
p200
I0
sV4w
p201
I0
sVm
I2
sV4s
p202
I3
sVr
I31
sVw
I2
sVsr
p203
V15.00
p204
sVov
p205
V5.00
p206
sV5w
p207
I0
ssg50
(dp208
Va
V24.00
p209
sVb
I38
sVinns
p210
I2
sVno
p211
I0
sVsr
p212
V126.31
p213
sVm
I2
sV4s
p214
I3
sV6s
p215
I2
sVhs
p216
V46
p217
sVr
V48
p218
sV100s
p219
I0
sV50s
p220
I0
ssg64
I2013
stp221
a(Vzim-ban-2013
p222
(dp223
g24
(dp224
Vinns
p225
I2
sVc
I2
sVro
p226
I0
sVm
I5
sVs
I0
ssg28
(dp227
Vinns
p228
I5
sV10w
p229
I0
sVnb
p230
I0
sVmaid
p231
I1
sVwb
p232
I0
sVbbmw
p233
I4
sV6s
p234
I2
sVbbmr
p235
I22
sVbbir
p236
I22
sVbbiw
p237
I4
sVa
V22.00
p238
sVb
I174
sVe
V5.31
p239
sVd
I73
sVwmaid
p240
I0
sV4w
p241
I1
sVm
I5
sV4s
p242
I11
sVr
I154
sVw
I7
sVsr
p243
V24.85
p244
sVov
p245
V29.00
p246
sV5w
p247
I0
ssg50
(dp248
Va
V31.60
p249
sVb
I129
sVinns
p250
I5
sVno
p251
I0
sVsr
p252
V122.48
p253
sVm
I5
sV4s
p254
I18
sV6s
p255
I3
sVhs
p256
V65
p257
sVr
V158
p258
sV100s
p259
I0
sV50s
p260
I1
ssg64
I2013
stp261
a(Vipl2012
(dp262
g24
(dp263
Vinns
p264
I1
sVc
I1
sVro
p265
I0
sVm
I8
sVs
I0
ssg28
(dp266
Vinns
p267
I8
sV10w
p268
I0
sVnb
p269
I0
sVmaid
p270
I0
sVwb
p271
I5
sVbbmw
p272
I3
sV6s
p273
I6
sVbbmr
p274
I17
sVbbir
p275
I17
sVbbiw
p276
I3
sVa
V16.25
p277
sVb
I180
sVe
V6.50
p278
sVd
I68
sVwmaid
p279
I0
sV4w
p280
I0
sVm
I8
sV4s
p281
I11
sVr
I195
sVw
I12
sVsr
p282
V15.00
p283
sVov
p284
V30.00
p285
sV5w
p286
I0
ssg50
(dp287
Va
V15.16
p288
sVb
I74
sVinns
p289
I7
sVno
p290
I1
sVsr
p291
V122.97
p292
sVm
I8
sV4s
p293
I6
sV6s
p294
I3
sVhs
p295
V42
p296
sVr
V91
p297
sV100s
p298
I0
sV50s
p299
I0
ssg64
I2012
stp300
a(Vclt20-2012
(dp301
g24
(dp302
Vinns
p303
I0
sVc
I0
sVro
p304
I0
sVm
I1
sVs
I0
ssg28
(dp305
Vinns
p306
I1
sV10w
p307
I0
sVnb
p308
I0
sVmaid
p309
I0
sVwb
p310
I0
sVbbmw
p311
I0
sV6s
p312
I2
sVbbmr
p313
I34
sVbbir
p314
I34
sVbbiw
p315
I0
sVa
V-
sVb
I24
sVe
V8.50
p316
sVd
I9
sVwmaid
p317
I0
sV4w
p318
I0
sVm
I1
sV4s
p319
I2
sVr
I34
sVw
I0
sVsr
p320
V-
sVov
p321
V4.00
p322
sV5w
p323
I0
ssg50
(dp324
Va
V15.00
p325
sVb
I22
sVinns
p326
I1
sVno
p327
I0
sVsr
p328
V68.18
p329
sVm
I1
sV4s
p330
I0
sV6s
p331
I0
sVhs
p332
V15
p333
sVr
V15
p334
sV100s
p335
I0
sV50s
p336
I0
ssg64
I2012
stp337
a(Vworldt20-2012
(dp338
g24
(dp339
Vinns
p340
I0
sVc
I0
sVro
p341
I0
sVm
I4
sVs
I0
ssg28
(dp342
Vinns
p343
I4
sV10w
p344
I0
sVnb
p345
I0
sVmaid
p346
I0
sVwb
p347
I2
sVbbmw
p348
I2
sV6s
p349
I3
sVbbmr
p350
I21
sVbbir
p351
I21
sVbbiw
p352
I2
sVa
V33.33
p353
sVb
I96
sVe
V6.25
p354
sVd
I32
sVwmaid
p355
I0
sV4w
p356
I0
sVm
I4
sV4s
p357
I6
sVr
I100
sVw
I3
sVsr
p358
V32.00
p359
sVov
p360
V16.00
p361
sV5w
p362
I0
ssg50
(dp363
Va
V43.75
p364
sVb
I102
sVinns
p365
I4
sVno
p366
I0
sVsr
p367
V171.56
p368
sVm
I4
sV4s
p369
I21
sV6s
p370
I7
sVhs
p371
V84
p372
sVr
V175
p373
sV100s
p374
I0
sV50s
p375
I2
ssg64
I2012
stp376
a(Vipl2011
(dp377
g24
(dp378
Vinns
p379
I1
sVc
I0
sVro
p380
I1
sVm
I7
sVs
I0
ssg28
(dp381
Vinns
p382
I7
sV10w
p383
I0
sVnb
p384
I0
sVmaid
p385
I0
sVwb
p386
I5
sVbbmw
p387
I3
sV6s
p388
I7
sVbbmr
p389
I28
sVbbir
p390
I28
sVbbiw
p391
I3
sVa
V15.90
p392
sVb
I153
sVe
V6.86
p393
sVd
I59
sVwmaid
p394
I0
sV4w
p395
I0
sVm
I7
sV4s
p396
I12
sVr
I175
sVw
I11
sVsr
p397
V13.90
p398
sVov
p399
V25.50
p400
sV5w
p401
I0
ssg50
(dp402
Va
V14.50
p403
sVb
I22
sVinns
p404
I3
sVno
p405
I1
sVsr
p406
V131.81
p407
sVm
I7
sV4s
p408
I4
sV6s
p409
I0
sVhs
p410
V26
p411
sVr
V29
p412
sV100s
p413
I0
sV50s
p414
I0
ssg64
I2011
stp415
a(Vclt20-2011
(dp416
g24
(dp417
Vinns
p418
I2
sVc
I2
sVro
p419
I1
sVm
I5
sVs
I0
ssg28
(dp420
Vinns
p421
I5
sV10w
p422
I0
sVnb
p423
I0
sVmaid
p424
I0
sVwb
p425
I0
sVbbmw
p426
I1
sV6s
p427
I3
sVbbmr
p428
I30
sVbbir
p429
I30
sVbbiw
p430
I1
sVa
V107.00
p431
sVb
I96
sVe
V6.68
p432
sVd
I29
sVwmaid
p433
I0
sV4w
p434
I0
sVm
I5
sV4s
p435
I7
sVr
I107
sVw
I1
sVsr
p436
V96.00
p437
sVov
p438
V16.00
p439
sV5w
p440
I0
ssg50
(dp441
Va
V10.00
p442
sVb
I27
sVinns
p443
I3
sVno
p444
I0
sVsr
p445
V111.11
p446
sVm
I5
sV4s
p447
I2
sV6s
p448
I2
sVhs
p449
V13
p450
sVr
V30
p451
sV100s
p452
I0
sV50s
p453
I0
ssg64
I2011
stp454
asb.