(iplayer
Player
p1
(dp2
S'is_batsman'
p3
I01
sS'name'
p4
S'Mandeep Singh'
p5
sS'dob'
p6
S'1991/12/18'
p7
sS'price'
p8
S'750000'
p9
sS'is_allrounder'
p10
I00
sS'is_overseas'
p11
I00
sS'team'
p12
S'KXIP'
p13
sS'nationality'
p14
S'Indian'
p15
sS'is_bowler'
p16
I00
sS'is_keeper'
p17
I00
sS'id'
p18
S'72'
p19
sS'is_uncapped'
p20
I01
sS'tournamentStats'
p21
(lp22
(Vipl2013
(dp23
S'fieldingStats'
p24
(dp25
Vinns
p26
I4
sVc
I6
sVro
p27
I0
sVm
I16
sVs
I0
ssS'bowlingStats'
p28
(dp29
Vinns
p30
I0
sV10w
p31
I0
sVnb
p32
I0
sVmaid
p33
I0
sVwb
p34
I0
sVbbmw
p35
I0
sV6s
p36
I0
sVbbmr
p37
I0
sVbbir
p38
I0
sVbbiw
p39
I0
sVa
V-
sVb
I0
sVe
V-
sVd
I0
sVwmaid
p40
I0
sV4w
p41
I0
sVm
I16
sV4s
p42
I0
sVr
I0
sVw
I0
sVsr
p43
V-
sVov
p44
V-
sV5w
p45
I0
ssS'battingStats'
p46
(dp47
Va
V20.00
p48
sVb
I223
sVinns
p49
I14
sVno
p50
I1
sVsr
p51
V116.59
p52
sVm
I16
sV4s
p53
I36
sV6s
p54
I0
sVhs
p55
V77*
p56
sVr
V260
p57
sV100s
p58
I0
sV50s
p59
I1
ssS'year'
p60
I2013
stp61
a(Vipl2012
(dp62
g24
(dp63
Vinns
p64
I5
sVc
I5
sVro
p65
I0
sVm
I16
sVs
I0
ssg28
(dp66
Vinns
p67
I1
sV10w
p68
I0
sVnb
p69
I0
sVmaid
p70
I0
sVwb
p71
I2
sVbbmw
p72
I1
sV6s
p73
I0
sVbbmr
p74
I23
sVbbir
p75
I0
sVbbiw
p76
I0
sVa
V23.00
p77
sVb
I18
sVe
V7.66
p78
sVd
I7
sVwmaid
p79
I0
sV4w
p80
I0
sVm
I16
sV4s
p81
I3
sVr
I23
sVw
I1
sVsr
p82
V18.00
p83
sVov
p84
V3.00
p85
sV5w
p86
I0
ssg46
(dp87
Va
V27.00
p88
sVb
I342
sVinns
p89
I16
sVno
p90
I0
sVsr
p91
V126.31
p92
sVm
I16
sV4s
p93
I53
sV6s
p94
I7
sVhs
p95
V75
p96
sVr
V432
p97
sV100s
p98
I0
sV50s
p99
I2
ssg60
I2012
stp100
a(Vipl2011
p101
(dp102
g24
(dp103
Vinns
p104
I2
sVc
I1
sVro
p105
I1
sVm
I6
sVs
I0
ssg28
(dp106
Vinns
p107
I0
sV10w
p108
I0
sVnb
p109
I0
sVmaid
p110
I0
sVwb
p111
I0
sVbbmw
p112
I0
sV6s
p113
I0
sVbbmr
p114
I0
sVbbir
p115
I0
sVbbiw
p116
I0
sVa
V-
sVb
I0
sVe
V-
sVd
I0
sVwmaid
p117
I0
sV4w
p118
I0
sVm
I6
sV4s
p119
I0
sVr
I0
sVw
I0
sVsr
p120
V-
sVov
p121
V-
sV5w
p122
I0
ssg46
(dp123
Va
V11.75
p124
sVb
I41
sVinns
p125
I5
sVno
p126
I1
sVsr
p127
V114.63
p128
sVm
I6
sV4s
p129
I4
sV6s
p130
I1
sVhs
p131
V15*
p132
sVr
V47
p133
sV100s
p134
I0
sV50s
p135
I0
ssg60
I2011
stp136
a(Vipl2010
(dp137
g24
(dp138
Vinns
p139
I0
sVc
I0
sVro
p140
I0
sVm
I3
sVs
I0
ssg28
(dp141
Vinns
p142
I0
sV10w
p143
I0
sVnb
p144
I0
sVmaid
p145
I0
sVwb
p146
I0
sVbbmw
p147
I0
sV6s
p148
I0
sVbbmr
p149
I0
sVbbir
p150
I0
sVbbiw
p151
I0
sVa
V-
sVb
I0
sVe
V-
sVd
I0
sVwmaid
p152
I0
sV4w
p153
I0
sVm
I3
sV4s
p154
I0
sVr
I0
sVw
I0
sVsr
p155
V-
sVov
p156
V-
sV5w
p157
I0
ssg46
(dp158
Va
V2.00
p159
sVb
I11
sVinns
p160
I2
sVno
p161
I0
sVsr
p162
V36.36
p163
sVm
I3
sV4s
p164
I1
sV6s
p165
I0
sVhs
p166
V4
sVr
V4
sV100s
p167
I0
sV50s
p168
I0
ssg60
I2010
stp169
asb.