(iplayer
Player
p1
(dp2
S'is_batsman'
p3
I00
sS'name'
p4
S'Rajat Bhatia'
p5
sS'dob'
p6
S'1979/10/22'
p7
sS'price'
p8
S'850000'
p9
sS'is_allrounder'
p10
I01
sS'is_overseas'
p11
I00
sS'team'
p12
S'RR'
p13
sS'nationality'
p14
S'Indian'
p15
sS'is_bowler'
p16
I00
sS'is_keeper'
p17
I00
sS'id'
p18
S'92'
p19
sS'is_uncapped'
p20
I01
sS'tournamentStats'
p21
(lp22
(Vipl2013
(dp23
S'fieldingStats'
p24
(dp25
Vinns
p26
I0
sVc
I0
sVro
p27
I0
sVm
I15
sVs
I0
ssS'bowlingStats'
p28
(dp29
Vinns
p30
I15
sV10w
p31
I0
sVnb
p32
I0
sVmaid
p33
I0
sVwb
p34
I3
sVbbmw
p35
I2
sV6s
p36
I8
sVbbmr
p37
I23
sVbbir
p38
I23
sVbbiw
p39
I2
sVa
V30.18
p40
sVb
I263
sVe
V7.57
p41
sVd
I59
sVwmaid
p42
I0
sV4w
p43
I0
sVm
I15
sV4s
p44
I23
sVr
I332
sVw
I11
sVsr
p45
V23.90
p46
sVov
p47
V43.83
p48
sV5w
p49
I0
ssS'battingStats'
p50
(dp51
Va
V16.50
p52
sVb
I80
sVinns
p53
I10
sVno
p54
I4
sVsr
p55
V123.75
p56
sVm
I15
sV4s
p57
I8
sV6s
p58
I3
sVhs
p59
V26*
p60
sVr
V99
p61
sV100s
p62
I0
sV50s
p63
I0
ssS'year'
p64
I2013
stp65
a(Vipl2012
(dp66
g24
(dp67
Vinns
p68
I5
sVc
I6
sVro
p69
I1
sVm
I17
sVs
I0
ssg28
(dp70
Vinns
p71
I16
sV10w
p72
I0
sVnb
p73
I1
sVmaid
p74
I0
sVwb
p75
I3
sVbbmw
p76
I2
sV6s
p77
I13
sVbbmr
p78
I14
sVbbir
p79
I14
sVbbiw
p80
I2
sVa
V29.92
p81
sVb
I319
sVe
V7.31
p82
sVd
I82
sVwmaid
p83
I0
sV4w
p84
I0
sVm
I17
sV4s
p85
I21
sVr
I389
sVw
I13
sVsr
p86
V24.53
p87
sVov
p88
V53.16
p89
sV5w
p90
I0
ssg50
(dp91
Va
V11.66
p92
sVb
I28
sVinns
p93
I6
sVno
p94
I3
sVsr
p95
V125.00
p96
sVm
I17
sV4s
p97
I4
sV6s
p98
I0
sVhs
p99
V12
p100
sVr
V35
p101
sV100s
p102
I0
sV50s
p103
I0
ssg64
I2012
stp104
a(Vclt20-2012
(dp105
g24
(dp106
Vinns
p107
I1
sVc
I1
sVro
p108
I0
sVm
I2
sVs
I0
ssg28
(dp109
Vinns
p110
I1
sV10w
p111
I0
sVnb
p112
I0
sVmaid
p113
I0
sVwb
p114
I0
sVbbmw
p115
I0
sV6s
p116
I0
sVbbmr
p117
I0
sVbbir
p118
I0
sVbbiw
p119
I0
sVa
V-
sVb
I6
sVe
V6.00
p120
sVd
I1
sVwmaid
p121
I0
sV4w
p122
I0
sVm
I2
sV4s
p123
I0
sVr
I6
sVw
I0
sVsr
p124
V-
sVov
p125
V1.00
p126
sV5w
p127
I0
ssg50
(dp128
Va
V31.00
p129
sVb
I46
sVinns
p130
I2
sVno
p131
I1
sVsr
p132
V67.39
p133
sVm
I2
sV4s
p134
I2
sV6s
p135
I1
sVhs
p136
V22
p137
sVr
V31
p138
sV100s
p139
I0
sV50s
p140
I0
ssg64
I2012
stp141
a(Vipl2011
(dp142
g24
(dp143
Vinns
p144
I5
sVc
I4
sVro
p145
I1
sVm
I14
sVs
I0
ssg28
(dp146
Vinns
p147
I12
sV10w
p148
I0
sVnb
p149
I0
sVmaid
p150
I0
sVwb
p151
I2
sVbbmw
p152
I3
sV6s
p153
I4
sVbbmr
p154
I22
sVbbir
p155
I22
sVbbiw
p156
I3
sVa
V26.25
p157
sVb
I192
sVe
V6.56
p158
sVd
I56
sVwmaid
p159
I0
sV4w
p160
I0
sVm
I14
sV4s
p161
I16
sVr
I210
sVw
I8
sVsr
p162
V24.00
p163
sVov
p164
V32.00
p165
sV5w
p166
I0
ssg50
(dp167
Va
V8.33
p168
sVb
I22
sVinns
p169
I6
sVno
p170
I3
sVsr
p171
V113.63
p172
sVm
I14
sV4s
p173
I3
sV6s
p174
I0
sVhs
p175
V11
p176
sVr
V25
p177
sV100s
p178
I0
sV50s
p179
I0
ssg64
I2011
stp180
a(Vclt20-2011
p181
(dp182
g24
(dp183
Vinns
p184
I0
sVc
I0
sVro
p185
I0
sVm
I6
sVs
I0
ssg28
(dp186
Vinns
p187
I5
sV10w
p188
I0
sVnb
p189
I0
sVmaid
p190
I0
sVwb
p191
I1
sVbbmw
p192
I2
sV6s
p193
I1
sVbbmr
p194
I27
sVbbir
p195
I27
sVbbiw
p196
I2
sVa
V21.25
p197
sVb
I76
sVe
V6.71
p198
sVd
I26
sVwmaid
p199
I0
sV4w
p200
I0
sVm
I6
sV4s
p201
I8
sVr
I85
sVw
I4
sVsr
p202
V19.00
p203
sVov
p204
V12.66
p205
sV5w
p206
I0
ssg50
(dp207
Va
V25.00
p208
sVb
I43
sVinns
p209
I3
sVno
p210
I1
sVsr
p211
V116.27
p212
sVm
I6
sV4s
p213
I2
sV6s
p214
I2
sVhs
p215
V21
p216
sVr
V50
p217
sV100s
p218
I0
sV50s
p219
I0
ssg64
I2011
stp220
a(Vipl2010
(dp221
g24
(dp222
Vinns
p223
I2
sVc
I1
sVro
p224
I1
sVm
I5
sVs
I0
ssg28
(dp225
Vinns
p226
I5
sV10w
p227
I0
sVnb
p228
I0
sVmaid
p229
I0
sVwb
p230
I2
sVbbmw
p231
I1
sV6s
p232
I4
sVbbmr
p233
I24
sVbbir
p234
I24
sVbbiw
p235
I1
sVa
V44.00
p236
sVb
I96
sVe
V8.25
p237
sVd
I23
sVwmaid
p238
I0
sV4w
p239
I0
sVm
I5
sV4s
p240
I11
sVr
I132
sVw
I3
sVsr
p241
V32.00
p242
sVov
p243
V16.00
p244
sV5w
p245
I0
ssg50
(dp246
Va
V8.00
p247
sVb
I17
sVinns
p248
I3
sVno
p249
I0
sVsr
p250
V141.17
p251
sVm
I5
sV4s
p252
I1
sV6s
p253
I2
sVhs
p254
V21
p255
sVr
V24
p256
sV100s
p257
I0
sV50s
p258
I0
ssg64
I2010
stp259
a(Vipl2009
(dp260
g24
(dp261
Vinns
p262
I3
sVc
I4
sVro
p263
I0
sVm
I8
sVs
I0
ssg28
(dp264
Vinns
p265
I7
sV10w
p266
I0
sVnb
p267
I0
sVmaid
p268
I0
sVwb
p269
I3
sVbbmw
p270
I4
sV6s
p271
I2
sVbbmr
p272
I15
sVbbir
p273
I15
sVbbiw
p274
I4
sVa
V14.60
p275
sVb
I130
sVe
V6.73
p276
sVd
I42
sVwmaid
p277
I0
sV4w
p278
I1
sVm
I8
sV4s
p279
I12
sVr
I146
sVw
I10
sVsr
p280
V13.00
p281
sVov
p282
V21.66
p283
sV5w
p284
I0
ssg50
(dp285
Va
V1.60
p286
sVb
I18
sVinns
p287
I5
sVno
p288
I0
sVsr
p289
V44.44
p290
sVm
I8
sV4s
p291
I1
sV6s
p292
I0
sVhs
p293
V4
sVr
V8
sV100s
p294
I0
sV50s
p295
I0
ssg64
I2009
stp296
a(Vclt20-2009
(dp297
g24
(dp298
Vinns
p299
I0
sVc
I0
sVro
p300
I0
sVm
I4
sVs
I0
ssg28
(dp301
Vinns
p302
I4
sV10w
p303
I0
sVnb
p304
I0
sVmaid
p305
I0
sVwb
p306
I1
sVbbmw
p307
I1
sV6s
p308
I3
sVbbmr
p309
I18
sVbbir
p310
I18
sVbbiw
p311
I1
sVa
V55.00
p312
sVb
I52
sVe
V6.34
p313
sVd
I18
sVwmaid
p314
I0
sV4w
p315
I0
sVm
I4
sV4s
p316
I2
sVr
I55
sVw
I1
sVsr
p317
V52.00
p318
sVov
p319
V8.66
p320
sV5w
p321
I0
ssg50
(dp322
Va
V14.50
p323
sVb
I26
sVinns
p324
I4
sVno
p325
I2
sVsr
p326
V111.53
p327
sVm
I4
sV4s
p328
I2
sV6s
p329
I0
sVhs
p330
V16*
p331
sVr
V29
p332
sV100s
p333
I0
sV50s
p334
I0
ssg64
I2009
stp335
a(Vipl2008
(dp336
g24
(dp337
Vinns
p338
I1
sVc
I1
sVro
p339
I0
sVm
I9
sVs
I0
ssg28
(dp340
Vinns
p341
I9
sV10w
p342
I0
sVnb
p343
I0
sVmaid
p344
I0
sVwb
p345
I2
sVbbmw
p346
I2
sV6s
p347
I11
sVbbmr
p348
I17
sVbbir
p349
I17
sVbbiw
p350
I2
sVa
V30.50
p351
sVb
I132
sVe
V8.31
p352
sVd
I48
sVwmaid
p353
I0
sV4w
p354
I0
sVm
I9
sV4s
p355
I12
sVr
I183
sVw
I6
sVsr
p356
V22.00
p357
sVov
p358
V22.00
p359
sV5w
p360
I0
ssg50
(dp361
Va
V17.00
p362
sVb
I28
sVinns
p363
I3
sVno
p364
I1
sVsr
p365
V121.42
p366
sVm
I9
sV4s
p367
I2
sV6s
p368
I2
sVhs
p369
V17
p370
sVr
V34
p371
sV100s
p372
I0
sV50s
p373
I0
ssg64
I2008
stp374
asb.