(iplayer
Player
p1
(dp2
S'is_batsman'
p3
I00
sS'name'
p4
S'Lakshmipathy Balaji'
p5
sS'dob'
p6
S'1981/09/27'
p7
sS'price'
p8
S'850000'
p9
sS'is_allrounder'
p10
I00
sS'is_overseas'
p11
I00
sS'team'
p12
S'KXIP'
p13
sS'nationality'
p14
S'Indian'
p15
sS'is_bowler'
p16
I01
sS'is_keeper'
p17
I00
sS'id'
p18
S'87'
p19
sS'is_uncapped'
p20
I00
sS'tournamentStats'
p21
(lp22
(Vipl2013
(dp23
S'fieldingStats'
p24
(dp25
Vinns
p26
I5
sVc
I4
sVro
p27
I1
sVm
I13
sVs
I0
ssS'bowlingStats'
p28
(dp29
Vinns
p30
I13
sV10w
p31
I0
sVnb
p32
I0
sVmaid
p33
I1
sVwb
p34
I11
sVbbmw
p35
I3
sV6s
p36
I14
sVbbmr
p37
I19
sVbbir
p38
I19
sVbbiw
p39
I3
sVa
V32.25
p40
sVb
I300
sVe
V7.74
p41
sVd
I113
sVwmaid
p42
I0
sV4w
p43
I0
sVm
I13
sV4s
p44
I34
sVr
I387
sVw
I12
sVsr
p45
V25.00
p46
sVov
p47
V50.00
p48
sV5w
p49
I0
ssS'battingStats'
p50
(dp51
Va
V9.00
p52
sVb
I10
sVinns
p53
I3
sVno
p54
I2
sVsr
p55
V90.00
p56
sVm
I13
sV4s
p57
I1
sV6s
p58
I0
sVhs
p59
V9*
p60
sVr
V9
sV100s
p61
I0
sV50s
p62
I0
ssS'year'
p63
I2013
stp64
a(Vipl2012
(dp65
g24
(dp66
Vinns
p67
I1
sVc
I1
sVro
p68
I0
sVm
I8
sVs
I0
ssg28
(dp69
Vinns
p70
I8
sV10w
p71
I0
sVnb
p72
I0
sVmaid
p73
I1
sVwb
p74
I9
sVbbmw
p75
I4
sV6s
p76
I3
sVbbmr
p77
I18
sVbbir
p78
I18
sVbbiw
p79
I4
sVa
V14.81
p80
sVb
I179
sVe
V5.46
p81
sVd
I82
sVwmaid
p82
I1
sV4w
p83
I1
sVm
I8
sV4s
p84
I13
sVr
I163
sVw
I11
sVsr
p85
V16.27
p86
sVov
p87
V29.83
p88
sV5w
p89
I0
ssg50
(dp90
Va
V-
sVinns
p91
I0
sVno
p92
I0
sVsr
p93
V-
sVm
I8
sV4s
p94
I0
sV6s
p95
I0
sVhs
p96
V0*
p97
sVr
V0
sV100s
p98
I0
sV50s
p99
I0
ssg63
I2012
stp100
a(Vclt20-2012
(dp101
g24
(dp102
Vinns
p103
I0
sVc
I0
sVro
p104
I0
sVm
I4
sVs
I0
ssg28
(dp105
Vinns
p106
I4
sV10w
p107
I0
sVnb
p108
I1
sVmaid
p109
I0
sVwb
p110
I3
sVbbmw
p111
I4
sV6s
p112
I5
sVbbmr
p113
I19
sVbbir
p114
I19
sVbbiw
p115
I4
sVa
V19.28
p116
sVb
I90
sVe
V9.00
p117
sVd
I33
sVwmaid
p118
I0
sV4w
p119
I1
sVm
I4
sV4s
p120
I12
sVr
I135
sVw
I7
sVsr
p121
V12.85
p122
sVov
p123
V15.00
p124
sV5w
p125
I0
ssg50
(dp126
Va
V-
sVinns
p127
I0
sVno
p128
I0
sVsr
p129
V-
sVm
I4
sV4s
p130
I0
sV6s
p131
I0
sVhs
p132
V0*
p133
sVr
V0
sV100s
p134
I0
sV50s
p135
I0
ssg63
I2012
stp136
a(Vpre-worldt20-2012
(dp137
g24
(dp138
Vinns
p139
I0
sVc
I0
sVro
p140
I0
sVm
I1
sVs
I0
ssg28
(dp141
Vinns
p142
I1
sV10w
p143
I0
sVnb
p144
I0
sVmaid
p145
I0
sVwb
p146
I0
sVbbmw
p147
I1
sV6s
p148
I0
sVbbmr
p149
I33
sVbbir
p150
I33
sVbbiw
p151
I1
sVa
V33.00
p152
sVb
I24
sVe
V8.25
p153
sVd
I6
sVwmaid
p154
I0
sV4w
p155
I0
sVm
I1
sV4s
p156
I4
sVr
I33
sVw
I1
sVsr
p157
V24.00
p158
sVov
p159
V4.00
p160
sV5w
p161
I0
ssg50
(dp162
Va
V-
sVinns
p163
I0
sVno
p164
I0
sVsr
p165
V-
sVm
I1
sV4s
p166
I0
sV6s
p167
I0
sVhs
p168
V0*
p169
sVr
V0
sV100s
p170
I0
sV50s
p171
I0
ssg63
I2012
stp172
a(Vworldt20-2012
(dp173
g24
(dp174
Vinns
p175
I1
sVc
I0
sVro
p176
I1
sVm
I6
sVs
I0
ssg28
(dp177
Vinns
p178
I6
sV10w
p179
I0
sVnb
p180
I0
sVmaid
p181
I0
sVwb
p182
I2
sVbbmw
p183
I3
sV6s
p184
I10
sVbbmr
p185
I19
sVbbir
p186
I19
sVbbiw
p187
I3
sVa
V13.08
p188
sVb
I117
sVe
V8.05
p189
sVd
I52
sVwmaid
p190
I0
sV4w
p191
I0
sVm
I6
sV4s
p192
I12
sVr
I157
sVw
I12
sVsr
p193
V9.75
p194
sVov
p195
V19.50
p196
sV5w
p197
I0
ssg50
(dp198
Va
V-
sVinns
p199
I0
sVno
p200
I0
sVsr
p201
V-
sVm
I6
sV4s
p202
I0
sV6s
p203
I0
sVhs
p204
V0*
p205
sVr
V0
sV100s
p206
I0
sV50s
p207
I0
ssg63
I2012
stp208
a(Vipl2011
(dp209
g24
(dp210
Vinns
p211
I1
sVc
I2
sVro
p212
I1
sVm
I14
sVs
I0
ssg28
(dp213
Vinns
p214
I14
sV10w
p215
I0
sVnb
p216
I2
sVmaid
p217
I0
sVwb
p218
I14
sVbbmw
p219
I3
sV6s
p220
I10
sVbbmr
p221
I15
sVbbir
p222
I15
sVbbiw
p223
I3
sVa
V37.10
p224
sVb
I266
sVe
V8.36
p225
sVd
I89
sVwmaid
p226
I0
sV4w
p227
I0
sVm
I14
sV4s
p228
I37
sVr
I371
sVw
I10
sVsr
p229
V26.60
p230
sVov
p231
V44.33
p232
sV5w
p233
I0
ssg50
(dp234
Va
V-
sVb
I2
sVinns
p235
I2
sVno
p236
I2
sVsr
p237
V200.00
p238
sVm
I14
sV4s
p239
I0
sV6s
p240
I0
sVhs
p241
V3*
p242
sVr
V4
sV100s
p243
I0
sV50s
p244
I0
ssg63
I2011
stp245
a(Vclt20-2011
p246
(dp247
g24
(dp248
Vinns
p249
I1
sVc
I1
sVro
p250
I0
sVm
I3
sVs
I0
ssg28
(dp251
Vinns
p252
I3
sV10w
p253
I0
sVnb
p254
I1
sVmaid
p255
I0
sVwb
p256
I5
sVbbmw
p257
I2
sV6s
p258
I0
sVbbmr
p259
I27
sVbbir
p260
I27
sVbbiw
p261
I2
sVa
V21.25
p262
sVb
I60
sVe
V8.50
p263
sVd
I20
sVwmaid
p264
I0
sV4w
p265
I0
sVm
I3
sV4s
p266
I12
sVr
I85
sVw
I4
sVsr
p267
V15.00
p268
sVov
p269
V10.00
p270
sV5w
p271
I0
ssg50
(dp272
Va
V-
sVinns
p273
I0
sVno
p274
I0
sVsr
p275
V-
sVm
I3
sV4s
p276
I0
sV6s
p277
I0
sVhs
p278
V0*
p279
sVr
V0
sV100s
p280
I0
sV50s
p281
I0
ssg63
I2011
stp282
a(Vclt20-2010
(dp283
g24
(dp284
Vinns
p285
I0
sVc
I0
sVro
p286
I0
sVm
I5
sVs
I0
ssg28
(dp287
Vinns
p288
I5
sV10w
p289
I0
sVnb
p290
I0
sVmaid
p291
I1
sVwb
p292
I5
sVbbmw
p293
I3
sV6s
p294
I3
sVbbmr
p295
I20
sVbbir
p296
I20
sVbbiw
p297
I3
sVa
V20.80
p298
sVb
I96
sVe
V6.50
p299
sVd
I41
sVwmaid
p300
I0
sV4w
p301
I0
sVm
I5
sV4s
p302
I10
sVr
I104
sVw
I5
sVsr
p303
V19.20
p304
sVov
p305
V16.00
p306
sV5w
p307
I0
ssg50
(dp308
Va
V-
sVinns
p309
I0
sVno
p310
I0
sVsr
p311
V-
sVm
I5
sV4s
p312
I0
sV6s
p313
I0
sVhs
p314
V0*
p315
sVr
V0
sV100s
p316
I0
sV50s
p317
I0
ssg63
I2010
stp318
a(Vipl2010
(dp319
g24
(dp320
Vinns
p321
I1
sVc
I2
sVro
p322
I0
sVm
I7
sVs
I0
ssg28
(dp323
Vinns
p324
I7
sV10w
p325
I0
sVnb
p326
I1
sVmaid
p327
I0
sVwb
p328
I6
sVbbmw
p329
I2
sV6s
p330
I9
sVbbmr
p331
I9
sVbbir
p332
I9
sVbbiw
p333
I2
sVa
V29.57
p334
sVb
I140
sVe
V8.87
p335
sVd
I50
sVwmaid
p336
I0
sV4w
p337
I0
sVm
I7
sV4s
p338
I20
sVr
I207
sVw
I7
sVsr
p339
V20.00
p340
sVov
p341
V23.33
p342
sV5w
p343
I0
ssg50
(dp344
Va
V9.00
p345
sVb
I20
sVinns
p346
I3
sVno
p347
I1
sVsr
p348
V90.00
p349
sVm
I7
sV4s
p350
I1
sV6s
p351
I1
sVhs
p352
V15
p353
sVr
V18
p354
sV100s
p355
I0
sV50s
p356
I0
ssg63
I2010
stp357
a(Vipl2009
(dp358
g24
(dp359
Vinns
p360
I4
sVc
I3
sVro
p361
I1
sVm
I13
sVs
I0
ssg28
(dp362
Vinns
p363
I13
sV10w
p364
I0
sVnb
p365
I0
sVmaid
p366
I0
sVwb
p367
I5
sVbbmw
p368
I4
sV6s
p369
I12
sVbbmr
p370
I21
sVbbir
p371
I21
sVbbiw
p372
I4
sVa
V24.30
p373
sVb
I224
sVe
V8.46
p374
sVd
I70
sVwmaid
p375
I0
sV4w
p376
I1
sVm
I13
sV4s
p377
I27
sVr
I316
sVw
I13
sVsr
p378
V17.23
p379
sVov
p380
V37.33
p381
sV5w
p382
I0
ssg50
(dp383
Va
V1.33
p384
sVb
I10
sVinns
p385
I4
sVno
p386
I1
sVsr
p387
V40.00
p388
sVm
I13
sV4s
p389
I0
sV6s
p390
I0
sVhs
p391
V2*
p392
sVr
V4
sV100s
p393
I0
sV50s
p394
I0
ssg63
I2009
stp395
a(Vipl2008
(dp396
g24
(dp397
Vinns
p398
I1
sVc
I1
sVro
p399
I0
sVm
I9
sVs
I0
ssg28
(dp400
Vinns
p401
I9
sV10w
p402
I0
sVnb
p403
I0
sVmaid
p404
I0
sVwb
p405
I7
sVbbmw
p406
I5
sV6s
p407
I9
sVbbmr
p408
I24
sVbbir
p409
I24
sVbbiw
p410
I5
sVa
V26.00
p411
sVb
I198
sVe
V8.66
p412
sVd
I60
sVwmaid
p413
I0
sV4w
p414
I0
sVm
I9
sV4s
p415
I30
sVr
I286
sVw
I11
sVsr
p416
V18.00
p417
sVov
p418
V33.00
p419
sV5w
p420
I1
ssg50
(dp421
Va
V0.00
p422
sVb
I4
sVinns
p423
I1
sVno
p424
I0
sVsr
p425
V0.00
p426
sVm
I9
sV4s
p427
I0
sV6s
p428
I0
sVhs
p429
V0*
p430
sVr
V0
sV100s
p431
I0
sV50s
p432
I0
ssg63
I2008
stp433
asb.