(iplayer
Player
p1
(dp2
S'is_batsman'
p3
I00
sS'name'
p4
S'Kevon Cooper'
p5
sS'dob'
p6
S'1989/02/02'
p7
sS'price'
p8
S'900000'
p9
sS'is_allrounder'
p10
I01
sS'is_overseas'
p11
I01
sS'team'
p12
S'RR'
p13
sS'nationality'
p14
S'West Indian'
p15
sS'is_bowler'
p16
I01
sS'is_keeper'
p17
I00
sS'id'
p18
S'232'
p19
sS'is_uncapped'
p20
I00
sS'tournamentStats'
p21
(lp22
(Vipl2013
(dp23
S'fieldingStats'
p24
(dp25
Vinns
p26
I7
sVc
I8
sVro
p27
I2
sVm
I14
sVs
I0
ssS'bowlingStats'
p28
(dp29
Vinns
p30
I14
sV10w
p31
I0
sVnb
p32
I0
sVmaid
p33
I0
sVwb
p34
I17
sVbbmw
p35
I3
sV6s
p36
I11
sVbbmr
p37
I15
sVbbir
p38
I15
sVbbiw
p39
I3
sVa
V23.63
p40
sVb
I324
sVe
V8.31
p41
sVd
I98
sVwmaid
p42
I0
sV4w
p43
I0
sVm
I14
sV4s
p44
I40
sVr
I449
sVw
I19
sVsr
p45
V17.05
p46
sVov
p47
V54.00
p48
sV5w
p49
I0
ssS'battingStats'
p50
(dp51
Va
V9.75
p52
sVb
I22
sVinns
p53
I5
sVno
p54
I1
sVsr
p55
V177.27
p56
sVm
I14
sV4s
p57
I4
sV6s
p58
I2
sVhs
p59
V26
p60
sVr
V39
p61
sV100s
p62
I0
sV50s
p63
I0
ssS'year'
p64
I2013
stp65
a(Vclt20-2013
(dp66
g24
(dp67
Vinns
p68
I2
sVc
I1
sVro
p69
I1
sVm
I6
sVs
I0
ssg28
(dp70
Vinns
p71
I6
sV10w
p72
I0
sVnb
p73
I0
sVmaid
p74
I0
sVwb
p75
I6
sVbbmw
p76
I4
sV6s
p77
I8
sVbbmr
p78
I18
sVbbir
p79
I18
sVbbiw
p80
I4
sVa
V33.66
p81
sVb
I138
sVe
V8.78
p82
sVd
I44
sVwmaid
p83
I0
sV4w
p84
I1
sVm
I6
sV4s
p85
I16
sVr
I202
sVw
I6
sVsr
p86
V23.00
p87
sVov
p88
V23.00
p89
sV5w
p90
I0
ssg50
(dp91
Va
V13.00
p92
sVb
I13
sVinns
p93
I3
sVno
p94
I1
sVsr
p95
V200.00
p96
sVm
I6
sV4s
p97
I5
sV6s
p98
I1
sVhs
p99
V14
p100
sVr
V26
p101
sV100s
p102
I0
sV50s
p103
I0
ssg64
I2013
stp104
a(Vipl2012
(dp105
g24
(dp106
Vinns
p107
I1
sVc
I2
sVro
p108
I1
sVm
I6
sVs
I0
ssg28
(dp109
Vinns
p110
I6
sV10w
p111
I0
sVnb
p112
I0
sVmaid
p113
I1
sVwb
p114
I5
sVbbmw
p115
I4
sV6s
p116
I7
sVbbmr
p117
I26
sVbbir
p118
I26
sVbbiw
p119
I4
sVa
V17.40
p120
sVb
I144
sVe
V7.25
p121
sVd
I52
sVwmaid
p122
I0
sV4w
p123
I1
sVm
I6
sV4s
p124
I12
sVr
I174
sVw
I10
sVsr
p125
V14.40
p126
sVov
p127
V24.00
p128
sV5w
p129
I0
ssg50
(dp130
Va
V19.00
p131
sVb
I20
sVinns
p132
I4
sVno
p133
I2
sVsr
p134
V190.00
p135
sVm
I6
sV4s
p136
I3
sV6s
p137
I3
sVhs
p138
V14
p139
sVr
V38
p140
sV100s
p141
I0
sV50s
p142
I0
ssg64
I2012
stp143
a(Vclt20-2012
(dp144
g24
(dp145
Vinns
p146
I0
sVc
I0
sVro
p147
I0
sVm
I2
sVs
I0
ssg28
(dp148
Vinns
p149
I1
sV10w
p150
I0
sVnb
p151
I0
sVmaid
p152
I0
sVwb
p153
I3
sVbbmw
p154
I0
sV6s
p155
I3
sVbbmr
p156
I0
sVbbir
p157
I0
sVbbiw
p158
I0
sVa
V-
sVb
I17
sVe
V9.88
p159
sVd
I7
sVwmaid
p160
I0
sV4w
p161
I0
sVm
I2
sV4s
p162
I0
sVr
I28
sVw
I0
sVsr
p163
V-
sVov
p164
V2.83
p165
sV5w
p166
I0
ssg50
(dp167
Va
V15.00
p168
sVb
I9
sVinns
p169
I1
sVno
p170
I0
sVsr
p171
V166.66
p172
sVm
I2
sV4s
p173
I2
sV6s
p174
I0
sVhs
p175
V15
p176
sVr
V15
p177
sV100s
p178
I0
sV50s
p179
I0
ssg64
I2012
stp180
a(Vclt20-2011
p181
(dp182
g24
(dp183
Vinns
p184
I0
sVc
I0
sVro
p185
I0
sVm
I6
sVs
I0
ssg28
(dp186
Vinns
p187
I6
sV10w
p188
I0
sVnb
p189
I1
sVmaid
p190
I0
sVwb
p191
I1
sVbbmw
p192
I1
sV6s
p193
I0
sVbbmr
p194
I15
sVbbir
p195
I15
sVbbiw
p196
I1
sVa
V25.40
p197
sVb
I144
sVe
V5.29
p198
sVd
I51
sVwmaid
p199
I0
sV4w
p200
I0
sVm
I6
sV4s
p201
I9
sVr
I127
sVw
I5
sVsr
p202
V28.80
p203
sVov
p204
V24.00
p205
sV5w
p206
I0
ssg50
(dp207
Va
V21.66
p208
sVb
I34
sVinns
p209
I4
sVno
p210
I1
sVsr
p211
V191.17
p212
sVm
I6
sV4s
p213
I3
sV6s
p214
I5
sVhs
p215
V28
p216
sVr
V65
p217
sV100s
p218
I0
sV50s
p219
I0
ssg64
I2011
stp220
asb.