(iplayer
Player
p1
(dp2
S'is_batsman'
p3
I01
sS'name'
p4
S'Steve Smith'
p5
sS'dob'
p6
S'1989/06/02'
p7
sS'price'
p8
S'950000'
p9
sS'is_allrounder'
p10
I01
sS'is_overseas'
p11
I01
sS'team'
p12
S'RR'
p13
sS'nationality'
p14
S'Australian'
p15
sS'is_bowler'
p16
I00
sS'is_keeper'
p17
I00
sS'id'
p18
S'271'
p19
sS'is_uncapped'
p20
I00
sS'tournamentStats'
p21
(lp22
(Vsa-aus-2014
(dp23
S'fieldingStats'
p24
(dp25
Vinns
p26
I2
sVc
I2
sVro
p27
I1
sVm
I3
sVs
I0
ssS'bowlingStats'
p28
(dp29
Vinns
p30
I3
sV10w
p31
I0
sVnb
p32
I1
sVmaid
p33
I3
sVwb
p34
I0
sVbbmw
p35
I1
sV6s
p36
I0
sVbbmr
p37
I30
sVbbir
p38
I30
sVbbiw
p39
I1
sVa
V40.00
p40
sVb
I138
sVe
V3.47
p41
sVd
I88
sVwmaid
p42
I0
sV4w
p43
I0
sVm
I3
sV4s
p44
I9
sVr
I80
sVw
I2
sVsr
p45
V69.00
p46
sVov
p47
V23.00
p48
sV5w
p49
I0
ssS'battingStats'
p50
(dp51
Va
V67.25
p52
sVb
I461
sVinns
p53
I5
sVno
p54
I1
sVsr
p55
V58.35
p56
sVm
I3
sV4s
p57
I35
sV6s
p58
I3
sVhs
p59
V100
p60
sVr
V269
p61
sV100s
p62
I1
sV50s
p63
I1
ssS'year'
p64
I2014
stp65
a(Vaus-eng-2013
(dp66
g24
(dp67
Vinns
p68
I1
sVc
I1
sVro
p69
I0
sVm
I1
sVs
I0
ssg28
(dp70
Vinns
p71
I0
sV10w
p72
I0
sVnb
p73
I0
sVmaid
p74
I0
sVwb
p75
I0
sVbbmw
p76
I0
sV6s
p77
I0
sVbbmr
p78
I0
sVbbir
p79
I0
sVbbiw
p80
I0
sVa
V-
sVb
I0
sVe
V-
sVd
I0
sVwmaid
p81
I0
sV4w
p82
I0
sVm
I1
sV4s
p83
I0
sVr
I0
sVw
I0
sVsr
p84
V-
sVov
p85
V-
sV5w
p86
I0
ssg50
(dp87
Va
V19.00
p88
sVb
I16
sVinns
p89
I1
sVno
p90
I0
sVsr
p91
V118.75
p92
sVm
I1
sV4s
p93
I2
sV6s
p94
I1
sVhs
p95
V19
p96
sVr
V19
p97
sV100s
p98
I0
sV50s
p99
I0
ssg64
I2013
stp100
a(Vipl2013
(dp101
g24
(dp102
Vinns
p103
I2
sVc
I4
sVro
p104
I0
sVm
I7
sVs
I0
ssg28
(dp105
Vinns
p106
I0
sV10w
p107
I0
sVnb
p108
I0
sVmaid
p109
I0
sVwb
p110
I0
sVbbmw
p111
I0
sV6s
p112
I0
sVbbmr
p113
I0
sVbbir
p114
I0
sVbbiw
p115
I0
sVa
V-
sVb
I0
sVe
V-
sVd
I0
sVwmaid
p116
I0
sV4w
p117
I0
sVm
I7
sV4s
p118
I0
sVr
I0
sVw
I0
sVsr
p119
V-
sVov
p120
V-
sV5w
p121
I0
ssg50
(dp122
Va
V39.75
p123
sVb
I132
sVinns
p124
I7
sVno
p125
I3
sVsr
p126
V120.45
p127
sVm
I7
sV4s
p128
I15
sV6s
p129
I4
sVhs
p130
V41
p131
sVr
V159
p132
sV100s
p133
I0
sV50s
p134
I0
ssg64
I2013
stp135
a(Vind-aus-2013
(dp136
g24
(dp137
Vinns
p138
I1
sVc
I1
sVro
p139
I0
sVm
I2
sVs
I0
ssg28
(dp140
Vinns
p141
I1
sV10w
p142
I0
sVnb
p143
I0
sVmaid
p144
I0
sVwb
p145
I0
sVbbmw
p146
I1
sV6s
p147
I1
sVbbmr
p148
I63
sVbbir
p149
I0
sVbbiw
p150
I0
sVa
V63.00
p151
sVb
I60
sVe
V6.30
p152
sVd
I29
sVwmaid
p153
I0
sV4w
p154
I0
sVm
I2
sV4s
p155
I9
sVr
I63
sVw
I1
sVsr
p156
V60.00
p157
sVov
p158
V10.00
p159
sV5w
p160
I0
ssg50
(dp161
Va
V40.25
p162
sVb
I402
sVinns
p163
I4
sVno
p164
I0
sVsr
p165
V40.04
p166
sVm
I2
sV4s
p167
I14
sV6s
p168
I3
sVhs
p169
V92
p170
sVr
V161
p171
sV100s
p172
I0
sV50s
p173
I1
ssg64
I2013
stp174
a(Vbigbash-2013
(dp175
g24
(dp176
Vinns
p177
I2
sVc
I3
sVro
p178
I0
sVm
I5
sVs
I0
ssg28
(dp179
Vinns
p180
I0
sV10w
p181
I0
sVnb
p182
I0
sVmaid
p183
I0
sVwb
p184
I0
sVbbmw
p185
I0
sV6s
p186
I0
sVbbmr
p187
I0
sVbbir
p188
I0
sVbbiw
p189
I0
sVa
V-
sVb
I0
sVe
V-
sVd
I0
sVwmaid
p190
I0
sV4w
p191
I0
sVm
I4
sV4s
p192
I0
sVr
I0
sVw
I0
sVsr
p193
V-
sVov
p194
V-
sV5w
p195
I0
ssg50
(dp196
Va
V41.00
p197
sVb
I126
sVinns
p198
I4
sVno
p199
I0
sVsr
p200
V130.15
p201
sVm
I5
sV4s
p202
I11
sV6s
p203
I4
sVhs
p204
V65
p205
sVr
V164
p206
sV100s
p207
I0
sV50s
p208
I2
ssg64
I2013
stp209
a(Veng-aus-2013
p210
(dp211
g24
(dp212
Vinns
p213
I3
sVc
I3
sVro
p214
I0
sVm
I5
sVs
I0
ssg28
(dp215
Vinns
p216
I5
sV10w
p217
I0
sVnb
p218
I0
sVmaid
p219
I4
sVwb
p220
I0
sVbbmw
p221
I4
sV6s
p222
I2
sVbbmr
p223
I83
sVbbir
p224
I18
sVbbiw
p225
I3
sVa
V26.50
p226
sVb
I186
sVe
V3.41
p227
sVd
I122
sVwmaid
p228
I1
sV4w
p229
I0
sVm
I5
sV4s
p230
I9
sVr
I106
sVw
I4
sVsr
p231
V46.50
p232
sVov
p233
V31.00
p234
sV5w
p235
I0
ssg50
(dp236
Va
V38.33
p237
sVb
I676
sVinns
p238
I10
sVno
p239
I1
sVsr
p240
V51.03
p241
sVm
I5
sV4s
p242
I36
sV6s
p243
I5
sVhs
p244
V138*
p245
sVr
V345
p246
sV100s
p247
I1
sV50s
p248
I2
ssg64
I2013
stp249
a(Vipl2012
(dp250
g24
(dp251
Vinns
p252
I9
sVc
I10
sVro
p253
I5
sVm
I15
sVs
I0
ssg28
(dp254
Vinns
p255
I1
sV10w
p256
I0
sVnb
p257
I0
sVmaid
p258
I0
sVwb
p259
I0
sVbbmw
p260
I0
sV6s
p261
I0
sVbbmr
p262
I0
sVbbir
p263
I0
sVbbiw
p264
I0
sVa
V-
sVb
I2
sVe
V15.00
p265
sVd
I0
sVwmaid
p266
I0
sV4w
p267
I0
sVm
I15
sV4s
p268
I1
sVr
I5
sVw
I0
sVsr
p269
V-
sVov
p270
V0.33
p271
sV5w
p272
I0
ssg50
(dp273
Va
V40.22
p274
sVb
I267
sVinns
p275
I14
sVno
p276
I5
sVsr
p277
V135.58
p278
sVm
I15
sV4s
p279
I24
sV6s
p280
I14
sVhs
p281
V47*
p282
sVr
V362
p283
sV100s
p284
I0
sV50s
p285
I0
ssg64
I2012
stp286
a(Vclt20-2012
(dp287
g24
(dp288
Vinns
p289
I3
sVc
I4
sVro
p290
I0
sVm
I6
sVs
I0
ssg28
(dp291
Vinns
p292
I0
sV10w
p293
I0
sVnb
p294
I0
sVmaid
p295
I0
sVwb
p296
I0
sVbbmw
p297
I0
sV6s
p298
I0
sVbbmr
p299
I0
sVbbir
p300
I0
sVbbiw
p301
I0
sVa
V-
sVb
I0
sVe
V-
sVd
I0
sVwmaid
p302
I0
sV4w
p303
I0
sVm
I6
sV4s
p304
I0
sVr
I0
sVw
I0
sVsr
p305
V-
sVov
p306
V-
sV5w
p307
I0
ssg50
(dp308
Va
V31.66
p309
sVb
I89
sVinns
p310
I4
sVno
p311
I1
sVsr
p312
V106.74
p313
sVm
I6
sV4s
p314
I8
sV6s
p315
I0
sVhs
p316
V41
p317
sVr
V95
p318
sV100s
p319
I0
sV50s
p320
I0
ssg64
I2012
stp321
a(Vbigbash-2012
(dp322
g24
(dp323
Vinns
p324
I2
sVc
I3
sVro
p325
I0
sVm
I7
sVs
I0
ssg28
(dp326
Vinns
p327
I1
sV10w
p328
I0
sVnb
p329
I0
sVmaid
p330
I0
sVwb
p331
I0
sVbbmw
p332
I0
sV6s
p333
I1
sVbbmr
p334
I0
sVbbir
p335
I0
sVbbiw
p336
I0
sVa
V-
sVb
I12
sVe
V8.00
p337
sVd
I3
sVwmaid
p338
I0
sV4w
p339
I0
sVm
I7
sV4s
p340
I0
sVr
I16
sVw
I0
sVsr
p341
V-
sVov
p342
V2.00
p343
sV5w
p344
I0
ssg50
(dp345
Va
V33.80
p346
sVb
I147
sVinns
p347
I7
sVno
p348
I2
sVsr
p349
V114.96
p350
sVm
I7
sV4s
p351
I14
sV6s
p352
I2
sVhs
p353
V58
p354
sVr
V169
p355
sV100s
p356
I0
sV50s
p357
I1
ssg64
I2012
stp358
a(Vaus-sl-2012
(dp359
g24
(dp360
Vinns
p361
I0
sVc
I0
sVro
p362
I0
sVm
I1
sVs
I0
ssg28
(dp363
Vinns
p364
I1
sV10w
p365
I0
sVnb
p366
I0
sVmaid
p367
I0
sVwb
p368
I0
sVbbmw
p369
I0
sV6s
p370
I0
sVbbmr
p371
I16
sVbbir
p372
I16
sVbbiw
p373
I0
sVa
V-
sVb
I24
sVe
V4.00
p374
sVd
I12
sVwmaid
p375
I0
sV4w
p376
I0
sVm
I1
sV4s
p377
I1
sVr
I16
sVw
I0
sVsr
p378
V-
sVov
p379
V4.00
p380
sV5w
p381
I0
ssg50
(dp382
Va
V8.00
p383
sVb
I11
sVinns
p384
I1
sVno
p385
I0
sVsr
p386
V72.72
p387
sVm
I1
sV4s
p388
I1
sV6s
p389
I0
sVhs
p390
V8
sVr
V8
sV100s
p391
I0
sV50s
p392
I0
ssg64
I2012
stp393
asb.