(iplayer
Player
p1
(dp2
S'is_batsman'
p3
I01
sS'name'
p4
S'Robin Uthappa'
p5
sS'dob'
p6
S'1985/11/11'
p7
sS'price'
p8
S'900000'
p9
sS'is_allrounder'
p10
I00
sS'is_overseas'
p11
I00
sS'team'
p12
S'KKR'
p13
sS'nationality'
p14
S'Indian'
p15
sS'is_bowler'
p16
I00
sS'is_keeper'
p17
I01
sS'id'
p18
S'127'
p19
sS'is_uncapped'
p20
I00
sS'tournamentStats'
p21
(lp22
(Vipl2013
p23
(dp24
S'fieldingStats'
p25
(dp26
Vinns
p27
I6
sVc
I7
sVro
p28
I1
sVm
I16
sVs
I0
ssS'bowlingStats'
p29
(dp30
Vinns
p31
I0
sV10w
p32
I0
sVnb
p33
I0
sVmaid
p34
I0
sVwb
p35
I0
sVbbmw
p36
I0
sV6s
p37
I0
sVbbmr
p38
I0
sVbbir
p39
I0
sVbbiw
p40
I0
sVa
V-
sVb
I0
sVe
V-
sVd
I0
sVwmaid
p41
I0
sV4w
p42
I0
sVm
I16
sV4s
p43
I0
sVr
I0
sVw
I0
sVsr
p44
V-
sVov
p45
V-
sV5w
p46
I0
ssS'battingStats'
p47
(dp48
Va
V27.12
p49
sVb
I371
sVinns
p50
I16
sVno
p51
I0
sVsr
p52
V116.98
p53
sVm
I16
sV4s
p54
I42
sV6s
p55
I12
sVhs
p56
V75
p57
sVr
V434
p58
sV100s
p59
I0
sV50s
p60
I2
ssS'year'
p61
I2013
stp62
a(Vipl2012
(dp63
g25
(dp64
Vinns
p65
I6
sVc
I6
sVro
p66
I1
sVm
I16
sVs
I3
ssg29
(dp67
Vinns
p68
I0
sV10w
p69
I0
sVnb
p70
I0
sVmaid
p71
I0
sVwb
p72
I0
sVbbmw
p73
I0
sV6s
p74
I0
sVbbmr
p75
I0
sVbbir
p76
I0
sVbbiw
p77
I0
sVa
V-
sVb
I0
sVe
V-
sVd
I0
sVwmaid
p78
I0
sV4w
p79
I0
sVm
I16
sV4s
p80
I0
sVr
I0
sVw
I0
sVsr
p81
V-
sVov
p82
V-
sV5w
p83
I0
ssg47
(dp84
Va
V27.00
p85
sVb
I343
sVinns
p86
I16
sVno
p87
I1
sVsr
p88
V118.07
p89
sVm
I16
sV4s
p90
I38
sV6s
p91
I10
sVhs
p92
V69
p93
sVr
V405
p94
sV100s
p95
I0
sV50s
p96
I2
ssg61
I2012
stp97
a(Vipl2011
(dp98
g25
(dp99
Vinns
p100
I10
sVc
I12
sVro
p101
I1
sVm
I14
sVs
I3
ssg29
(dp102
Vinns
p103
I0
sV10w
p104
I0
sVnb
p105
I0
sVmaid
p106
I0
sVwb
p107
I0
sVbbmw
p108
I0
sV6s
p109
I0
sVbbmr
p110
I0
sVbbir
p111
I0
sVbbiw
p112
I0
sVa
V-
sVb
I0
sVe
V-
sVd
I0
sVwmaid
p113
I0
sV4w
p114
I0
sVm
I14
sV4s
p115
I0
sVr
I0
sVw
I0
sVsr
p116
V-
sVov
p117
V-
sV5w
p118
I0
ssg47
(dp119
Va
V26.40
p120
sVb
I209
sVinns
p121
I13
sVno
p122
I3
sVsr
p123
V126.31
p124
sVm
I14
sV4s
p125
I27
sV6s
p126
I10
sVhs
p127
V45
p128
sVr
V264
p129
sV100s
p130
I0
sV50s
p131
I0
ssg61
I2011
stp132
a(Vclt20-2010
(dp133
g25
(dp134
Vinns
p135
I3
sVc
I5
sVro
p136
I1
sVm
I5
sVs
I0
ssg29
(dp137
Vinns
p138
I0
sV10w
p139
I0
sVnb
p140
I0
sVmaid
p141
I0
sVwb
p142
I0
sVbbmw
p143
I0
sV6s
p144
I0
sVbbmr
p145
I0
sVbbir
p146
I0
sVbbiw
p147
I0
sVa
V-
sVb
I0
sVe
V-
sVd
I0
sVwmaid
p148
I0
sV4w
p149
I0
sVm
I5
sV4s
p150
I0
sVr
I0
sVw
I0
sVsr
p151
V-
sVov
p152
V-
sV5w
p153
I0
ssg47
(dp154
Va
V10.50
p155
sVb
I27
sVinns
p156
I5
sVno
p157
I1
sVsr
p158
V155.55
p159
sVm
I5
sV4s
p160
I5
sV6s
p161
I2
sVhs
p162
V25*
p163
sVr
V42
p164
sV100s
p165
I0
sV50s
p166
I0
ssg61
I2010
stp167
a(Vipl2010
(dp168
g25
(dp169
Vinns
p170
I8
sVc
I7
sVro
p171
I3
sVm
I16
sVs
I3
ssg29
(dp172
Vinns
p173
I0
sV10w
p174
I0
sVnb
p175
I0
sVmaid
p176
I0
sVwb
p177
I0
sVbbmw
p178
I0
sV6s
p179
I0
sVbbmr
p180
I0
sVbbir
p181
I0
sVbbiw
p182
I0
sVa
V-
sVb
I0
sVe
V-
sVd
I0
sVwmaid
p183
I0
sV4w
p184
I0
sVm
I16
sV4s
p185
I0
sVr
I0
sVw
I0
sVsr
p186
V-
sVov
p187
V-
sV5w
p188
I0
ssg47
(dp189
Va
V31.16
p190
sVb
I218
sVinns
p191
I14
sVno
p192
I2
sVsr
p193
V171.55
p194
sVm
I16
sV4s
p195
I21
sV6s
p196
I27
sVhs
p197
V68*
p198
sVr
V374
p199
sV100s
p200
I0
sV50s
p201
I3
ssg61
I2010
stp202
a(Vipl2009
(dp203
g25
(dp204
Vinns
p205
I5
sVc
I7
sVro
p206
I0
sVm
I15
sVs
I1
ssg29
(dp207
Vinns
p208
I0
sV10w
p209
I0
sVnb
p210
I0
sVmaid
p211
I0
sVwb
p212
I0
sVbbmw
p213
I0
sV6s
p214
I0
sVbbmr
p215
I0
sVbbir
p216
I0
sVbbiw
p217
I0
sVa
V-
sVb
I0
sVe
V-
sVd
I0
sVwmaid
p218
I0
sV4w
p219
I0
sVm
I15
sV4s
p220
I0
sVr
I0
sVw
I0
sVsr
p221
V-
sVov
p222
V-
sV5w
p223
I0
ssg47
(dp224
Va
V15.90
p225
sVb
I170
sVinns
p226
I13
sVno
p227
I2
sVsr
p228
V102.94
p229
sVm
I15
sV4s
p230
I18
sV6s
p231
I3
sVhs
p232
V66*
p233
sVr
V175
p234
sV100s
p235
I0
sV50s
p236
I1
ssg61
I2009
stp237
a(Vclt20-2009
(dp238
g25
(dp239
Vinns
p240
I1
sVc
I2
sVro
p241
I0
sVm
I4
sVs
I0
ssg29
(dp242
Vinns
p243
I0
sV10w
p244
I0
sVnb
p245
I0
sVmaid
p246
I0
sVwb
p247
I0
sVbbmw
p248
I0
sV6s
p249
I0
sVbbmr
p250
I0
sVbbir
p251
I0
sVbbiw
p252
I0
sVa
V-
sVb
I0
sVe
V-
sVd
I0
sVwmaid
p253
I0
sV4w
p254
I0
sVm
I4
sV4s
p255
I0
sVr
I0
sVw
I0
sVsr
p256
V-
sVov
p257
V-
sV5w
p258
I0
ssg47
(dp259
Va
V28.75
p260
sVb
I91
sVinns
p261
I4
sVno
p262
I0
sVsr
p263
V126.37
p264
sVm
I4
sV4s
p265
I15
sV6s
p266
I4
sVhs
p267
V51
p268
sVr
V115
p269
sV100s
p270
I0
sV50s
p271
I1
ssg61
I2009
stp272
a(Vipl2008
(dp273
g25
(dp274
Vinns
p275
I6
sVc
I9
sVro
p276
I1
sVm
I14
sVs
I0
ssg29
(dp277
Vinns
p278
I0
sV10w
p279
I0
sVnb
p280
I0
sVmaid
p281
I0
sVwb
p282
I0
sVbbmw
p283
I0
sV6s
p284
I0
sVbbmr
p285
I0
sVbbir
p286
I0
sVbbiw
p287
I0
sVa
V-
sVb
I0
sVe
V-
sVd
I0
sVwmaid
p288
I0
sV4w
p289
I0
sVm
I14
sV4s
p290
I0
sVr
I0
sVw
I0
sVsr
p291
V-
sVov
p292
V-
sV5w
p293
I0
ssg47
(dp294
Va
V35.55
p295
sVb
I279
sVinns
p296
I14
sVno
p297
I5
sVsr
p298
V114.69
p299
sVm
I14
sV4s
p300
I34
sV6s
p301
I9
sVhs
p302
V48
p303
sVr
V320
p304
sV100s
p305
I0
sV50s
p306
I0
ssg61
I2008
stp307
asb.