(iplayer
Player
p1
(dp2
S'is_batsman'
p3
I00
sS'name'
p4
S'Vikramjeet Malik'
p5
sS'dob'
p6
S'1983/05/09'
p7
sS'price'
p8
S'750000'
p9
sS'is_allrounder'
p10
I00
sS'is_overseas'
p11
I00
sS'team'
p12
S'RR'
p13
sS'nationality'
p14
S'Indian'
p15
sS'is_bowler'
p16
I01
sS'is_keeper'
p17
I00
sS'id'
p18
S'82'
p19
sS'is_uncapped'
p20
I01
sS'tournamentStats'
p21
(lp22
(Vipl2013
(dp23
S'fieldingStats'
p24
(dp25
Vinns
p26
I0
sVc
I0
sVro
p27
I0
sVm
I3
sVs
I0
ssS'bowlingStats'
p28
(dp29
Vinns
p30
I3
sV10w
p31
I0
sVnb
p32
I0
sVmaid
p33
I0
sVwb
p34
I1
sVbbmw
p35
I2
sV6s
p36
I0
sVbbmr
p37
I14
sVbbir
p38
I14
sVbbiw
p39
I2
sVa
V29.50
p40
sVb
I60
sVe
V5.90
p41
sVd
I30
sVwmaid
p42
I0
sV4w
p43
I0
sVm
I3
sV4s
p44
I8
sVr
I59
sVw
I2
sVsr
p45
V30.00
p46
sVov
p47
V10.00
p48
sV5w
p49
I0
ssS'battingStats'
p50
(dp51
Va
V-
sVinns
p52
I0
sVno
p53
I0
sVsr
p54
V-
sVm
I3
sV4s
p55
I0
sV6s
p56
I0
sVhs
p57
V0*
p58
sVr
V0
sV100s
p59
I0
sV50s
p60
I0
ssS'year'
p61
I2013
stp62
a(Vclt20-2013
(dp63
g24
(dp64
Vinns
p65
I1
sVc
I1
sVro
p66
I0
sVm
I3
sVs
I0
ssg28
(dp67
Vinns
p68
I3
sV10w
p69
I0
sVnb
p70
I0
sVmaid
p71
I0
sVwb
p72
I2
sVbbmw
p73
I3
sV6s
p74
I3
sVbbmr
p75
I24
sVbbir
p76
I24
sVbbiw
p77
I3
sVa
V14.40
p78
sVb
I54
sVe
V8.00
p79
sVd
I29
sVwmaid
p80
I0
sV4w
p81
I0
sVm
I3
sV4s
p82
I9
sVr
I72
sVw
I5
sVsr
p83
V10.80
p84
sVov
p85
V9.00
p86
sV5w
p87
I0
ssg50
(dp88
Va
V-
sVinns
p89
I0
sVno
p90
I0
sVsr
p91
V-
sVm
I3
sV4s
p92
I0
sV6s
p93
I0
sVhs
p94
V0*
p95
sVr
V0
sV100s
p96
I0
sV50s
p97
I0
ssg61
I2013
stp98
a(Vipl2011
(dp99
g24
(dp100
Vinns
p101
I0
sVc
I0
sVro
p102
I0
sVm
I1
sVs
I0
ssg28
(dp103
Vinns
p104
I1
sV10w
p105
I0
sVnb
p106
I0
sVmaid
p107
I0
sVwb
p108
I0
sVbbmw
p109
I0
sV6s
p110
I1
sVbbmr
p111
I13
sVbbir
p112
I13
sVbbiw
p113
I0
sVa
V-
sVb
I12
sVe
V6.50
p114
sVd
I3
sVwmaid
p115
I0
sV4w
p116
I0
sVm
I1
sV4s
p117
I0
sVr
I13
sVw
I0
sVsr
p118
V-
sVov
p119
V2.00
p120
sV5w
p121
I0
ssg50
(dp122
Va
V-
sVinns
p123
I0
sVno
p124
I0
sVsr
p125
V-
sVm
I1
sV4s
p126
I0
sV6s
p127
I0
sVhs
p128
V0*
p129
sVr
V0
sV100s
p130
I0
sV50s
p131
I0
ssg61
I2011
stp132
a(Vipl2010
(dp133
g24
(dp134
Vinns
p135
I0
sVc
I0
sVro
p136
I0
sVm
I3
sVs
I0
ssg28
(dp137
Vinns
p138
I3
sV10w
p139
I0
sVnb
p140
I1
sVmaid
p141
I0
sVwb
p142
I2
sVbbmw
p143
I1
sV6s
p144
I0
sVbbmr
p145
I23
sVbbir
p146
I23
sVbbiw
p147
I1
sVa
V62.00
p148
sVb
I43
sVe
V8.65
p149
sVd
I16
sVwmaid
p150
I0
sV4w
p151
I0
sVm
I3
sV4s
p152
I10
sVr
I62
sVw
I1
sVsr
p153
V43.00
p154
sVov
p155
V7.16
p156
sV5w
p157
I0
ssg50
(dp158
Va
V6.00
p159
sVb
I5
sVinns
p160
I1
sVno
p161
I0
sVsr
p162
V120.00
p163
sVm
I3
sV4s
p164
I1
sV6s
p165
I0
sVhs
p166
V6
sVr
V6
sV100s
p167
I0
sV50s
p168
I0
ssg61
I2010
stp169
a(Vipl2009
p170
(dp171
g24
(dp172
Vinns
p173
I2
sVc
I2
sVro
p174
I0
sVm
I5
sVs
I0
ssg28
(dp175
Vinns
p176
I5
sV10w
p177
I0
sVnb
p178
I1
sVmaid
p179
I0
sVwb
p180
I1
sVbbmw
p181
I1
sV6s
p182
I4
sVbbmr
p183
I12
sVbbir
p184
I12
sVbbiw
p185
I1
sVa
V49.00
p186
sVb
I72
sVe
V8.16
p187
sVd
I28
sVwmaid
p188
I0
sV4w
p189
I0
sVm
I5
sV4s
p190
I8
sVr
I98
sVw
I2
sVsr
p191
V36.00
p192
sVov
p193
V12.00
p194
sV5w
p195
I0
ssg50
(dp196
Va
V-
sVinns
p197
I0
sVno
p198
I0
sVsr
p199
V-
sVm
I5
sV4s
p200
I0
sV6s
p201
I0
sVhs
p202
V0*
p203
sVr
V0
sV100s
p204
I0
sV50s
p205
I0
ssg61
I2009
stp206
asb.