(iplayer
Player
p1
(dp2
S'is_batsman'
p3
I01
sS'name'
p4
S'David Warner'
p5
sS'dob'
p6
S'1986/10/27'
p7
sS'price'
p8
S'1000000'
p9
sS'is_allrounder'
p10
I00
sS'is_overseas'
p11
I01
sS'team'
p12
S'SRH'
p13
sS'nationality'
p14
S'Australian'
p15
sS'is_bowler'
p16
I00
sS'is_keeper'
p17
I00
sS'id'
p18
S'170'
p19
sS'is_uncapped'
p20
I00
sS'tournamentStats'
p21
(lp22
(Vsa-aus-2014
(dp23
S'fieldingStats'
p24
(dp25
Vinns
p26
I2
sVc
I2
sVro
p27
I0
sVm
I4
sVs
I0
ssS'bowlingStats'
p28
(dp29
Vinns
p30
I2
sV10w
p31
I0
sVnb
p32
I0
sVmaid
p33
I0
sVwb
p34
I0
sVbbmw
p35
I0
sV6s
p36
I0
sVbbmr
p37
I0
sVbbir
p38
I0
sVbbiw
p39
I0
sVa
V-
sVb
I30
sVe
V2.60
p40
sVd
I20
sVwmaid
p41
I0
sV4w
p42
I0
sVm
I4
sV4s
p43
I1
sVr
I13
sVw
I0
sVsr
p44
V-
sVov
p45
V5.00
p46
sV5w
p47
I0
ssS'battingStats'
p48
(dp49
Va
V83.28
p50
sVb
I642
sVinns
p51
I7
sVno
p52
I0
sVsr
p53
V90.80
p54
sVm
I4
sV4s
p55
I64
sV6s
p56
I10
sVhs
p57
V145
p58
sVr
V583
p59
sV100s
p60
I3
sV50s
p61
I2
ssS'year'
p62
I2014
stp63
a(Vworldt20-2014
(dp64
g24
(dp65
Vinns
p66
I1
sVc
I1
sVro
p67
I0
sVm
I1
sVs
I0
ssg28
(dp68
Vinns
p69
I0
sV10w
p70
I0
sVnb
p71
I0
sVmaid
p72
I0
sVwb
p73
I0
sVbbmw
p74
I0
sV6s
p75
I0
sVbbmr
p76
I0
sVbbir
p77
I0
sVbbiw
p78
I0
sVa
V-
sVb
I0
sVe
V-
sVd
I0
sVwmaid
p79
I0
sV4w
p80
I0
sVm
I1
sV4s
p81
I0
sVr
I0
sVw
I0
sVsr
p82
V-
sVov
p83
V-
sV5w
p84
I0
ssg48
(dp85
Va
V4.00
p86
sVb
I2
sVinns
p87
I1
sVno
p88
I0
sVsr
p89
V200.00
p90
sVm
I1
sV4s
p91
I1
sV6s
p92
I0
sVhs
p93
V4
sVr
V4
sV100s
p94
I0
sV50s
p95
I0
ssg62
I2014
stp96
a(Vbigbash-2013
(dp97
g24
(dp98
Vinns
p99
I1
sVc
I2
sVro
p100
I0
sVm
I1
sVs
I0
ssg28
(dp101
Vinns
p102
I0
sV10w
p103
I0
sVnb
p104
I0
sVmaid
p105
I0
sVwb
p106
I0
sVbbmw
p107
I0
sV6s
p108
I0
sVbbmr
p109
I0
sVbbir
p110
I0
sVbbiw
p111
I0
sVa
V-
sVb
I0
sVe
V-
sVd
I0
sVwmaid
p112
I0
sV4w
p113
I0
sVm
I1
sV4s
p114
I0
sVr
I0
sVw
I0
sVsr
p115
V-
sVov
p116
V-
sV5w
p117
I0
ssg48
(dp118
Va
V49.00
p119
sVb
I29
sVinns
p120
I1
sVno
p121
I0
sVsr
p122
V168.96
p123
sVm
I1
sV4s
p124
I6
sV6s
p125
I1
sVhs
p126
V49
p127
sVr
V49
p128
sV100s
p129
I0
sV50s
p130
I0
ssg62
I2013
stp131
a(Vaus-eng-2013
(dp132
g24
(dp133
Vinns
p134
I5
sVc
I4
sVro
p135
I1
sVm
I8
sVs
I0
ssg28
(dp136
Vinns
p137
I0
sV10w
p138
I0
sVnb
p139
I0
sVmaid
p140
I0
sVwb
p141
I0
sVbbmw
p142
I0
sV6s
p143
I0
sVbbmr
p144
I0
sVbbir
p145
I0
sVbbiw
p146
I0
sVa
V-
sVb
I0
sVe
V-
sVd
I0
sVwmaid
p147
I0
sV4w
p148
I0
sVm
I8
sV4s
p149
I0
sVr
I0
sVw
I0
sVsr
p150
V-
sVov
p151
V-
sV5w
p152
I0
ssg48
(dp153
Va
V56.41
p154
sVb
I859
sVinns
p155
I13
sVno
p156
I1
sVsr
p157
V78.81
p158
sVm
I8
sV4s
p159
I81
sV6s
p160
I8
sVhs
p161
V124
p162
sVr
V677
p163
sV100s
p164
I2
sV50s
p165
I4
ssg62
I2013
stp166
a(Vind-aus-2013
(dp167
g24
(dp168
Vinns
p169
I1
sVc
I0
sVro
p170
I1
sVm
I4
sVs
I0
ssg28
(dp171
Vinns
p172
I2
sV10w
p173
I0
sVnb
p174
I0
sVmaid
p175
I0
sVwb
p176
I0
sVbbmw
p177
I0
sV6s
p178
I0
sVbbmr
p179
I0
sVbbir
p180
I0
sVbbiw
p181
I0
sVa
V-
sVb
I24
sVe
V8.25
p182
sVd
I10
sVwmaid
p183
I0
sV4w
p184
I0
sVm
I4
sV4s
p185
I6
sVr
I33
sVw
I0
sVsr
p186
V-
sVov
p187
V4.00
p188
sV5w
p189
I0
ssg48
(dp190
Va
V24.37
p191
sVb
I387
sVinns
p192
I8
sVno
p193
I0
sVsr
p194
V50.38
p195
sVm
I4
sV4s
p196
I22
sV6s
p197
I1
sVhs
p198
V71
p199
sVr
V195
p200
sV100s
p201
I0
sV50s
p202
I2
ssg62
I2013
stp203
a(Vchamptrophy-2013-warmups
(dp204
g24
(dp205
Vinns
p206
I1
sVc
I1
sVro
p207
I0
sVm
I2
sVs
I0
ssg28
(dp208
Vinns
p209
I0
sV10w
p210
I0
sVnb
p211
I0
sVmaid
p212
I0
sVwb
p213
I0
sVbbmw
p214
I0
sV6s
p215
I0
sVbbmr
p216
I0
sVbbir
p217
I0
sVbbiw
p218
I0
sVa
V-
sVb
I0
sVe
V-
sVd
I0
sVwmaid
p219
I0
sV4w
p220
I0
sVm
I2
sV4s
p221
I0
sVr
I0
sVw
I0
sVsr
p222
V-
sVov
p223
V-
sV5w
p224
I0
ssg48
(dp225
Va
V0.00
p226
sVb
I13
sVinns
p227
I2
sVno
p228
I0
sVsr
p229
V0.00
p230
sVm
I2
sV4s
p231
I0
sV6s
p232
I0
sVhs
p233
V0*
p234
sVr
V0
sV100s
p235
I0
sV50s
p236
I0
ssg62
I2013
stp237
a(Vchamptrophy-2013
(dp238
g24
(dp239
Vinns
p240
I0
sVc
I0
sVro
p241
I0
sVm
I1
sVs
I0
ssg28
(dp242
Vinns
p243
I0
sV10w
p244
I0
sVnb
p245
I0
sVmaid
p246
I0
sVwb
p247
I0
sVbbmw
p248
I0
sV6s
p249
I0
sVbbmr
p250
I0
sVbbir
p251
I0
sVbbiw
p252
I0
sVa
V-
sVb
I0
sVe
V-
sVd
I0
sVwmaid
p253
I0
sV4w
p254
I0
sVm
I1
sV4s
p255
I0
sVr
I0
sVw
I0
sVsr
p256
V-
sVov
p257
V-
sV5w
p258
I0
ssg48
(dp259
Va
V9.00
p260
sVb
I21
sVinns
p261
I1
sVno
p262
I0
sVsr
p263
V42.85
p264
sVm
I1
sV4s
p265
I1
sV6s
p266
I0
sVhs
p267
V9
sVr
V9
sV100s
p268
I0
sV50s
p269
I0
ssg62
I2013
stp270
a(Veng-aus-2013
(dp271
g24
(dp272
Vinns
p273
I5
sVc
I5
sVro
p274
I0
sVm
I5
sVs
I0
ssg28
(dp275
Vinns
p276
I0
sV10w
p277
I0
sVnb
p278
I0
sVmaid
p279
I0
sVwb
p280
I0
sVbbmw
p281
I0
sV6s
p282
I0
sVbbmr
p283
I0
sVbbir
p284
I0
sVbbiw
p285
I0
sVa
V-
sVb
I0
sVe
V-
sVd
I0
sVwmaid
p286
I0
sV4w
p287
I0
sVm
I5
sV4s
p288
I0
sVr
I0
sVw
I0
sVsr
p289
V-
sVov
p290
V-
sV5w
p291
I0
ssg48
(dp292
Va
V23.87
p293
sVb
I272
sVinns
p294
I8
sVno
p295
I0
sVsr
p296
V70.22
p297
sVm
I5
sV4s
p298
I24
sV6s
p299
I4
sVhs
p300
V71
p301
sVr
V191
p302
sV100s
p303
I0
sV50s
p304
I2
ssg62
I2013
stp305
a(Vipl2013
(dp306
g24
(dp307
Vinns
p308
I7
sVc
I6
sVro
p309
I1
sVm
I16
sVs
I0
ssg28
(dp310
Vinns
p311
I0
sV10w
p312
I0
sVnb
p313
I0
sVmaid
p314
I0
sVwb
p315
I0
sVbbmw
p316
I0
sV6s
p317
I0
sVbbmr
p318
I0
sVbbir
p319
I0
sVbbiw
p320
I0
sVa
V-
sVb
I0
sVe
V-
sVd
I0
sVwmaid
p321
I0
sV4w
p322
I0
sVm
I16
sV4s
p323
I0
sVr
I0
sVw
I0
sVsr
p324
V-
sVov
p325
V-
sV5w
p326
I0
ssg48
(dp327
Va
V31.53
p328
sVb
I323
sVinns
p329
I16
sVno
p330
I3
sVsr
p331
V126.93
p332
sVm
I16
sV4s
p333
I41
sV6s
p334
I14
sVhs
p335
V77
p336
sVr
V410
p337
sV100s
p338
I0
sV50s
p339
I4
ssg62
I2013
stp340
a(Vipl2012
(dp341
g24
(dp342
Vinns
p343
I2
sVc
I1
sVro
p344
I1
sVm
I8
sVs
I0
ssg28
(dp345
Vinns
p346
I0
sV10w
p347
I0
sVnb
p348
I0
sVmaid
p349
I0
sVwb
p350
I0
sVbbmw
p351
I0
sV6s
p352
I0
sVbbmr
p353
I0
sVbbir
p354
I0
sVbbiw
p355
I0
sVa
V-
sVb
I0
sVe
V-
sVd
I0
sVwmaid
p356
I0
sV4w
p357
I0
sVm
I8
sV4s
p358
I0
sVr
I0
sVw
I0
sVsr
p359
V-
sVov
p360
V-
sV5w
p361
I0
ssg48
(dp362
Va
V36.57
p363
sVb
I156
sVinns
p364
I8
sVno
p365
I1
sVsr
p366
V164.10
p367
sVm
I8
sV4s
p368
I28
sV6s
p369
I14
sVhs
p370
V109*
p371
sVr
V256
p372
sV100s
p373
I1
sV50s
p374
I1
ssg62
I2012
stp375
a(Vaus-sa-2012
(dp376
g24
(dp377
Vinns
p378
I2
sVc
I1
sVro
p379
I1
sVm
I3
sVs
I0
ssg28
(dp380
Vinns
p381
I3
sV10w
p382
I0
sVnb
p383
I0
sVmaid
p384
I0
sVwb
p385
I0
sVbbmw
p386
I1
sV6s
p387
I0
sVbbmr
p388
I56
sVbbir
p389
I27
sVbbiw
p390
I1
sVa
V70.00
p391
sVb
I84
sVe
V5.00
p392
sVd
I35
sVwmaid
p393
I0
sV4w
p394
I0
sVm
I3
sV4s
p395
I6
sVr
I70
sVw
I1
sVsr
p396
V84.00
p397
sVov
p398
V14.00
p399
sV5w
p400
I0
ssg48
(dp401
Va
V41.20
p402
sVb
I256
sVinns
p403
I5
sVno
p404
I0
sVsr
p405
V80.46
p406
sVm
I3
sV4s
p407
I29
sV6s
p408
I4
sVhs
p409
V119
p410
sVr
V206
p411
sV100s
p412
I1
sV50s
p413
I0
ssg62
I2012
stp414
a(Vclt20-2012
(dp415
g24
(dp416
Vinns
p417
I0
sVc
I0
sVro
p418
I0
sVm
I2
sVs
I0
ssg28
(dp419
Vinns
p420
I0
sV10w
p421
I0
sVnb
p422
I0
sVmaid
p423
I0
sVwb
p424
I0
sVbbmw
p425
I0
sV6s
p426
I0
sVbbmr
p427
I0
sVbbir
p428
I0
sVbbiw
p429
I0
sVa
V-
sVb
I0
sVe
V-
sVd
I0
sVwmaid
p430
I0
sV4w
p431
I0
sVm
I2
sV4s
p432
I0
sVr
I0
sVw
I0
sVsr
p433
V-
sVov
p434
V-
sV5w
p435
I0
ssg48
(dp436
Va
V21.00
p437
sVb
I18
sVinns
p438
I1
sVno
p439
I0
sVsr
p440
V116.66
p441
sVm
I2
sV4s
p442
I4
sV6s
p443
I0
sVhs
p444
V21
p445
sVr
V21
p446
sV100s
p447
I0
sV50s
p448
I0
ssg62
I2012
stp449
a(Vbigbash-2012
(dp450
g24
(dp451
Vinns
p452
I0
sVc
I0
sVro
p453
I0
sVm
I1
sVs
I0
ssg28
(dp454
Vinns
p455
I0
sV10w
p456
I0
sVnb
p457
I0
sVmaid
p458
I0
sVwb
p459
I0
sVbbmw
p460
I0
sV6s
p461
I0
sVbbmr
p462
I0
sVbbir
p463
I0
sVbbiw
p464
I0
sVa
V-
sVb
I0
sVe
V-
sVd
I0
sVwmaid
p465
I0
sV4w
p466
I0
sVm
I1
sV4s
p467
I0
sVr
I0
sVw
I0
sVsr
p468
V-
sVov
p469
V-
sV5w
p470
I0
ssg48
(dp471
Va
V0.00
p472
sVb
I2
sVinns
p473
I1
sVno
p474
I0
sVsr
p475
V0.00
p476
sVm
I1
sV4s
p477
I0
sV6s
p478
I0
sVhs
p479
V0*
p480
sVr
V0
sV100s
p481
I0
sV50s
p482
I0
ssg62
I2012
stp483
a(Vaus-sl-2012
(dp484
g24
(dp485
Vinns
p486
I6
sVc
I6
sVro
p487
I2
sVm
I8
sVs
I0
ssg28
(dp488
Vinns
p489
I1
sV10w
p490
I0
sVnb
p491
I0
sVmaid
p492
I0
sVwb
p493
I0
sVbbmw
p494
I0
sV6s
p495
I0
sVbbmr
p496
I0
sVbbir
p497
I0
sVbbiw
p498
I0
sVa
V-
sVb
I24
sVe
V2.00
p499
sVd
I19
sVwmaid
p500
I0
sV4w
p501
I0
sVm
I8
sV4s
p502
I1
sVr
I8
sVw
I0
sVsr
p503
V-
sVov
p504
V4.00
p505
sV5w
p506
I0
ssg48
(dp507
Va
V49.22
p508
sVb
I509
sVinns
p509
I10
sVno
p510
I1
sVsr
p511
V87.03
p512
sVm
I8
sV4s
p513
I42
sV6s
p514
I5
sVhs
p515
V90*
p516
sVr
V443
p517
sV100s
p518
I0
sV50s
p519
I6
ssg62
I2012
stp520
a(Vworldt20-2012
(dp521
g24
(dp522
Vinns
p523
I5
sVc
I6
sVro
p524
I0
sVm
I8
sVs
I0
ssg28
(dp525
Vinns
p526
I0
sV10w
p527
I0
sVnb
p528
I0
sVmaid
p529
I0
sVwb
p530
I0
sVbbmw
p531
I0
sV6s
p532
I0
sVbbmr
p533
I0
sVbbir
p534
I0
sVbbiw
p535
I0
sVa
V-
sVb
I0
sVe
V-
sVd
I0
sVwmaid
p536
I0
sV4w
p537
I0
sVm
I8
sV4s
p538
I0
sVr
I0
sVw
I0
sVsr
p539
V-
sVov
p540
V-
sV5w
p541
I0
ssg48
(dp542
Va
V22.14
p543
sVb
I120
sVinns
p544
I8
sVno
p545
I1
sVsr
p546
V129.16
p547
sVm
I8
sV4s
p548
I16
sV6s
p549
I7
sVhs
p550
V63*
p551
sVr
V155
p552
sV100s
p553
I0
sV50s
p554
I1
ssg62
I2012
stp555
a(Vpre-worldt20-2012
(dp556
g24
(dp557
Vinns
p558
I1
sVc
I1
sVro
p559
I0
sVm
I3
sVs
I0
ssg28
(dp560
Vinns
p561
I0
sV10w
p562
I0
sVnb
p563
I0
sVmaid
p564
I0
sVwb
p565
I0
sVbbmw
p566
I0
sV6s
p567
I0
sVbbmr
p568
I0
sVbbir
p569
I0
sVbbiw
p570
I0
sVa
V-
sVb
I0
sVe
V-
sVd
I0
sVwmaid
p571
I0
sV4w
p572
I0
sVm
I3
sV4s
p573
I0
sVr
I0
sVw
I0
sVsr
p574
V-
sVov
p575
V-
sV5w
p576
I0
ssg48
(dp577
Va
V37.33
p578
sVb
I78
sVinns
p579
I3
sVno
p580
I0
sVsr
p581
V143.58
p582
sVm
I3
sV4s
p583
I6
sV6s
p584
I8
sVhs
p585
V59
p586
sVr
V112
p587
sV100s
p588
I0
sV50s
p589
I1
ssg62
I2012
stp590
a(Vipl2011
(dp591
g24
(dp592
Vinns
p593
I3
sVc
I4
sVro
p594
I1
sVm
I13
sVs
I0
ssg28
(dp595
Vinns
p596
I0
sV10w
p597
I0
sVnb
p598
I0
sVmaid
p599
I0
sVwb
p600
I0
sVbbmw
p601
I0
sV6s
p602
I0
sVbbmr
p603
I0
sVbbir
p604
I0
sVbbiw
p605
I0
sVa
V-
sVb
I0
sVe
V-
sVd
I0
sVwmaid
p606
I0
sV4w
p607
I0
sVm
I13
sV4s
p608
I0
sVr
I0
sVw
I0
sVsr
p609
V-
sVov
p610
V-
sV5w
p611
I0
ssg48
(dp612
Va
V24.92
p613
sVb
I276
sVinns
p614
I13
sVno
p615
I0
sVsr
p616
V117.39
p617
sVm
I13
sV4s
p618
I34
sV6s
p619
I11
sVhs
p620
V77
p621
sVr
V324
p622
sV100s
p623
I0
sV50s
p624
I3
ssg62
I2011
stp625
a(Vclt20-2011
p626
(dp627
g24
(dp628
Vinns
p629
I3
sVc
I5
sVro
p630
I1
sVm
I5
sVs
I0
ssg28
(dp631
Vinns
p632
I1
sV10w
p633
I0
sVnb
p634
I0
sVmaid
p635
I0
sVwb
p636
I0
sVbbmw
p637
I0
sV6s
p638
I1
sVbbmr
p639
I0
sVbbir
p640
I0
sVbbiw
p641
I0
sVa
V-
sVb
I6
sVe
V13.00
p642
sVd
I1
sVwmaid
p643
I0
sV4w
p644
I0
sVm
I5
sV4s
p645
I1
sVr
I13
sVw
I0
sVsr
p646
V-
sVov
p647
V1.00
p648
sV5w
p649
I0
ssg48
(dp650
Va
V109.33
p651
sVb
I190
sVinns
p652
I5
sVno
p653
I2
sVsr
p654
V172.63
p655
sVm
I5
sV4s
p656
I27
sV6s
p657
I20
sVhs
p658
V135*
p659
sVr
V328
p660
sV100s
p661
I2
sV50s
p662
I0
ssg62
I2011
stp663
a(Vipl2010
(dp664
g24
(dp665
Vinns
p666
I3
sVc
I8
sVro
p667
I1
sVm
I11
sVs
I0
ssg28
(dp668
Vinns
p669
I0
sV10w
p670
I0
sVnb
p671
I0
sVmaid
p672
I0
sVwb
p673
I0
sVbbmw
p674
I0
sV6s
p675
I0
sVbbmr
p676
I0
sVbbir
p677
I0
sVbbiw
p678
I0
sVa
V-
sVb
I0
sVe
V-
sVd
I0
sVwmaid
p679
I0
sV4w
p680
I0
sVm
I11
sV4s
p681
I0
sVr
I0
sVw
I0
sVsr
p682
V-
sVov
p683
V-
sV5w
p684
I0
ssg48
(dp685
Va
V28.20
p686
sVb
I191
sVinns
p687
I11
sVno
p688
I1
sVsr
p689
V147.64
p690
sVm
I11
sV4s
p691
I27
sV6s
p692
I14
sVhs
p693
V107*
p694
sVr
V282
p695
sV100s
p696
I1
sV50s
p697
I1
ssg62
I2010
stp698
a(Vipl2009
(dp699
g24
(dp700
Vinns
p701
I4
sVc
I3
sVro
p702
I2
sVm
I7
sVs
I0
ssg28
(dp703
Vinns
p704
I0
sV10w
p705
I0
sVnb
p706
I0
sVmaid
p707
I0
sVwb
p708
I0
sVbbmw
p709
I0
sV6s
p710
I0
sVbbmr
p711
I0
sVbbir
p712
I0
sVbbiw
p713
I0
sVa
V-
sVb
I0
sVe
V-
sVd
I0
sVwmaid
p714
I0
sV4w
p715
I0
sVm
I7
sV4s
p716
I0
sVr
I0
sVw
I0
sVsr
p717
V-
sVov
p718
V-
sV5w
p719
I0
ssg48
(dp720
Va
V23.28
p721
sVb
I132
sVinns
p722
I7
sVno
p723
I0
sVsr
p724
V123.48
p725
sVm
I7
sV4s
p726
I16
sV6s
p727
I5
sVhs
p728
V51
p729
sVr
V163
p730
sV100s
p731
I0
sV50s
p732
I1
ssg62
I2009
stp733
a(Vclt20-2009
(dp734
g24
(dp735
Vinns
p736
I3
sVc
I1
sVro
p737
I2
sVm
I6
sVs
I0
ssg28
(dp738
Vinns
p739
I0
sV10w
p740
I0
sVnb
p741
I0
sVmaid
p742
I0
sVwb
p743
I0
sVbbmw
p744
I0
sV6s
p745
I0
sVbbmr
p746
I0
sVbbir
p747
I0
sVbbiw
p748
I0
sVa
V-
sVb
I0
sVe
V-
sVd
I0
sVwmaid
p749
I0
sV4w
p750
I0
sVm
I6
sV4s
p751
I0
sVr
I0
sVw
I0
sVsr
p752
V-
sVov
p753
V-
sV5w
p754
I0
ssg48
(dp755
Va
V34.50
p756
sVb
I147
sVinns
p757
I6
sVno
p758
I0
sVsr
p759
V140.81
p760
sVm
I6
sV4s
p761
I28
sV6s
p762
I7
sVhs
p763
V63
p764
sVr
V207
p765
sV100s
p766
I0
sV50s
p767
I1
ssg62
I2009
stp768
asb.