(iplayer
Player
p1
(dp2
S'is_batsman'
p3
I01
sS'name'
p4
S'Rohit Sharma'
p5
sS'dob'
p6
S'1987/04/30'
p7
sS'price'
p8
S'1050000'
p9
sS'is_allrounder'
p10
I00
sS'is_overseas'
p11
I00
sS'team'
p12
S'MI'
p13
sS'nationality'
p14
S'Indian'
p15
sS'is_bowler'
p16
I00
sS'is_keeper'
p17
I00
sS'id'
p18
S'107'
p19
sS'is_uncapped'
p20
I00
sS'tournamentStats'
p21
(lp22
(Vasiacup-2014
(dp23
S'fieldingStats'
p24
(dp25
Vinns
p26
I2
sVc
I3
sVro
p27
I0
sVm
I4
sVs
I0
ssS'bowlingStats'
p28
(dp29
Vinns
p30
I1
sV10w
p31
I0
sVnb
p32
I0
sVmaid
p33
I0
sVwb
p34
I0
sVbbmw
p35
I0
sV6s
p36
I0
sVbbmr
p37
I0
sVbbir
p38
I0
sVbbiw
p39
I0
sVa
V-
sVb
I30
sVe
V5.80
p40
sVd
I11
sVwmaid
p41
I0
sV4w
p42
I0
sVm
I4
sV4s
p43
I3
sVr
I29
sVw
I0
sVsr
p44
V-
sVov
p45
V5.00
p46
sV5w
p47
I0
ssS'battingStats'
p48
(dp49
Va
V36.00
p50
sVb
I139
sVinns
p51
I4
sVno
p52
I1
sVsr
p53
V77.69
p54
sVm
I4
sV4s
p55
I10
sV6s
p56
I3
sVhs
p57
V56
p58
sVr
V108
p59
sV100s
p60
I0
sV50s
p61
I1
ssS'year'
p62
I2014
stp63
a(Vnz-ind-2014
(dp64
g24
(dp65
Vinns
p66
I4
sVc
I5
sVro
p67
I0
sVm
I7
sVs
I0
ssg28
(dp68
Vinns
p69
I3
sV10w
p70
I0
sVnb
p71
I0
sVmaid
p72
I0
sVwb
p73
I0
sVbbmw
p74
I0
sV6s
p75
I0
sVbbmr
p76
I0
sVbbir
p77
I0
sVbbiw
p78
I0
sVa
V-
sVb
I90
sVe
V3.66
p79
sVd
I54
sVwmaid
p80
I0
sV4w
p81
I0
sVm
I7
sV4s
p82
I5
sVr
I55
sVw
I0
sVsr
p83
V-
sVov
p84
V15.00
p85
sV5w
p86
I0
ssg48
(dp87
Va
V33.37
p88
sVb
I481
sVinns
p89
I9
sVno
p90
I1
sVsr
p91
V55.50
p92
sVm
I7
sV4s
p93
I23
sV6s
p94
I10
sVhs
p95
V79
p96
sVr
V267
p97
sV100s
p98
I0
sV50s
p99
I2
ssg62
I2014
stp100
a(Vworldt20-2014
(dp101
g24
(dp102
Vinns
p103
I1
sVc
I1
sVro
p104
I0
sVm
I2
sVs
I0
ssg28
(dp105
Vinns
p106
I0
sV10w
p107
I0
sVnb
p108
I0
sVmaid
p109
I0
sVwb
p110
I0
sVbbmw
p111
I0
sV6s
p112
I0
sVbbmr
p113
I0
sVbbir
p114
I0
sVbbiw
p115
I0
sVa
V-
sVb
I0
sVe
V-
sVd
I0
sVwmaid
p116
I0
sV4w
p117
I0
sVm
I2
sV4s
p118
I0
sVr
I0
sVw
I0
sVsr
p119
V-
sVov
p120
V-
sV5w
p121
I0
ssg48
(dp122
Va
V86.00
p123
sVb
I76
sVinns
p124
I2
sVno
p125
I1
sVsr
p126
V113.15
p127
sVm
I2
sV4s
p128
I6
sV6s
p129
I4
sVhs
p130
V62*
p131
sVr
V86
p132
sV100s
p133
I0
sV50s
p134
I1
ssg62
I2014
stp135
a(Vtriseries-wi-2013
(dp136
g24
(dp137
Vinns
p138
I0
sVc
I0
sVro
p139
I0
sVm
I5
sVs
I0
ssg28
(dp140
Vinns
p141
I0
sV10w
p142
I0
sVnb
p143
I0
sVmaid
p144
I0
sVwb
p145
I0
sVbbmw
p146
I0
sV6s
p147
I0
sVbbmr
p148
I0
sVbbir
p149
I0
sVbbiw
p150
I0
sVa
V-
sVb
I0
sVe
V-
sVd
I0
sVwmaid
p151
I0
sV4w
p152
I0
sVm
I5
sV4s
p153
I0
sVr
I0
sVw
I0
sVsr
p154
V-
sVov
p155
V-
sV5w
p156
I0
ssg48
(dp157
Va
V54.25
p158
sVb
I352
sVinns
p159
I5
sVno
p160
I1
sVsr
p161
V61.64
p162
sVm
I5
sV4s
p163
I16
sV6s
p164
I3
sVhs
p165
V60
p166
sVr
V217
p167
sV100s
p168
I0
sV50s
p169
I2
ssg62
I2013
stp170
a(Vind-aus-2-2013
(dp171
g24
(dp172
Vinns
p173
I2
sVc
I2
sVro
p174
I0
sVm
I7
sVs
I0
ssg28
(dp175
Vinns
p176
I0
sV10w
p177
I0
sVnb
p178
I0
sVmaid
p179
I0
sVwb
p180
I0
sVbbmw
p181
I0
sV6s
p182
I0
sVbbmr
p183
I0
sVbbir
p184
I0
sVbbiw
p185
I0
sVa
V-
sVb
I0
sVe
V-
sVd
I0
sVwmaid
p186
I0
sV4w
p187
I0
sVm
I7
sV4s
p188
I0
sVr
I0
sVw
I0
sVsr
p189
V-
sVov
p190
V-
sV5w
p191
I0
ssg48
(dp192
Va
V99.80
p193
sVb
I460
sVinns
p194
I7
sVno
p195
I2
sVsr
p196
V108.47
p197
sVm
I7
sV4s
p198
I45
sV6s
p199
I24
sVhs
p200
V209
p201
sVr
V499
p202
sV100s
p203
I2
sV50s
p204
I1
ssg62
I2013
stp205
a(Vipl2013
(dp206
g24
(dp207
Vinns
p208
I5
sVc
I7
sVro
p209
I1
sVm
I19
sVs
I0
ssg28
(dp210
Vinns
p211
I2
sV10w
p212
I0
sVnb
p213
I0
sVmaid
p214
I0
sVwb
p215
I1
sVbbmw
p216
I0
sV6s
p217
I0
sVbbmr
p218
I0
sVbbir
p219
I0
sVbbiw
p220
I0
sVa
V-
sVb
I8
sVe
V4.50
p221
sVd
I3
sVwmaid
p222
I0
sV4w
p223
I0
sVm
I19
sV4s
p224
I0
sVr
I6
sVw
I0
sVsr
p225
V-
sVov
p226
V1.33
p227
sV5w
p228
I0
ssg48
(dp229
Va
V38.42
p230
sVb
I409
sVinns
p231
I19
sVno
p232
I5
sVsr
p233
V131.54
p234
sVm
I19
sV4s
p235
I35
sV6s
p236
I28
sVhs
p237
V79*
p238
sVr
V538
p239
sV100s
p240
I0
sV50s
p241
I4
ssg62
I2013
stp242
a(Vclt20-2013
(dp243
g24
(dp244
Vinns
p245
I0
sVc
I0
sVro
p246
I0
sVm
I5
sVs
I0
ssg28
(dp247
Vinns
p248
I0
sV10w
p249
I0
sVnb
p250
I0
sVmaid
p251
I0
sVwb
p252
I0
sVbbmw
p253
I0
sV6s
p254
I0
sVbbmr
p255
I0
sVbbir
p256
I0
sVbbiw
p257
I0
sVa
V-
sVb
I0
sVe
V-
sVd
I0
sVwmaid
p258
I0
sV4w
p259
I0
sVm
I5
sV4s
p260
I0
sVr
I0
sVw
I0
sVsr
p261
V-
sVov
p262
V-
sV5w
p263
I0
ssg48
(dp264
Va
V43.25
p265
sVb
I114
sVinns
p266
I5
sVno
p267
I1
sVsr
p268
V151.75
p269
sVm
I5
sV4s
p270
I12
sV6s
p271
I10
sVhs
p272
V51*
p273
sVr
V173
p274
sV100s
p275
I0
sV50s
p276
I1
ssg62
I2013
stp277
a(Vchamptrophy-2013-warmups
(dp278
g24
(dp279
Vinns
p280
I0
sVc
I0
sVro
p281
I0
sVm
I2
sVs
I0
ssg28
(dp282
Vinns
p283
I0
sV10w
p284
I0
sVnb
p285
I0
sVmaid
p286
I0
sVwb
p287
I0
sVbbmw
p288
I0
sV6s
p289
I0
sVbbmr
p290
I0
sVbbir
p291
I0
sVbbiw
p292
I0
sVa
V-
sVb
I0
sVe
V-
sVd
I0
sVwmaid
p293
I0
sV4w
p294
I0
sVm
I2
sV4s
p295
I0
sVr
I0
sVw
I0
sVsr
p296
V-
sVov
p297
V-
sV5w
p298
I0
ssg48
(dp299
Va
V7.50
p300
sVb
I25
sVinns
p301
I2
sVno
p302
I0
sVsr
p303
V60.00
p304
sVm
I2
sV4s
p305
I3
sV6s
p306
I0
sVhs
p307
V10
p308
sVr
V15
p309
sV100s
p310
I0
sV50s
p311
I0
ssg62
I2013
stp312
a(Vsa-ind-2013
(dp313
g24
(dp314
Vinns
p315
I4
sVc
I3
sVro
p316
I1
sVm
I5
sVs
I0
ssg28
(dp317
Vinns
p318
I2
sV10w
p319
I0
sVnb
p320
I0
sVmaid
p321
I1
sVwb
p322
I0
sVbbmw
p323
I0
sV6s
p324
I2
sVbbmr
p325
I0
sVbbir
p326
I0
sVbbiw
p327
I0
sVa
V-
sVb
I70
sVe
V3.34
p328
sVd
I48
sVwmaid
p329
I0
sV4w
p330
I0
sVm
I5
sV4s
p331
I2
sVr
I39
sVw
I0
sVsr
p332
V-
sVov
p333
V11.66
p334
sV5w
p335
I0
ssg48
(dp336
Va
V13.66
p337
sVb
I171
sVinns
p338
I6
sVno
p339
I0
sVsr
p340
V47.95
p341
sVm
I5
sV4s
p342
I8
sV6s
p343
I1
sVhs
p344
V25
p345
sVr
V82
p346
sV100s
p347
I0
sV50s
p348
I0
ssg62
I2013
stp349
a(Vzim-ind-2013
(dp350
g24
(dp351
Vinns
p352
I1
sVc
I1
sVro
p353
I0
sVm
I4
sVs
I0
ssg28
(dp354
Vinns
p355
I0
sV10w
p356
I0
sVnb
p357
I0
sVmaid
p358
I0
sVwb
p359
I0
sVbbmw
p360
I0
sV6s
p361
I0
sVbbmr
p362
I0
sVbbir
p363
I0
sVbbiw
p364
I0
sVa
V-
sVb
I0
sVe
V-
sVd
I0
sVwmaid
p365
I0
sV4w
p366
I0
sVm
I4
sV4s
p367
I0
sVr
I0
sVw
I0
sVsr
p368
V-
sVov
p369
V-
sV5w
p370
I0
ssg48
(dp371
Va
V33.00
p372
sVb
I158
sVinns
p373
I4
sVno
p374
I1
sVsr
p375
V62.65
p376
sVm
I4
sV4s
p377
I9
sV6s
p378
I1
sVhs
p379
V64*
p380
sVr
V99
p381
sV100s
p382
I0
sV50s
p383
I1
ssg62
I2013
stp384
a(Vind-wi-2013
(dp385
g24
(dp386
Vinns
p387
I2
sVc
I3
sVro
p388
I0
sVm
I5
sVs
I0
ssg28
(dp389
Vinns
p390
I1
sV10w
p391
I0
sVnb
p392
I0
sVmaid
p393
I0
sVwb
p394
I0
sVbbmw
p395
I0
sV6s
p396
I0
sVbbmr
p397
I0
sVbbir
p398
I0
sVbbiw
p399
I0
sVa
V-
sVb
I12
sVe
V2.00
p400
sVd
I8
sVwmaid
p401
I0
sV4w
p402
I0
sVm
I5
sV4s
p403
I0
sVr
I4
sVw
I0
sVsr
p404
V-
sVov
p405
V2.00
p406
sV5w
p407
I0
ssg48
(dp408
Va
V94.00
p409
sVb
I542
sVinns
p410
I5
sVno
p411
I1
sVsr
p412
V69.37
p413
sVm
I5
sV4s
p414
I45
sV6s
p415
I5
sVhs
p416
V177
p417
sVr
V376
p418
sV100s
p419
I2
sV50s
p420
I1
ssg62
I2013
stp421
a(Vchamptrophy-2013
p422
(dp423
g24
(dp424
Vinns
p425
I2
sVc
I1
sVro
p426
I1
sVm
I5
sVs
I0
ssg28
(dp427
Vinns
p428
I0
sV10w
p429
I0
sVnb
p430
I0
sVmaid
p431
I0
sVwb
p432
I0
sVbbmw
p433
I0
sV6s
p434
I0
sVbbmr
p435
I0
sVbbir
p436
I0
sVbbiw
p437
I0
sVa
V-
sVb
I0
sVe
V-
sVd
I0
sVwmaid
p438
I0
sV4w
p439
I0
sVm
I5
sV4s
p440
I0
sVr
I0
sVw
I0
sVsr
p441
V-
sVov
p442
V-
sV5w
p443
I0
ssg48
(dp444
Va
V35.40
p445
sVb
I233
sVinns
p446
I5
sVno
p447
I0
sVsr
p448
V75.96
p449
sVm
I5
sV4s
p450
I22
sV6s
p451
I1
sVhs
p452
V65
p453
sVr
V177
p454
sV100s
p455
I0
sV50s
p456
I2
ssg62
I2013
stp457
a(Vipl2012
(dp458
g24
(dp459
Vinns
p460
I10
sVc
I13
sVro
p461
I1
sVm
I17
sVs
I0
ssg28
(dp462
Vinns
p463
I1
sV10w
p464
I0
sVnb
p465
I0
sVmaid
p466
I0
sVwb
p467
I0
sVbbmw
p468
I0
sV6s
p469
I2
sVbbmr
p470
I0
sVbbir
p471
I0
sVbbiw
p472
I0
sVa
V-
sVb
I6
sVe
V16.00
p473
sVd
I1
sVwmaid
p474
I0
sV4w
p475
I0
sVm
I17
sV4s
p476
I0
sVr
I16
sVw
I0
sVsr
p477
V-
sVov
p478
V1.00
p479
sV5w
p480
I0
ssg48
(dp481
Va
V30.92
p482
sVb
I342
sVinns
p483
I16
sVno
p484
I2
sVsr
p485
V126.60
p486
sVm
I17
sV4s
p487
I39
sV6s
p488
I18
sVhs
p489
V109*
p490
sVr
V433
p491
sV100s
p492
I1
sV50s
p493
I3
ssg62
I2012
stp494
a(Vpre-worldt20-2012
(dp495
g24
(dp496
Vinns
p497
I0
sVc
I0
sVro
p498
I0
sVm
I2
sVs
I0
ssg28
(dp499
Vinns
p500
I0
sV10w
p501
I0
sVnb
p502
I0
sVmaid
p503
I0
sVwb
p504
I0
sVbbmw
p505
I0
sV6s
p506
I0
sVbbmr
p507
I0
sVbbir
p508
I0
sVbbiw
p509
I0
sVa
V-
sVb
I0
sVe
V-
sVd
I0
sVwmaid
p510
I0
sV4w
p511
I0
sVm
I2
sV4s
p512
I0
sVr
I0
sVw
I0
sVsr
p513
V-
sVov
p514
V-
sV5w
p515
I0
ssg48
(dp516
Va
V-
sVb
I2
sVinns
p517
I1
sVno
p518
I1
sVsr
p519
V200.00
p520
sVm
I2
sV4s
p521
I0
sV6s
p522
I0
sVhs
p523
V4*
p524
sVr
V4
sV100s
p525
I0
sV50s
p526
I0
ssg62
I2012
stp527
a(Vind-eng-2012-13
(dp528
g24
(dp529
Vinns
p530
I0
sVc
I0
sVro
p531
I0
sVm
I3
sVs
I0
ssg28
(dp532
Vinns
p533
I0
sV10w
p534
I0
sVnb
p535
I0
sVmaid
p536
I0
sVwb
p537
I0
sVbbmw
p538
I0
sV6s
p539
I0
sVbbmr
p540
I0
sVbbir
p541
I0
sVbbiw
p542
I0
sVa
V-
sVb
I0
sVe
V-
sVd
I0
sVwmaid
p543
I0
sV4w
p544
I0
sVm
I3
sV4s
p545
I0
sVr
I0
sVw
I0
sVsr
p546
V-
sVov
p547
V-
sV5w
p548
I0
ssg48
(dp549
Va
V37.00
p550
sVb
I121
sVinns
p551
I3
sVno
p552
I0
sVsr
p553
V91.73
p554
sVm
I3
sV4s
p555
I13
sV6s
p556
I2
sVhs
p557
V83
p558
sVr
V111
p559
sV100s
p560
I0
sV50s
p561
I1
ssg62
I2012
stp562
a(Vind-pak-2012-13
(dp563
g24
(dp564
Vinns
p565
I2
sVc
I2
sVro
p566
I0
sVm
I3
sVs
I0
ssg28
(dp567
Vinns
p568
I0
sV10w
p569
I0
sVnb
p570
I0
sVmaid
p571
I0
sVwb
p572
I0
sVbbmw
p573
I0
sV6s
p574
I0
sVbbmr
p575
I0
sVbbir
p576
I0
sVbbiw
p577
I0
sVa
V-
sVb
I0
sVe
V-
sVd
I0
sVwmaid
p578
I0
sV4w
p579
I0
sVm
I3
sV4s
p580
I0
sVr
I0
sVw
I0
sVsr
p581
V-
sVov
p582
V-
sV5w
p583
I0
ssg48
(dp584
Va
V5.00
p585
sVb
I18
sVinns
p586
I3
sVno
p587
I1
sVsr
p588
V55.55
p589
sVm
I3
sV4s
p590
I1
sV6s
p591
I0
sVhs
p592
V4*
p593
sVr
V10
p594
sV100s
p595
I0
sV50s
p596
I0
ssg62
I2012
stp597
a(Vworldt20-2012
(dp598
g24
(dp599
Vinns
p600
I4
sVc
I4
sVro
p601
I0
sVm
I7
sVs
I0
ssg28
(dp602
Vinns
p603
I3
sV10w
p604
I0
sVnb
p605
I0
sVmaid
p606
I0
sVwb
p607
I0
sVbbmw
p608
I0
sV6s
p609
I1
sVbbmr
p610
I0
sVbbir
p611
I0
sVbbiw
p612
I0
sVa
V-
sVb
I18
sVe
V11.66
p613
sVd
I1
sVwmaid
p614
I0
sV4w
p615
I0
sVm
I7
sV4s
p616
I2
sVr
I35
sVw
I0
sVsr
p617
V-
sVov
p618
V3.00
p619
sV5w
p620
I0
ssg48
(dp621
Va
V43.75
p622
sVb
I129
sVinns
p623
I6
sVno
p624
I2
sVsr
p625
V135.65
p626
sVm
I7
sV4s
p627
I17
sV6s
p628
I4
sVhs
p629
V56
p630
sVr
V175
p631
sV100s
p632
I0
sV50s
p633
I2
ssg62
I2012
stp634
a(Vclt20-2012
(dp635
g24
(dp636
Vinns
p637
I2
sVc
I2
sVro
p638
I0
sVm
I4
sVs
I0
ssg28
(dp639
Vinns
p640
I0
sV10w
p641
I0
sVnb
p642
I0
sVmaid
p643
I0
sVwb
p644
I0
sVbbmw
p645
I0
sV6s
p646
I0
sVbbmr
p647
I0
sVbbir
p648
I0
sVbbiw
p649
I0
sVa
V-
sVb
I0
sVe
V-
sVd
I0
sVwmaid
p650
I0
sV4w
p651
I0
sVm
I4
sV4s
p652
I0
sVr
I0
sVw
I0
sVsr
p653
V-
sVov
p654
V-
sV5w
p655
I0
ssg48
(dp656
Va
V25.00
p657
sVb
I95
sVinns
p658
I4
sVno
p659
I0
sVsr
p660
V105.26
p661
sVm
I4
sV4s
p662
I6
sV6s
p663
I6
sVhs
p664
V32
p665
sVr
V100
p666
sV100s
p667
I0
sV50s
p668
I0
ssg62
I2012
stp669
a(Vipl2011
(dp670
g24
(dp671
Vinns
p672
I7
sVc
I7
sVro
p673
I1
sVm
I16
sVs
I0
ssg28
(dp674
Vinns
p675
I3
sV10w
p676
I0
sVnb
p677
I0
sVmaid
p678
I0
sVwb
p679
I1
sVbbmw
p680
I0
sV6s
p681
I3
sVbbmr
p682
I0
sVbbir
p683
I0
sVbbiw
p684
I0
sVa
V-
sVb
I24
sVe
V13.25
p685
sVd
I4
sVwmaid
p686
I0
sV4w
p687
I0
sVm
I16
sV4s
p688
I4
sVr
I53
sVw
I0
sVsr
p689
V-
sVov
p690
V4.00
p691
sV5w
p692
I0
ssg48
(dp693
Va
V33.81
p694
sVb
I297
sVinns
p695
I14
sVno
p696
I3
sVsr
p697
V125.25
p698
sVm
I16
sV4s
p699
I32
sV6s
p700
I13
sVhs
p701
V87
p702
sVr
V372
p703
sV100s
p704
I0
sV50s
p705
I3
ssg62
I2011
stp706
a(Vipl2010
(dp707
g24
(dp708
Vinns
p709
I8
sVc
I9
sVro
p710
I1
sVm
I16
sVs
I0
ssg28
(dp711
Vinns
p712
I9
sV10w
p713
I0
sVnb
p714
I0
sVmaid
p715
I0
sVwb
p716
I5
sVbbmw
p717
I1
sV6s
p718
I4
sVbbmr
p719
I19
sVbbir
p720
I19
sVbbiw
p721
I1
sVa
V76.50
p722
sVb
I114
sVe
V8.05
p723
sVd
I32
sVwmaid
p724
I0
sV4w
p725
I0
sVm
I16
sV4s
p726
I12
sVr
I153
sVw
I2
sVsr
p727
V57.00
p728
sVov
p729
V19.00
p730
sV5w
p731
I0
ssg48
(dp732
Va
V28.85
p733
sVb
I302
sVinns
p734
I16
sVno
p735
I2
sVsr
p736
V133.77
p737
sVm
I16
sV4s
p738
I36
sV6s
p739
I14
sVhs
p740
V73
p741
sVr
V404
p742
sV100s
p743
I0
sV50s
p744
I3
ssg62
I2010
stp745
a(Vipl2009
(dp746
g24
(dp747
Vinns
p748
I4
sVc
I5
sVro
p749
I1
sVm
I16
sVs
I0
ssg28
(dp750
Vinns
p751
I12
sV10w
p752
I0
sVnb
p753
I0
sVmaid
p754
I0
sVwb
p755
I2
sVbbmw
p756
I4
sV6s
p757
I4
sVbbmr
p758
I6
sVbbir
p759
I6
sVbbiw
p760
I4
sVa
V14.63
p761
sVb
I138
sVe
V7.00
p762
sVd
I38
sVwmaid
p763
I0
sV4w
p764
I1
sVm
I16
sV4s
p765
I8
sVr
I161
sVw
I11
sVsr
p766
V12.54
p767
sVov
p768
V23.00
p769
sV5w
p770
I0
ssg48
(dp771
Va
V27.84
p772
sVb
I315
sVinns
p773
I16
sVno
p774
I3
sVsr
p775
V114.92
p776
sVm
I16
sV4s
p777
I22
sV6s
p778
I18
sVhs
p779
V52
p780
sVr
V362
p781
sV100s
p782
I0
sV50s
p783
I1
ssg62
I2009
stp784
a(Vclt20-2009
(dp785
g24
(dp786
Vinns
p787
I0
sVc
I0
sVro
p788
I0
sVm
I2
sVs
I0
ssg28
(dp789
Vinns
p790
I1
sV10w
p791
I0
sVnb
p792
I0
sVmaid
p793
I0
sVwb
p794
I0
sVbbmw
p795
I0
sV6s
p796
I1
sVbbmr
p797
I0
sVbbir
p798
I0
sVbbiw
p799
I0
sVa
V-
sVb
I12
sVe
V6.50
p800
sVd
I3
sVwmaid
p801
I0
sV4w
p802
I0
sVm
I2
sV4s
p803
I0
sVr
I13
sVw
I0
sVsr
p804
V-
sVov
p805
V2.00
p806
sV5w
p807
I0
ssg48
(dp808
Va
V24.50
p809
sVb
I45
sVinns
p810
I2
sVno
p811
I0
sVsr
p812
V108.88
p813
sVm
I2
sV4s
p814
I6
sV6s
p815
I0
sVhs
p816
V25
p817
sVr
V49
p818
sV100s
p819
I0
sV50s
p820
I0
ssg62
I2009
stp821
a(Vipl2008
(dp822
g24
(dp823
Vinns
p824
I7
sVc
I8
sVro
p825
I0
sVm
I13
sVs
I0
ssg28
(dp826
Vinns
p827
I1
sV10w
p828
I0
sVnb
p829
I0
sVmaid
p830
I0
sVwb
p831
I1
sVbbmw
p832
I1
sV6s
p833
I0
sVbbmr
p834
I25
sVbbir
p835
I0
sVbbiw
p836
I0
sVa
V25.00
p837
sVb
I24
sVe
V6.25
p838
sVd
I6
sVwmaid
p839
I0
sV4w
p840
I0
sVm
I13
sV4s
p841
I2
sVr
I25
sVw
I1
sVsr
p842
V24.00
p843
sVov
p844
V4.00
p845
sV5w
p846
I0
ssg48
(dp847
Va
V36.72
p848
sVb
I273
sVinns
p849
I12
sVno
p850
I1
sVsr
p851
V147.98
p852
sVm
I13
sV4s
p853
I38
sV6s
p854
I19
sVhs
p855
V76*
p856
sVr
V404
p857
sV100s
p858
I0
sV50s
p859
I4
ssg62
I2008
stp860
asb.