(iplayer
Player
p1
(dp2
S'is_batsman'
p3
I01
sS'name'
p4
S'Suresh Raina'
p5
sS'dob'
p6
S'1986/11/27'
p7
sS'price'
p8
S'1050000'
p9
sS'is_allrounder'
p10
I01
sS'is_overseas'
p11
I00
sS'team'
p12
S'CSK'
p13
sS'nationality'
p14
S'Indian'
p15
sS'is_bowler'
p16
I00
sS'is_keeper'
p17
I00
sS'id'
p18
S'14'
p19
sS'is_uncapped'
p20
I00
sS'tournamentStats'
p21
(lp22
(Vnz-ind-2014
(dp23
S'fieldingStats'
p24
(dp25
Vinns
p26
I0
sVc
I0
sVro
p27
I0
sVm
I3
sVs
I0
ssS'bowlingStats'
p28
(dp29
Vinns
p30
I2
sV10w
p31
I0
sVnb
p32
I0
sVmaid
p33
I0
sVwb
p34
I0
sVbbmw
p35
I1
sV6s
p36
I2
sVbbmr
p37
I18
sVbbir
p38
I18
sVbbiw
p39
I1
sVa
V44.00
p40
sVb
I48
sVe
V5.50
p41
sVd
I20
sVwmaid
p42
I0
sV4w
p43
I0
sVm
I3
sV4s
p44
I2
sVr
I44
sVw
I1
sVsr
p45
V48.00
p46
sVov
p47
V8.00
p48
sV5w
p49
I0
ssS'battingStats'
p50
(dp51
Va
V28.00
p52
sVb
I83
sVinns
p53
I3
sVno
p54
I0
sVsr
p55
V101.20
p56
sVm
I3
sV4s
p57
I11
sV6s
p58
I0
sVhs
p59
V35
p60
sVr
V84
p61
sV100s
p62
I0
sV50s
p63
I0
ssS'year'
p64
I2014
stp65
a(Vworldt20-2014
(dp66
g24
(dp67
Vinns
p68
I1
sVc
I3
sVro
p69
I0
sVm
I2
sVs
I0
ssg28
(dp70
Vinns
p71
I1
sV10w
p72
I0
sVnb
p73
I0
sVmaid
p74
I0
sVwb
p75
I2
sVbbmw
p76
I0
sV6s
p77
I0
sVbbmr
p78
I0
sVbbir
p79
I8
sVbbiw
p80
I0
sVa
V-
sVb
I12
sVe
V4.00
p81
sVd
I6
sVwmaid
p82
I0
sV4w
p83
I0
sVm
I2
sV4s
p84
I0
sVr
I8
sVw
I0
sVsr
p85
V-
sVov
p86
V2.00
p87
sV5w
p88
I0
ssg50
(dp89
Va
V-
sVb
I29
sVinns
p90
I2
sVno
p91
I2
sVsr
p92
V124.13
p93
sVm
I2
sV4s
p94
I4
sV6s
p95
I1
sVhs
p96
V35*
p97
sVr
V36
p98
sV100s
p99
I0
sV50s
p100
I0
ssg64
I2014
stp101
a(Vtriseries-wi-2013
(dp102
g24
(dp103
Vinns
p104
I3
sVc
I3
sVro
p105
I0
sVm
I5
sVs
I0
ssg28
(dp106
Vinns
p107
I3
sV10w
p108
I0
sVnb
p109
I0
sVmaid
p110
I1
sVwb
p111
I1
sVbbmw
p112
I1
sV6s
p113
I0
sVbbmr
p114
I4
sVbbir
p115
I4
sVbbiw
p116
I1
sVa
V39.00
p117
sVb
I60
sVe
V3.90
p118
sVd
I31
sVwmaid
p119
I1
sV4w
p120
I0
sVm
I5
sV4s
p121
I2
sVr
I39
sVw
I1
sVsr
p122
V60.00
p123
sVov
p124
V10.00
p125
sV5w
p126
I0
ssg50
(dp127
Va
V30.75
p128
sVb
I136
sVinns
p129
I5
sVno
p130
I1
sVsr
p131
V90.44
p132
sVm
I5
sV4s
p133
I9
sV6s
p134
I2
sVhs
p135
V44
p136
sVr
V123
p137
sV100s
p138
I0
sV50s
p139
I0
ssg64
I2013
stp140
a(Vind-aus-2-2013
(dp141
g24
(dp142
Vinns
p143
I2
sVc
I2
sVro
p144
I2
sVm
I7
sVs
I0
ssg28
(dp145
Vinns
p146
I2
sV10w
p147
I0
sVnb
p148
I0
sVmaid
p149
I0
sVwb
p150
I0
sVbbmw
p151
I0
sV6s
p152
I1
sVbbmr
p153
I0
sVbbir
p154
I0
sVbbiw
p155
I0
sVa
V-
sVb
I60
sVe
V5.50
p156
sVd
I25
sVwmaid
p157
I0
sV4w
p158
I0
sVm
I7
sV4s
p159
I4
sVr
I55
sVw
I0
sVsr
p160
V-
sVov
p161
V10.00
p162
sV5w
p163
I0
ssg50
(dp164
Va
V23.80
p165
sVb
I122
sVinns
p166
I5
sVno
p167
I0
sVsr
p168
V97.54
p169
sVm
I7
sV4s
p170
I10
sV6s
p171
I2
sVhs
p172
V39
p173
sVr
V119
p174
sV100s
p175
I0
sV50s
p176
I0
ssg64
I2013
stp177
a(Vipl2013
(dp178
g24
(dp179
Vinns
p180
I8
sVc
I10
sVro
p181
I3
sVm
I18
sVs
I0
ssg28
(dp182
Vinns
p183
I2
sV10w
p184
I0
sVnb
p185
I0
sVmaid
p186
I0
sVwb
p187
I0
sVbbmw
p188
I1
sV6s
p189
I2
sVbbmr
p190
I4
sVbbir
p191
I4
sVbbiw
p192
I1
sVa
V23.00
p193
sVb
I12
sVe
V11.50
p194
sVd
I2
sVwmaid
p195
I0
sV4w
p196
I0
sVm
I18
sV4s
p197
I1
sVr
I23
sVw
I1
sVsr
p198
V12.00
p199
sVov
p200
V2.00
p201
sV5w
p202
I0
ssg50
(dp203
Va
V42.15
p204
sVb
I365
sVinns
p205
I17
sVno
p206
I4
sVsr
p207
V150.13
p208
sVm
I18
sV4s
p209
I50
sV6s
p210
I18
sVhs
p211
V100*
p212
sVr
V548
p213
sV100s
p214
I1
sV50s
p215
I4
ssg64
I2013
stp216
a(Vclt20-2013
(dp217
g24
(dp218
Vinns
p219
I2
sVc
I1
sVro
p220
I1
sVm
I5
sVs
I0
ssg28
(dp221
Vinns
p222
I3
sV10w
p223
I0
sVnb
p224
I0
sVmaid
p225
I0
sVwb
p226
I1
sVbbmw
p227
I1
sV6s
p228
I0
sVbbmr
p229
I3
sVbbir
p230
I3
sVbbiw
p231
I1
sVa
V9.33
p232
sVb
I48
sVe
V3.50
p233
sVd
I24
sVwmaid
p234
I0
sV4w
p235
I0
sVm
I5
sV4s
p236
I1
sVr
I28
sVw
I3
sVsr
p237
V16.00
p238
sVov
p239
V8.00
p240
sV5w
p241
I0
ssg50
(dp242
Va
V44.20
p243
sVb
I152
sVinns
p244
I5
sVno
p245
I0
sVsr
p246
V145.39
p247
sVm
I5
sV4s
p248
I22
sV6s
p249
I6
sVhs
p250
V84
p251
sVr
V221
p252
sV100s
p253
I0
sV50s
p254
I1
ssg64
I2013
stp255
a(Vchamptrophy-2013-warmups
(dp256
g24
(dp257
Vinns
p258
I0
sVc
I0
sVro
p259
I0
sVm
I2
sVs
I0
ssg28
(dp260
Vinns
p261
I0
sV10w
p262
I0
sVnb
p263
I0
sVmaid
p264
I0
sVwb
p265
I0
sVbbmw
p266
I0
sV6s
p267
I0
sVbbmr
p268
I0
sVbbir
p269
I0
sVbbiw
p270
I0
sVa
V-
sVb
I0
sVe
V-
sVd
I0
sVwmaid
p271
I0
sV4w
p272
I0
sVm
I2
sV4s
p273
I0
sVr
I0
sVw
I0
sVsr
p274
V-
sVov
p275
V-
sV5w
p276
I0
ssg50
(dp277
Va
V17.00
p278
sVb
I35
sVinns
p279
I2
sVno
p280
I0
sVsr
p281
V97.14
p282
sVm
I2
sV4s
p283
I4
sV6s
p284
I0
sVhs
p285
V34
p286
sVr
V34
p287
sV100s
p288
I0
sV50s
p289
I0
ssg64
I2013
stp290
a(Vsa-ind-2013
(dp291
g24
(dp292
Vinns
p293
I1
sVc
I2
sVro
p294
I0
sVm
I3
sVs
I0
ssg28
(dp295
Vinns
p296
I3
sV10w
p297
I0
sVnb
p298
I0
sVmaid
p299
I0
sVwb
p300
I0
sVbbmw
p301
I0
sV6s
p302
I0
sVbbmr
p303
I0
sVbbir
p304
I0
sVbbiw
p305
I0
sVa
V-
sVb
I60
sVe
V5.50
p306
sVd
I23
sVwmaid
p307
I0
sV4w
p308
I0
sVm
I3
sV4s
p309
I4
sVr
I55
sVw
I0
sVsr
p310
V-
sVov
p311
V10.00
p312
sV5w
p313
I0
ssg50
(dp314
Va
V25.00
p315
sVb
I70
sVinns
p316
I2
sVno
p317
I0
sVsr
p318
V71.42
p319
sVm
I3
sV4s
p320
I5
sV6s
p321
I0
sVhs
p322
V36
p323
sVr
V50
p324
sV100s
p325
I0
sV50s
p326
I0
ssg64
I2013
stp327
a(Vzim-ind-2013
(dp328
g24
(dp329
Vinns
p330
I2
sVc
I3
sVro
p331
I0
sVm
I5
sVs
I0
ssg28
(dp332
Vinns
p333
I4
sV10w
p334
I0
sVnb
p335
I0
sVmaid
p336
I0
sVwb
p337
I2
sVbbmw
p338
I1
sV6s
p339
I0
sVbbmr
p340
I2
sVbbir
p341
I2
sVbbiw
p342
I1
sVa
V20.00
p343
sVb
I36
sVe
V3.33
p344
sVd
I22
sVwmaid
p345
I0
sV4w
p346
I0
sVm
I5
sV4s
p347
I1
sVr
I20
sVw
I1
sVsr
p348
V36.00
p349
sVov
p350
V6.00
p351
sV5w
p352
I0
ssg50
(dp353
Va
V48.50
p354
sVb
I102
sVinns
p355
I4
sVno
p356
I2
sVsr
p357
V95.09
p358
sVm
I5
sV4s
p359
I9
sV6s
p360
I0
sVhs
p361
V65*
p362
sVr
V97
p363
sV100s
p364
I0
sV50s
p365
I1
ssg64
I2013
stp366
a(Vind-wi-2013
(dp367
g24
(dp368
Vinns
p369
I0
sVc
I0
sVro
p370
I0
sVm
I3
sVs
I0
ssg28
(dp371
Vinns
p372
I3
sV10w
p373
I0
sVnb
p374
I0
sVmaid
p375
I1
sVwb
p376
I0
sVbbmw
p377
I3
sV6s
p378
I0
sVbbmr
p379
I34
sVbbir
p380
I34
sVbbiw
p381
I3
sVa
V35.00
p382
sVb
I132
sVe
V4.77
p383
sVd
I64
sVwmaid
p384
I1
sV4w
p385
I0
sVm
I3
sV4s
p386
I11
sVr
I105
sVw
I3
sVsr
p387
V44.00
p388
sVov
p389
V22.00
p390
sV5w
p391
I0
ssg50
(dp392
Va
V19.00
p393
sVb
I72
sVinns
p394
I3
sVno
p395
I0
sVsr
p396
V79.16
p397
sVm
I3
sV4s
p398
I5
sV6s
p399
I0
sVhs
p400
V34
p401
sVr
V57
p402
sV100s
p403
I0
sV50s
p404
I0
ssg64
I2013
stp405
a(Vchamptrophy-2013
p406
(dp407
g24
(dp408
Vinns
p409
I3
sVc
I6
sVro
p410
I0
sVm
I5
sVs
I0
ssg28
(dp411
Vinns
p412
I2
sV10w
p413
I0
sVnb
p414
I0
sVmaid
p415
I0
sVwb
p416
I1
sVbbmw
p417
I0
sV6s
p418
I0
sVbbmr
p419
I0
sVbbir
p420
I0
sVbbiw
p421
I0
sVa
V-
sVb
I54
sVe
V6.11
p422
sVd
I21
sVwmaid
p423
I0
sV4w
p424
I0
sVm
I5
sV4s
p425
I5
sVr
I55
sVw
I0
sVsr
p426
V-
sVov
p427
V9.00
p428
sV5w
p429
I0
ssg50
(dp430
Va
V8.50
p431
sVb
I16
sVinns
p432
I3
sVno
p433
I1
sVsr
p434
V106.25
p435
sVm
I5
sV4s
p436
I1
sV6s
p437
I1
sVhs
p438
V9
sVr
V17
p439
sV100s
p440
I0
sV50s
p441
I0
ssg64
I2013
stp442
a(Vipl2012
(dp443
g24
(dp444
Vinns
p445
I8
sVc
I11
sVro
p446
I0
sVm
I19
sVs
I0
ssg28
(dp447
Vinns
p448
I7
sV10w
p449
I0
sVnb
p450
I0
sVmaid
p451
I0
sVwb
p452
I1
sVbbmw
p453
I1
sV6s
p454
I5
sVbbmr
p455
I5
sVbbir
p456
I5
sVbbiw
p457
I1
sVa
V52.50
p458
sVb
I84
sVe
V7.50
p459
sVd
I21
sVwmaid
p460
I0
sV4w
p461
I0
sVm
I19
sV4s
p462
I5
sVr
I105
sVw
I2
sVsr
p463
V42.00
p464
sVov
p465
V14.00
p466
sV5w
p467
I0
ssg50
(dp468
Va
V25.94
p469
sVb
I325
sVinns
p470
I18
sVno
p471
I1
sVsr
p472
V135.69
p473
sVm
I19
sV4s
p474
I36
sV6s
p475
I19
sVhs
p476
V73
p477
sVr
V441
p478
sV100s
p479
I0
sV50s
p480
I1
ssg64
I2012
stp481
a(Vpre-worldt20-2012
(dp482
g24
(dp483
Vinns
p484
I0
sVc
I0
sVro
p485
I0
sVm
I2
sVs
I0
ssg28
(dp486
Vinns
p487
I0
sV10w
p488
I0
sVnb
p489
I0
sVmaid
p490
I0
sVwb
p491
I0
sVbbmw
p492
I0
sV6s
p493
I0
sVbbmr
p494
I0
sVbbir
p495
I0
sVbbiw
p496
I0
sVa
V-
sVb
I0
sVe
V-
sVd
I0
sVwmaid
p497
I0
sV4w
p498
I0
sVm
I2
sV4s
p499
I0
sVr
I0
sVw
I0
sVsr
p500
V-
sVov
p501
V-
sV5w
p502
I0
ssg50
(dp503
Va
V27.00
p504
sVb
I22
sVinns
p505
I1
sVno
p506
I0
sVsr
p507
V122.72
p508
sVm
I2
sV4s
p509
I2
sV6s
p510
I1
sVhs
p511
V27
p512
sVr
V27
p513
sV100s
p514
I0
sV50s
p515
I0
ssg64
I2012
stp516
a(Vind-eng-2012-13
(dp517
g24
(dp518
Vinns
p519
I1
sVc
I1
sVro
p520
I0
sVm
I7
sVs
I0
ssg28
(dp521
Vinns
p522
I3
sV10w
p523
I0
sVnb
p524
I0
sVmaid
p525
I0
sVwb
p526
I2
sVbbmw
p527
I1
sV6s
p528
I0
sVbbmr
p529
I1
sVbbir
p530
I1
sVbbiw
p531
I1
sVa
V14.50
p532
sVb
I48
sVe
V3.62
p533
sVd
I28
sVwmaid
p534
I0
sV4w
p535
I0
sVm
I7
sV4s
p536
I3
sVr
I29
sVw
I2
sVsr
p537
V24.00
p538
sVov
p539
V8.00
p540
sV5w
p541
I0
ssg50
(dp542
Va
V84.50
p543
sVb
I347
sVinns
p544
I6
sVno
p545
I2
sVsr
p546
V97.40
p547
sVm
I7
sV4s
p548
I30
sV6s
p549
I7
sVhs
p550
V89*
p551
sVr
V338
p552
sV100s
p553
I0
sV50s
p554
I4
ssg64
I2012
stp555
a(Vind-pak-2012-13
(dp556
g24
(dp557
Vinns
p558
I2
sVc
I1
sVro
p559
I1
sVm
I5
sVs
I0
ssg28
(dp560
Vinns
p561
I3
sV10w
p562
I0
sVnb
p563
I0
sVmaid
p564
I0
sVwb
p565
I0
sVbbmw
p566
I1
sV6s
p567
I2
sVbbmr
p568
I13
sVbbir
p569
I13
sVbbiw
p570
I1
sVa
V48.00
p571
sVb
I37
sVe
V7.78
p572
sVd
I11
sVwmaid
p573
I0
sV4w
p574
I0
sVm
I5
sV4s
p575
I4
sVr
I48
sVw
I1
sVsr
p576
V37.00
p577
sVov
p578
V6.16
p579
sV5w
p580
I0
ssg50
(dp581
Va
V25.75
p582
sVb
I200
sVinns
p583
I5
sVno
p584
I1
sVsr
p585
V51.50
p586
sVm
I5
sV4s
p587
I6
sV6s
p588
I1
sVhs
p589
V43
p590
sVr
V103
p591
sV100s
p592
I0
sV50s
p593
I0
ssg64
I2012
stp594
a(Vworldt20-2012
(dp595
g24
(dp596
Vinns
p597
I5
sVc
I8
sVro
p598
I0
sVm
I7
sVs
I0
ssg28
(dp599
Vinns
p600
I0
sV10w
p601
I0
sVnb
p602
I0
sVmaid
p603
I0
sVwb
p604
I0
sVbbmw
p605
I0
sV6s
p606
I0
sVbbmr
p607
I0
sVbbir
p608
I0
sVbbiw
p609
I0
sVa
V-
sVb
I0
sVe
V-
sVd
I0
sVwmaid
p610
I0
sV4w
p611
I0
sVm
I7
sV4s
p612
I0
sVr
I0
sVw
I0
sVsr
p613
V-
sVov
p614
V-
sV5w
p615
I0
ssg50
(dp616
Va
V30.50
p617
sVb
I102
sVinns
p618
I5
sVno
p619
I1
sVsr
p620
V119.60
p621
sVm
I7
sV4s
p622
I17
sV6s
p623
I0
sVhs
p624
V45
p625
sVr
V122
p626
sV100s
p627
I0
sV50s
p628
I0
ssg64
I2012
stp629
a(Vclt20-2012
(dp630
g24
(dp631
Vinns
p632
I2
sVc
I3
sVro
p633
I0
sVm
I4
sVs
I0
ssg28
(dp634
Vinns
p635
I1
sV10w
p636
I0
sVnb
p637
I0
sVmaid
p638
I0
sVwb
p639
I0
sVbbmw
p640
I0
sV6s
p641
I0
sVbbmr
p642
I0
sVbbir
p643
I12
sVbbiw
p644
I0
sVa
V-
sVb
I6
sVe
V12.00
p645
sVd
I1
sVwmaid
p646
I0
sV4w
p647
I0
sVm
I4
sV4s
p648
I2
sVr
I12
sVw
I0
sVsr
p649
V-
sVov
p650
V1.00
p651
sV5w
p652
I0
ssg50
(dp653
Va
V29.00
p654
sVb
I86
sVinns
p655
I4
sVno
p656
I0
sVsr
p657
V134.88
p658
sVm
I4
sV4s
p659
I12
sV6s
p660
I4
sVhs
p661
V57
p662
sVr
V116
p663
sV100s
p664
I0
sV50s
p665
I1
ssg64
I2012
stp666
a(Vclt20-2011
(dp667
g24
(dp668
Vinns
p669
I2
sVc
I2
sVro
p670
I0
sVm
I4
sVs
I0
ssg28
(dp671
Vinns
p672
I3
sV10w
p673
I0
sVnb
p674
I0
sVmaid
p675
I0
sVwb
p676
I0
sVbbmw
p677
I2
sV6s
p678
I2
sVbbmr
p679
I6
sVbbir
p680
I6
sVbbiw
p681
I2
sVa
V28.50
p682
sVb
I42
sVe
V8.14
p683
sVd
I8
sVwmaid
p684
I0
sV4w
p685
I0
sVm
I4
sV4s
p686
I4
sVr
I57
sVw
I2
sVsr
p687
V21.00
p688
sVov
p689
V7.00
p690
sV5w
p691
I0
ssg50
(dp692
Va
V17.00
p693
sVb
I62
sVinns
p694
I4
sVno
p695
I0
sVsr
p696
V109.67
p697
sVm
I4
sV4s
p698
I8
sV6s
p699
I1
sVhs
p700
V28
p701
sVr
V68
p702
sV100s
p703
I0
sV50s
p704
I0
ssg64
I2011
stp705
a(Vipl2011
(dp706
g24
(dp707
Vinns
p708
I3
sVc
I4
sVro
p709
I0
sVm
I16
sVs
I0
ssg28
(dp710
Vinns
p711
I12
sV10w
p712
I0
sVnb
p713
I0
sVmaid
p714
I0
sVwb
p715
I8
sVbbmw
p716
I2
sV6s
p717
I8
sVbbmr
p718
I0
sVbbir
p719
I0
sVbbiw
p720
I2
sVa
V50.25
p721
sVb
I165
sVe
V7.30
p722
sVd
I62
sVwmaid
p723
I0
sV4w
p724
I0
sVm
I16
sV4s
p725
I15
sVr
I201
sVw
I4
sVsr
p726
V41.25
p727
sVov
p728
V27.50
p729
sV5w
p730
I0
ssg50
(dp731
Va
V31.28
p732
sVb
I325
sVinns
p733
I16
sVno
p734
I2
sVsr
p735
V134.76
p736
sVm
I16
sV4s
p737
I36
sV6s
p738
I17
sVhs
p739
V73*
p740
sVr
V438
p741
sV100s
p742
I0
sV50s
p743
I4
ssg64
I2011
stp744
a(Vclt20-2010
(dp745
g24
(dp746
Vinns
p747
I3
sVc
I4
sVro
p748
I0
sVm
I6
sVs
I0
ssg28
(dp749
Vinns
p750
I2
sV10w
p751
I0
sVnb
p752
I0
sVmaid
p753
I0
sVwb
p754
I0
sVbbmw
p755
I4
sV6s
p756
I2
sVbbmr
p757
I26
sVbbir
p758
I26
sVbbiw
p759
I4
sVa
V7.60
p760
sVb
I36
sVe
V6.33
p761
sVd
I15
sVwmaid
p762
I0
sV4w
p763
I1
sVm
I6
sV4s
p764
I2
sVr
I38
sVw
I5
sVsr
p765
V7.20
p766
sVov
p767
V6.00
p768
sV5w
p769
I0
ssg50
(dp770
Va
V40.60
p771
sVb
I121
sVinns
p772
I6
sVno
p773
I1
sVsr
p774
V167.76
p775
sVm
I6
sV4s
p776
I13
sV6s
p777
I12
sVhs
p778
V94*
p779
sVr
V203
p780
sV100s
p781
I0
sV50s
p782
I2
ssg64
I2010
stp783
a(Vipl2010
(dp784
g24
(dp785
Vinns
p786
I11
sVc
I10
sVro
p787
I3
sVm
I16
sVs
I0
ssg28
(dp788
Vinns
p789
I12
sV10w
p790
I0
sVnb
p791
I0
sVmaid
p792
I0
sVwb
p793
I4
sVbbmw
p794
I1
sV6s
p795
I6
sVbbmr
p796
I0
sVbbir
p797
I0
sVbbiw
p798
I1
sVa
V29.66
p799
sVb
I143
sVe
V7.46
p800
sVd
I40
sVwmaid
p801
I0
sV4w
p802
I0
sVm
I16
sV4s
p803
I12
sVr
I178
sVw
I6
sVsr
p804
V23.83
p805
sVov
p806
V23.83
p807
sV5w
p808
I0
ssg50
(dp809
Va
V47.27
p810
sVb
I364
sVinns
p811
I16
sVno
p812
I5
sVsr
p813
V142.85
p814
sVm
I16
sV4s
p815
I45
sV6s
p816
I22
sVhs
p817
V83*
p818
sVr
V520
p819
sV100s
p820
I0
sV50s
p821
I4
ssg64
I2010
stp822
a(Vipl2009
(dp823
g24
(dp824
Vinns
p825
I7
sVc
I7
sVro
p826
I1
sVm
I14
sVs
I0
ssg28
(dp827
Vinns
p828
I10
sV10w
p829
I0
sVnb
p830
I0
sVmaid
p831
I0
sVwb
p832
I1
sVbbmw
p833
I2
sV6s
p834
I4
sVbbmr
p835
I17
sVbbir
p836
I17
sVbbiw
p837
I2
sVa
V23.42
p838
sVb
I166
sVe
V5.92
p839
sVd
I57
sVwmaid
p840
I0
sV4w
p841
I0
sVm
I14
sV4s
p842
I9
sVr
I164
sVw
I7
sVsr
p843
V23.71
p844
sVov
p845
V27.66
p846
sV5w
p847
I0
ssg50
(dp848
Va
V31.00
p849
sVb
I308
sVinns
p850
I14
sVno
p851
I0
sVsr
p852
V140.90
p853
sVm
I14
sV4s
p854
I37
sV6s
p855
I21
sVhs
p856
V98
p857
sVr
V434
p858
sV100s
p859
I0
sV50s
p860
I2
ssg64
I2009
stp861
a(Vipl2008
(dp862
g24
(dp863
Vinns
p864
I9
sVc
I10
sVro
p865
I2
sVm
I16
sVs
I0
ssg28
(dp866
Vinns
p867
I2
sV10w
p868
I0
sVnb
p869
I0
sVmaid
p870
I0
sVwb
p871
I0
sVbbmw
p872
I1
sV6s
p873
I2
sVbbmr
p874
I20
sVbbir
p875
I20
sVbbiw
p876
I1
sVa
V30.00
p877
sVb
I20
sVe
V9.00
p878
sVd
I4
sVwmaid
p879
I0
sV4w
p880
I0
sVm
I16
sV4s
p881
I1
sVr
I30
sVw
I1
sVsr
p882
V20.00
p883
sVov
p884
V3.33
p885
sV5w
p886
I0
ssg50
(dp887
Va
V38.27
p888
sVb
I296
sVinns
p889
I14
sVno
p890
I3
sVsr
p891
V142.22
p892
sVm
I16
sV4s
p893
I35
sV6s
p894
I18
sVhs
p895
V55*
p896
sVr
V421
p897
sV100s
p898
I0
sV50s
p899
I3
ssg64
I2008
stp900
asb.