(iplayer
Player
p1
(dp2
S'is_batsman'
p3
I00
sS'name'
p4
S'Murali Kartik'
p5
sS'dob'
p6
S'1976/09/11'
p7
sS'price'
p8
S'850000'
p9
sS'is_allrounder'
p10
I00
sS'is_overseas'
p11
I00
sS'team'
p12
S'KXIP'
p13
sS'nationality'
p14
S'Indian'
p15
sS'is_bowler'
p16
I01
sS'is_keeper'
p17
I00
sS'id'
p18
S'125'
p19
sS'is_uncapped'
p20
I00
sS'tournamentStats'
p21
(lp22
(Vipl2013
(dp23
S'fieldingStats'
p24
(dp25
Vinns
p26
I4
sVc
I4
sVro
p27
I0
sVm
I11
sVs
I0
ssS'bowlingStats'
p28
(dp29
Vinns
p30
I11
sV10w
p31
I0
sVnb
p32
I0
sVmaid
p33
I0
sVwb
p34
I7
sVbbmw
p35
I2
sV6s
p36
I7
sVbbmr
p37
I24
sVbbir
p38
I24
sVbbiw
p39
I2
sVa
V31.55
p40
sVb
I234
sVe
V7.28
p41
sVd
I71
sVwmaid
p42
I0
sV4w
p43
I0
sVm
I11
sV4s
p44
I18
sVr
I284
sVw
I9
sVsr
p45
V26.00
p46
sVov
p47
V39.00
p48
sV5w
p49
I0
ssS'battingStats'
p50
(dp51
Va
V2.00
p52
sVb
I3
sVinns
p53
I2
sVno
p54
I1
sVsr
p55
V66.66
p56
sVm
I11
sV4s
p57
I0
sV6s
p58
I0
sVhs
p59
V2*
p60
sVr
V2
sV100s
p61
I0
sV50s
p62
I0
ssS'year'
p63
I2013
stp64
a(Vipl2012
(dp65
g24
(dp66
Vinns
p67
I4
sVc
I4
sVro
p68
I0
sVm
I11
sVs
I0
ssg28
(dp69
Vinns
p70
I11
sV10w
p71
I0
sVnb
p72
I1
sVmaid
p73
I0
sVwb
p74
I8
sVbbmw
p75
I2
sV6s
p76
I9
sVbbmr
p77
I14
sVbbir
p78
I14
sVbbiw
p79
I2
sVa
V66.50
p80
sVb
I216
sVe
V7.38
p81
sVd
I76
sVwmaid
p82
I0
sV4w
p83
I0
sVm
I11
sV4s
p84
I17
sVr
I266
sVw
I4
sVsr
p85
V54.00
p86
sVov
p87
V36.00
p88
sV5w
p89
I0
ssg50
(dp90
Va
V-
sVb
I21
sVinns
p91
I4
sVno
p92
I4
sVsr
p93
V123.80
p94
sVm
I11
sV4s
p95
I1
sV6s
p96
I1
sVhs
p97
V14*
p98
sVr
V26
p99
sV100s
p100
I0
sV50s
p101
I0
ssg63
I2012
stp102
a(Vipl2011
(dp103
g24
(dp104
Vinns
p105
I1
sVc
I1
sVro
p106
I0
sVm
I6
sVs
I0
ssg28
(dp107
Vinns
p108
I6
sV10w
p109
I0
sVnb
p110
I3
sVmaid
p111
I1
sVwb
p112
I2
sVbbmw
p113
I1
sV6s
p114
I7
sVbbmr
p115
I27
sVbbir
p116
I27
sVbbiw
p117
I1
sVa
V166.00
p118
sVb
I125
sVe
V7.96
p119
sVd
I40
sVwmaid
p120
I1
sV4w
p121
I0
sVm
I6
sV4s
p122
I10
sVr
I166
sVw
I1
sVsr
p123
V125.00
p124
sVov
p125
V20.83
p126
sV5w
p127
I0
ssg50
(dp128
Va
V12.00
p129
sVb
I15
sVinns
p130
I3
sVno
p131
I2
sVsr
p132
V80.00
p133
sVm
I6
sV4s
p134
I1
sV6s
p135
I0
sVhs
p136
V11
p137
sVr
V12
p138
sV100s
p139
I0
sV50s
p140
I0
ssg63
I2011
stp141
a(Vclt20-2011
p142
(dp143
g24
(dp144
Vinns
p145
I1
sVc
I1
sVro
p146
I0
sVm
I6
sVs
I0
ssg28
(dp147
Vinns
p148
I6
sV10w
p149
I0
sVnb
p150
I0
sVmaid
p151
I0
sVwb
p152
I3
sVbbmw
p153
I2
sV6s
p154
I6
sVbbmr
p155
I23
sVbbir
p156
I23
sVbbiw
p157
I2
sVa
V39.00
p158
sVb
I138
sVe
V6.78
p159
sVd
I44
sVwmaid
p160
I0
sV4w
p161
I0
sVm
I6
sV4s
p162
I8
sVr
I156
sVw
I4
sVsr
p163
V34.50
p164
sVov
p165
V23.00
p166
sV5w
p167
I0
ssg50
(dp168
Va
V0.00
p169
sVb
I1
sVinns
p170
I1
sVno
p171
I0
sVsr
p172
V0.00
p173
sVm
I6
sV4s
p174
I0
sV6s
p175
I0
sVhs
p176
V0*
p177
sVr
V0
sV100s
p178
I0
sV50s
p179
I0
ssg63
I2011
stp180
a(Vipl2010
(dp181
g24
(dp182
Vinns
p183
I4
sVc
I5
sVro
p184
I0
sVm
I10
sVs
I0
ssg28
(dp185
Vinns
p186
I10
sV10w
p187
I0
sVnb
p188
I1
sVmaid
p189
I0
sVwb
p190
I3
sVbbmw
p191
I2
sV6s
p192
I3
sVbbmr
p193
I20
sVbbir
p194
I20
sVbbiw
p195
I2
sVa
V28.11
p196
sVb
I234
sVe
V6.48
p197
sVd
I77
sVwmaid
p198
I0
sV4w
p199
I0
sVm
I10
sV4s
p200
I22
sVr
I253
sVw
I9
sVsr
p201
V26.00
p202
sVov
p203
V39.00
p204
sV5w
p205
I0
ssg50
(dp206
Va
V11.00
p207
sVb
I22
sVinns
p208
I2
sVno
p209
I0
sVsr
p210
V100.00
p211
sVm
I10
sV4s
p212
I2
sV6s
p213
I0
sVhs
p214
V21
p215
sVr
V22
p216
sV100s
p217
I0
sV50s
p218
I0
ssg63
I2010
stp219
a(Vipl2009
(dp220
g24
(dp221
Vinns
p222
I1
sVc
I1
sVro
p223
I0
sVm
I10
sVs
I0
ssg28
(dp224
Vinns
p225
I10
sV10w
p226
I0
sVnb
p227
I0
sVmaid
p228
I0
sVwb
p229
I6
sVbbmw
p230
I2
sV6s
p231
I4
sVbbmr
p232
I28
sVbbir
p233
I28
sVbbiw
p234
I2
sVa
V50.25
p235
sVb
I204
sVe
V5.91
p236
sVd
I77
sVwmaid
p237
I0
sV4w
p238
I0
sVm
I10
sV4s
p239
I12
sVr
I201
sVw
I4
sVsr
p240
V51.00
p241
sVov
p242
V34.00
p243
sV5w
p244
I0
ssg50
(dp245
Va
V-
sVb
I20
sVinns
p246
I2
sVno
p247
I2
sVsr
p248
V105.00
p249
sVm
I10
sV4s
p250
I0
sV6s
p251
I0
sVhs
p252
V11*
p253
sVr
V21
p254
sV100s
p255
I0
sV50s
p256
I0
ssg63
I2009
stp257
a(Vipl2008
(dp258
g24
(dp259
Vinns
p260
I3
sVc
I4
sVro
p261
I1
sVm
I6
sVs
I0
ssg28
(dp262
Vinns
p263
I5
sV10w
p264
I0
sVnb
p265
I0
sVmaid
p266
I0
sVwb
p267
I1
sVbbmw
p268
I3
sV6s
p269
I7
sVbbmr
p270
I17
sVbbir
p271
I17
sVbbiw
p272
I3
sVa
V42.33
p273
sVb
I88
sVe
V8.65
p274
sVd
I31
sVwmaid
p275
I0
sV4w
p276
I0
sVm
I6
sV4s
p277
I12
sVr
I127
sVw
I3
sVsr
p278
V29.33
p279
sVov
p280
V14.66
p281
sV5w
p282
I0
ssg50
(dp283
Va
V10.00
p284
sVb
I27
sVinns
p285
I3
sVno
p286
I0
sVsr
p287
V111.11
p288
sVm
I6
sV4s
p289
I3
sV6s
p290
I0
sVhs
p291
V17
p292
sVr
V30
p293
sV100s
p294
I0
sV50s
p295
I0
ssg63
I2008
stp296
asb.