(iplayer
Player
p1
(dp2
S'is_batsman'
p3
I01
sS'name'
p4
S'Ajinkya Rahane'
p5
sS'dob'
p6
S'1988/06/05'
p7
sS'price'
p8
S'900000'
p9
sS'is_allrounder'
p10
I00
sS'is_overseas'
p11
I00
sS'team'
p12
S'RR'
p13
sS'nationality'
p14
S'Indian'
p15
sS'is_bowler'
p16
I00
sS'is_keeper'
p17
I00
sS'id'
p18
S'135'
p19
sS'is_uncapped'
p20
I00
sS'tournamentStats'
p21
(lp22
(Vasiacup-2014
(dp23
S'fieldingStats'
p24
(dp25
Vinns
p26
I1
sVc
I1
sVro
p27
I0
sVm
I4
sVs
I0
ssS'bowlingStats'
p28
(dp29
Vinns
p30
I0
sV10w
p31
I0
sVnb
p32
I0
sVmaid
p33
I0
sVwb
p34
I0
sVbbmw
p35
I0
sV6s
p36
I0
sVbbmr
p37
I0
sVbbir
p38
I0
sVbbiw
p39
I0
sVa
V-
sVb
I0
sVe
V-
sVd
I0
sVwmaid
p40
I0
sV4w
p41
I0
sVm
I4
sV4s
p42
I0
sVr
I0
sVw
I0
sVsr
p43
V-
sVov
p44
V-
sV5w
p45
I0
ssS'battingStats'
p46
(dp47
Va
V43.50
p48
sVb
I226
sVinns
p49
I4
sVno
p50
I0
sVsr
p51
V76.99
p52
sVm
I4
sV4s
p53
I16
sV6s
p54
I1
sVhs
p55
V73
p56
sVr
V174
p57
sV100s
p58
I0
sV50s
p59
I2
ssS'year'
p60
I2014
stp61
a(Vnz-ind-2014
(dp62
g24
(dp63
Vinns
p64
I5
sVc
I7
sVro
p65
I1
sVm
I7
sVs
I0
ssg28
(dp66
Vinns
p67
I0
sV10w
p68
I0
sVnb
p69
I0
sVmaid
p70
I0
sVwb
p71
I0
sVbbmw
p72
I0
sV6s
p73
I0
sVbbmr
p74
I0
sVbbir
p75
I0
sVbbiw
p76
I0
sVa
V-
sVb
I0
sVe
V-
sVd
I0
sVwmaid
p77
I0
sV4w
p78
I0
sVm
I7
sV4s
p79
I0
sVr
I0
sVw
I0
sVsr
p80
V-
sVov
p81
V-
sV5w
p82
I0
ssg46
(dp83
Va
V26.62
p84
sVb
I336
sVinns
p85
I8
sVno
p86
I0
sVsr
p87
V63.39
p88
sVm
I7
sV4s
p89
I26
sV6s
p90
I1
sVhs
p91
V118
p92
sVr
V213
p93
sV100s
p94
I1
sV50s
p95
I0
ssg60
I2014
stp96
a(Vzim-ind-2013
(dp97
g24
(dp98
Vinns
p99
I0
sVc
I0
sVro
p100
I0
sVm
I1
sVs
I0
ssg28
(dp101
Vinns
p102
I0
sV10w
p103
I0
sVnb
p104
I0
sVmaid
p105
I0
sVwb
p106
I0
sVbbmw
p107
I0
sV6s
p108
I0
sVbbmr
p109
I0
sVbbir
p110
I0
sVbbiw
p111
I0
sVa
V-
sVb
I0
sVe
V-
sVd
I0
sVwmaid
p112
I0
sV4w
p113
I0
sVm
I1
sV4s
p114
I0
sVr
I0
sVw
I0
sVsr
p115
V-
sVov
p116
V-
sV5w
p117
I0
ssg46
(dp118
Va
V50.00
p119
sVb
I66
sVinns
p120
I1
sVno
p121
I0
sVsr
p122
V75.75
p123
sVm
I1
sV4s
p124
I4
sV6s
p125
I1
sVhs
p126
V50
p127
sVr
V50
p128
sV100s
p129
I0
sV50s
p130
I1
ssg60
I2013
stp131
a(Vclt20-2013
(dp132
g24
(dp133
Vinns
p134
I1
sVc
I0
sVro
p135
I1
sVm
I6
sVs
I0
ssg28
(dp136
Vinns
p137
I0
sV10w
p138
I0
sVnb
p139
I0
sVmaid
p140
I0
sVwb
p141
I0
sVbbmw
p142
I0
sV6s
p143
I0
sVbbmr
p144
I0
sVbbir
p145
I0
sVbbiw
p146
I0
sVa
V-
sVb
I0
sVe
V-
sVd
I0
sVwmaid
p147
I0
sV4w
p148
I0
sVm
I6
sV4s
p149
I0
sVr
I0
sVw
I0
sVsr
p150
V-
sVov
p151
V-
sV5w
p152
I0
ssg46
(dp153
Va
V57.60
p154
sVb
I242
sVinns
p155
I6
sVno
p156
I1
sVsr
p157
V119.00
p158
sVm
I6
sV4s
p159
I27
sV6s
p160
I7
sVhs
p161
V70
p162
sVr
V288
p163
sV100s
p164
I0
sV50s
p165
I4
ssg60
I2013
stp166
a(Vind-aus-2013
(dp167
g24
(dp168
Vinns
p169
I1
sVc
I1
sVro
p170
I0
sVm
I1
sVs
I0
ssg28
(dp171
Vinns
p172
I0
sV10w
p173
I0
sVnb
p174
I0
sVmaid
p175
I0
sVwb
p176
I0
sVbbmw
p177
I0
sV6s
p178
I0
sVbbmr
p179
I0
sVbbir
p180
I0
sVbbiw
p181
I0
sVa
V-
sVb
I0
sVe
V-
sVd
I0
sVwmaid
p182
I0
sV4w
p183
I0
sVm
I1
sV4s
p184
I0
sVr
I0
sVw
I0
sVsr
p185
V-
sVov
p186
V-
sV5w
p187
I0
ssg46
(dp188
Va
V4.00
p189
sVb
I24
sVinns
p190
I2
sVno
p191
I0
sVsr
p192
V33.33
p193
sVm
I1
sV4s
p194
I1
sV6s
p195
I0
sVhs
p196
V7
sVr
V8
sV100s
p197
I0
sV50s
p198
I0
ssg60
I2013
stp199
a(Vipl2013
(dp200
g24
(dp201
Vinns
p202
I10
sVc
I10
sVro
p203
I1
sVm
I18
sVs
I0
ssg28
(dp204
Vinns
p205
I0
sV10w
p206
I0
sVnb
p207
I0
sVmaid
p208
I0
sVwb
p209
I0
sVbbmw
p210
I0
sV6s
p211
I0
sVbbmr
p212
I0
sVbbir
p213
I0
sVbbiw
p214
I0
sVa
V-
sVb
I0
sVe
V-
sVd
I0
sVwmaid
p215
I0
sV4w
p216
I0
sVm
I18
sV4s
p217
I0
sVr
I0
sVw
I0
sVsr
p218
V-
sVov
p219
V-
sV5w
p220
I0
ssg46
(dp221
Va
V34.85
p222
sVb
I458
sVinns
p223
I18
sVno
p224
I4
sVsr
p225
V106.55
p226
sVm
I18
sV4s
p227
I42
sV6s
p228
I11
sVhs
p229
V68*
p230
sVr
V488
p231
sV100s
p232
I0
sV50s
p233
I4
ssg60
I2013
stp234
a(Vsa-ind-2013
p235
(dp236
g24
(dp237
Vinns
p238
I1
sVc
I0
sVro
p239
I2
sVm
I3
sVs
I0
ssg28
(dp240
Vinns
p241
I0
sV10w
p242
I0
sVnb
p243
I0
sVmaid
p244
I0
sVwb
p245
I0
sVbbmw
p246
I0
sV6s
p247
I0
sVbbmr
p248
I0
sVbbir
p249
I0
sVbbiw
p250
I0
sVa
V-
sVb
I0
sVe
V-
sVd
I0
sVwmaid
p251
I0
sV4w
p252
I0
sVm
I3
sV4s
p253
I0
sVr
I0
sVw
I0
sVsr
p254
V-
sVov
p255
V-
sV5w
p256
I0
ssg46
(dp257
Va
V54.25
p258
sVb
I459
sVinns
p259
I5
sVno
p260
I1
sVsr
p261
V47.27
p262
sVm
I3
sV4s
p263
I30
sV6s
p264
I2
sVhs
p265
V96
p266
sVr
V217
p267
sV100s
p268
I0
sV50s
p269
I2
ssg60
I2013
stp270
a(Vipl2012
(dp271
g24
(dp272
Vinns
p273
I7
sVc
I11
sVro
p274
I0
sVm
I16
sVs
I0
ssg28
(dp275
Vinns
p276
I0
sV10w
p277
I0
sVnb
p278
I0
sVmaid
p279
I0
sVwb
p280
I0
sVbbmw
p281
I0
sV6s
p282
I0
sVbbmr
p283
I0
sVbbir
p284
I0
sVbbiw
p285
I0
sVa
V-
sVb
I0
sVe
V-
sVd
I0
sVwmaid
p286
I0
sV4w
p287
I0
sVm
I16
sV4s
p288
I0
sVr
I0
sVw
I0
sVsr
p289
V-
sVov
p290
V-
sV5w
p291
I0
ssg46
(dp292
Va
V40.00
p293
sVb
I433
sVinns
p294
I16
sVno
p295
I2
sVsr
p296
V129.33
p297
sVm
I16
sV4s
p298
I73
sV6s
p299
I10
sVhs
p300
V103*
p301
sVr
V560
p302
sV100s
p303
I1
sV50s
p304
I3
ssg60
I2012
stp305
a(Vind-pak-2012-13
(dp306
g24
(dp307
Vinns
p308
I2
sVc
I2
sVro
p309
I0
sVm
I3
sVs
I0
ssg28
(dp310
Vinns
p311
I0
sV10w
p312
I0
sVnb
p313
I0
sVmaid
p314
I0
sVwb
p315
I0
sVbbmw
p316
I0
sV6s
p317
I0
sVbbmr
p318
I0
sVbbir
p319
I0
sVbbiw
p320
I0
sVa
V-
sVb
I0
sVe
V-
sVd
I0
sVwmaid
p321
I0
sV4w
p322
I0
sVm
I3
sV4s
p323
I0
sVr
I0
sVw
I0
sVsr
p324
V-
sVov
p325
V-
sV5w
p326
I0
ssg46
(dp327
Va
V24.66
p328
sVb
I68
sVinns
p329
I3
sVno
p330
I0
sVsr
p331
V108.82
p332
sVm
I3
sV4s
p333
I10
sV6s
p334
I1
sVhs
p335
V42
p336
sVr
V74
p337
sV100s
p338
I0
sV50s
p339
I0
ssg60
I2012
stp340
a(Vind-eng-2012-13
(dp341
g24
(dp342
Vinns
p343
I2
sVc
I4
sVro
p344
I1
sVm
I5
sVs
I0
ssg28
(dp345
Vinns
p346
I0
sV10w
p347
I0
sVnb
p348
I0
sVmaid
p349
I0
sVwb
p350
I0
sVbbmw
p351
I0
sV6s
p352
I0
sVbbmr
p353
I0
sVbbir
p354
I0
sVbbiw
p355
I0
sVa
V-
sVb
I0
sVe
V-
sVd
I0
sVwmaid
p356
I0
sV4w
p357
I0
sVm
I5
sV4s
p358
I0
sVr
I0
sVw
I0
sVsr
p359
V-
sVov
p360
V-
sV5w
p361
I0
ssg46
(dp362
Va
V14.60
p363
sVb
I93
sVinns
p364
I5
sVno
p365
I0
sVsr
p366
V78.49
p367
sVm
I5
sV4s
p368
I6
sV6s
p369
I2
sVhs
p370
V47
p371
sVr
V73
p372
sV100s
p373
I0
sV50s
p374
I0
ssg60
I2012
stp375
a(Vipl2011
(dp376
g24
(dp377
Vinns
p378
I1
sVc
I1
sVro
p379
I0
sVm
I10
sVs
I0
ssg28
(dp380
Vinns
p381
I0
sV10w
p382
I0
sVnb
p383
I0
sVmaid
p384
I0
sVwb
p385
I0
sVbbmw
p386
I0
sV6s
p387
I0
sVbbmr
p388
I0
sVbbir
p389
I0
sVbbiw
p390
I0
sVa
V-
sVb
I0
sVe
V-
sVd
I0
sVwmaid
p391
I0
sV4w
p392
I0
sVm
I10
sV4s
p393
I0
sVr
I0
sVw
I0
sVsr
p394
V-
sVov
p395
V-
sV5w
p396
I0
ssg46
(dp397
Va
V20.00
p398
sVb
I98
sVinns
p399
I7
sVno
p400
I1
sVsr
p401
V122.44
p402
sVm
I10
sV4s
p403
I12
sV6s
p404
I2
sVhs
p405
V52
p406
sVr
V120
p407
sV100s
p408
I0
sV50s
p409
I1
ssg60
I2011
stp410
a(Vipl2009
(dp411
g24
(dp412
Vinns
p413
I1
sVc
I1
sVro
p414
I0
sVm
I8
sVs
I0
ssg28
(dp415
Vinns
p416
I1
sV10w
p417
I0
sVnb
p418
I0
sVmaid
p419
I0
sVwb
p420
I0
sVbbmw
p421
I1
sV6s
p422
I0
sVbbmr
p423
I5
sVbbir
p424
I0
sVbbiw
p425
I0
sVa
V5.00
p426
sVb
I6
sVe
V5.00
p427
sVd
I2
sVwmaid
p428
I0
sV4w
p429
I0
sVm
I8
sV4s
p430
I0
sVr
I5
sVw
I1
sVsr
p431
V6.00
p432
sVov
p433
V1.00
p434
sV5w
p435
I0
ssg46
(dp436
Va
V24.00
p437
sVb
I123
sVinns
p438
I7
sVno
p439
I1
sVsr
p440
V117.07
p441
sVm
I8
sV4s
p442
I12
sV6s
p443
I3
sVhs
p444
V62*
p445
sVr
V144
p446
sV100s
p447
I0
sV50s
p448
I2
ssg60
I2009
stp449
a(Vipl2008
(dp450
g24
(dp451
Vinns
p452
I1
sVc
I0
sVro
p453
I1
sVm
I2
sVs
I0
ssg28
(dp454
Vinns
p455
I0
sV10w
p456
I0
sVnb
p457
I0
sVmaid
p458
I0
sVwb
p459
I0
sVbbmw
p460
I0
sV6s
p461
I0
sVbbmr
p462
I0
sVbbir
p463
I0
sVbbiw
p464
I0
sVa
V-
sVb
I0
sVe
V-
sVd
I0
sVwmaid
p465
I0
sV4w
p466
I0
sVm
I2
sV4s
p467
I0
sVr
I0
sVw
I0
sVsr
p468
V-
sVov
p469
V-
sV5w
p470
I0
ssg46
(dp471
Va
V2.00
p472
sVb
I17
sVinns
p473
I2
sVno
p474
I0
sVsr
p475
V23.52
p476
sVm
I2
sV4s
p477
I1
sV6s
p478
I0
sVhs
p479
V4
sVr
V4
sV100s
p480
I0
sV50s
p481
I0
ssg60
I2008
stp482
asb.