(iplayer
Player
p1
(dp2
S'is_batsman'
p3
I00
sS'name'
p4
S'Darren Sammy'
p5
sS'dob'
p6
S'1983/12/20'
p7
sS'price'
p8
S'950000'
p9
sS'is_allrounder'
p10
I01
sS'is_overseas'
p11
I01
sS'team'
p12
S'SRH'
p13
sS'nationality'
p14
S'West Indian'
p15
sS'is_bowler'
p16
I00
sS'is_keeper'
p17
I00
sS'id'
p18
S'589'
p19
sS'is_uncapped'
p20
I00
sS'tournamentStats'
p21
(lp22
(Vworldt20-2014
(dp23
S'fieldingStats'
p24
(dp25
Vinns
p26
I1
sVc
I1
sVro
p27
I0
sVm
I2
sVs
I0
ssS'bowlingStats'
p28
(dp29
Vinns
p30
I2
sV10w
p31
I0
sVnb
p32
I0
sVmaid
p33
I0
sVwb
p34
I0
sVbbmw
p35
I0
sV6s
p36
I0
sVbbmr
p37
I0
sVbbir
p38
I0
sVbbiw
p39
I0
sVa
V-
sVb
I12
sVe
V7.50
p40
sVd
I4
sVwmaid
p41
I0
sV4w
p42
I0
sVm
I2
sV4s
p43
I2
sVr
I15
sVw
I0
sVsr
p44
V-
sVov
p45
V2.00
p46
sV5w
p47
I0
ssS'battingStats'
p48
(dp49
Va
V25.00
p50
sVb
I12
sVinns
p51
I2
sVno
p52
I1
sVsr
p53
V208.33
p54
sVm
I2
sV4s
p55
I5
sV6s
p56
I0
sVhs
p57
V14*
p58
sVr
V25
p59
sV100s
p60
I0
sV50s
p61
I0
ssS'year'
p62
I2014
stp63
a(Vwi-eng-2014
(dp64
g24
(dp65
Vinns
p66
I2
sVc
I2
sVro
p67
I0
sVm
I6
sVs
I0
ssg28
(dp68
Vinns
p69
I6
sV10w
p70
I0
sVnb
p71
I0
sVmaid
p72
I0
sVwb
p73
I0
sVbbmw
p74
I1
sV6s
p75
I3
sVbbmr
p76
I46
sVbbir
p77
I46
sVbbiw
p78
I1
sVa
V143.00
p79
sVb
I138
sVe
V6.21
p80
sVd
I49
sVwmaid
p81
I0
sV4w
p82
I0
sVm
I6
sV4s
p83
I8
sVr
I143
sVw
I1
sVsr
p84
V138.00
p85
sVov
p86
V23.00
p87
sV5w
p88
I0
ssg48
(dp89
Va
V44.33
p90
sVb
I99
sVinns
p91
I5
sVno
p92
I2
sVsr
p93
V134.34
p94
sVm
I6
sV4s
p95
I11
sV6s
p96
I9
sVhs
p97
V61
p98
sVr
V133
p99
sV100s
p100
I0
sV50s
p101
I1
ssg62
I2014
stp102
a(Vind-wi-2013
(dp103
g24
(dp104
Vinns
p105
I2
sVc
I6
sVro
p106
I0
sVm
I5
sVs
I0
ssg28
(dp107
Vinns
p108
I5
sV10w
p109
I0
sVnb
p110
I0
sVmaid
p111
I2
sVwb
p112
I0
sVbbmw
p113
I1
sV6s
p114
I0
sVbbmr
p115
I11
sVbbir
p116
I11
sVbbiw
p117
I1
sVa
V140.00
p118
sVb
I162
sVe
V5.18
p119
sVd
I97
sVwmaid
p120
I0
sV4w
p121
I0
sVm
I5
sV4s
p122
I22
sVr
I140
sVw
I1
sVsr
p123
V162.00
p124
sVov
p125
V27.00
p126
sV5w
p127
I0
ssg48
(dp128
Va
V26.00
p129
sVb
I148
sVinns
p130
I7
sVno
p131
I2
sVsr
p132
V87.83
p133
sVm
I5
sV4s
p134
I10
sV6s
p135
I6
sVhs
p136
V63*
p137
sVr
V130
p138
sV100s
p139
I0
sV50s
p140
I1
ssg62
I2013
stp141
a(Vaus-wi-t20-2013
(dp142
g24
(dp143
Vinns
p144
I1
sVc
I2
sVro
p145
I0
sVm
I1
sVs
I0
ssg28
(dp146
Vinns
p147
I1
sV10w
p148
I0
sVnb
p149
I0
sVmaid
p150
I0
sVwb
p151
I1
sVbbmw
p152
I1
sV6s
p153
I2
sVbbmr
p154
I30
sVbbir
p155
I30
sVbbiw
p156
I1
sVa
V30.00
p157
sVb
I18
sVe
V10.00
p158
sVd
I1
sVwmaid
p159
I0
sV4w
p160
I0
sVm
I1
sV4s
p161
I0
sVr
I30
sVw
I1
sVsr
p162
V18.00
p163
sVov
p164
V3.00
p165
sV5w
p166
I0
ssg48
(dp167
Va
V20.00
p168
sVb
I7
sVinns
p169
I1
sVno
p170
I0
sVsr
p171
V285.71
p172
sVm
I1
sV4s
p173
I1
sV6s
p174
I2
sVhs
p175
V20
p176
sVr
V20
p177
sV100s
p178
I0
sV50s
p179
I0
ssg62
I2013
stp180
a(Vwi-pak-2013
(dp181
g24
(dp182
Vinns
p183
I5
sVc
I4
sVro
p184
I1
sVm
I7
sVs
I0
ssg28
(dp185
Vinns
p186
I7
sV10w
p187
I0
sVnb
p188
I0
sVmaid
p189
I2
sVwb
p190
I1
sVbbmw
p191
I1
sV6s
p192
I1
sVbbmr
p193
I20
sVbbir
p194
I20
sVbbiw
p195
I1
sVa
V45.00
p196
sVb
I276
sVe
V3.91
p197
sVd
I170
sVwmaid
p198
I0
sV4w
p199
I0
sVm
I7
sV4s
p200
I17
sVr
I180
sVw
I4
sVsr
p201
V69.00
p202
sVov
p203
V46.00
p204
sV5w
p205
I0
ssg48
(dp206
Va
V20.20
p207
sVb
I96
sVinns
p208
I7
sVno
p209
I2
sVsr
p210
V105.20
p211
sVm
I7
sV4s
p212
I5
sV6s
p213
I6
sVhs
p214
V30
p215
sVr
V101
p216
sV100s
p217
I0
sV50s
p218
I0
ssg62
I2013
stp219
a(Vnz-wi-2013
(dp220
g24
(dp221
Vinns
p222
I4
sVc
I7
sVro
p223
I0
sVm
I4
sVs
I0
ssg28
(dp224
Vinns
p225
I5
sV10w
p226
I0
sVnb
p227
I4
sVmaid
p228
I18
sVwb
p229
I0
sVbbmw
p230
I3
sV6s
p231
I3
sVbbmr
p232
I90
sVbbir
p233
I69
sVbbiw
p234
I2
sVa
V41.57
p235
sVb
I517
sVe
V3.37
p236
sVd
I376
sVwmaid
p237
I3
sV4w
p238
I0
sVm
I4
sV4s
p239
I36
sVr
I291
sVw
I7
sVsr
p240
V73.85
p241
sVov
p242
V86.16
p243
sV5w
p244
I0
ssg48
(dp245
Va
V35.40
p246
sVb
I247
sVinns
p247
I7
sVno
p248
I2
sVsr
p249
V71.65
p250
sVm
I4
sV4s
p251
I25
sV6s
p252
I6
sVhs
p253
V80
p254
sVr
V177
p255
sV100s
p256
I0
sV50s
p257
I1
ssg62
I2013
stp258
a(Vtriseries-wi-2013
(dp259
g24
(dp260
Vinns
p261
I2
sVc
I3
sVro
p262
I0
sVm
I4
sVs
I0
ssg28
(dp263
Vinns
p264
I4
sV10w
p265
I0
sVnb
p266
I0
sVmaid
p267
I6
sVwb
p268
I2
sVbbmw
p269
I2
sV6s
p270
I0
sVbbmr
p271
I41
sVbbir
p272
I41
sVbbiw
p273
I2
sVa
V63.50
p274
sVb
I222
sVe
V3.43
p275
sVd
I141
sVwmaid
p276
I1
sV4w
p277
I0
sVm
I4
sV4s
p278
I12
sVr
I127
sVw
I2
sVsr
p279
V111.00
p280
sVov
p281
V37.00
p282
sV5w
p283
I0
ssg48
(dp284
Va
V14.66
p285
sVb
I47
sVinns
p286
I3
sVno
p287
I0
sVsr
p288
V93.61
p289
sVm
I4
sV4s
p290
I3
sV6s
p291
I4
sVhs
p292
V29
p293
sVr
V44
p294
sV100s
p295
I0
sV50s
p296
I0
ssg62
I2013
stp297
a(Vwi-zim-2013
(dp298
g24
(dp299
Vinns
p300
I3
sVc
I6
sVro
p301
I0
sVm
I4
sVs
I0
ssg28
(dp302
Vinns
p303
I5
sV10w
p304
I0
sVnb
p305
I0
sVmaid
p306
I7
sVwb
p307
I2
sVbbmw
p308
I1
sV6s
p309
I2
sVbbmr
p310
I28
sVbbir
p311
I13
sVbbiw
p312
I1
sVa
V92.00
p313
sVb
I150
sVe
V3.68
p314
sVd
I104
sVwmaid
p315
I1
sV4w
p316
I0
sVm
I4
sV4s
p317
I11
sVr
I92
sVw
I1
sVsr
p318
V150.00
p319
sVov
p320
V25.00
p321
sV5w
p322
I0
ssg48
(dp323
Va
V33.66
p324
sVb
I89
sVinns
p325
I3
sVno
p326
I0
sVsr
p327
V113.48
p328
sVm
I4
sV4s
p329
I11
sV6s
p330
I5
sVhs
p331
V73
p332
sVr
V101
p333
sV100s
p334
I0
sV50s
p335
I1
ssg62
I2013
stp336
a(Vclt20-2013
(dp337
g24
(dp338
Vinns
p339
I2
sVc
I1
sVro
p340
I1
sVm
I6
sVs
I0
ssg28
(dp341
Vinns
p342
I6
sV10w
p343
I0
sVnb
p344
I0
sVmaid
p345
I0
sVwb
p346
I1
sVbbmw
p347
I2
sV6s
p348
I7
sVbbmr
p349
I21
sVbbir
p350
I21
sVbbiw
p351
I2
sVa
V30.40
p352
sVb
I108
sVe
V8.44
p353
sVd
I36
sVwmaid
p354
I0
sV4w
p355
I0
sVm
I6
sV4s
p356
I12
sVr
I152
sVw
I5
sVsr
p357
V21.60
p358
sVov
p359
V18.00
p360
sV5w
p361
I0
ssg48
(dp362
Va
V26.50
p363
sVb
I70
sVinns
p364
I5
sVno
p365
I1
sVsr
p366
V151.42
p367
sVm
I6
sV4s
p368
I7
sV6s
p369
I8
sVhs
p370
V50
p371
sVr
V106
p372
sV100s
p373
I0
sV50s
p374
I1
ssg62
I2013
stp375
a(Vchamptrophy-2013-warmups
(dp376
g24
(dp377
Vinns
p378
I0
sVc
I0
sVro
p379
I0
sVm
I2
sVs
I0
ssg28
(dp380
Vinns
p381
I1
sV10w
p382
I0
sVnb
p383
I0
sVmaid
p384
I0
sVwb
p385
I0
sVbbmw
p386
I1
sV6s
p387
I0
sVbbmr
p388
I32
sVbbir
p389
I0
sVbbiw
p390
I0
sVa
V32.00
p391
sVb
I36
sVe
V5.33
p392
sVd
I19
sVwmaid
p393
I0
sV4w
p394
I0
sVm
I2
sV4s
p395
I4
sVr
I32
sVw
I1
sVsr
p396
V36.00
p397
sVov
p398
V6.00
p399
sV5w
p400
I0
ssg48
(dp401
Va
V14.00
p402
sVb
I17
sVinns
p403
I1
sVno
p404
I0
sVsr
p405
V82.35
p406
sVm
I2
sV4s
p407
I2
sV6s
p408
I0
sVhs
p409
V14
p410
sVr
V14
p411
sV100s
p412
I0
sV50s
p413
I0
ssg62
I2013
stp414
a(Vchamptrophy-2013
(dp415
g24
(dp416
Vinns
p417
I1
sVc
I1
sVro
p418
I0
sVm
I2
sVs
I0
ssg28
(dp419
Vinns
p420
I2
sV10w
p421
I0
sVnb
p422
I0
sVmaid
p423
I0
sVwb
p424
I0
sVbbmw
p425
I0
sV6s
p426
I1
sVbbmr
p427
I0
sVbbir
p428
I0
sVbbiw
p429
I0
sVa
V-
sVb
I36
sVe
V6.83
p430
sVd
I12
sVwmaid
p431
I0
sV4w
p432
I0
sVm
I2
sV4s
p433
I4
sVr
I41
sVw
I0
sVsr
p434
V-
sVov
p435
V6.00
p436
sV5w
p437
I0
ssg48
(dp438
Va
V-
sVb
I35
sVinns
p439
I1
sVno
p440
I1
sVsr
p441
V160.00
p442
sVm
I2
sV4s
p443
I5
sV6s
p444
I4
sVhs
p445
V56*
p446
sVr
V56
p447
sV100s
p448
I0
sV50s
p449
I1
ssg62
I2013
stp450
a(Vaus-wi-2013
(dp451
g24
(dp452
Vinns
p453
I2
sVc
I2
sVro
p454
I0
sVm
I5
sVs
I0
ssg28
(dp455
Vinns
p456
I4
sV10w
p457
I0
sVnb
p458
I2
sVmaid
p459
I1
sVwb
p460
I3
sVbbmw
p461
I3
sV6s
p462
I0
sVbbmr
p463
I48
sVbbir
p464
I48
sVbbiw
p465
I3
sVa
V30.00
p466
sVb
I180
sVe
V5.00
p467
sVd
I99
sVwmaid
p468
I0
sV4w
p469
I0
sVm
I5
sV4s
p470
I18
sVr
I150
sVw
I5
sVsr
p471
V36.00
p472
sVov
p473
V30.00
p474
sV5w
p475
I0
ssg48
(dp476
Va
V16.00
p477
sVb
I120
sVinns
p478
I5
sVno
p479
I0
sVsr
p480
V66.66
p481
sVm
I5
sV4s
p482
I8
sV6s
p483
I2
sVhs
p484
V25
p485
sVr
V80
p486
sV100s
p487
I0
sV50s
p488
I0
ssg62
I2013
stp489
a(Vipl2013
p490
(dp491
g24
(dp492
Vinns
p493
I3
sVc
I3
sVro
p494
I0
sVm
I10
sVs
I0
ssg28
(dp495
Vinns
p496
I9
sV10w
p497
I0
sVnb
p498
I1
sVmaid
p499
I0
sVwb
p500
I3
sVbbmw
p501
I4
sV6s
p502
I5
sVbbmr
p503
I22
sVbbir
p504
I22
sVbbiw
p505
I4
sVa
V21.00
p506
sVb
I134
sVe
V7.52
p507
sVd
I50
sVwmaid
p508
I0
sV4w
p509
I1
sVm
I10
sV4s
p510
I14
sVr
I168
sVw
I8
sVsr
p511
V16.75
p512
sVov
p513
V22.33
p514
sV5w
p515
I0
ssg48
(dp516
Va
V29.00
p517
sVb
I132
sVinns
p518
I9
sVno
p519
I3
sVsr
p520
V131.81
p521
sVm
I10
sV4s
p522
I11
sV6s
p523
I10
sVhs
p524
V60
p525
sVr
V174
p526
sV100s
p527
I0
sV50s
p528
I1
ssg62
I2013
stp529
a(Vworldt20-2012
(dp530
g24
(dp531
Vinns
p532
I1
sVc
I1
sVro
p533
I0
sVm
I8
sVs
I0
ssg28
(dp534
Vinns
p535
I8
sV10w
p536
I0
sVnb
p537
I0
sVmaid
p538
I0
sVwb
p539
I2
sVbbmw
p540
I2
sV6s
p541
I5
sVbbmr
p542
I6
sVbbir
p543
I6
sVbbiw
p544
I2
sVa
V29.20
p545
sVb
I120
sVe
V7.30
p546
sVd
I42
sVwmaid
p547
I0
sV4w
p548
I0
sVm
I8
sV4s
p549
I11
sVr
I146
sVw
I5
sVsr
p550
V24.00
p551
sVov
p552
V20.00
p553
sV5w
p554
I0
ssg48
(dp555
Va
V18.00
p556
sVb
I38
sVinns
p557
I5
sVno
p558
I2
sVsr
p559
V142.10
p560
sVm
I8
sV4s
p561
I5
sV6s
p562
I1
sVhs
p563
V26*
p564
sVr
V54
p565
sV100s
p566
I0
sV50s
p567
I0
ssg62
I2012
stp568
asb.