(iplayer
Player
p1
(dp2
S'is_batsman'
p3
I00
sS'name'
p4
S'Dale Steyn'
p5
sS'dob'
p6
S'1983/06/27'
p7
sS'price'
p8
S'1050000'
p9
sS'is_allrounder'
p10
I00
sS'is_overseas'
p11
I01
sS'team'
p12
S'SRH'
p13
sS'nationality'
p14
S'South African'
p15
sS'is_bowler'
p16
I01
sS'is_keeper'
p17
I00
sS'id'
p18
S'180'
p19
sS'is_uncapped'
p20
I00
sS'tournamentStats'
p21
(lp22
(Vworldt20-2014
(dp23
S'fieldingStats'
p24
(dp25
Vinns
p26
I2
sVc
I1
sVro
p27
I1
sVm
I3
sVs
I0
ssS'bowlingStats'
p28
(dp29
Vinns
p30
I3
sV10w
p31
I0
sVnb
p32
I0
sVmaid
p33
I0
sVwb
p34
I3
sVbbmw
p35
I4
sV6s
p36
I1
sVbbmr
p37
I17
sVbbir
p38
I17
sVbbiw
p39
I4
sVa
V9.12
p40
sVb
I72
sVe
V6.08
p41
sVd
I39
sVwmaid
p42
I0
sV4w
p43
I1
sVm
I3
sV4s
p44
I9
sVr
I73
sVw
I8
sVsr
p45
V9.00
p46
sVov
p47
V12.00
p48
sV5w
p49
I0
ssS'battingStats'
p50
(dp51
Va
V3.00
p52
sVb
I7
sVinns
p53
I3
sVno
p54
I1
sVsr
p55
V85.71
p56
sVm
I3
sV4s
p57
I1
sV6s
p58
I0
sVhs
p59
V5
sVr
V6
sV100s
p60
I0
sV50s
p61
I0
ssS'year'
p62
I2014
stp63
a(Vsa-aus-2014
(dp64
g24
(dp65
Vinns
p66
I2
sVc
I1
sVro
p67
I1
sVm
I3
sVs
I0
ssg28
(dp68
Vinns
p69
I6
sV10w
p70
I0
sVnb
p71
I0
sVmaid
p72
I17
sVwb
p73
I4
sVbbmw
p74
I6
sV6s
p75
I1
sVbbmr
p76
I139
sVbbir
p77
I55
sVbbiw
p78
I4
sVa
V26.41
p79
sVb
I537
sVe
V3.54
p80
sVd
I389
sVwmaid
p81
I2
sV4w
p82
I2
sVm
I3
sV4s
p83
I41
sVr
I317
sVw
I12
sVsr
p84
V44.75
p85
sVov
p86
V89.50
p87
sV5w
p88
I0
ssg50
(dp89
Va
V14.33
p90
sVb
I99
sVinns
p91
I5
sVno
p92
I2
sVsr
p93
V43.43
p94
sVm
I3
sV4s
p95
I5
sV6s
p96
I0
sVhs
p97
V28
p98
sVr
V43
p99
sV100s
p100
I0
sV50s
p101
I0
ssg62
I2014
stp102
a(Vclt20-2013
(dp103
g24
(dp104
Vinns
p105
I2
sVc
I2
sVro
p106
I0
sVm
I6
sVs
I0
ssg28
(dp107
Vinns
p108
I6
sV10w
p109
I0
sVnb
p110
I1
sVmaid
p111
I0
sVwb
p112
I8
sVbbmw
p113
I2
sV6s
p114
I2
sVbbmr
p115
I13
sVbbir
p116
I13
sVbbiw
p117
I2
sVa
V25.83
p118
sVb
I138
sVe
V6.73
p119
sVd
I63
sVwmaid
p120
I0
sV4w
p121
I0
sVm
I6
sV4s
p122
I19
sVr
I155
sVw
I6
sVsr
p123
V23.00
p124
sVov
p125
V23.00
p126
sV5w
p127
I0
ssg50
(dp128
Va
V-
sVb
I17
sVinns
p129
I2
sVno
p130
I2
sVsr
p131
V217.64
p132
sVm
I6
sV4s
p133
I3
sV6s
p134
I3
sVhs
p135
V27*
p136
sVr
V37
p137
sV100s
p138
I0
sV50s
p139
I0
ssg62
I2013
stp140
a(Vchamptrophy-2013-warmups
(dp141
g24
(dp142
Vinns
p143
I0
sVc
I0
sVro
p144
I0
sVm
I1
sVs
I0
ssg28
(dp145
Vinns
p146
I1
sV10w
p147
I0
sVnb
p148
I2
sVmaid
p149
I1
sVwb
p150
I1
sVbbmw
p151
I0
sV6s
p152
I1
sVbbmr
p153
I26
sVbbir
p154
I26
sVbbiw
p155
I0
sVa
V-
sVb
I30
sVe
V5.20
p156
sVd
I23
sVwmaid
p157
I0
sV4w
p158
I0
sVm
I1
sV4s
p159
I2
sVr
I26
sVw
I0
sVsr
p160
V-
sVov
p161
V5.00
p162
sV5w
p163
I0
ssg50
(dp164
Va
V-
sVinns
p165
I0
sVno
p166
I0
sVsr
p167
V-
sVm
I1
sV4s
p168
I0
sV6s
p169
I0
sVhs
p170
V0*
p171
sVr
V0
sV100s
p172
I0
sV50s
p173
I0
ssg62
I2013
stp174
a(Vsa-pak-2-2013
(dp175
g24
(dp176
Vinns
p177
I0
sVc
I0
sVro
p178
I0
sVm
I4
sVs
I0
ssg28
(dp179
Vinns
p180
I4
sV10w
p181
I0
sVnb
p182
I0
sVmaid
p183
I2
sVwb
p184
I2
sVbbmw
p185
I6
sV6s
p186
I1
sVbbmr
p187
I39
sVbbir
p188
I39
sVbbiw
p189
I6
sVa
V10.36
p190
sVb
I150
sVe
V4.56
p191
sVd
I95
sVwmaid
p192
I0
sV4w
p193
I0
sVm
I4
sV4s
p194
I15
sVr
I114
sVw
I11
sVsr
p195
V13.63
p196
sVov
p197
V25.00
p198
sV5w
p199
I1
ssg50
(dp200
Va
V8.00
p201
sVb
I35
sVinns
p202
I2
sVno
p203
I0
sVsr
p204
V45.71
p205
sVm
I4
sV4s
p206
I1
sV6s
p207
I1
sVhs
p208
V15
p209
sVr
V16
p210
sV100s
p211
I0
sV50s
p212
I0
ssg62
I2013
stp213
a(Vsa-ind-2013
(dp214
g24
(dp215
Vinns
p216
I1
sVc
I1
sVro
p217
I1
sVm
I4
sVs
I0
ssg28
(dp218
Vinns
p219
I6
sV10w
p220
I0
sVnb
p221
I0
sVmaid
p222
I33
sVwb
p223
I10
sVbbmw
p224
I9
sV6s
p225
I1
sVbbmr
p226
I147
sVbbir
p227
I100
sVbbiw
p228
I6
sVa
V22.12
p229
sVb
I732
sVe
V2.90
p230
sVd
I575
sVwmaid
p231
I5
sV4w
p232
I0
sVm
I4
sV4s
p233
I50
sVr
I354
sVw
I16
sVsr
p234
V45.75
p235
sVov
p236
V122.00
p237
sV5w
p238
I1
ssg50
(dp239
Va
V30.00
p240
sVb
I116
sVinns
p241
I3
sVno
p242
I1
sVsr
p243
V51.72
p244
sVm
I4
sV4s
p245
I9
sV6s
p246
I1
sVhs
p247
V44
p248
sVr
V60
p249
sV100s
p250
I0
sV50s
p251
I0
ssg62
I2013
stp252
a(Vpak-sa-2013
(dp253
g24
(dp254
Vinns
p255
I1
sVc
I0
sVro
p256
I1
sVm
I6
sVs
I0
ssg28
(dp257
Vinns
p258
I8
sV10w
p259
I0
sVnb
p260
I1
sVmaid
p261
I21
sVwb
p262
I4
sVbbmw
p263
I5
sV6s
p264
I0
sVbbmr
p265
I25
sVbbir
p266
I25
sVbbiw
p267
I5
sVa
V14.31
p268
sVb
I572
sVe
V2.85
p269
sVd
I421
sVwmaid
p270
I3
sV4w
p271
I0
sVm
I6
sV4s
p272
I22
sVr
I272
sVw
I19
sVsr
p273
V30.10
p274
sVov
p275
V95.33
p276
sV5w
p277
I1
ssg50
(dp278
Va
V7.75
p279
sVb
I124
sVinns
p280
I4
sVno
p281
I0
sVsr
p282
V25.00
p283
sVm
I6
sV4s
p284
I2
sV6s
p285
I1
sVhs
p286
V15
p287
sVr
V31
p288
sV100s
p289
I0
sV50s
p290
I0
ssg62
I2013
stp291
a(Vipl2013
(dp292
g24
(dp293
Vinns
p294
I4
sVc
I3
sVro
p295
I1
sVm
I17
sVs
I0
ssg28
(dp296
Vinns
p297
I17
sV10w
p298
I0
sVnb
p299
I0
sVmaid
p300
I3
sVwb
p301
I12
sVbbmw
p302
I3
sV6s
p303
I6
sVbbmr
p304
I11
sVbbir
p305
I11
sVbbiw
p306
I3
sVa
V20.21
p307
sVb
I407
sVe
V5.66
p308
sVd
I211
sVwmaid
p309
I2
sV4w
p310
I0
sVm
I17
sV4s
p311
I40
sVr
I384
sVw
I19
sVsr
p312
V21.42
p313
sVov
p314
V67.83
p315
sV5w
p316
I0
ssg50
(dp317
Va
V26.50
p318
sVb
I36
sVinns
p319
I8
sVno
p320
I6
sVsr
p321
V147.22
p322
sVm
I17
sV4s
p323
I5
sV6s
p324
I2
sVhs
p325
V18*
p326
sVr
V53
p327
sV100s
p328
I0
sV50s
p329
I0
ssg62
I2013
stp330
a(Vsa-pak-2013
(dp331
g24
(dp332
Vinns
p333
I2
sVc
I2
sVro
p334
I1
sVm
I6
sVs
I0
ssg28
(dp335
Vinns
p336
I9
sV10w
p337
I1
sVnb
p338
I0
sVmaid
p339
I43
sVwb
p340
I4
sVbbmw
p341
I10
sV6s
p342
I1
sVbbmr
p343
I60
sVbbir
p344
I8
sVbbiw
p345
I6
sVa
V17.19
p346
sVb
I866
sVe
V2.50
p347
sVd
I672
sVwmaid
p348
I5
sV4w
p349
I2
sVm
I6
sV4s
p350
I42
sVr
I361
sVw
I21
sVsr
p351
V41.23
p352
sVov
p353
V144.33
p354
sV5w
p355
I1
ssg50
(dp356
Va
V12.00
p357
sVb
I52
sVinns
p358
I5
sVno
p359
I2
sVsr
p360
V69.23
p361
sVm
I6
sV4s
p362
I5
sV6s
p363
I1
sVhs
p364
V12*
p365
sVr
V36
p366
sV100s
p367
I0
sV50s
p368
I0
ssg62
I2013
stp369
a(Vchamptrophy-2013
p370
(dp371
g24
(dp372
Vinns
p373
I1
sVc
I1
sVro
p374
I0
sVm
I1
sVs
I0
ssg28
(dp375
Vinns
p376
I1
sV10w
p377
I0
sVnb
p378
I0
sVmaid
p379
I0
sVwb
p380
I1
sVbbmw
p381
I2
sV6s
p382
I0
sVbbmr
p383
I33
sVbbir
p384
I33
sVbbiw
p385
I2
sVa
V16.50
p386
sVb
I36
sVe
V5.50
p387
sVd
I23
sVwmaid
p388
I0
sV4w
p389
I0
sVm
I1
sV4s
p390
I6
sVr
I33
sVw
I2
sVsr
p391
V18.00
p392
sVov
p393
V6.00
p394
sV5w
p395
I0
ssg50
(dp396
Va
V-
sVinns
p397
I0
sVno
p398
I0
sVsr
p399
V-
sVm
I1
sV4s
p400
I0
sV6s
p401
I0
sVhs
p402
V0*
p403
sVr
V0
sV100s
p404
I0
sV50s
p405
I0
ssg62
I2013
stp406
a(Vipl2012
(dp407
g24
(dp408
Vinns
p409
I3
sVc
I4
sVro
p410
I0
sVm
I12
sVs
I0
ssg28
(dp411
Vinns
p412
I12
sV10w
p413
I0
sVnb
p414
I1
sVmaid
p415
I2
sVwb
p416
I8
sVbbmw
p417
I3
sV6s
p418
I2
sVbbmr
p419
I8
sVbbir
p420
I8
sVbbiw
p421
I3
sVa
V15.83
p422
sVb
I280
sVe
V6.10
p423
sVd
I138
sVwmaid
p424
I1
sV4w
p425
I0
sVm
I12
sV4s
p426
I35
sVr
I285
sVw
I18
sVsr
p427
V15.55
p428
sVov
p429
V46.66
p430
sV5w
p431
I0
ssg50
(dp432
Va
V3.80
p433
sVb
I21
sVinns
p434
I6
sVno
p435
I1
sVsr
p436
V90.47
p437
sVm
I12
sV4s
p438
I0
sV6s
p439
I1
sVhs
p440
V7
sVr
V19
p441
sV100s
p442
I0
sV50s
p443
I0
ssg62
I2012
stp444
a(Vaus-sa-2012
(dp445
g24
(dp446
Vinns
p447
I3
sVc
I3
sVro
p448
I1
sVm
I3
sVs
I0
ssg28
(dp449
Vinns
p450
I5
sV10w
p451
I0
sVnb
p452
I2
sVmaid
p453
I22
sVwb
p454
I1
sVbbmw
p455
I7
sV6s
p456
I0
sVbbmr
p457
I112
sVbbir
p458
I40
sVbbiw
p459
I4
sVa
V30.83
p460
sVb
I657
sVe
V3.37
p461
sVd
I485
sVwmaid
p462
I4
sV4w
p463
I1
sVm
I3
sV4s
p464
I53
sVr
I370
sVw
I12
sVsr
p465
V54.75
p466
sVov
p467
V109.50
p468
sV5w
p469
I0
ssg50
(dp470
Va
V5.20
p471
sVb
I113
sVinns
p472
I5
sVno
p473
I0
sVsr
p474
V23.00
p475
sVm
I3
sV4s
p476
I3
sV6s
p477
I0
sVhs
p478
V15
p479
sVr
V26
p480
sV100s
p481
I0
sV50s
p482
I0
ssg62
I2012
stp483
a(Vpre-worldt20-2012
(dp484
g24
(dp485
Vinns
p486
I0
sVc
I0
sVro
p487
I0
sVm
I2
sVs
I0
ssg28
(dp488
Vinns
p489
I2
sV10w
p490
I0
sVnb
p491
I0
sVmaid
p492
I0
sVwb
p493
I1
sVbbmw
p494
I1
sV6s
p495
I1
sVbbmr
p496
I10
sVbbir
p497
I10
sVbbiw
p498
I1
sVa
V11.50
p499
sVb
I30
sVe
V4.60
p500
sVd
I14
sVwmaid
p501
I0
sV4w
p502
I0
sVm
I2
sV4s
p503
I1
sVr
I23
sVw
I2
sVsr
p504
V15.00
p505
sVov
p506
V5.00
p507
sV5w
p508
I0
ssg50
(dp509
Va
V-
sVinns
p510
I0
sVno
p511
I0
sVsr
p512
V-
sVm
I2
sV4s
p513
I0
sV6s
p514
I0
sVhs
p515
V0*
p516
sVr
V0
sV100s
p517
I0
sV50s
p518
I0
ssg62
I2012
stp519
a(Vworldt20-2012
(dp520
g24
(dp521
Vinns
p522
I1
sVc
I1
sVro
p523
I0
sVm
I6
sVs
I0
ssg28
(dp524
Vinns
p525
I6
sV10w
p526
I0
sVnb
p527
I0
sVmaid
p528
I1
sVwb
p529
I5
sVbbmw
p530
I4
sV6s
p531
I0
sVbbmr
p532
I25
sVbbir
p533
I25
sVbbiw
p534
I4
sVa
V10.70
p535
sVb
I126
sVe
V5.09
p536
sVd
I71
sVwmaid
p537
I0
sV4w
p538
I1
sVm
I6
sV4s
p539
I14
sVr
I107
sVw
I10
sVsr
p540
V12.60
p541
sVov
p542
V21.00
p543
sV5w
p544
I0
ssg50
(dp545
Va
V-
sVinns
p546
I1
sVno
p547
I1
sVsr
p548
V-
sVm
I6
sV4s
p549
I0
sV6s
p550
I0
sVhs
p551
V0*
p552
sVr
V0
sV100s
p553
I0
sV50s
p554
I0
ssg62
I2012
stp555
a(Vsa-nz-2012
(dp556
g24
(dp557
Vinns
p558
I4
sVc
I4
sVro
p559
I1
sVm
I5
sVs
I0
ssg28
(dp560
Vinns
p561
I6
sV10w
p562
I0
sVnb
p563
I0
sVmaid
p564
I16
sVwb
p565
I8
sVbbmw
p566
I8
sV6s
p567
I1
sVbbmr
p568
I65
sVbbir
p569
I17
sVbbiw
p570
I5
sVa
V14.60
p571
sVb
I473
sVe
V2.77
p572
sVd
I357
sVwmaid
p573
I5
sV4w
p574
I0
sVm
I5
sV4s
p575
I23
sVr
I219
sVw
I15
sVsr
p576
V31.53
p577
sVov
p578
V78.83
p579
sV5w
p580
I1
ssg50
(dp581
Va
V4.50
p582
sVb
I32
sVinns
p583
I3
sVno
p584
I1
sVsr
p585
V28.12
p586
sVm
I5
sV4s
p587
I0
sV6s
p588
I0
sVhs
p589
V5
sVr
V9
sV100s
p590
I0
sV50s
p591
I0
ssg62
I2012
stp592
a(Vclt20-2011
(dp593
g24
(dp594
Vinns
p595
I0
sVc
I0
sVro
p596
I0
sVm
I3
sVs
I0
ssg28
(dp597
Vinns
p598
I3
sV10w
p599
I0
sVnb
p600
I1
sVmaid
p601
I1
sVwb
p602
I3
sVbbmw
p603
I1
sV6s
p604
I2
sVbbmr
p605
I18
sVbbir
p606
I18
sVbbiw
p607
I1
sVa
V36.50
p608
sVb
I72
sVe
V6.08
p609
sVd
I40
sVwmaid
p610
I0
sV4w
p611
I0
sVm
I3
sV4s
p612
I6
sVr
I73
sVw
I2
sVsr
p613
V36.00
p614
sVov
p615
V12.00
p616
sV5w
p617
I0
ssg50
(dp618
Va
V-
sVinns
p619
I0
sVno
p620
I0
sVsr
p621
V-
sVm
I3
sV4s
p622
I0
sV6s
p623
I0
sVhs
p624
V0*
p625
sVr
V0
sV100s
p626
I0
sV50s
p627
I0
ssg62
I2011
stp628
a(Vipl2011
(dp629
g24
(dp630
Vinns
p631
I1
sVc
I1
sVro
p632
I0
sVm
I12
sVs
I0
ssg28
(dp633
Vinns
p634
I12
sV10w
p635
I0
sVnb
p636
I4
sVmaid
p637
I1
sVwb
p638
I9
sVbbmw
p639
I3
sV6s
p640
I3
sVbbmr
p641
I16
sVbbir
p642
I16
sVbbiw
p643
I3
sVa
V21.35
p644
sVb
I273
sVe
V6.57
p645
sVd
I134
sVwmaid
p646
I1
sV4w
p647
I0
sVm
I12
sV4s
p648
I41
sVr
I299
sVw
I14
sVsr
p649
V19.50
p650
sVov
p651
V45.50
p652
sV5w
p653
I0
ssg50
(dp654
Va
V9.00
p655
sVb
I35
sVinns
p656
I5
sVno
p657
I1
sVsr
p658
V102.85
p659
sVm
I12
sV4s
p660
I3
sV6s
p661
I0
sVhs
p662
V13
p663
sVr
V36
p664
sV100s
p665
I0
sV50s
p666
I0
ssg62
I2011
stp667
a(Vclt20-2010
(dp668
g24
(dp669
Vinns
p670
I3
sVc
I4
sVro
p671
I0
sVm
I5
sVs
I0
ssg28
(dp672
Vinns
p673
I4
sV10w
p674
I0
sVnb
p675
I0
sVmaid
p676
I0
sVwb
p677
I6
sVbbmw
p678
I3
sV6s
p679
I1
sVbbmr
p680
I26
sVbbir
p681
I26
sVbbiw
p682
I3
sVa
V29.50
p683
sVb
I96
sVe
V7.37
p684
sVd
I35
sVwmaid
p685
I0
sV4w
p686
I0
sVm
I5
sV4s
p687
I15
sVr
I118
sVw
I4
sVsr
p688
V24.00
p689
sVov
p690
V16.00
p691
sV5w
p692
I0
ssg50
(dp693
Va
V0.00
p694
sVb
I1
sVinns
p695
I1
sVno
p696
I0
sVsr
p697
V0.00
p698
sVm
I5
sV4s
p699
I0
sV6s
p700
I0
sVhs
p701
V0*
p702
sVr
V0
sV100s
p703
I0
sV50s
p704
I0
ssg62
I2010
stp705
a(Vipl2010
(dp706
g24
(dp707
Vinns
p708
I3
sVc
I1
sVro
p709
I2
sVm
I15
sVs
I0
ssg28
(dp710
Vinns
p711
I15
sV10w
p712
I0
sVnb
p713
I0
sVmaid
p714
I1
sVwb
p715
I28
sVbbmw
p716
I3
sV6s
p717
I6
sVbbmr
p718
I18
sVbbir
p719
I18
sVbbiw
p720
I3
sVa
V27.06
p721
sVb
I354
sVe
V6.88
p722
sVd
I164
sVwmaid
p723
I1
sV4w
p724
I0
sVm
I15
sV4s
p725
I45
sVr
I406
sVw
I15
sVsr
p726
V23.60
p727
sVov
p728
V59.00
p729
sV5w
p730
I0
ssg50
(dp731
Va
V3.25
p732
sVb
I17
sVinns
p733
I4
sVno
p734
I0
sVsr
p735
V76.47
p736
sVm
I15
sV4s
p737
I2
sV6s
p738
I0
sVhs
p739
V8
sVr
V13
p740
sV100s
p741
I0
sV50s
p742
I0
ssg62
I2010
stp743
a(Vclt20-2009
(dp744
g24
(dp745
Vinns
p746
I0
sVc
I0
sVro
p747
I0
sVm
I2
sVs
I0
ssg28
(dp748
Vinns
p749
I2
sV10w
p750
I0
sVnb
p751
I0
sVmaid
p752
I0
sVwb
p753
I7
sVbbmw
p754
I1
sV6s
p755
I0
sVbbmr
p756
I24
sVbbir
p757
I24
sVbbiw
p758
I1
sVa
V28.50
p759
sVb
I48
sVe
V7.12
p760
sVd
I21
sVwmaid
p761
I0
sV4w
p762
I0
sVm
I2
sV4s
p763
I8
sVr
I57
sVw
I2
sVsr
p764
V24.00
p765
sVov
p766
V8.00
p767
sV5w
p768
I0
ssg50
(dp769
Va
V-
sVinns
p770
I0
sVno
p771
I0
sVsr
p772
V-
sVm
I2
sV4s
p773
I0
sV6s
p774
I0
sVhs
p775
V0*
p776
sVr
V0
sV100s
p777
I0
sV50s
p778
I0
ssg62
I2009
stp779
a(Vipl2009
(dp780
g24
(dp781
Vinns
p782
I2
sVc
I2
sVro
p783
I0
sVm
I3
sVs
I0
ssg28
(dp784
Vinns
p785
I3
sV10w
p786
I0
sVnb
p787
I0
sVmaid
p788
I0
sVwb
p789
I5
sVbbmw
p790
I1
sV6s
p791
I3
sVbbmr
p792
I21
sVbbir
p793
I21
sVbbiw
p794
I1
sVa
V31.00
p795
sVb
I54
sVe
V6.88
p796
sVd
I27
sVwmaid
p797
I0
sV4w
p798
I0
sVm
I3
sV4s
p799
I4
sVr
I62
sVw
I2
sVsr
p800
V27.00
p801
sVov
p802
V9.00
p803
sV5w
p804
I0
ssg50
(dp805
Va
V0.00
p806
sVb
I3
sVinns
p807
I2
sVno
p808
I1
sVsr
p809
V0.00
p810
sVm
I3
sV4s
p811
I0
sV6s
p812
I0
sVhs
p813
V0*
p814
sVr
V0
sV100s
p815
I0
sV50s
p816
I0
ssg62
I2009
stp817
a(Vipl2008
(dp818
g24
(dp819
Vinns
p820
I5
sVc
I4
sVro
p821
I1
sVm
I10
sVs
I0
ssg28
(dp822
Vinns
p823
I10
sV10w
p824
I0
sVnb
p825
I2
sVmaid
p826
I1
sVwb
p827
I17
sVbbmw
p828
I3
sV6s
p829
I5
sVbbmr
p830
I27
sVbbir
p831
I27
sVbbiw
p832
I3
sVa
V25.20
p833
sVb
I228
sVe
V6.63
p834
sVd
I116
sVwmaid
p835
I0
sV4w
p836
I0
sVm
I10
sV4s
p837
I30
sVr
I252
sVw
I10
sVsr
p838
V22.80
p839
sVov
p840
V38.00
p841
sV5w
p842
I0
ssg50
(dp843
Va
V2.00
p844
sVb
I5
sVinns
p845
I2
sVno
p846
I1
sVsr
p847
V40.00
p848
sVm
I10
sV4s
p849
I0
sV6s
p850
I0
sVhs
p851
V1*
p852
sVr
V2
sV100s
p853
I0
sV50s
p854
I0
ssg62
I2008
stp855
asb.