(iplayer
Player
p1
(dp2
S'is_batsman'
p3
I00
sS'name'
p4
S'Brendan Taylor'
p5
sS'dob'
p6
S'1986/02/06'
p7
sS'price'
p8
S'850000'
p9
sS'is_allrounder'
p10
I00
sS'is_overseas'
p11
I01
sS'team'
p12
S'SRH'
p13
sS'nationality'
p14
S'Zimbabwean'
p15
sS'is_bowler'
p16
I00
sS'is_keeper'
p17
I01
sS'id'
p18
S'530'
p19
sS'is_uncapped'
p20
I00
sS'tournamentStats'
p21
(lp22
(Vworldt20-2014
(dp23
S'fieldingStats'
p24
(dp25
Vinns
p26
I2
sVc
I2
sVro
p27
I0
sVm
I4
sVs
I0
ssS'bowlingStats'
p28
(dp29
Vinns
p30
I0
sV10w
p31
I0
sVnb
p32
I0
sVmaid
p33
I0
sVwb
p34
I0
sVbbmw
p35
I0
sV6s
p36
I0
sVbbmr
p37
I0
sVbbir
p38
I0
sVbbiw
p39
I0
sVa
V-
sVb
I0
sVe
V-
sVd
I0
sVwmaid
p40
I0
sV4w
p41
I0
sVm
I3
sV4s
p42
I0
sVr
I0
sVw
I0
sVsr
p43
V-
sVov
p44
V-
sV5w
p45
I0
ssS'battingStats'
p46
(dp47
Va
V34.50
p48
sVb
I99
sVinns
p49
I4
sVno
p50
I0
sVsr
p51
V139.39
p52
sVm
I4
sV4s
p53
I12
sV6s
p54
I5
sVhs
p55
V59
p56
sVr
V138
p57
sV100s
p58
I0
sV50s
p59
I1
ssS'year'
p60
I2014
stp61
a(Vzim-pak-2013
(dp62
g24
(dp63
Vinns
p64
I4
sVc
I8
sVro
p65
I0
sVm
I6
sVs
I1
ssg28
(dp66
Vinns
p67
I0
sV10w
p68
I0
sVnb
p69
I0
sVmaid
p70
I0
sVwb
p71
I0
sVbbmw
p72
I0
sV6s
p73
I0
sVbbmr
p74
I0
sVbbir
p75
I0
sVbbiw
p76
I0
sVa
V-
sVb
I0
sVe
V-
sVd
I0
sVwmaid
p77
I0
sV4w
p78
I0
sVm
I6
sV4s
p79
I0
sVr
I0
sVw
I0
sVsr
p80
V-
sVov
p81
V-
sV5w
p82
I0
ssg46
(dp83
Va
V52.20
p84
sVb
I428
sVinns
p85
I7
sVno
p86
I2
sVsr
p87
V60.98
p88
sVm
I6
sV4s
p89
I26
sV6s
p90
I1
sVhs
p91
V79
p92
sVr
V261
p93
sV100s
p94
I0
sV50s
p95
I2
ssg60
I2013
stp96
a(Vzim-ind-2013
(dp97
g24
(dp98
Vinns
p99
I4
sVc
I4
sVro
p100
I1
sVm
I5
sVs
I0
ssg28
(dp101
Vinns
p102
I0
sV10w
p103
I0
sVnb
p104
I0
sVmaid
p105
I0
sVwb
p106
I0
sVbbmw
p107
I0
sV6s
p108
I0
sVbbmr
p109
I0
sVbbir
p110
I0
sVbbiw
p111
I0
sVa
V-
sVb
I0
sVe
V-
sVd
I0
sVwmaid
p112
I0
sV4w
p113
I0
sVm
I5
sV4s
p114
I0
sVr
I0
sVw
I0
sVsr
p115
V-
sVov
p116
V-
sV5w
p117
I0
ssg46
(dp118
Va
V7.00
p119
sVb
I83
sVinns
p120
I5
sVno
p121
I0
sVsr
p122
V42.16
p123
sVm
I5
sV4s
p124
I4
sV6s
p125
I0
sVhs
p126
V23
p127
sVr
V35
p128
sV100s
p129
I0
sV50s
p130
I0
ssg60
I2013
stp131
a(Vwi-zim-2013
(dp132
g24
(dp133
Vinns
p134
I3
sVc
I3
sVro
p135
I0
sVm
I7
sVs
I0
ssg28
(dp136
Vinns
p137
I0
sV10w
p138
I0
sVnb
p139
I0
sVmaid
p140
I0
sVwb
p141
I0
sVbbmw
p142
I0
sV6s
p143
I0
sVbbmr
p144
I0
sVbbir
p145
I0
sVbbiw
p146
I0
sVa
V-
sVb
I0
sVe
V-
sVd
I0
sVwmaid
p147
I0
sV4w
p148
I0
sVm
I7
sV4s
p149
I0
sVr
I0
sVw
I0
sVsr
p150
V-
sVov
p151
V-
sV5w
p152
I0
ssg46
(dp153
Va
V13.66
p154
sVb
I210
sVinns
p155
I9
sVno
p156
I0
sVsr
p157
V58.57
p158
sVm
I7
sV4s
p159
I14
sV6s
p160
I2
sVhs
p161
V39
p162
sVr
V123
p163
sV100s
p164
I0
sV50s
p165
I0
ssg60
I2013
stp166
a(Vzim-ban-2013
p167
(dp168
g24
(dp169
Vinns
p170
I4
sVc
I11
sVro
p171
I0
sVm
I5
sVs
I0
ssg28
(dp172
Vinns
p173
I0
sV10w
p174
I0
sVnb
p175
I0
sVmaid
p176
I0
sVwb
p177
I0
sVbbmw
p178
I0
sV6s
p179
I0
sVbbmr
p180
I0
sVbbir
p181
I0
sVbbiw
p182
I0
sVa
V-
sVb
I0
sVe
V-
sVd
I0
sVwmaid
p183
I0
sV4w
p184
I0
sVm
I5
sV4s
p185
I0
sVr
I0
sVw
I0
sVsr
p186
V-
sVov
p187
V-
sV5w
p188
I0
ssg46
(dp189
Va
V25.40
p190
sVb
I137
sVinns
p191
I5
sVno
p192
I0
sVsr
p193
V92.70
p194
sVm
I5
sV4s
p195
I16
sV6s
p196
I1
sVhs
p197
V40
p198
sVr
V127
p199
sV100s
p200
I0
sV50s
p201
I0
ssg60
I2013
stp202
a(Vworldt20-2012
(dp203
g24
(dp204
Vinns
p205
I2
sVc
I2
sVro
p206
I0
sVm
I4
sVs
I0
ssg28
(dp207
Vinns
p208
I0
sV10w
p209
I0
sVnb
p210
I0
sVmaid
p211
I0
sVwb
p212
I0
sVbbmw
p213
I0
sV6s
p214
I0
sVbbmr
p215
I0
sVbbir
p216
I0
sVbbiw
p217
I0
sVa
V-
sVb
I0
sVe
V-
sVd
I0
sVwmaid
p218
I0
sV4w
p219
I0
sVm
I4
sV4s
p220
I0
sVr
I0
sVw
I0
sVsr
p221
V-
sVov
p222
V-
sV5w
p223
I0
ssg46
(dp224
Va
V7.00
p225
sVb
I36
sVinns
p226
I4
sVno
p227
I0
sVsr
p228
V77.77
p229
sVm
I4
sV4s
p230
I2
sV6s
p231
I0
sVhs
p232
V21
p233
sVr
V28
p234
sV100s
p235
I0
sV50s
p236
I0
ssg60
I2012
stp237
asb.