(iplayer
Player
p1
(dp2
S'is_batsman'
p3
I00
sS'name'
p4
S'Bhuvneshwar Kumar'
p5
sS'dob'
p6
S'1990/12/05'
p7
sS'price'
p8
S'900000'
p9
sS'is_allrounder'
p10
I00
sS'is_overseas'
p11
I00
sS'team'
p12
S'SRH'
p13
sS'nationality'
p14
S'Indian'
p15
sS'is_bowler'
p16
I01
sS'is_keeper'
p17
I00
sS'id'
p18
S'116'
p19
sS'is_uncapped'
p20
I00
sS'tournamentStats'
p21
(lp22
(Vworldt20-2014
(dp23
S'fieldingStats'
p24
(dp25
Vinns
p26
I1
sVc
I1
sVro
p27
I1
sVm
I2
sVs
I0
ssS'bowlingStats'
p28
(dp29
Vinns
p30
I2
sV10w
p31
I0
sVnb
p32
I0
sVmaid
p33
I0
sVwb
p34
I2
sVbbmw
p35
I1
sV6s
p36
I0
sVbbmr
p37
I21
sVbbir
p38
I21
sVbbiw
p39
I1
sVa
V24.00
p40
sVb
I36
sVe
V4.00
p41
sVd
I23
sVwmaid
p42
I0
sV4w
p43
I0
sVm
I2
sV4s
p44
I3
sVr
I24
sVw
I1
sVsr
p45
V36.00
p46
sVov
p47
V6.00
p48
sV5w
p49
I0
ssS'battingStats'
p50
(dp51
Va
V-
sVinns
p52
I0
sVno
p53
I0
sVsr
p54
V-
sVm
I2
sV4s
p55
I0
sV6s
p56
I0
sVhs
p57
V0*
p58
sVr
V0
sV100s
p59
I0
sV50s
p60
I0
ssS'year'
p61
I2014
stp62
a(Vnz-ind-2014
(dp63
g24
(dp64
Vinns
p65
I1
sVc
I1
sVro
p66
I0
sVm
I5
sVs
I0
ssg28
(dp67
Vinns
p68
I5
sV10w
p69
I0
sVnb
p70
I0
sVmaid
p71
I1
sVwb
p72
I6
sVbbmw
p73
I1
sV6s
p74
I6
sVbbmr
p75
I38
sVbbir
p76
I38
sVbbiw
p77
I1
sVa
V59.75
p78
sVb
I264
sVe
V5.43
p79
sVd
I153
sVwmaid
p80
I0
sV4w
p81
I0
sVm
I5
sV4s
p82
I29
sVr
I239
sVw
I4
sVsr
p83
V66.00
p84
sVov
p85
V44.00
p86
sV5w
p87
I0
ssg50
(dp88
Va
V10.25
p89
sVb
I38
sVinns
p90
I4
sVno
p91
I0
sVsr
p92
V107.89
p93
sVm
I5
sV4s
p94
I5
sV6s
p95
I0
sVhs
p96
V20
p97
sVr
V41
p98
sV100s
p99
I0
sV50s
p100
I0
ssg61
I2014
stp101
a(Vasiacup-2014
(dp102
g24
(dp103
Vinns
p104
I1
sVc
I1
sVro
p105
I0
sVm
I4
sVs
I0
ssg28
(dp106
Vinns
p107
I4
sV10w
p108
I0
sVnb
p109
I0
sVmaid
p110
I3
sVwb
p111
I4
sVbbmw
p112
I2
sV6s
p113
I2
sVbbmr
p114
I56
sVbbir
p115
I56
sVbbiw
p116
I2
sVa
V55.66
p117
sVb
I212
sVe
V4.72
p118
sVd
I130
sVwmaid
p119
I0
sV4w
p120
I0
sVm
I4
sV4s
p121
I20
sVr
I167
sVw
I3
sVsr
p122
V70.66
p123
sVov
p124
V35.33
p125
sV5w
p126
I0
ssg50
(dp127
Va
V-
sVinns
p128
I1
sVno
p129
I0
sVsr
p130
V-
sVm
I4
sV4s
p131
I0
sV6s
p132
I0
sVhs
p133
V0*
p134
sVr
V0
sV100s
p135
I0
sV50s
p136
I0
ssg61
I2014
stp137
a(Vind-wi-2013
(dp138
g24
(dp139
Vinns
p140
I3
sVc
I4
sVro
p141
I1
sVm
I5
sVs
I0
ssg28
(dp142
Vinns
p143
I7
sV10w
p144
I0
sVnb
p145
I0
sVmaid
p146
I10
sVwb
p147
I1
sVbbmw
p148
I2
sV6s
p149
I2
sVbbmr
p150
I53
sVbbir
p151
I56
sVbbiw
p152
I2
sVa
V37.66
p153
sVb
I372
sVe
V3.64
p154
sVd
I270
sVwmaid
p155
I0
sV4w
p156
I0
sVm
I5
sV4s
p157
I32
sVr
I226
sVw
I6
sVsr
p158
V62.00
p159
sVov
p160
V62.00
p161
sV5w
p162
I0
ssg50
(dp163
Va
V8.50
p164
sVb
I27
sVinns
p165
I3
sVno
p166
I1
sVsr
p167
V62.96
p168
sVm
I5
sV4s
p169
I3
sV6s
p170
I0
sVhs
p171
V12
p172
sVr
V17
p173
sV100s
p174
I0
sV50s
p175
I0
ssg61
I2013
stp176
a(Vind-aus-2-2013
(dp177
g24
(dp178
Vinns
p179
I2
sVc
I2
sVro
p180
I0
sVm
I6
sVs
I0
ssg28
(dp181
Vinns
p182
I6
sV10w
p183
I0
sVnb
p184
I0
sVmaid
p185
I4
sVwb
p186
I1
sVbbmw
p187
I3
sV6s
p188
I4
sVbbmr
p189
I35
sVbbir
p190
I35
sVbbiw
p191
I3
sVa
V53.80
p192
sVb
I282
sVe
V5.72
p193
sVd
I152
sVwmaid
p194
I0
sV4w
p195
I0
sVm
I6
sV4s
p196
I38
sVr
I269
sVw
I5
sVsr
p197
V56.40
p198
sVov
p199
V47.00
p200
sV5w
p201
I0
ssg50
(dp202
Va
V14.00
p203
sVb
I45
sVinns
p204
I2
sVno
p205
I0
sVsr
p206
V62.22
p207
sVm
I6
sV4s
p208
I2
sV6s
p209
I0
sVhs
p210
V18
p211
sVr
V28
p212
sV100s
p213
I0
sV50s
p214
I0
ssg61
I2013
stp215
a(Vtriseries-wi-2013
(dp216
g24
(dp217
Vinns
p218
I2
sVc
I3
sVro
p219
I0
sVm
I4
sVs
I0
ssg28
(dp220
Vinns
p221
I4
sV10w
p222
I0
sVnb
p223
I0
sVmaid
p224
I7
sVwb
p225
I3
sVbbmw
p226
I4
sV6s
p227
I1
sVbbmr
p228
I8
sVbbir
p229
I8
sVbbiw
p230
I4
sVa
V9.70
p231
sVb
I174
sVe
V3.34
p232
sVd
I127
sVwmaid
p233
I4
sV4w
p234
I1
sVm
I4
sV4s
p235
I12
sVr
I97
sVw
I10
sVsr
p236
V17.40
p237
sVov
p238
V29.00
p239
sV5w
p240
I0
ssg50
(dp241
Va
V11.00
p242
sVb
I20
sVinns
p243
I2
sVno
p244
I1
sVsr
p245
V55.00
p246
sVm
I4
sV4s
p247
I1
sV6s
p248
I1
sVhs
p249
V11*
p250
sVr
V11
p251
sV100s
p252
I0
sV50s
p253
I0
ssg61
I2013
stp254
a(Vind-aus-2013
(dp255
g24
(dp256
Vinns
p257
I2
sVc
I2
sVro
p258
I0
sVm
I4
sVs
I0
ssg28
(dp259
Vinns
p260
I7
sV10w
p261
I0
sVnb
p262
I2
sVmaid
p263
I9
sVwb
p264
I0
sVbbmw
p265
I3
sV6s
p266
I0
sVbbmr
p267
I60
sVbbir
p268
I31
sVbbiw
p269
I3
sVa
V39.83
p270
sVb
I384
sVe
V3.73
p271
sVd
I272
sVwmaid
p272
I1
sV4w
p273
I0
sVm
I4
sV4s
p274
I38
sVr
I239
sVw
I6
sVsr
p275
V64.00
p276
sVov
p277
V64.00
p278
sV5w
p279
I0
ssg50
(dp280
Va
V26.66
p281
sVb
I195
sVinns
p282
I4
sVno
p283
I1
sVsr
p284
V41.02
p285
sVm
I4
sV4s
p286
I10
sV6s
p287
I0
sVhs
p288
V38
p289
sVr
V80
p290
sV100s
p291
I0
sV50s
p292
I0
ssg61
I2013
stp293
a(Vchamptrophy-2013-warmups
(dp294
g24
(dp295
Vinns
p296
I0
sVc
I0
sVro
p297
I0
sVm
I2
sVs
I0
ssg28
(dp298
Vinns
p299
I2
sV10w
p300
I0
sVnb
p301
I0
sVmaid
p302
I1
sVwb
p303
I0
sVbbmw
p304
I1
sV6s
p305
I0
sVbbmr
p306
I58
sVbbir
p307
I58
sVbbiw
p308
I1
sVa
V76.00
p309
sVb
I96
sVe
V4.75
p310
sVd
I56
sVwmaid
p311
I0
sV4w
p312
I0
sVm
I2
sV4s
p313
I10
sVr
I76
sVw
I1
sVsr
p314
V96.00
p315
sVov
p316
V16.00
p317
sV5w
p318
I0
ssg50
(dp319
Va
V-
sVinns
p320
I0
sVno
p321
I0
sVsr
p322
V-
sVm
I2
sV4s
p323
I0
sV6s
p324
I0
sVhs
p325
V0*
p326
sVr
V0
sV100s
p327
I0
sV50s
p328
I0
ssg61
I2013
stp329
a(Vchamptrophy-2013
(dp330
g24
(dp331
Vinns
p332
I2
sVc
I2
sVro
p333
I0
sVm
I5
sVs
I0
ssg28
(dp334
Vinns
p335
I5
sV10w
p336
I0
sVnb
p337
I1
sVmaid
p338
I4
sVwb
p339
I0
sVbbmw
p340
I2
sV6s
p341
I0
sVbbmr
p342
I19
sVbbir
p343
I19
sVbbiw
p344
I2
sVa
V22.83
p345
sVb
I210
sVe
V3.91
p346
sVd
I135
sVwmaid
p347
I1
sV4w
p348
I0
sVm
I5
sV4s
p349
I17
sVr
I137
sVw
I6
sVsr
p350
V35.00
p351
sVov
p352
V35.00
p353
sV5w
p354
I0
ssg50
(dp355
Va
V-
sVb
I1
sVinns
p356
I2
sVno
p357
I2
sVsr
p358
V100.00
p359
sVm
I5
sV4s
p360
I0
sV6s
p361
I0
sVhs
p362
V1*
p363
sVr
V1
sV100s
p364
I0
sV50s
p365
I0
ssg61
I2013
stp366
a(Vipl2013
(dp367
g24
(dp368
Vinns
p369
I2
sVc
I2
sVro
p370
I0
sVm
I16
sVs
I0
ssg28
(dp371
Vinns
p372
I16
sV10w
p373
I0
sVnb
p374
I1
sVmaid
p375
I2
sVwb
p376
I16
sVbbmw
p377
I3
sV6s
p378
I5
sVbbmr
p379
I18
sVbbir
p380
I18
sVbbiw
p381
I3
sVa
V28.53
p382
sVb
I342
sVe
V6.50
p383
sVd
I167
sVwmaid
p384
I1
sV4w
p385
I0
sVm
I16
sV4s
p386
I45
sVr
I371
sVw
I13
sVsr
p387
V26.30
p388
sVov
p389
V57.00
p390
sV5w
p391
I0
ssg50
(dp392
Va
V7.42
p393
sVb
I71
sVinns
p394
I9
sVno
p395
I2
sVsr
p396
V73.23
p397
sVm
I16
sV4s
p398
I3
sV6s
p399
I1
sVhs
p400
V24*
p401
sVr
V52
p402
sV100s
p403
I0
sV50s
p404
I0
ssg61
I2013
stp405
a(Vsa-ind-2013
p406
(dp407
g24
(dp408
Vinns
p409
I0
sVc
I0
sVro
p410
I0
sVm
I1
sVs
I0
ssg28
(dp411
Vinns
p412
I1
sV10w
p413
I0
sVnb
p414
I0
sVmaid
p415
I0
sVwb
p416
I2
sVbbmw
p417
I0
sV6s
p418
I4
sVbbmr
p419
I68
sVbbir
p420
I68
sVbbiw
p421
I0
sVa
V-
sVb
I54
sVe
V7.55
p422
sVd
I27
sVwmaid
p423
I0
sV4w
p424
I0
sVm
I1
sV4s
p425
I6
sVr
I68
sVw
I0
sVsr
p426
V-
sVov
p427
V9.00
p428
sV5w
p429
I0
ssg50
(dp430
Va
V0.00
p431
sVb
I4
sVinns
p432
I1
sVno
p433
I0
sVsr
p434
V0.00
p435
sVm
I1
sV4s
p436
I0
sV6s
p437
I0
sVhs
p438
V0*
p439
sVr
V0
sV100s
p440
I0
sV50s
p441
I0
ssg61
I2013
stp442
a(Vipl2012
(dp443
g24
(dp444
Vinns
p445
I0
sVc
I0
sVro
p446
I0
sVm
I11
sVs
I0
ssg28
(dp447
Vinns
p448
I11
sV10w
p449
I0
sVnb
p450
I1
sVmaid
p451
I0
sVwb
p452
I5
sVbbmw
p453
I2
sV6s
p454
I9
sVbbmr
p455
I9
sVbbir
p456
I9
sVbbiw
p457
I2
sVa
V35.12
p458
sVb
I234
sVe
V7.20
p459
sVd
I86
sVwmaid
p460
I0
sV4w
p461
I0
sVm
I11
sV4s
p462
I23
sVr
I281
sVw
I8
sVsr
p463
V29.25
p464
sVov
p465
V39.00
p466
sV5w
p467
I0
ssg50
(dp468
Va
V13.33
p469
sVb
I40
sVinns
p470
I9
sVno
p471
I6
sVsr
p472
V100.00
p473
sVm
I11
sV4s
p474
I4
sV6s
p475
I0
sVhs
p476
V11*
p477
sVr
V40
p478
sV100s
p479
I0
sV50s
p480
I0
ssg61
I2012
stp481
a(Vind-pak-2012-13
(dp482
g24
(dp483
Vinns
p484
I1
sVc
I1
sVro
p485
I0
sVm
I5
sVs
I0
ssg28
(dp486
Vinns
p487
I5
sV10w
p488
I0
sVnb
p489
I0
sVmaid
p490
I5
sVwb
p491
I6
sVbbmw
p492
I3
sV6s
p493
I2
sVbbmr
p494
I9
sVbbir
p495
I9
sVbbiw
p496
I3
sVa
V19.33
p497
sVb
I216
sVe
V4.83
p498
sVd
I131
sVwmaid
p499
I3
sV4w
p500
I0
sVm
I5
sV4s
p501
I20
sVr
I174
sVw
I9
sVsr
p502
V24.00
p503
sVov
p504
V36.00
p505
sV5w
p506
I0
ssg50
(dp507
Va
V4.00
p508
sVb
I18
sVinns
p509
I3
sVno
p510
I1
sVsr
p511
V44.44
p512
sVm
I5
sV4s
p513
I0
sV6s
p514
I0
sVhs
p515
V6*
p516
sVr
V8
sV100s
p517
I0
sV50s
p518
I0
ssg61
I2012
stp519
a(Vind-eng-2012-13
(dp520
g24
(dp521
Vinns
p522
I1
sVc
I1
sVro
p523
I0
sVm
I5
sVs
I0
ssg28
(dp524
Vinns
p525
I5
sV10w
p526
I0
sVnb
p527
I0
sVmaid
p528
I6
sVwb
p529
I10
sVbbmw
p530
I3
sV6s
p531
I1
sVbbmr
p532
I29
sVbbir
p533
I29
sVbbiw
p534
I3
sVa
V49.00
p535
sVb
I275
sVe
V4.27
p536
sVd
I182
sVwmaid
p537
I2
sV4w
p538
I0
sVm
I5
sV4s
p539
I28
sVr
I196
sVw
I4
sVsr
p540
V68.75
p541
sVov
p542
V45.83
p543
sV5w
p544
I0
ssg50
(dp545
Va
V51.00
p546
sVb
I46
sVinns
p547
I2
sVno
p548
I1
sVsr
p549
V110.86
p550
sVm
I5
sV4s
p551
I7
sV6s
p552
I0
sVhs
p553
V31
p554
sVr
V51
p555
sV100s
p556
I0
sV50s
p557
I0
ssg61
I2012
stp558
a(Vipl2011
(dp559
g24
(dp560
Vinns
p561
I2
sVc
I2
sVro
p562
I0
sVm
I4
sVs
I0
ssg28
(dp563
Vinns
p564
I4
sV10w
p565
I0
sVnb
p566
I1
sVmaid
p567
I0
sVwb
p568
I0
sVbbmw
p569
I2
sV6s
p570
I1
sVbbmr
p571
I14
sVbbir
p572
I14
sVbbiw
p573
I2
sVa
V22.33
p574
sVb
I66
sVe
V6.09
p575
sVd
I28
sVwmaid
p576
I0
sV4w
p577
I0
sVm
I4
sV4s
p578
I7
sVr
I67
sVw
I3
sVsr
p579
V22.00
p580
sVov
p581
V11.00
p582
sV5w
p583
I0
ssg50
(dp584
Va
V-
sVb
I1
sVinns
p585
I1
sVno
p586
I1
sVsr
p587
V100.00
p588
sVm
I4
sV4s
p589
I0
sV6s
p590
I0
sVhs
p591
V1*
p592
sVr
V1
sV100s
p593
I0
sV50s
p594
I0
ssg61
I2011
stp595
a(Vclt20-2009
(dp596
g24
(dp597
Vinns
p598
I1
sVc
I1
sVro
p599
I0
sVm
I1
sVs
I0
ssg28
(dp600
Vinns
p601
I1
sV10w
p602
I0
sVnb
p603
I0
sVmaid
p604
I0
sVwb
p605
I0
sVbbmw
p606
I0
sV6s
p607
I1
sVbbmr
p608
I31
sVbbir
p609
I31
sVbbiw
p610
I0
sVa
V-
sVb
I24
sVe
V7.75
p611
sVd
I6
sVwmaid
p612
I0
sV4w
p613
I0
sVm
I1
sV4s
p614
I2
sVr
I31
sVw
I0
sVsr
p615
V-
sVov
p616
V4.00
p617
sV5w
p618
I0
ssg50
(dp619
Va
V-
sVinns
p620
I0
sVno
p621
I0
sVsr
p622
V-
sVm
I1
sV4s
p623
I0
sV6s
p624
I0
sVhs
p625
V0*
p626
sVr
V0
sV100s
p627
I0
sV50s
p628
I0
ssg61
I2009
stp629
asb.