(iplayer
Player
p1
(dp2
S'is_batsman'
p3
I00
sS'name'
p4
S'Jacques Kallis'
p5
sS'dob'
p6
S'1975/10/16'
p7
sS'price'
p8
S'1050000'
p9
sS'is_allrounder'
p10
I01
sS'is_overseas'
p11
I01
sS'team'
p12
S'KKR'
p13
sS'nationality'
p14
S'South African'
p15
sS'is_bowler'
p16
I00
sS'is_keeper'
p17
I00
sS'id'
p18
S'198'
p19
sS'is_uncapped'
p20
I00
sS'tournamentStats'
p21
(lp22
(Vsa-ind-2013
(dp23
S'fieldingStats'
p24
(dp25
Vinns
p26
I2
sVc
I2
sVro
p27
I0
sVm
I2
sVs
I0
ssS'bowlingStats'
p28
(dp29
Vinns
p30
I3
sV10w
p31
I0
sVnb
p32
I0
sVmaid
p33
I10
sVwb
p34
I2
sVbbmw
p35
I4
sV6s
p36
I0
sVbbmr
p37
I105
sVbbir
p38
I68
sVbbiw
p39
I3
sVa
V35.25
p40
sVb
I270
sVe
V3.13
p41
sVd
I201
sVwmaid
p42
I1
sV4w
p43
I0
sVm
I2
sV4s
p44
I20
sVr
I141
sVw
I4
sVsr
p45
V67.50
p46
sVov
p47
V45.00
p48
sV5w
p49
I0
ssS'battingStats'
p50
(dp51
Va
V49.66
p52
sVb
I354
sVinns
p53
I3
sVno
p54
I0
sVsr
p55
V42.09
p56
sVm
I2
sV4s
p57
I19
sV6s
p58
I0
sVhs
p59
V115
p60
sVr
V149
p61
sV100s
p62
I1
sV50s
p63
I0
ssS'year'
p64
I2013
stp65
a(Vsa-pak-2013
(dp66
g24
(dp67
Vinns
p68
I1
sVc
I1
sVro
p69
I0
sVm
I2
sVs
I0
ssg28
(dp70
Vinns
p71
I4
sV10w
p72
I0
sVnb
p73
I0
sVmaid
p74
I11
sVwb
p75
I1
sVbbmw
p76
I3
sV6s
p77
I0
sVbbmr
p78
I46
sVbbir
p79
I11
sVbbiw
p80
I2
sVa
V35.33
p81
sVb
I278
sVe
V2.28
p82
sVd
I224
sVwmaid
p83
I0
sV4w
p84
I0
sVm
I2
sV4s
p85
I12
sVr
I106
sVw
I3
sVsr
p86
V92.66
p87
sVov
p88
V46.33
p89
sV5w
p90
I0
ssg50
(dp91
Va
V40.00
p92
sVb
I140
sVinns
p93
I4
sVno
p94
I2
sVsr
p95
V57.14
p96
sVm
I2
sV4s
p97
I13
sV6s
p98
I0
sVhs
p99
V50
p100
sVr
V80
p101
sV100s
p102
I0
sV50s
p103
I1
ssg64
I2013
stp104
a(Vpak-sa-2013
(dp105
g24
(dp106
Vinns
p107
I3
sVc
I4
sVro
p108
I0
sVm
I2
sVs
I0
ssg28
(dp109
Vinns
p110
I2
sV10w
p111
I0
sVnb
p112
I0
sVmaid
p113
I5
sVwb
p114
I0
sVbbmw
p115
I0
sV6s
p116
I0
sVbbmr
p117
I0
sVbbir
p118
I0
sVbbiw
p119
I0
sVa
V-
sVb
I120
sVe
V2.65
p120
sVd
I95
sVwmaid
p121
I0
sV4w
p122
I0
sVm
I2
sV4s
p123
I6
sVr
I53
sVw
I0
sVsr
p124
V-
sVov
p125
V20.00
p126
sV5w
p127
I0
ssg50
(dp128
Va
V4.00
p129
sVb
I63
sVinns
p130
I3
sVno
p131
I0
sVsr
p132
V19.04
p133
sVm
I2
sV4s
p134
I0
sV6s
p135
I0
sVhs
p136
V7
sVr
V12
p137
sV100s
p138
I0
sV50s
p139
I0
ssg64
I2013
stp140
a(Vipl2013
(dp141
g24
(dp142
Vinns
p143
I5
sVc
I3
sVro
p144
I2
sVm
I16
sVs
I0
ssg28
(dp145
Vinns
p146
I15
sV10w
p147
I0
sVnb
p148
I4
sVmaid
p149
I1
sVwb
p150
I7
sVbbmw
p151
I3
sV6s
p152
I12
sVbbmr
p153
I13
sVbbir
p154
I13
sVbbiw
p155
I3
sVa
V24.62
p156
sVb
I318
sVe
V7.43
p157
sVd
I112
sVwmaid
p158
I0
sV4w
p159
I0
sVm
I16
sV4s
p160
I36
sVr
I394
sVw
I16
sVsr
p161
V19.87
p162
sVov
p163
V53.00
p164
sV5w
p165
I0
ssg50
(dp166
Va
V20.73
p167
sVb
I322
sVinns
p168
I16
sVno
p169
I1
sVsr
p170
V96.58
p171
sVm
I16
sV4s
p172
I35
sV6s
p173
I3
sVhs
p174
V41
p175
sVr
V311
p176
sV100s
p177
I0
sV50s
p178
I0
ssg64
I2013
stp179
a(Vsa-pak-2-2013
(dp180
g24
(dp181
Vinns
p182
I2
sVc
I2
sVro
p183
I0
sVm
I2
sVs
I0
ssg28
(dp184
Vinns
p185
I2
sV10w
p186
I0
sVnb
p187
I0
sVmaid
p188
I0
sVwb
p189
I1
sVbbmw
p190
I2
sV6s
p191
I3
sVbbmr
p192
I53
sVbbir
p193
I53
sVbbiw
p194
I2
sVa
V51.00
p195
sVb
I96
sVe
V6.37
p196
sVd
I46
sVwmaid
p197
I0
sV4w
p198
I0
sVm
I2
sV4s
p199
I8
sVr
I102
sVw
I2
sVsr
p200
V48.00
p201
sVov
p202
V16.00
p203
sV5w
p204
I0
ssg50
(dp205
Va
V28.00
p206
sVb
I83
sVinns
p207
I2
sVno
p208
I0
sVsr
p209
V67.46
p210
sVm
I2
sV4s
p211
I5
sV6s
p212
I1
sVhs
p213
V50
p214
sVr
V56
p215
sV100s
p216
I0
sV50s
p217
I1
ssg64
I2013
stp218
a(Vipl2012
(dp219
g24
(dp220
Vinns
p221
I3
sVc
I2
sVro
p222
I1
sVm
I17
sVs
I0
ssg28
(dp223
Vinns
p224
I16
sV10w
p225
I0
sVnb
p226
I2
sVmaid
p227
I0
sVwb
p228
I10
sVbbmw
p229
I2
sV6s
p230
I6
sVbbmr
p231
I7
sVbbir
p232
I7
sVbbiw
p233
I2
sVa
V26.86
p234
sVb
I324
sVe
V7.46
p235
sVd
I112
sVwmaid
p236
I0
sV4w
p237
I0
sVm
I17
sV4s
p238
I46
sVr
I403
sVw
I15
sVsr
p239
V21.60
p240
sVov
p241
V54.00
p242
sV5w
p243
I0
ssg50
(dp244
Va
V25.56
p245
sVb
I384
sVinns
p246
I17
sVno
p247
I1
sVsr
p248
V106.51
p249
sVm
I17
sV4s
p250
I34
sV6s
p251
I10
sVhs
p252
V79
p253
sVr
V409
p254
sV100s
p255
I0
sV50s
p256
I2
ssg64
I2012
stp257
a(Vaus-sa-2012
(dp258
g24
(dp259
Vinns
p260
I4
sVc
I5
sVro
p261
I0
sVm
I3
sVs
I0
ssg28
(dp262
Vinns
p263
I2
sV10w
p264
I0
sVnb
p265
I0
sVmaid
p266
I4
sVwb
p267
I0
sVbbmw
p268
I2
sV6s
p269
I0
sVbbmr
p270
I19
sVbbir
p271
I19
sVbbiw
p272
I2
sVa
V24.50
p273
sVb
I93
sVe
V3.16
p274
sVd
I65
sVwmaid
p275
I1
sV4w
p276
I0
sVm
I3
sV4s
p277
I4
sVr
I49
sVw
I2
sVsr
p278
V46.50
p279
sVov
p280
V15.50
p281
sV5w
p282
I0
ssg50
(dp283
Va
V56.50
p284
sVb
I640
sVinns
p285
I6
sVno
p286
I0
sVsr
p287
V52.96
p288
sVm
I3
sV4s
p289
I40
sV6s
p290
I3
sVhs
p291
V147
p292
sVr
V339
p293
sV100s
p294
I1
sV50s
p295
I1
ssg64
I2012
stp296
a(Vclt20-2012
(dp297
g24
(dp298
Vinns
p299
I0
sVc
I0
sVro
p300
I0
sVm
I4
sVs
I0
ssg28
(dp301
Vinns
p302
I4
sV10w
p303
I0
sVnb
p304
I0
sVmaid
p305
I0
sVwb
p306
I1
sVbbmw
p307
I1
sV6s
p308
I2
sVbbmr
p309
I24
sVbbir
p310
I24
sVbbiw
p311
I1
sVa
V30.33
p312
sVb
I78
sVe
V7.00
p313
sVd
I30
sVwmaid
p314
I0
sV4w
p315
I0
sVm
I4
sV4s
p316
I9
sVr
I91
sVw
I3
sVsr
p317
V26.00
p318
sVov
p319
V13.00
p320
sV5w
p321
I0
ssg50
(dp322
Va
V9.00
p323
sVb
I24
sVinns
p324
I3
sVno
p325
I1
sVsr
p326
V75.00
p327
sVm
I4
sV4s
p328
I1
sV6s
p329
I0
sVhs
p330
V18
p331
sVr
V18
p332
sV100s
p333
I0
sV50s
p334
I0
ssg64
I2012
stp335
a(Vpre-worldt20-2012
(dp336
g24
(dp337
Vinns
p338
I1
sVc
I1
sVro
p339
I1
sVm
I3
sVs
I0
ssg28
(dp340
Vinns
p341
I2
sV10w
p342
I0
sVnb
p343
I0
sVmaid
p344
I0
sVwb
p345
I0
sVbbmw
p346
I0
sV6s
p347
I1
sVbbmr
p348
I0
sVbbir
p349
I0
sVbbiw
p350
I0
sVa
V-
sVb
I24
sVe
V7.75
p351
sVd
I6
sVwmaid
p352
I0
sV4w
p353
I0
sVm
I3
sV4s
p354
I1
sVr
I31
sVw
I0
sVsr
p355
V-
sVov
p356
V4.00
p357
sV5w
p358
I0
ssg50
(dp359
Va
V-
sVb
I56
sVinns
p360
I3
sVno
p361
I3
sVsr
p362
V123.21
p363
sVm
I3
sV4s
p364
I9
sV6s
p365
I0
sVhs
p366
V48*
p367
sVr
V69
p368
sV100s
p369
I0
sV50s
p370
I0
ssg64
I2012
stp371
a(Vworldt20-2012
(dp372
g24
(dp373
Vinns
p374
I0
sVc
I0
sVro
p375
I0
sVm
I6
sVs
I0
ssg28
(dp376
Vinns
p377
I5
sV10w
p378
I0
sVnb
p379
I0
sVmaid
p380
I1
sVwb
p381
I2
sVbbmw
p382
I4
sV6s
p383
I2
sVbbmr
p384
I15
sVbbir
p385
I15
sVbbiw
p386
I4
sVa
V10.42
p387
sVb
I66
sVe
V6.63
p388
sVd
I26
sVwmaid
p389
I1
sV4w
p390
I1
sVm
I6
sV4s
p391
I6
sVr
I73
sVw
I7
sVsr
p392
V9.42
p393
sVov
p394
V11.00
p395
sV5w
p396
I0
ssg50
(dp397
Va
V8.00
p398
sVb
I33
sVinns
p399
I3
sVno
p400
I0
sVsr
p401
V72.72
p402
sVm
I6
sV4s
p403
I2
sV6s
p404
I1
sVhs
p405
V12
p406
sVr
V24
p407
sV100s
p408
I0
sV50s
p409
I0
ssg64
I2012
stp410
a(Vsa-nz-2012
(dp411
g24
(dp412
Vinns
p413
I1
sVc
I1
sVro
p414
I0
sVm
I2
sVs
I0
ssg28
(dp415
Vinns
p416
I3
sV10w
p417
I0
sVnb
p418
I0
sVmaid
p419
I7
sVwb
p420
I1
sVbbmw
p421
I2
sV6s
p422
I0
sVbbmr
p423
I31
sVbbir
p424
I31
sVbbiw
p425
I2
sVa
V16.33
p426
sVb
I127
sVe
V2.31
p427
sVd
I108
sVwmaid
p428
I0
sV4w
p429
I0
sVm
I2
sV4s
p430
I8
sVr
I49
sVw
I3
sVsr
p431
V42.33
p432
sVov
p433
V21.16
p434
sV5w
p435
I0
ssg50
(dp436
Va
V34.00
p437
sVb
I100
sVinns
p438
I2
sVno
p439
I0
sVsr
p440
V68.00
p441
sVm
I2
sV4s
p442
I7
sV6s
p443
I2
sVhs
p444
V60
p445
sVr
V68
p446
sV100s
p447
I0
sV50s
p448
I1
ssg64
I2012
stp449
a(Vipl2011
(dp450
g24
(dp451
Vinns
p452
I6
sVc
I9
sVro
p453
I0
sVm
I15
sVs
I0
ssg28
(dp454
Vinns
p455
I9
sV10w
p456
I0
sVnb
p457
I0
sVmaid
p458
I0
sVwb
p459
I6
sVbbmw
p460
I2
sV6s
p461
I2
sVbbmr
p462
I16
sVbbir
p463
I16
sVbbiw
p464
I2
sVa
V24.28
p465
sVb
I144
sVe
V7.08
p466
sVd
I54
sVwmaid
p467
I0
sV4w
p468
I0
sVm
I15
sV4s
p469
I17
sVr
I170
sVw
I7
sVsr
p470
V20.57
p471
sVov
p472
V24.00
p473
sV5w
p474
I0
ssg50
(dp475
Va
V35.33
p476
sVb
I378
sVinns
p477
I14
sVno
p478
I2
sVsr
p479
V112.16
p480
sVm
I15
sV4s
p481
I46
sV6s
p482
I6
sVhs
p483
V80*
p484
sVr
V424
p485
sV100s
p486
I0
sV50s
p487
I4
ssg64
I2011
stp488
a(Vclt20-2011
p489
(dp490
g24
(dp491
Vinns
p492
I3
sVc
I3
sVro
p493
I0
sVm
I6
sVs
I0
ssg28
(dp494
Vinns
p495
I5
sV10w
p496
I0
sVnb
p497
I0
sVmaid
p498
I0
sVwb
p499
I3
sVbbmw
p500
I1
sV6s
p501
I5
sVbbmr
p502
I11
sVbbir
p503
I11
sVbbiw
p504
I1
sVa
V32.66
p505
sVb
I72
sVe
V8.16
p506
sVd
I26
sVwmaid
p507
I0
sV4w
p508
I0
sVm
I6
sV4s
p509
I6
sVr
I98
sVw
I3
sVsr
p510
V24.00
p511
sVov
p512
V12.00
p513
sV5w
p514
I0
ssg50
(dp515
Va
V74.33
p516
sVb
I185
sVinns
p517
I6
sVno
p518
I3
sVsr
p519
V120.54
p520
sVm
I6
sV4s
p521
I17
sV6s
p522
I6
sVhs
p523
V74*
p524
sVr
V223
p525
sV100s
p526
I0
sV50s
p527
I2
ssg64
I2011
stp528
a(Vclt20-2010
(dp529
g24
(dp530
Vinns
p531
I0
sVc
I0
sVro
p532
I0
sVm
I2
sVs
I0
ssg28
(dp533
Vinns
p534
I2
sV10w
p535
I0
sVnb
p536
I0
sVmaid
p537
I1
sVwb
p538
I1
sVbbmw
p539
I3
sV6s
p540
I2
sVbbmr
p541
I16
sVbbir
p542
I16
sVbbiw
p543
I3
sVa
V13.75
p544
sVb
I48
sVe
V6.87
p545
sVd
I21
sVwmaid
p546
I1
sV4w
p547
I0
sVm
I2
sV4s
p548
I5
sVr
I55
sVw
I4
sVsr
p549
V12.00
p550
sVov
p551
V8.00
p552
sV5w
p553
I0
ssg50
(dp554
Va
V58.00
p555
sVb
I46
sVinns
p556
I2
sVno
p557
I1
sVsr
p558
V126.08
p559
sVm
I2
sV4s
p560
I7
sV6s
p561
I1
sVhs
p562
V43*
p563
sVr
V58
p564
sV100s
p565
I0
sV50s
p566
I0
ssg64
I2010
stp567
a(Vipl2010
(dp568
g24
(dp569
Vinns
p570
I7
sVc
I7
sVro
p571
I1
sVm
I16
sVs
I0
ssg28
(dp572
Vinns
p573
I16
sV10w
p574
I0
sVnb
p575
I1
sVmaid
p576
I1
sVwb
p577
I7
sVbbmw
p578
I2
sV6s
p579
I16
sVbbmr
p580
I3
sVbbir
p581
I3
sVbbiw
p582
I2
sVa
V36.61
p583
sVb
I342
sVe
V8.35
p584
sVd
I118
sVwmaid
p585
I1
sV4w
p586
I0
sVm
I16
sV4s
p587
I47
sVr
I476
sVw
I13
sVsr
p588
V26.30
p589
sVov
p590
V57.00
p591
sV5w
p592
I0
ssg50
(dp593
Va
V47.66
p594
sVb
I494
sVinns
p595
I16
sVno
p596
I4
sVsr
p597
V115.78
p598
sVm
I16
sV4s
p599
I67
sV6s
p600
I9
sVhs
p601
V89*
p602
sVr
V572
p603
sV100s
p604
I0
sV50s
p605
I6
ssg64
I2010
stp606
a(Vipl2009
(dp607
g24
(dp608
Vinns
p609
I4
sVc
I5
sVro
p610
I0
sVm
I15
sVs
I0
ssg28
(dp611
Vinns
p612
I14
sV10w
p613
I0
sVnb
p614
I2
sVmaid
p615
I1
sVwb
p616
I11
sVbbmw
p617
I2
sV6s
p618
I8
sVbbmr
p619
I18
sVbbir
p620
I18
sVbbiw
p621
I2
sVa
V58.83
p622
sVb
I276
sVe
V7.67
p623
sVd
I111
sVwmaid
p624
I1
sV4w
p625
I0
sVm
I15
sV4s
p626
I40
sVr
I353
sVw
I6
sVsr
p627
V46.00
p628
sVov
p629
V46.00
p630
sV5w
p631
I0
ssg50
(dp632
Va
V27.76
p633
sVb
I332
sVinns
p634
I15
sVno
p635
I2
sVsr
p636
V108.73
p637
sVm
I15
sV4s
p638
I37
sV6s
p639
I8
sVhs
p640
V69*
p641
sVr
V361
p642
sV100s
p643
I0
sV50s
p644
I3
ssg64
I2009
stp645
a(Vclt20-2009
(dp646
g24
(dp647
Vinns
p648
I1
sVc
I1
sVro
p649
I0
sVm
I2
sVs
I0
ssg28
(dp650
Vinns
p651
I2
sV10w
p652
I0
sVnb
p653
I0
sVmaid
p654
I1
sVwb
p655
I0
sVbbmw
p656
I3
sV6s
p657
I2
sVbbmr
p658
I18
sVbbir
p659
I18
sVbbiw
p660
I3
sVa
V12.00
p661
sVb
I36
sVe
V6.00
p662
sVd
I21
sVwmaid
p663
I1
sV4w
p664
I0
sVm
I2
sV4s
p665
I4
sVr
I36
sVw
I3
sVsr
p666
V12.00
p667
sVov
p668
V6.00
p669
sV5w
p670
I0
ssg50
(dp671
Va
V81.00
p672
sVb
I68
sVinns
p673
I2
sVno
p674
I1
sVsr
p675
V119.11
p676
sVm
I2
sV4s
p677
I5
sV6s
p678
I2
sVhs
p679
V73*
p680
sVr
V81
p681
sV100s
p682
I0
sV50s
p683
I1
ssg64
I2009
stp684
a(Vipl2008
(dp685
g24
(dp686
Vinns
p687
I3
sVc
I3
sVro
p688
I0
sVm
I11
sVs
I0
ssg28
(dp689
Vinns
p690
I11
sV10w
p691
I0
sVnb
p692
I0
sVmaid
p693
I0
sVwb
p694
I5
sVbbmw
p695
I2
sV6s
p696
I9
sVbbmr
p697
I39
sVbbir
p698
I39
sVbbiw
p699
I2
sVa
V77.75
p700
sVb
I206
sVe
V9.05
p701
sVd
I55
sVwmaid
p702
I0
sV4w
p703
I0
sVm
I11
sV4s
p704
I34
sVr
I311
sVw
I4
sVsr
p705
V51.50
p706
sVov
p707
V34.33
p708
sV5w
p709
I0
ssg50
(dp710
Va
V18.09
p711
sVb
I183
sVinns
p712
I11
sVno
p713
I0
sVsr
p714
V108.74
p715
sVm
I11
sV4s
p716
I23
sV6s
p717
I4
sVhs
p718
V54
p719
sVr
V199
p720
sV100s
p721
I0
sV50s
p722
I1
ssg64
I2008
stp723
asb.