(iplayer
Player
p1
(dp2
S'is_batsman'
p3
I00
sS'name'
p4
S'Kieron Pollard'
p5
sS'dob'
p6
S'1987/05/12'
p7
sS'price'
p8
S'1100000'
p9
sS'is_allrounder'
p10
I01
sS'is_overseas'
p11
I01
sS'team'
p12
S'MI'
p13
sS'nationality'
p14
S'West Indian'
p15
sS'is_bowler'
p16
I00
sS'is_keeper'
p17
I00
sS'id'
p18
S'210'
p19
sS'is_uncapped'
p20
I00
sS'tournamentStats'
p21
(lp22
(Vaus-wi-t20-2013
(dp23
S'fieldingStats'
p24
(dp25
Vinns
p26
I0
sVc
I0
sVro
p27
I0
sVm
I1
sVs
I0
ssS'bowlingStats'
p28
(dp29
Vinns
p30
I1
sV10w
p31
I0
sVnb
p32
I0
sVmaid
p33
I0
sVwb
p34
I0
sVbbmw
p35
I3
sV6s
p36
I3
sVbbmr
p37
I30
sVbbir
p38
I30
sVbbiw
p39
I3
sVa
V10.00
p40
sVb
I24
sVe
V7.50
p41
sVd
I12
sVwmaid
p42
I0
sV4w
p43
I0
sVm
I1
sV4s
p44
I0
sVr
I30
sVw
I3
sVsr
p45
V8.00
p46
sVov
p47
V4.00
p48
sV5w
p49
I0
ssS'battingStats'
p50
(dp51
Va
V26.00
p52
sVb
I17
sVinns
p53
I1
sVno
p54
I0
sVsr
p55
V152.94
p56
sVm
I1
sV4s
p57
I2
sV6s
p58
I1
sVhs
p59
V26
p60
sVr
V26
p61
sV100s
p62
I0
sV50s
p63
I0
ssS'year'
p64
I2013
stp65
a(Vwi-pak-2013
(dp66
g24
(dp67
Vinns
p68
I3
sVc
I4
sVro
p69
I0
sVm
I5
sVs
I0
ssg28
(dp70
Vinns
p71
I4
sV10w
p72
I0
sVnb
p73
I0
sVmaid
p74
I0
sVwb
p75
I4
sVbbmw
p76
I1
sV6s
p77
I1
sVbbmr
p78
I16
sVbbir
p79
I16
sVbbiw
p80
I1
sVa
V28.33
p81
sVb
I90
sVe
V5.66
p82
sVd
I36
sVwmaid
p83
I0
sV4w
p84
I0
sVm
I5
sV4s
p85
I7
sVr
I85
sVw
I3
sVsr
p86
V30.00
p87
sVov
p88
V15.00
p89
sV5w
p90
I0
ssg50
(dp91
Va
V26.25
p92
sVb
I85
sVinns
p93
I5
sVno
p94
I1
sVsr
p95
V123.52
p96
sVm
I5
sV4s
p97
I8
sV6s
p98
I5
sVhs
p99
V49*
p100
sVr
V105
p101
sV100s
p102
I0
sV50s
p103
I0
ssg64
I2013
stp104
a(Vtriseries-wi-2013
(dp105
g24
(dp106
Vinns
p107
I1
sVc
I2
sVro
p108
I0
sVm
I4
sVs
I0
ssg28
(dp109
Vinns
p110
I3
sV10w
p111
I0
sVnb
p112
I1
sVmaid
p113
I0
sVwb
p114
I2
sVbbmw
p115
I1
sV6s
p116
I1
sVbbmr
p117
I21
sVbbir
p118
I21
sVbbiw
p119
I1
sVa
V26.50
p120
sVb
I36
sVe
V8.83
p121
sVd
I10
sVwmaid
p122
I0
sV4w
p123
I0
sVm
I4
sV4s
p124
I4
sVr
I53
sVw
I2
sVsr
p125
V18.00
p126
sVov
p127
V6.00
p128
sV5w
p129
I0
ssg50
(dp130
Va
V1.00
p131
sVb
I16
sVinns
p132
I4
sVno
p133
I0
sVsr
p134
V25.00
p135
sVm
I4
sV4s
p136
I0
sV6s
p137
I0
sVhs
p138
V4
sVr
V4
sV100s
p139
I0
sV50s
p140
I0
ssg64
I2013
stp141
a(Vwi-zim-2013
(dp142
g24
(dp143
Vinns
p144
I2
sVc
I2
sVro
p145
I0
sVm
I4
sVs
I0
ssg28
(dp146
Vinns
p147
I3
sV10w
p148
I0
sVnb
p149
I0
sVmaid
p150
I0
sVwb
p151
I2
sVbbmw
p152
I0
sV6s
p153
I1
sVbbmr
p154
I0
sVbbir
p155
I0
sVbbiw
p156
I0
sVa
V-
sVb
I24
sVe
V7.00
p157
sVd
I8
sVwmaid
p158
I0
sV4w
p159
I0
sVm
I4
sV4s
p160
I1
sVr
I28
sVw
I0
sVsr
p161
V-
sVov
p162
V4.00
p163
sV5w
p164
I0
ssg50
(dp165
Va
V82.00
p166
sVb
I43
sVinns
p167
I3
sVno
p168
I2
sVsr
p169
V190.69
p170
sVm
I4
sV4s
p171
I6
sV6s
p172
I5
sVhs
p173
V45*
p174
sVr
V82
p175
sV100s
p176
I0
sV50s
p177
I0
ssg64
I2013
stp178
a(Vclt20-2013
(dp179
g24
(dp180
Vinns
p181
I4
sVc
I4
sVro
p182
I0
sVm
I5
sVs
I0
ssg28
(dp183
Vinns
p184
I5
sV10w
p185
I0
sVnb
p186
I0
sVmaid
p187
I0
sVwb
p188
I3
sVbbmw
p189
I3
sV6s
p190
I3
sVbbmr
p191
I31
sVbbir
p192
I31
sVbbiw
p193
I3
sVa
V21.00
p194
sVb
I83
sVe
V7.59
p195
sVd
I24
sVwmaid
p196
I0
sV4w
p197
I0
sVm
I5
sV4s
p198
I7
sVr
I105
sVw
I5
sVsr
p199
V16.60
p200
sVov
p201
V13.83
p202
sV5w
p203
I0
ssg50
(dp204
Va
V37.66
p205
sVb
I87
sVinns
p206
I5
sVno
p207
I2
sVsr
p208
V129.88
p209
sVm
I5
sV4s
p210
I9
sV6s
p211
I7
sVhs
p212
V42
p213
sVr
V113
p214
sV100s
p215
I0
sV50s
p216
I0
ssg64
I2013
stp217
a(Vchamptrophy-2013-warmups
(dp218
g24
(dp219
Vinns
p220
I1
sVc
I2
sVro
p221
I0
sVm
I2
sVs
I0
ssg28
(dp222
Vinns
p223
I1
sV10w
p224
I0
sVnb
p225
I0
sVmaid
p226
I0
sVwb
p227
I0
sVbbmw
p228
I0
sV6s
p229
I0
sVbbmr
p230
I0
sVbbir
p231
I7
sVbbiw
p232
I0
sVa
V-
sVb
I12
sVe
V3.50
p233
sVd
I5
sVwmaid
p234
I0
sV4w
p235
I0
sVm
I2
sV4s
p236
I0
sVr
I7
sVw
I0
sVsr
p237
V-
sVov
p238
V2.00
p239
sV5w
p240
I0
ssg50
(dp241
Va
V-
sVb
I21
sVinns
p242
I1
sVno
p243
I1
sVsr
p244
V138.09
p245
sVm
I2
sV4s
p246
I2
sV6s
p247
I2
sVhs
p248
V29*
p249
sVr
V29
p250
sV100s
p251
I0
sV50s
p252
I0
ssg64
I2013
stp253
a(Vchamptrophy-2013
(dp254
g24
(dp255
Vinns
p256
I1
sVc
I0
sVro
p257
I1
sVm
I3
sVs
I0
ssg28
(dp258
Vinns
p259
I3
sV10w
p260
I0
sVnb
p261
I0
sVmaid
p262
I0
sVwb
p263
I2
sVbbmw
p264
I1
sV6s
p265
I2
sVbbmr
p266
I30
sVbbir
p267
I30
sVbbiw
p268
I1
sVa
V73.00
p269
sVb
I67
sVe
V6.53
p270
sVd
I28
sVwmaid
p271
I0
sV4w
p272
I0
sVm
I3
sV4s
p273
I6
sVr
I73
sVw
I1
sVsr
p274
V67.00
p275
sVov
p276
V11.16
p277
sV5w
p278
I0
ssg50
(dp279
Va
V26.66
p280
sVb
I113
sVinns
p281
I3
sVno
p282
I0
sVsr
p283
V70.79
p284
sVm
I3
sV4s
p285
I8
sV6s
p286
I3
sVhs
p287
V30
p288
sVr
V80
p289
sV100s
p290
I0
sV50s
p291
I0
ssg64
I2013
stp292
a(Vaus-wi-2013
(dp293
g24
(dp294
Vinns
p295
I2
sVc
I5
sVro
p296
I0
sVm
I5
sVs
I0
ssg28
(dp297
Vinns
p298
I3
sV10w
p299
I0
sVnb
p300
I0
sVmaid
p301
I0
sVwb
p302
I2
sVbbmw
p303
I1
sV6s
p304
I0
sVbbmr
p305
I36
sVbbir
p306
I36
sVbbiw
p307
I1
sVa
V73.00
p308
sVb
I78
sVe
V5.61
p309
sVd
I34
sVwmaid
p310
I0
sV4w
p311
I0
sVm
I5
sV4s
p312
I7
sVr
I73
sVw
I1
sVsr
p313
V78.00
p314
sVov
p315
V13.00
p316
sV5w
p317
I0
ssg50
(dp318
Va
V41.00
p319
sVb
I210
sVinns
p320
I5
sVno
p321
I1
sVsr
p322
V78.09
p323
sVm
I5
sV4s
p324
I14
sV6s
p325
I3
sVhs
p326
V109*
p327
sVr
V164
p328
sV100s
p329
I1
sV50s
p330
I0
ssg64
I2013
stp331
a(Vipl2013
(dp332
g24
(dp333
Vinns
p334
I8
sVc
I12
sVro
p335
I0
sVm
I18
sVs
I0
ssg28
(dp336
Vinns
p337
I14
sV10w
p338
I0
sVnb
p339
I0
sVmaid
p340
I0
sVwb
p341
I11
sVbbmw
p342
I2
sV6s
p343
I13
sVbbmr
p344
I6
sVbbir
p345
I6
sVbbiw
p346
I2
sVa
V29.20
p347
sVb
I186
sVe
V9.41
p348
sVd
I60
sVwmaid
p349
I0
sV4w
p350
I0
sVm
I18
sV4s
p351
I25
sVr
I292
sVw
I10
sVsr
p352
V18.60
p353
sVov
p354
V31.00
p355
sV5w
p356
I0
ssg50
(dp357
Va
V42.00
p358
sVb
I281
sVinns
p359
I18
sVno
p360
I8
sVsr
p361
V149.46
p362
sVm
I18
sV4s
p363
I27
sV6s
p364
I29
sVhs
p365
V66*
p366
sVr
V420
p367
sV100s
p368
I0
sV50s
p369
I3
ssg64
I2013
stp370
a(Vipl2012
(dp371
g24
(dp372
Vinns
p373
I5
sVc
I6
sVro
p374
I2
sVm
I14
sVs
I0
ssg28
(dp375
Vinns
p376
I14
sV10w
p377
I0
sVnb
p378
I1
sVmaid
p379
I0
sVwb
p380
I22
sVbbmw
p381
I4
sV6s
p382
I11
sVbbmr
p383
I44
sVbbir
p384
I44
sVbbiw
p385
I4
sVa
V21.87
p386
sVb
I263
sVe
V7.98
p387
sVd
I85
sVwmaid
p388
I0
sV4w
p389
I1
sVm
I14
sV4s
p390
I27
sVr
I350
sVw
I16
sVsr
p391
V16.43
p392
sVov
p393
V43.83
p394
sV5w
p395
I0
ssg50
(dp396
Va
V24.44
p397
sVb
I159
sVinns
p398
I11
sVno
p399
I2
sVsr
p400
V138.36
p401
sVm
I14
sV4s
p402
I15
sV6s
p403
I14
sVhs
p404
V64
p405
sVr
V220
p406
sV100s
p407
I0
sV50s
p408
I2
ssg64
I2012
stp409
a(Vclt20-2012
(dp410
g24
(dp411
Vinns
p412
I0
sVc
I0
sVro
p413
I0
sVm
I4
sVs
I0
ssg28
(dp414
Vinns
p415
I1
sV10w
p416
I0
sVnb
p417
I0
sVmaid
p418
I0
sVwb
p419
I0
sVbbmw
p420
I0
sV6s
p421
I0
sVbbmr
p422
I0
sVbbir
p423
I0
sVbbiw
p424
I0
sVa
V-
sVb
I12
sVe
V10.50
p425
sVd
I1
sVwmaid
p426
I0
sV4w
p427
I0
sVm
I4
sV4s
p428
I3
sVr
I21
sVw
I0
sVsr
p429
V-
sVov
p430
V2.00
p431
sV5w
p432
I0
ssg50
(dp433
Va
V27.66
p434
sVb
I54
sVinns
p435
I4
sVno
p436
I1
sVsr
p437
V153.70
p438
sVm
I4
sV4s
p439
I6
sV6s
p440
I5
sVhs
p441
V37*
p442
sVr
V83
p443
sV100s
p444
I0
sV50s
p445
I0
ssg64
I2012
stp446
a(Vbigbash-2012
(dp447
g24
(dp448
Vinns
p449
I4
sVc
I4
sVro
p450
I1
sVm
I6
sVs
I0
ssg28
(dp451
Vinns
p452
I5
sV10w
p453
I0
sVnb
p454
I0
sVmaid
p455
I0
sVwb
p456
I2
sVbbmw
p457
I2
sV6s
p458
I5
sVbbmr
p459
I38
sVbbir
p460
I38
sVbbiw
p461
I2
sVa
V21.60
p462
sVb
I72
sVe
V9.00
p463
sVd
I19
sVwmaid
p464
I0
sV4w
p465
I0
sVm
I6
sV4s
p466
I7
sVr
I108
sVw
I5
sVsr
p467
V14.40
p468
sVov
p469
V12.00
p470
sV5w
p471
I0
ssg50
(dp472
Va
V34.50
p473
sVb
I82
sVinns
p474
I5
sVno
p475
I1
sVsr
p476
V168.29
p477
sVm
I6
sV4s
p478
I12
sV6s
p479
I9
sVhs
p480
V65*
p481
sVr
V138
p482
sV100s
p483
I0
sV50s
p484
I1
ssg64
I2012
stp485
a(Vworldt20-2012
(dp486
g24
(dp487
Vinns
p488
I2
sVc
I3
sVro
p489
I0
sVm
I9
sVs
I0
ssg28
(dp490
Vinns
p491
I3
sV10w
p492
I0
sVnb
p493
I1
sVmaid
p494
I0
sVwb
p495
I1
sVbbmw
p496
I2
sV6s
p497
I1
sVbbmr
p498
I6
sVbbir
p499
I6
sVbbiw
p500
I2
sVa
V17.50
p501
sVb
I24
sVe
V8.75
p502
sVd
I8
sVwmaid
p503
I0
sV4w
p504
I0
sVm
I9
sV4s
p505
I3
sVr
I35
sVw
I2
sVsr
p506
V12.00
p507
sVov
p508
V4.00
p509
sV5w
p510
I0
ssg50
(dp511
Va
V18.00
p512
sVb
I87
sVinns
p513
I7
sVno
p514
I1
sVsr
p515
V124.13
p516
sVm
I9
sV4s
p517
I10
sV6s
p518
I3
sVhs
p519
V38
p520
sVr
V108
p521
sV100s
p522
I0
sV50s
p523
I0
ssg64
I2012
stp524
a(Vipl2011
(dp525
g24
(dp526
Vinns
p527
I8
sVc
I10
sVro
p528
I1
sVm
I16
sVs
I0
ssg28
(dp529
Vinns
p530
I16
sV10w
p531
I0
sVnb
p532
I2
sVmaid
p533
I0
sVwb
p534
I13
sVbbmw
p535
I2
sV6s
p536
I11
sVbbmr
p537
I24
sVbbir
p538
I24
sVbbiw
p539
I2
sVa
V36.10
p540
sVb
I255
sVe
V8.49
p541
sVd
I73
sVwmaid
p542
I0
sV4w
p543
I0
sVm
I16
sV4s
p544
I33
sVr
I361
sVw
I10
sVsr
p545
V25.50
p546
sVov
p547
V42.50
p548
sV5w
p549
I0
ssg50
(dp550
Va
V14.60
p551
sVb
I133
sVinns
p552
I13
sVno
p553
I3
sVsr
p554
V109.77
p555
sVm
I16
sV4s
p556
I12
sV6s
p557
I6
sVhs
p558
V28
p559
sVr
V146
p560
sV100s
p561
I0
sV50s
p562
I0
ssg64
I2011
stp563
a(Vclt20-2011
p564
(dp565
g24
(dp566
Vinns
p567
I2
sVc
I3
sVro
p568
I0
sVm
I6
sVs
I0
ssg28
(dp569
Vinns
p570
I5
sV10w
p571
I0
sVnb
p572
I0
sVmaid
p573
I0
sVwb
p574
I8
sVbbmw
p575
I1
sV6s
p576
I1
sVbbmr
p577
I9
sVbbir
p578
I9
sVbbiw
p579
I1
sVa
V24.33
p580
sVb
I78
sVe
V5.61
p581
sVd
I31
sVwmaid
p582
I0
sV4w
p583
I0
sVm
I6
sV4s
p584
I4
sVr
I73
sVw
I3
sVsr
p585
V26.00
p586
sVov
p587
V13.00
p588
sV5w
p589
I0
ssg50
(dp590
Va
V13.00
p591
sVb
I61
sVinns
p592
I5
sVno
p593
I0
sVsr
p594
V106.55
p595
sVm
I6
sV4s
p596
I5
sV6s
p597
I2
sVhs
p598
V24
p599
sVr
V65
p600
sV100s
p601
I0
sV50s
p602
I0
ssg64
I2011
stp603
a(Vclt20-2010
(dp604
g24
(dp605
Vinns
p606
I0
sVc
I0
sVro
p607
I0
sVm
I4
sVs
I0
ssg28
(dp608
Vinns
p609
I3
sV10w
p610
I0
sVnb
p611
I0
sVmaid
p612
I0
sVwb
p613
I2
sVbbmw
p614
I0
sV6s
p615
I3
sVbbmr
p616
I0
sVbbir
p617
I0
sVbbiw
p618
I0
sVa
V-
sVb
I30
sVe
V11.80
p619
sVd
I6
sVwmaid
p620
I0
sV4w
p621
I0
sVm
I4
sV4s
p622
I5
sVr
I59
sVw
I0
sVsr
p623
V-
sVov
p624
V5.00
p625
sV5w
p626
I0
ssg50
(dp627
Va
V42.33
p628
sVb
I63
sVinns
p629
I4
sVno
p630
I1
sVsr
p631
V201.58
p632
sVm
I4
sV4s
p633
I4
sV6s
p634
I14
sVhs
p635
V72*
p636
sVr
V127
p637
sV100s
p638
I0
sV50s
p639
I1
ssg64
I2010
stp640
a(Vipl2010
(dp641
g24
(dp642
Vinns
p643
I7
sVc
I6
sVro
p644
I4
sVm
I14
sVs
I0
ssg28
(dp645
Vinns
p646
I12
sV10w
p647
I0
sVnb
p648
I1
sVmaid
p649
I0
sVwb
p650
I10
sVbbmw
p651
I3
sV6s
p652
I6
sVbbmr
p653
I17
sVbbir
p654
I17
sVbbiw
p655
I3
sVa
V18.26
p656
sVb
I222
sVe
V7.40
p657
sVd
I58
sVwmaid
p658
I0
sV4w
p659
I0
sVm
I14
sV4s
p660
I16
sVr
I274
sVw
I15
sVsr
p661
V14.80
p662
sVov
p663
V37.00
p664
sV5w
p665
I0
ssg50
(dp666
Va
V22.75
p667
sVb
I147
sVinns
p668
I14
sVno
p669
I2
sVsr
p670
V185.71
p671
sVm
I14
sV4s
p672
I23
sV6s
p673
I17
sVhs
p674
V45*
p675
sVr
V273
p676
sV100s
p677
I0
sV50s
p678
I0
ssg64
I2010
stp679
a(Vclt20-2009
(dp680
g24
(dp681
Vinns
p682
I4
sVc
I5
sVro
p683
I0
sVm
I6
sVs
I0
ssg28
(dp684
Vinns
p685
I5
sV10w
p686
I0
sVnb
p687
I0
sVmaid
p688
I0
sVwb
p689
I3
sVbbmw
p690
I2
sV6s
p691
I4
sVbbmr
p692
I25
sVbbir
p693
I25
sVbbiw
p694
I2
sVa
V24.25
p695
sVb
I72
sVe
V8.08
p696
sVd
I25
sVwmaid
p697
I0
sV4w
p698
I0
sVm
I6
sV4s
p699
I8
sVr
I97
sVw
I4
sVsr
p700
V18.00
p701
sVov
p702
V12.00
p703
sV5w
p704
I0
ssg50
(dp705
Va
V36.50
p706
sVb
I74
sVinns
p707
I5
sVno
p708
I1
sVsr
p709
V197.29
p710
sVm
I6
sV4s
p711
I8
sV6s
p712
I14
sVhs
p713
V54*
p714
sVr
V146
p715
sV100s
p716
I0
sV50s
p717
I1
ssg64
I2009
stp718
asb.