(iplayer
Player
p1
(dp2
S'is_batsman'
p3
I01
sS'name'
p4
S'AB de Villiers'
p5
sS'dob'
p6
S'1984/02/17'
p7
sS'price'
p8
S'1000000'
p9
sS'is_allrounder'
p10
I00
sS'is_overseas'
p11
I01
sS'team'
p12
S'RCB'
p13
sS'nationality'
p14
S'South African'
p15
sS'is_bowler'
p16
I00
sS'is_keeper'
p17
I01
sS'id'
p18
S'233'
p19
sS'is_uncapped'
p20
I00
sS'tournamentStats'
p21
(lp22
(Vsa-aus-2014
(dp23
S'fieldingStats'
p24
(dp25
Vinns
p26
I4
sVc
I8
sVro
p27
I0
sVm
I4
sVs
I0
ssS'bowlingStats'
p28
(dp29
Vinns
p30
I0
sV10w
p31
I0
sVnb
p32
I0
sVmaid
p33
I0
sVwb
p34
I0
sVbbmw
p35
I0
sV6s
p36
I0
sVbbmr
p37
I0
sVbbir
p38
I0
sVbbiw
p39
I0
sVa
V-
sVb
I0
sVe
V-
sVd
I0
sVwmaid
p40
I0
sV4w
p41
I0
sVm
I4
sV4s
p42
I0
sVr
I0
sVw
I0
sVsr
p43
V-
sVov
p44
V-
sV5w
p45
I0
ssS'battingStats'
p46
(dp47
Va
V50.28
p48
sVb
I784
sVinns
p49
I7
sVno
p50
I0
sVsr
p51
V44.89
p52
sVm
I4
sV4s
p53
I42
sV6s
p54
I4
sVhs
p55
V116
p56
sVr
V352
p57
sV100s
p58
I1
sV50s
p59
I1
ssS'year'
p60
I2014
stp61
a(Vworldt20-2014
(dp62
g24
(dp63
Vinns
p64
I2
sVc
I2
sVro
p65
I0
sVm
I3
sVs
I0
ssg28
(dp66
Vinns
p67
I0
sV10w
p68
I0
sVnb
p69
I0
sVmaid
p70
I0
sVwb
p71
I0
sVbbmw
p72
I0
sV6s
p73
I0
sVbbmr
p74
I0
sVbbir
p75
I0
sVbbiw
p76
I0
sVa
V-
sVb
I0
sVe
V-
sVd
I0
sVwmaid
p77
I0
sV4w
p78
I0
sVm
I3
sV4s
p79
I0
sVr
I0
sVw
I0
sVsr
p80
V-
sVov
p81
V-
sV5w
p82
I0
ssg46
(dp83
Va
V16.66
p84
sVb
I43
sVinns
p85
I3
sVno
p86
I0
sVsr
p87
V116.27
p88
sVm
I3
sV4s
p89
I5
sV6s
p90
I0
sVhs
p91
V24
p92
sVr
V50
p93
sV100s
p94
I0
sV50s
p95
I0
ssg60
I2014
stp96
a(Vsl-sa-2013
(dp97
g24
(dp98
Vinns
p99
I5
sVc
I8
sVro
p100
I0
sVm
I8
sVs
I0
ssg28
(dp101
Vinns
p102
I0
sV10w
p103
I0
sVnb
p104
I0
sVmaid
p105
I0
sVwb
p106
I0
sVbbmw
p107
I0
sV6s
p108
I0
sVbbmr
p109
I0
sVbbir
p110
I0
sVbbiw
p111
I0
sVa
V-
sVb
I0
sVe
V-
sVd
I0
sVwmaid
p112
I0
sV4w
p113
I0
sVm
I8
sV4s
p114
I0
sVr
I0
sVw
I0
sVsr
p115
V-
sVov
p116
V-
sV5w
p117
I0
ssg46
(dp118
Va
V24.00
p119
sVb
I199
sVinns
p120
I8
sVno
p121
I1
sVsr
p122
V84.42
p123
sVm
I8
sV4s
p124
I17
sV6s
p125
I1
sVhs
p126
V51
p127
sVr
V168
p128
sV100s
p129
I0
sV50s
p130
I1
ssg60
I2013
stp131
a(Vsa-ind-2013
(dp132
g24
(dp133
Vinns
p134
I5
sVc
I16
sVro
p135
I0
sVm
I5
sVs
I0
ssg28
(dp136
Vinns
p137
I1
sV10w
p138
I0
sVnb
p139
I0
sVmaid
p140
I0
sVwb
p141
I1
sVbbmw
p142
I0
sV6s
p143
I0
sVbbmr
p144
I0
sVbbir
p145
I0
sVbbiw
p146
I0
sVa
V-
sVb
I6
sVe
V5.00
p147
sVd
I3
sVwmaid
p148
I0
sV4w
p149
I0
sVm
I5
sV4s
p150
I0
sVr
I5
sVw
I0
sVsr
p151
V-
sVov
p152
V1.00
p153
sV5w
p154
I0
ssg46
(dp155
Va
V63.16
p156
sVb
I458
sVinns
p157
I6
sVno
p158
I0
sVsr
p159
V82.75
p160
sVm
I5
sV4s
p161
I34
sV6s
p162
I9
sVhs
p163
V109
p164
sVr
V379
p165
sV100s
p166
I2
sV50s
p167
I2
ssg60
I2013
stp168
a(Vsa-pak-2013
(dp169
g24
(dp170
Vinns
p171
I6
sVc
I19
sVro
p172
I0
sVm
I8
sVs
I0
ssg28
(dp173
Vinns
p174
I0
sV10w
p175
I0
sVnb
p176
I0
sVmaid
p177
I0
sVwb
p178
I0
sVbbmw
p179
I0
sV6s
p180
I0
sVbbmr
p181
I0
sVbbir
p182
I0
sVbbiw
p183
I0
sVa
V-
sVb
I0
sVe
V-
sVd
I0
sVwmaid
p184
I0
sV4w
p185
I0
sVm
I8
sV4s
p186
I0
sVr
I0
sVw
I0
sVsr
p187
V-
sVov
p188
V-
sV5w
p189
I0
ssg46
(dp190
Va
V94.28
p191
sVb
I880
sVinns
p192
I10
sVno
p193
I3
sVsr
p194
V75.00
p195
sVm
I8
sV4s
p196
I66
sV6s
p197
I5
sVhs
p198
V128
p199
sVr
V660
p200
sV100s
p201
I3
sV50s
p202
I3
ssg60
I2013
stp203
a(Vclt20-2013
(dp204
g24
(dp205
Vinns
p206
I2
sVc
I3
sVro
p207
I0
sVm
I4
sVs
I0
ssg28
(dp208
Vinns
p209
I0
sV10w
p210
I0
sVnb
p211
I0
sVmaid
p212
I0
sVwb
p213
I0
sVbbmw
p214
I0
sV6s
p215
I0
sVbbmr
p216
I0
sVbbir
p217
I0
sVbbiw
p218
I0
sVa
V-
sVb
I0
sVe
V-
sVd
I0
sVwmaid
p219
I0
sV4w
p220
I0
sVm
I4
sV4s
p221
I0
sVr
I0
sVw
I0
sVsr
p222
V-
sVov
p223
V-
sV5w
p224
I0
ssg46
(dp225
Va
V45.66
p226
sVb
I75
sVinns
p227
I4
sVno
p228
I1
sVsr
p229
V182.66
p230
sVm
I4
sV4s
p231
I11
sV6s
p232
I8
sVhs
p233
V77
p234
sVr
V137
p235
sV100s
p236
I0
sV50s
p237
I1
ssg60
I2013
stp238
a(Vpak-sa-2013
(dp239
g24
(dp240
Vinns
p241
I7
sVc
I11
sVro
p242
I1
sVm
I9
sVs
I1
ssg28
(dp243
Vinns
p244
I0
sV10w
p245
I0
sVnb
p246
I0
sVmaid
p247
I0
sVwb
p248
I0
sVbbmw
p249
I0
sV6s
p250
I0
sVbbmr
p251
I0
sVbbir
p252
I0
sVbbiw
p253
I0
sVa
V-
sVb
I0
sVe
V-
sVd
I0
sVwmaid
p254
I0
sV4w
p255
I0
sVm
I9
sV4s
p256
I0
sVr
I0
sVw
I0
sVsr
p257
V-
sVov
p258
V-
sV5w
p259
I0
ssg46
(dp260
Va
V58.87
p261
sVb
I728
sVinns
p262
I9
sVno
p263
I1
sVsr
p264
V64.69
p265
sVm
I9
sV4s
p266
I41
sV6s
p267
I5
sVhs
p268
V164
p269
sVr
V471
p270
sV100s
p271
I2
sV50s
p272
I1
ssg60
I2013
stp273
a(Vchamptrophy-2013-warmups
(dp274
g24
(dp275
Vinns
p276
I0
sVc
I0
sVro
p277
I0
sVm
I1
sVs
I0
ssg28
(dp278
Vinns
p279
I0
sV10w
p280
I0
sVnb
p281
I0
sVmaid
p282
I0
sVwb
p283
I0
sVbbmw
p284
I0
sV6s
p285
I0
sVbbmr
p286
I0
sVbbir
p287
I0
sVbbiw
p288
I0
sVa
V-
sVb
I0
sVe
V-
sVd
I0
sVwmaid
p289
I0
sV4w
p290
I0
sVm
I1
sV4s
p291
I0
sVr
I0
sVw
I0
sVsr
p292
V-
sVov
p293
V-
sV5w
p294
I0
ssg46
(dp295
Va
V15.00
p296
sVb
I20
sVinns
p297
I1
sVno
p298
I0
sVsr
p299
V75.00
p300
sVm
I1
sV4s
p301
I3
sV6s
p302
I0
sVhs
p303
V15
p304
sVr
V15
p305
sV100s
p306
I0
sV50s
p307
I0
ssg60
I2013
stp308
a(Vchamptrophy-2013
(dp309
g24
(dp310
Vinns
p311
I3
sVc
I4
sVro
p312
I0
sVm
I4
sVs
I0
ssg28
(dp313
Vinns
p314
I0
sV10w
p315
I0
sVnb
p316
I0
sVmaid
p317
I0
sVwb
p318
I0
sVbbmw
p319
I0
sV6s
p320
I0
sVbbmr
p321
I0
sVbbir
p322
I0
sVbbiw
p323
I0
sVa
V-
sVb
I0
sVe
V-
sVd
I0
sVwmaid
p324
I0
sV4w
p325
I0
sVm
I4
sV4s
p326
I0
sVr
I0
sVw
I0
sVsr
p327
V-
sVov
p328
V-
sV5w
p329
I0
ssg46
(dp330
Va
V34.50
p331
sVb
I137
sVinns
p332
I4
sVno
p333
I0
sVsr
p334
V100.72
p335
sVm
I4
sV4s
p336
I10
sV6s
p337
I2
sVhs
p338
V70
p339
sVr
V138
p340
sV100s
p341
I0
sV50s
p342
I1
ssg60
I2013
stp343
a(Vipl2013
(dp344
g24
(dp345
Vinns
p346
I8
sVc
I8
sVro
p347
I1
sVm
I14
sVs
I0
ssg28
(dp348
Vinns
p349
I0
sV10w
p350
I0
sVnb
p351
I0
sVmaid
p352
I0
sVwb
p353
I0
sVbbmw
p354
I0
sV6s
p355
I0
sVbbmr
p356
I0
sVbbir
p357
I0
sVbbiw
p358
I0
sVa
V-
sVb
I0
sVe
V-
sVd
I0
sVwmaid
p359
I0
sV4w
p360
I0
sVm
I14
sV4s
p361
I0
sVr
I0
sVw
I0
sVsr
p362
V-
sVov
p363
V-
sV5w
p364
I0
ssg46
(dp365
Va
V36.00
p366
sVb
I219
sVinns
p367
I14
sVno
p368
I4
sVsr
p369
V164.38
p370
sVm
I14
sV4s
p371
I34
sV6s
p372
I15
sVhs
p373
V64
p374
sVr
V360
p375
sV100s
p376
I0
sV50s
p377
I2
ssg60
I2013
stp378
a(Vsa-pak-2-2013
(dp379
g24
(dp380
Vinns
p381
I3
sVc
I3
sVro
p382
I0
sVm
I4
sVs
I0
ssg28
(dp383
Vinns
p384
I0
sV10w
p385
I0
sVnb
p386
I0
sVmaid
p387
I0
sVwb
p388
I0
sVbbmw
p389
I0
sV6s
p390
I0
sVbbmr
p391
I0
sVbbir
p392
I0
sVbbiw
p393
I0
sVa
V-
sVb
I0
sVe
V-
sVd
I0
sVwmaid
p394
I0
sV4w
p395
I0
sVm
I4
sV4s
p396
I0
sVr
I0
sVw
I0
sVsr
p397
V-
sVov
p398
V-
sV5w
p399
I0
ssg46
(dp400
Va
V48.33
p401
sVb
I131
sVinns
p402
I4
sVno
p403
I1
sVsr
p404
V110.68
p405
sVm
I4
sV4s
p406
I13
sV6s
p407
I2
sVhs
p408
V74
p409
sVr
V145
p410
sV100s
p411
I0
sV50s
p412
I1
ssg60
I2013
stp413
a(Vipl2012
(dp414
g24
(dp415
Vinns
p416
I8
sVc
I4
sVro
p417
I2
sVm
I16
sVs
I5
ssg28
(dp418
Vinns
p419
I0
sV10w
p420
I0
sVnb
p421
I0
sVmaid
p422
I0
sVwb
p423
I0
sVbbmw
p424
I0
sV6s
p425
I0
sVbbmr
p426
I0
sVbbir
p427
I0
sVbbiw
p428
I0
sVa
V-
sVb
I0
sVe
V-
sVd
I0
sVwmaid
p429
I0
sV4w
p430
I0
sVm
I16
sV4s
p431
I0
sVr
I0
sVw
I0
sVsr
p432
V-
sVov
p433
V-
sV5w
p434
I0
ssg46
(dp435
Va
V39.87
p436
sVb
I198
sVinns
p437
I13
sVno
p438
I5
sVsr
p439
V161.11
p440
sVm
I16
sV4s
p441
I26
sV6s
p442
I15
sVhs
p443
V64*
p444
sVr
V319
p445
sV100s
p446
I0
sV50s
p447
I3
ssg60
I2012
stp448
a(Vaus-sa-2012
(dp449
g24
(dp450
Vinns
p451
I4
sVc
I8
sVro
p452
I0
sVm
I3
sVs
I1
ssg28
(dp453
Vinns
p454
I0
sV10w
p455
I0
sVnb
p456
I0
sVmaid
p457
I0
sVwb
p458
I0
sVbbmw
p459
I0
sV6s
p460
I0
sVbbmr
p461
I0
sVbbir
p462
I0
sVbbiw
p463
I0
sVa
V-
sVb
I0
sVe
V-
sVd
I0
sVwmaid
p464
I0
sV4w
p465
I0
sVm
I3
sV4s
p466
I0
sVr
I0
sVw
I0
sVsr
p467
V-
sVov
p468
V-
sV5w
p469
I0
ssg46
(dp470
Va
V55.20
p471
sVb
I629
sVinns
p472
I6
sVno
p473
I1
sVsr
p474
V43.87
p475
sVm
I3
sV4s
p476
I31
sV6s
p477
I3
sVhs
p478
V169
p479
sVr
V276
p480
sV100s
p481
I1
sV50s
p482
I0
ssg60
I2012
stp483
a(Vpre-worldt20-2012
(dp484
g24
(dp485
Vinns
p486
I0
sVc
I0
sVro
p487
I0
sVm
I3
sVs
I0
ssg28
(dp488
Vinns
p489
I0
sV10w
p490
I0
sVnb
p491
I0
sVmaid
p492
I0
sVwb
p493
I0
sVbbmw
p494
I0
sV6s
p495
I0
sVbbmr
p496
I0
sVbbir
p497
I0
sVbbiw
p498
I0
sVa
V-
sVb
I0
sVe
V-
sVd
I0
sVwmaid
p499
I0
sV4w
p500
I0
sVm
I3
sV4s
p501
I0
sVr
I0
sVw
I0
sVsr
p502
V-
sVov
p503
V-
sV5w
p504
I0
ssg46
(dp505
Va
V4.33
p506
sVb
I13
sVinns
p507
I3
sVno
p508
I0
sVsr
p509
V100.00
p510
sVm
I3
sV4s
p511
I2
sV6s
p512
I0
sVhs
p513
V10
p514
sVr
V13
p515
sV100s
p516
I0
sV50s
p517
I0
ssg60
I2012
stp518
a(Vworldt20-2012
(dp519
g24
(dp520
Vinns
p521
I5
sVc
I8
sVro
p522
I1
sVm
I6
sVs
I2
ssg28
(dp523
Vinns
p524
I0
sV10w
p525
I0
sVnb
p526
I0
sVmaid
p527
I0
sVwb
p528
I0
sVbbmw
p529
I0
sV6s
p530
I0
sVbbmr
p531
I0
sVbbir
p532
I0
sVbbiw
p533
I0
sVa
V-
sVb
I0
sVe
V-
sVd
I0
sVwmaid
p534
I0
sV4w
p535
I0
sVm
I6
sV4s
p536
I0
sVr
I0
sVw
I0
sVsr
p537
V-
sVov
p538
V-
sV5w
p539
I0
ssg46
(dp540
Va
V28.60
p541
sVb
I98
sVinns
p542
I5
sVno
p543
I0
sVsr
p544
V145.91
p545
sVm
I6
sV4s
p546
I10
sV6s
p547
I5
sVhs
p548
V54
p549
sVr
V143
p550
sV100s
p551
I0
sV50s
p552
I1
ssg60
I2012
stp553
a(Vsa-nz-2012
p554
(dp555
g24
(dp556
Vinns
p557
I4
sVc
I9
sVro
p558
I0
sVm
I3
sVs
I0
ssg28
(dp559
Vinns
p560
I0
sV10w
p561
I0
sVnb
p562
I0
sVmaid
p563
I0
sVwb
p564
I0
sVbbmw
p565
I0
sV6s
p566
I0
sVbbmr
p567
I0
sVbbir
p568
I0
sVbbiw
p569
I0
sVa
V-
sVb
I0
sVe
V-
sVd
I0
sVwmaid
p570
I0
sV4w
p571
I0
sVm
I3
sV4s
p572
I0
sVr
I0
sVw
I0
sVsr
p573
V-
sVov
p574
V-
sV5w
p575
I0
ssg46
(dp576
Va
V62.50
p577
sVb
I218
sVinns
p578
I3
sVno
p579
I1
sVsr
p580
V57.33
p581
sVm
I3
sV4s
p582
I15
sV6s
p583
I0
sVhs
p584
V67
p585
sVr
V125
p586
sV100s
p587
I0
sV50s
p588
I2
ssg60
I2012
stp589
a(Vipl2011
(dp590
g24
(dp591
Vinns
p592
I10
sVc
I7
sVro
p593
I3
sVm
I16
sVs
I2
ssg28
(dp594
Vinns
p595
I0
sV10w
p596
I0
sVnb
p597
I0
sVmaid
p598
I0
sVwb
p599
I0
sVbbmw
p600
I0
sV6s
p601
I0
sVbbmr
p602
I0
sVbbir
p603
I0
sVbbiw
p604
I0
sVa
V-
sVb
I0
sVe
V-
sVd
I0
sVwmaid
p605
I0
sV4w
p606
I0
sVm
I16
sV4s
p607
I0
sVr
I0
sVw
I0
sVsr
p608
V-
sVov
p609
V-
sV5w
p610
I0
ssg46
(dp611
Va
V34.66
p612
sVb
I243
sVinns
p613
I13
sVno
p614
I4
sVsr
p615
V128.39
p616
sVm
I16
sV4s
p617
I21
sV6s
p618
I14
sVhs
p619
V65
p620
sVr
V312
p621
sV100s
p622
I0
sV50s
p623
I2
ssg60
I2011
stp624
a(Vclt20-2011
(dp625
g24
(dp626
Vinns
p627
I1
sVc
I1
sVro
p628
I0
sVm
I1
sVs
I0
ssg28
(dp629
Vinns
p630
I0
sV10w
p631
I0
sVnb
p632
I0
sVmaid
p633
I0
sVwb
p634
I0
sVbbmw
p635
I0
sV6s
p636
I0
sVbbmr
p637
I0
sVbbir
p638
I0
sVbbiw
p639
I0
sVa
V-
sVb
I0
sVe
V-
sVd
I0
sVwmaid
p640
I0
sV4w
p641
I0
sVm
I1
sV4s
p642
I0
sVr
I0
sVw
I0
sVsr
p643
V-
sVov
p644
V-
sV5w
p645
I0
ssg46
(dp646
Va
V31.00
p647
sVb
I25
sVinns
p648
I1
sVno
p649
I0
sVsr
p650
V124.00
p651
sVm
I1
sV4s
p652
I1
sV6s
p653
I2
sVhs
p654
V31
p655
sVr
V31
p656
sV100s
p657
I0
sV50s
p658
I0
ssg60
I2011
stp659
a(Vipl2010
(dp660
g24
(dp661
Vinns
p662
I5
sVc
I6
sVro
p663
I3
sVm
I7
sVs
I0
ssg28
(dp664
Vinns
p665
I0
sV10w
p666
I0
sVnb
p667
I0
sVmaid
p668
I0
sVwb
p669
I0
sVbbmw
p670
I0
sV6s
p671
I0
sVbbmr
p672
I0
sVbbir
p673
I0
sVbbiw
p674
I0
sVa
V-
sVb
I0
sVe
V-
sVd
I0
sVwmaid
p675
I0
sV4w
p676
I0
sVm
I7
sV4s
p677
I0
sVr
I0
sVw
I0
sVsr
p678
V-
sVov
p679
V-
sV5w
p680
I0
ssg46
(dp681
Va
V15.85
p682
sVb
I119
sVinns
p683
I7
sVno
p684
I0
sVsr
p685
V93.27
p686
sVm
I7
sV4s
p687
I7
sV6s
p688
I0
sVhs
p689
V45
p690
sVr
V111
p691
sV100s
p692
I0
sV50s
p693
I0
ssg60
I2010
stp694
a(Vipl2009
(dp695
g24
(dp696
Vinns
p697
I10
sVc
I13
sVro
p698
I2
sVm
I15
sVs
I0
ssg28
(dp699
Vinns
p700
I0
sV10w
p701
I0
sVnb
p702
I0
sVmaid
p703
I0
sVwb
p704
I0
sVbbmw
p705
I0
sV6s
p706
I0
sVbbmr
p707
I0
sVbbir
p708
I0
sVbbiw
p709
I0
sVa
V-
sVb
I0
sVe
V-
sVd
I0
sVwmaid
p710
I0
sV4w
p711
I0
sVm
I15
sV4s
p712
I0
sVr
I0
sVw
I0
sVsr
p713
V-
sVov
p714
V-
sV5w
p715
I0
ssg46
(dp716
Va
V51.66
p717
sVb
I355
sVinns
p718
I13
sVno
p719
I4
sVsr
p720
V130.98
p721
sVm
I15
sV4s
p722
I39
sV6s
p723
I12
sVhs
p724
V105*
p725
sVr
V465
p726
sV100s
p727
I1
sV50s
p728
I3
ssg60
I2009
stp729
a(Vipl2008
(dp730
g24
(dp731
Vinns
p732
I3
sVc
I3
sVro
p733
I1
sVm
I6
sVs
I0
ssg28
(dp734
Vinns
p735
I0
sV10w
p736
I0
sVnb
p737
I0
sVmaid
p738
I0
sVwb
p739
I0
sVbbmw
p740
I0
sV6s
p741
I0
sVbbmr
p742
I0
sVbbir
p743
I0
sVbbiw
p744
I0
sVa
V-
sVb
I0
sVe
V-
sVd
I0
sVwmaid
p745
I0
sV4w
p746
I0
sVm
I6
sV4s
p747
I0
sVr
I0
sVw
I0
sVsr
p748
V-
sVov
p749
V-
sV5w
p750
I0
ssg46
(dp751
Va
V19.00
p752
sVb
I98
sVinns
p753
I6
sVno
p754
I1
sVsr
p755
V96.93
p756
sVm
I6
sV4s
p757
I5
sV6s
p758
I1
sVhs
p759
V26*
p760
sVr
V95
p761
sV100s
p762
I0
sV50s
p763
I0
ssg60
I2008
stp764
asb.