(iplayer
Player
p1
(dp2
S'is_batsman'
p3
I00
sS'name'
p4
S'Piyush Chawla'
p5
sS'dob'
p6
S'1988/12/24'
p7
sS'price'
p8
S'900000'
p9
sS'is_allrounder'
p10
I01
sS'is_overseas'
p11
I00
sS'team'
p12
S'KKR'
p13
sS'nationality'
p14
S'Indian'
p15
sS'is_bowler'
p16
I01
sS'is_keeper'
p17
I00
sS'id'
p18
S'76'
p19
sS'is_uncapped'
p20
I00
sS'tournamentStats'
p21
(lp22
(Vipl2013
p23
(dp24
S'fieldingStats'
p25
(dp26
Vinns
p27
I2
sVc
I1
sVro
p28
I2
sVm
I16
sVs
I0
ssS'bowlingStats'
p29
(dp30
Vinns
p31
I16
sV10w
p32
I0
sVnb
p33
I0
sVmaid
p34
I0
sVwb
p35
I2
sVbbmw
p36
I2
sV6s
p37
I12
sVbbmr
p38
I20
sVbbir
p39
I20
sVbbiw
p40
I2
sVa
V38.00
p41
sVb
I350
sVe
V7.16
p42
sVd
I117
sVwmaid
p43
I0
sV4w
p44
I0
sVm
I16
sV4s
p45
I33
sVr
I418
sVw
I11
sVsr
p46
V31.81
p47
sVov
p48
V58.33
p49
sV5w
p50
I0
ssS'battingStats'
p51
(dp52
Va
V10.66
p53
sVb
I57
sVinns
p54
I11
sVno
p55
I5
sVsr
p56
V112.28
p57
sVm
I16
sV4s
p58
I5
sV6s
p59
I3
sVhs
p60
V23
p61
sVr
V64
p62
sV100s
p63
I0
sV50s
p64
I0
ssS'year'
p65
I2013
stp66
a(Vipl2012
(dp67
g25
(dp68
Vinns
p69
I3
sVc
I3
sVro
p70
I0
sVm
I16
sVs
I0
ssg29
(dp71
Vinns
p72
I16
sV10w
p73
I0
sVnb
p74
I0
sVmaid
p75
I1
sVwb
p76
I4
sVbbmw
p77
I3
sV6s
p78
I19
sVbbmr
p79
I18
sVbbir
p80
I18
sVbbiw
p81
I3
sVa
V26.18
p82
sVb
I342
sVe
V7.35
p83
sVd
I124
sVwmaid
p84
I0
sV4w
p85
I0
sVm
I16
sV4s
p86
I25
sVr
I419
sVw
I16
sVsr
p87
V21.37
p88
sVov
p89
V57.00
p90
sV5w
p91
I0
ssg51
(dp92
Va
V13.25
p93
sVb
I88
sVinns
p94
I12
sVno
p95
I4
sVsr
p96
V120.45
p97
sVm
I16
sV4s
p98
I9
sV6s
p99
I4
sVhs
p100
V21*
p101
sVr
V106
p102
sV100s
p103
I0
sV50s
p104
I0
ssg65
I2012
stp105
a(Vworldt20-2012
(dp106
g25
(dp107
Vinns
p108
I0
sVc
I0
sVro
p109
I0
sVm
I3
sVs
I0
ssg29
(dp110
Vinns
p111
I2
sV10w
p112
I0
sVnb
p113
I0
sVmaid
p114
I1
sVwb
p115
I0
sVbbmw
p116
I2
sV6s
p117
I2
sVbbmr
p118
I13
sVbbir
p119
I13
sVbbiw
p120
I2
sVa
V13.50
p121
sVb
I30
sVe
V5.40
p122
sVd
I15
sVwmaid
p123
I1
sV4w
p124
I0
sVm
I3
sV4s
p125
I0
sVr
I27
sVw
I2
sVsr
p126
V15.00
p127
sVov
p128
V5.00
p129
sV5w
p130
I0
ssg51
(dp131
Va
V-
sVinns
p132
I0
sVno
p133
I0
sVsr
p134
V-
sVm
I3
sV4s
p135
I0
sV6s
p136
I0
sVhs
p137
V0*
p138
sVr
V0
sV100s
p139
I0
sV50s
p140
I0
ssg65
I2012
stp141
a(Vind-eng-2012-13
(dp142
g25
(dp143
Vinns
p144
I1
sVc
I1
sVro
p145
I0
sVm
I1
sVs
I0
ssg29
(dp146
Vinns
p147
I2
sV10w
p148
I0
sVnb
p149
I2
sVmaid
p150
I7
sVwb
p151
I0
sVbbmw
p152
I4
sV6s
p153
I1
sVbbmr
p154
I133
sVbbir
p155
I69
sVbbiw
p156
I4
sVa
V33.25
p157
sVb
I287
sVe
V2.78
p158
sVd
I214
sVwmaid
p159
I0
sV4w
p160
I1
sVm
I1
sV4s
p161
I13
sVr
I133
sVw
I4
sVsr
p162
V71.75
p163
sVov
p164
V47.83
p165
sV5w
p166
I0
ssg51
(dp167
Va
V1.00
p168
sVb
I2
sVinns
p169
I1
sVno
p170
I0
sVsr
p171
V50.00
p172
sVm
I1
sV4s
p173
I0
sV6s
p174
I0
sVhs
p175
V1
sVr
V1
sV100s
p176
I0
sV50s
p177
I0
ssg65
I2012
stp178
a(Vipl2011
(dp179
g25
(dp180
Vinns
p181
I2
sVc
I3
sVro
p182
I0
sVm
I12
sVs
I0
ssg29
(dp183
Vinns
p184
I12
sV10w
p185
I0
sVnb
p186
I0
sVmaid
p187
I0
sVwb
p188
I5
sVbbmw
p189
I4
sV6s
p190
I15
sVbbmr
p191
I17
sVbbir
p192
I17
sVbbiw
p193
I4
sVa
V21.00
p194
sVb
I248
sVe
V8.12
p195
sVd
I93
sVwmaid
p196
I0
sV4w
p197
I1
sVm
I12
sV4s
p198
I28
sVr
I336
sVw
I16
sVsr
p199
V15.50
p200
sVov
p201
V41.33
p202
sV5w
p203
I0
ssg51
(dp204
Va
V16.00
p205
sVb
I55
sVinns
p206
I6
sVno
p207
I3
sVsr
p208
V87.27
p209
sVm
I12
sV4s
p210
I2
sV6s
p211
I2
sVhs
p212
V15
p213
sVr
V48
p214
sV100s
p215
I0
sV50s
p216
I0
ssg65
I2011
stp217
a(Vipl2010
(dp218
g25
(dp219
Vinns
p220
I4
sVc
I3
sVro
p221
I2
sVm
I14
sVs
I0
ssg29
(dp222
Vinns
p223
I14
sV10w
p224
I0
sVnb
p225
I0
sVmaid
p226
I0
sVwb
p227
I2
sVbbmw
p228
I3
sV6s
p229
I12
sVbbmr
p230
I24
sVbbir
p231
I24
sVbbiw
p232
I3
sVa
V30.58
p233
sVb
I294
sVe
V7.48
p234
sVd
I94
sVwmaid
p235
I0
sV4w
p236
I0
sVm
I14
sV4s
p237
I28
sVr
I367
sVw
I12
sVsr
p238
V24.50
p239
sVov
p240
V49.00
p241
sV5w
p242
I0
ssg51
(dp243
Va
V12.40
p244
sVb
I60
sVinns
p245
I6
sVno
p246
I1
sVsr
p247
V103.33
p248
sVm
I14
sV4s
p249
I7
sV6s
p250
I0
sVhs
p251
V22
p252
sVr
V62
p253
sV100s
p254
I0
sV50s
p255
I0
ssg65
I2010
stp256
a(Vipl2009
(dp257
g25
(dp258
Vinns
p259
I4
sVc
I6
sVro
p260
I0
sVm
I14
sVs
I0
ssg29
(dp261
Vinns
p262
I14
sV10w
p263
I0
sVnb
p264
I0
sVmaid
p265
I1
sVwb
p266
I4
sVbbmw
p267
I2
sV6s
p268
I12
sVbbmr
p269
I22
sVbbir
p270
I22
sVbbiw
p271
I2
sVa
V25.66
p272
sVb
I269
sVe
V6.86
p273
sVd
I111
sVwmaid
p274
I0
sV4w
p275
I0
sVm
I14
sV4s
p276
I21
sVr
I308
sVw
I12
sVsr
p277
V22.41
p278
sVov
p279
V44.83
p280
sV5w
p281
I0
ssg51
(dp282
Va
V6.20
p283
sVb
I36
sVinns
p284
I10
sVno
p285
I5
sVsr
p286
V86.11
p287
sVm
I14
sV4s
p288
I3
sV6s
p289
I0
sVhs
p290
V8*
p291
sVr
V31
p292
sV100s
p293
I0
sV50s
p294
I0
ssg65
I2009
stp295
a(Vclt20-2009
(dp296
g25
(dp297
Vinns
p298
I0
sVc
I0
sVro
p299
I0
sVm
I2
sVs
I0
ssg29
(dp300
Vinns
p301
I2
sV10w
p302
I0
sVnb
p303
I0
sVmaid
p304
I0
sVwb
p305
I0
sVbbmw
p306
I2
sV6s
p307
I2
sVbbmr
p308
I17
sVbbir
p309
I17
sVbbiw
p310
I2
sVa
V12.66
p311
sVb
I36
sVe
V6.33
p312
sVd
I12
sVwmaid
p313
I0
sV4w
p314
I0
sVm
I2
sV4s
p315
I1
sVr
I38
sVw
I3
sVsr
p316
V12.00
p317
sVov
p318
V6.00
p319
sV5w
p320
I0
ssg51
(dp321
Va
V9.00
p322
sVb
I8
sVinns
p323
I2
sVno
p324
I1
sVsr
p325
V112.50
p326
sVm
I2
sV4s
p327
I1
sV6s
p328
I0
sVhs
p329
V9*
p330
sVr
V9
sV100s
p331
I0
sV50s
p332
I0
ssg65
I2009
stp333
a(Vipl2008
(dp334
g25
(dp335
Vinns
p336
I6
sVc
I6
sVro
p337
I1
sVm
I15
sVs
I0
ssg29
(dp338
Vinns
p339
I15
sV10w
p340
I0
sVnb
p341
I0
sVmaid
p342
I0
sVwb
p343
I5
sVbbmw
p344
I3
sV6s
p345
I21
sVbbmr
p346
I25
sVbbir
p347
I25
sVbbiw
p348
I3
sVa
V22.88
p349
sVb
I281
sVe
V8.30
p350
sVd
I110
sVwmaid
p351
I0
sV4w
p352
I0
sVm
I15
sV4s
p353
I30
sVr
I389
sVw
I17
sVsr
p354
V16.52
p355
sVov
p356
V46.83
p357
sV5w
p358
I0
ssg51
(dp359
Va
V22.50
p360
sVb
I59
sVinns
p361
I7
sVno
p362
I3
sVsr
p363
V152.54
p364
sVm
I15
sV4s
p365
I10
sV6s
p366
I3
sVhs
p367
V24*
p368
sVr
V90
p369
sV100s
p370
I0
sV50s
p371
I0
ssg65
I2008
stp372
asb.