(iplayer
Player
p1
(dp2
S'is_batsman'
p3
I00
sS'name'
p4
S'Moises Henriques'
p5
sS'dob'
p6
S'1987/02/01'
p7
sS'price'
p8
S'900000'
p9
sS'is_allrounder'
p10
I01
sS'is_overseas'
p11
I01
sS'team'
p12
S'SRH'
p13
sS'nationality'
p14
S'Australian'
p15
sS'is_bowler'
p16
I00
sS'is_keeper'
p17
I00
sS'id'
p18
S'388'
p19
sS'is_uncapped'
p20
I00
sS'tournamentStats'
p21
(lp22
(Vsa-aus-2014
(dp23
S'fieldingStats'
p24
(dp25
Vinns
p26
I1
sVc
I1
sVro
p27
I0
sVm
I1
sVs
I0
ssS'bowlingStats'
p28
(dp29
Vinns
p30
I1
sV10w
p31
I0
sVnb
p32
I0
sVmaid
p33
I0
sVwb
p34
I0
sVbbmw
p35
I1
sV6s
p36
I0
sVbbmr
p37
I15
sVbbir
p38
I15
sVbbiw
p39
I1
sVa
V15.00
p40
sVb
I18
sVe
V5.00
p41
sVd
I8
sVwmaid
p42
I0
sV4w
p43
I0
sVm
I1
sV4s
p44
I2
sVr
I15
sVw
I1
sVsr
p45
V18.00
p46
sVov
p47
V3.00
p48
sV5w
p49
I0
ssS'battingStats'
p50
(dp51
Va
V-
sVinns
p52
I0
sVno
p53
I0
sVsr
p54
V-
sVm
I1
sV4s
p55
I0
sV6s
p56
I0
sVhs
p57
V0*
p58
sVr
V0
sV100s
p59
I0
sV50s
p60
I0
ssS'year'
p61
I2014
stp62
a(Vbigbash-2013
(dp63
g24
(dp64
Vinns
p65
I3
sVc
I3
sVro
p66
I1
sVm
I8
sVs
I0
ssg28
(dp67
Vinns
p68
I8
sV10w
p69
I0
sVnb
p70
I0
sVmaid
p71
I0
sVwb
p72
I1
sVbbmw
p73
I2
sV6s
p74
I5
sVbbmr
p75
I24
sVbbir
p76
I24
sVbbiw
p77
I2
sVa
V46.00
p78
sVb
I135
sVe
V8.17
p79
sVd
I38
sVwmaid
p80
I0
sV4w
p81
I0
sVm
I8
sV4s
p82
I17
sVr
I184
sVw
I4
sVsr
p83
V33.75
p84
sVov
p85
V22.50
p86
sV5w
p87
I0
ssg50
(dp88
Va
V33.83
p89
sVb
I160
sVinns
p90
I8
sVno
p91
I2
sVsr
p92
V126.87
p93
sVm
I8
sV4s
p94
I22
sV6s
p95
I4
sVhs
p96
V55
p97
sVr
V203
p98
sV100s
p99
I0
sV50s
p100
I1
ssg61
I2013
stp101
a(Vaus-eng-2013
(dp102
g24
(dp103
Vinns
p104
I0
sVc
I0
sVro
p105
I0
sVm
I1
sVs
I0
ssg28
(dp106
Vinns
p107
I1
sV10w
p108
I0
sVnb
p109
I0
sVmaid
p110
I0
sVwb
p111
I0
sVbbmw
p112
I2
sV6s
p113
I3
sVbbmr
p114
I36
sVbbir
p115
I36
sVbbiw
p116
I2
sVa
V18.00
p117
sVb
I18
sVe
V12.00
p118
sVd
I4
sVwmaid
p119
I0
sV4w
p120
I0
sVm
I1
sV4s
p121
I2
sVr
I36
sVw
I2
sVsr
p122
V9.00
p123
sVov
p124
V3.00
p125
sV5w
p126
I0
ssg50
(dp127
Va
V-
sVinns
p128
I0
sVno
p129
I0
sVsr
p130
V-
sVm
I1
sV4s
p131
I0
sV6s
p132
I0
sVhs
p133
V0*
p134
sVr
V0
sV100s
p135
I0
sV50s
p136
I0
ssg61
I2013
stp137
a(Vind-aus-2-2013
(dp138
g24
(dp139
Vinns
p140
I0
sVc
I0
sVro
p141
I0
sVm
I1
sVs
I0
ssg28
(dp142
Vinns
p143
I1
sV10w
p144
I0
sVnb
p145
I0
sVmaid
p146
I0
sVwb
p147
I0
sVbbmw
p148
I0
sV6s
p149
I0
sVbbmr
p150
I15
sVbbir
p151
I15
sVbbiw
p152
I0
sVa
V-
sVb
I6
sVe
V15.00
p153
sVd
I1
sVwmaid
p154
I0
sV4w
p155
I0
sVm
I1
sV4s
p156
I3
sVr
I15
sVw
I0
sVsr
p157
V-
sVov
p158
V1.00
p159
sV5w
p160
I0
ssg50
(dp161
Va
V12.00
p162
sVb
I12
sVinns
p163
I1
sVno
p164
I0
sVsr
p165
V100.00
p166
sVm
I1
sV4s
p167
I1
sV6s
p168
I0
sVhs
p169
V12
p170
sVr
V12
p171
sV100s
p172
I0
sV50s
p173
I0
ssg61
I2013
stp174
a(Vind-aus-2013
(dp175
g24
(dp176
Vinns
p177
I1
sVc
I1
sVro
p178
I0
sVm
I3
sVs
I0
ssg28
(dp179
Vinns
p180
I3
sV10w
p181
I0
sVnb
p182
I0
sVmaid
p183
I12
sVwb
p184
I1
sVbbmw
p185
I1
sV6s
p186
I1
sVbbmr
p187
I48
sVbbir
p188
I48
sVbbiw
p189
I1
sVa
V77.50
p190
sVb
I318
sVe
V2.92
p191
sVd
I244
sVwmaid
p192
I0
sV4w
p193
I0
sVm
I3
sV4s
p194
I23
sVr
I155
sVw
I2
sVsr
p195
V159.00
p196
sVov
p197
V53.00
p198
sV5w
p199
I0
ssg50
(dp200
Va
V31.20
p201
sVb
I318
sVinns
p202
I6
sVno
p203
I1
sVsr
p204
V49.05
p205
sVm
I3
sV4s
p206
I12
sV6s
p207
I2
sVhs
p208
V81*
p209
sVr
V156
p210
sV100s
p211
I0
sV50s
p212
I2
ssg61
I2013
stp213
a(Vipl2013
(dp214
g24
(dp215
Vinns
p216
I4
sVc
I5
sVro
p217
I0
sVm
I10
sVs
I0
ssg28
(dp218
Vinns
p219
I8
sV10w
p220
I0
sVnb
p221
I0
sVmaid
p222
I0
sVwb
p223
I5
sVbbmw
p224
I2
sV6s
p225
I6
sVbbmr
p226
I14
sVbbir
p227
I14
sVbbiw
p228
I2
sVa
V26.42
p229
sVb
I127
sVe
V8.74
p230
sVd
I50
sVwmaid
p231
I0
sV4w
p232
I0
sVm
I10
sV4s
p233
I22
sVr
I185
sVw
I7
sVsr
p234
V18.14
p235
sVov
p236
V21.16
p237
sV5w
p238
I0
ssg50
(dp239
Va
V41.25
p240
sVb
I125
sVinns
p241
I9
sVno
p242
I5
sVsr
p243
V132.00
p244
sVm
I10
sV4s
p245
I20
sV6s
p246
I3
sVhs
p247
V44
p248
sVr
V165
p249
sV100s
p250
I0
sV50s
p251
I0
ssg61
I2013
stp252
a(Vclt20-2012
(dp253
g24
(dp254
Vinns
p255
I2
sVc
I1
sVro
p256
I1
sVm
I6
sVs
I0
ssg28
(dp257
Vinns
p258
I5
sV10w
p259
I0
sVnb
p260
I0
sVmaid
p261
I0
sVwb
p262
I2
sVbbmw
p263
I3
sV6s
p264
I4
sVbbmr
p265
I23
sVbbir
p266
I23
sVbbiw
p267
I3
sVa
V14.50
p268
sVb
I96
sVe
V7.25
p269
sVd
I34
sVwmaid
p270
I0
sV4w
p271
I0
sVm
I6
sV4s
p272
I8
sVr
I116
sVw
I8
sVsr
p273
V12.00
p274
sVov
p275
V16.00
p276
sV5w
p277
I0
ssg50
(dp278
Va
V28.66
p279
sVb
I50
sVinns
p280
I4
sVno
p281
I1
sVsr
p282
V172.00
p283
sVm
I6
sV4s
p284
I8
sV6s
p285
I5
sVhs
p286
V49*
p287
sVr
V86
p288
sV100s
p289
I0
sV50s
p290
I0
ssg61
I2012
stp291
a(Vbigbash-2012
(dp292
g24
(dp293
Vinns
p294
I2
sVc
I1
sVro
p295
I1
sVm
I8
sVs
I0
ssg28
(dp296
Vinns
p297
I5
sV10w
p298
I0
sVnb
p299
I0
sVmaid
p300
I0
sVwb
p301
I5
sVbbmw
p302
I1
sV6s
p303
I2
sVbbmr
p304
I9
sVbbir
p305
I9
sVbbiw
p306
I1
sVa
V38.33
p307
sVb
I71
sVe
V9.71
p308
sVd
I17
sVwmaid
p309
I0
sV4w
p310
I0
sVm
I8
sV4s
p311
I12
sVr
I115
sVw
I3
sVsr
p312
V23.66
p313
sVov
p314
V11.83
p315
sV5w
p316
I0
ssg50
(dp317
Va
V11.14
p318
sVb
I75
sVinns
p319
I8
sVno
p320
I1
sVsr
p321
V104.00
p322
sVm
I8
sV4s
p323
I7
sV6s
p324
I2
sVhs
p325
V32
p326
sVr
V78
p327
sV100s
p328
I0
sV50s
p329
I0
ssg61
I2012
stp330
a(Vaus-sl-2012
(dp331
g24
(dp332
Vinns
p333
I1
sVc
I1
sVro
p334
I0
sVm
I3
sVs
I0
ssg28
(dp335
Vinns
p336
I2
sV10w
p337
I0
sVnb
p338
I0
sVmaid
p339
I1
sVwb
p340
I0
sVbbmw
p341
I3
sV6s
p342
I0
sVbbmr
p343
I32
sVbbir
p344
I32
sVbbiw
p345
I3
sVa
V13.00
p346
sVb
I72
sVe
V3.25
p347
sVd
I44
sVwmaid
p348
I0
sV4w
p349
I0
sVm
I3
sV4s
p350
I3
sVr
I39
sVw
I3
sVsr
p351
V24.00
p352
sVov
p353
V12.00
p354
sV5w
p355
I0
ssg50
(dp356
Va
V7.00
p357
sVb
I22
sVinns
p358
I3
sVno
p359
I1
sVsr
p360
V63.63
p361
sVm
I3
sV4s
p362
I0
sV6s
p363
I0
sVhs
p364
V9*
p365
sVr
V14
p366
sV100s
p367
I0
sV50s
p368
I0
ssg61
I2012
stp369
a(Vclt20-2011
p370
(dp371
g24
(dp372
Vinns
p373
I3
sVc
I3
sVro
p374
I0
sVm
I5
sVs
I0
ssg28
(dp375
Vinns
p376
I5
sV10w
p377
I0
sVnb
p378
I0
sVmaid
p379
I0
sVwb
p380
I1
sVbbmw
p381
I2
sV6s
p382
I6
sVbbmr
p383
I27
sVbbir
p384
I27
sVbbiw
p385
I2
sVa
V33.25
p386
sVb
I104
sVe
V7.67
p387
sVd
I39
sVwmaid
p388
I0
sV4w
p389
I0
sVm
I5
sV4s
p390
I11
sVr
I133
sVw
I4
sVsr
p391
V26.00
p392
sVov
p393
V17.33
p394
sV5w
p395
I0
ssg50
(dp396
Va
V22.50
p397
sVb
I41
sVinns
p398
I4
sVno
p399
I2
sVsr
p400
V109.75
p401
sVm
I5
sV4s
p402
I4
sV6s
p403
I1
sVhs
p404
V18*
p405
sVr
V45
p406
sV100s
p407
I0
sV50s
p408
I0
ssg61
I2011
stp409
a(Vipl2010
(dp410
g24
(dp411
Vinns
p412
I1
sVc
I1
sVro
p413
I0
sVm
I1
sVs
I0
ssg28
(dp414
Vinns
p415
I1
sV10w
p416
I0
sVnb
p417
I0
sVmaid
p418
I0
sVwb
p419
I0
sVbbmw
p420
I1
sV6s
p421
I2
sVbbmr
p422
I35
sVbbir
p423
I35
sVbbiw
p424
I1
sVa
V35.00
p425
sVb
I24
sVe
V8.75
p426
sVd
I10
sVwmaid
p427
I0
sV4w
p428
I0
sVm
I1
sV4s
p429
I3
sVr
I35
sVw
I1
sVsr
p430
V24.00
p431
sVov
p432
V4.00
p433
sV5w
p434
I0
ssg50
(dp435
Va
V11.00
p436
sVb
I5
sVinns
p437
I1
sVno
p438
I0
sVsr
p439
V220.00
p440
sVm
I1
sV4s
p441
I2
sV6s
p442
I0
sVhs
p443
V11
p444
sVr
V11
p445
sV100s
p446
I0
sV50s
p447
I0
ssg61
I2010
stp448
a(Vclt20-2009
(dp449
g24
(dp450
Vinns
p451
I1
sVc
I2
sVro
p452
I0
sVm
I6
sVs
I0
ssg28
(dp453
Vinns
p454
I5
sV10w
p455
I0
sVnb
p456
I0
sVmaid
p457
I0
sVwb
p458
I1
sVbbmw
p459
I3
sV6s
p460
I6
sVbbmr
p461
I11
sVbbir
p462
I11
sVbbiw
p463
I3
sVa
V11.60
p464
sVb
I99
sVe
V7.03
p465
sVd
I45
sVwmaid
p466
I0
sV4w
p467
I0
sVm
I6
sV4s
p468
I11
sVr
I116
sVw
I10
sVsr
p469
V9.90
p470
sVov
p471
V16.50
p472
sV5w
p473
I0
ssg50
(dp474
Va
V23.80
p475
sVb
I88
sVinns
p476
I6
sVno
p477
I1
sVsr
p478
V135.22
p479
sVm
I6
sV4s
p480
I6
sV6s
p481
I6
sVhs
p482
V51*
p483
sVr
V119
p484
sV100s
p485
I0
sV50s
p486
I1
ssg61
I2009
stp487
a(Vipl2009
(dp488
g24
(dp489
Vinns
p490
I3
sVc
I3
sVro
p491
I0
sVm
I4
sVs
I0
ssg28
(dp492
Vinns
p493
I4
sV10w
p494
I0
sVnb
p495
I0
sVmaid
p496
I0
sVwb
p497
I3
sVbbmw
p498
I1
sV6s
p499
I0
sVbbmr
p500
I32
sVbbir
p501
I32
sVbbiw
p502
I1
sVa
V53.50
p503
sVb
I73
sVe
V8.79
p504
sVd
I24
sVwmaid
p505
I0
sV4w
p506
I0
sVm
I4
sV4s
p507
I16
sVr
I107
sVw
I2
sVsr
p508
V36.50
p509
sVov
p510
V12.16
p511
sV5w
p512
I0
ssg50
(dp513
Va
V19.00
p514
sVb
I40
sVinns
p515
I3
sVno
p516
I1
sVsr
p517
V95.00
p518
sVm
I4
sV4s
p519
I2
sV6s
p520
I1
sVhs
p521
V30*
p522
sVr
V38
p523
sV100s
p524
I0
sV50s
p525
I0
ssg61
I2009
stp526
asb.