(iplayer
Player
p1
(dp2
S'is_batsman'
p3
I01
sS'name'
p4
S'David Miller'
p5
sS'dob'
p6
S'1989/06/10'
p7
sS'price'
p8
S'1050000'
p9
sS'is_allrounder'
p10
I00
sS'is_overseas'
p11
I01
sS'team'
p12
S'KXIP'
p13
sS'nationality'
p14
S'South African'
p15
sS'is_bowler'
p16
I00
sS'is_keeper'
p17
I00
sS'id'
p18
S'187'
p19
sS'is_uncapped'
p20
I00
sS'tournamentStats'
p21
(lp22
(Vworldt20-2014
(dp23
S'fieldingStats'
p24
(dp25
Vinns
p26
I2
sVc
I2
sVro
p27
I1
sVm
I3
sVs
I0
ssS'bowlingStats'
p28
(dp29
Vinns
p30
I0
sV10w
p31
I0
sVnb
p32
I0
sVmaid
p33
I0
sVwb
p34
I0
sVbbmw
p35
I0
sV6s
p36
I0
sVbbmr
p37
I0
sVbbir
p38
I0
sVbbiw
p39
I0
sVa
V-
sVb
I0
sVe
V-
sVd
I0
sVwmaid
p40
I0
sV4w
p41
I0
sVm
I3
sV4s
p42
I0
sVr
I0
sVw
I0
sVsr
p43
V-
sVov
p44
V-
sV5w
p45
I0
ssS'battingStats'
p46
(dp47
Va
V14.00
p48
sVb
I40
sVinns
p49
I3
sVno
p50
I0
sVsr
p51
V105.00
p52
sVm
I3
sV4s
p53
I2
sV6s
p54
I0
sVhs
p55
V19
p56
sVr
V42
p57
sV100s
p58
I0
sV50s
p59
I0
ssS'year'
p60
I2014
stp61
a(Vsa-aus-2014
(dp62
g24
(dp63
Vinns
p64
I2
sVc
I1
sVro
p65
I1
sVm
I2
sVs
I0
ssg28
(dp66
Vinns
p67
I0
sV10w
p68
I0
sVnb
p69
I0
sVmaid
p70
I0
sVwb
p71
I0
sVbbmw
p72
I0
sV6s
p73
I0
sVbbmr
p74
I0
sVbbir
p75
I0
sVbbiw
p76
I0
sVa
V-
sVb
I0
sVe
V-
sVd
I0
sVwmaid
p77
I0
sV4w
p78
I0
sVm
I2
sV4s
p79
I0
sVr
I0
sVw
I0
sVsr
p80
V-
sVov
p81
V-
sV5w
p82
I0
ssg46
(dp83
Va
V2.00
p84
sVb
I7
sVinns
p85
I1
sVno
p86
I0
sVsr
p87
V28.57
p88
sVm
I2
sV4s
p89
I0
sV6s
p90
I0
sVhs
p91
V2
sVr
V2
sV100s
p92
I0
sV50s
p93
I0
ssg60
I2014
stp94
a(Vsl-sa-2013
(dp95
g24
(dp96
Vinns
p97
I1
sVc
I1
sVro
p98
I0
sVm
I8
sVs
I0
ssg28
(dp99
Vinns
p100
I0
sV10w
p101
I0
sVnb
p102
I0
sVmaid
p103
I0
sVwb
p104
I0
sVbbmw
p105
I0
sV6s
p106
I0
sVbbmr
p107
I0
sVbbir
p108
I0
sVbbiw
p109
I0
sVa
V-
sVb
I0
sVe
V-
sVd
I0
sVwmaid
p110
I0
sV4w
p111
I0
sVm
I8
sV4s
p112
I0
sVr
I0
sVw
I0
sVsr
p113
V-
sVov
p114
V-
sV5w
p115
I0
ssg46
(dp116
Va
V36.60
p117
sVb
I178
sVinns
p118
I7
sVno
p119
I2
sVsr
p120
V102.80
p121
sVm
I8
sV4s
p122
I6
sV6s
p123
I9
sVhs
p124
V85*
p125
sVr
V183
p126
sV100s
p127
I0
sV50s
p128
I1
ssg60
I2013
stp129
a(Vsa-ind-2013
(dp130
g24
(dp131
Vinns
p132
I2
sVc
I1
sVro
p133
I1
sVm
I3
sVs
I0
ssg28
(dp134
Vinns
p135
I0
sV10w
p136
I0
sVnb
p137
I0
sVmaid
p138
I0
sVwb
p139
I0
sVbbmw
p140
I0
sV6s
p141
I0
sVbbmr
p142
I0
sVbbir
p143
I0
sVbbiw
p144
I0
sVa
V-
sVb
I0
sVe
V-
sVd
I0
sVwmaid
p145
I0
sV4w
p146
I0
sVm
I3
sV4s
p147
I0
sVr
I0
sVw
I0
sVsr
p148
V-
sVov
p149
V-
sV5w
p150
I0
ssg46
(dp151
Va
V61.00
p152
sVb
I39
sVinns
p153
I3
sVno
p154
I2
sVsr
p155
V156.41
p156
sVm
I3
sV4s
p157
I6
sV6s
p158
I3
sVhs
p159
V56*
p160
sVr
V61
p161
sV100s
p162
I0
sV50s
p163
I1
ssg60
I2013
stp164
a(Vsa-pak-2013
(dp165
g24
(dp166
Vinns
p167
I1
sVc
I1
sVro
p168
I0
sVm
I2
sVs
I0
ssg28
(dp169
Vinns
p170
I0
sV10w
p171
I0
sVnb
p172
I0
sVmaid
p173
I0
sVwb
p174
I0
sVbbmw
p175
I0
sV6s
p176
I0
sVbbmr
p177
I0
sVbbir
p178
I0
sVbbiw
p179
I0
sVa
V-
sVb
I0
sVe
V-
sVd
I0
sVwmaid
p180
I0
sV4w
p181
I0
sVm
I2
sV4s
p182
I0
sVr
I0
sVw
I0
sVsr
p183
V-
sVov
p184
V-
sV5w
p185
I0
ssg46
(dp186
Va
V38.00
p187
sVb
I92
sVinns
p188
I2
sVno
p189
I0
sVsr
p190
V82.60
p191
sVm
I2
sV4s
p192
I7
sV6s
p193
I0
sVhs
p194
V67
p195
sVr
V76
p196
sV100s
p197
I0
sV50s
p198
I1
ssg60
I2013
stp199
a(Vpak-sa-2013
(dp200
g24
(dp201
Vinns
p202
I4
sVc
I5
sVro
p203
I0
sVm
I7
sVs
I0
ssg28
(dp204
Vinns
p205
I0
sV10w
p206
I0
sVnb
p207
I0
sVmaid
p208
I0
sVwb
p209
I0
sVbbmw
p210
I0
sV6s
p211
I0
sVbbmr
p212
I0
sVbbir
p213
I0
sVbbiw
p214
I0
sVa
V-
sVb
I0
sVe
V-
sVd
I0
sVwmaid
p215
I0
sV4w
p216
I0
sVm
I7
sV4s
p217
I0
sVr
I0
sVw
I0
sVsr
p218
V-
sVov
p219
V-
sV5w
p220
I0
ssg46
(dp221
Va
V17.66
p222
sVb
I142
sVinns
p223
I6
sVno
p224
I0
sVsr
p225
V74.64
p226
sVm
I7
sV4s
p227
I7
sV6s
p228
I1
sVhs
p229
V37
p230
sVr
V106
p231
sV100s
p232
I0
sV50s
p233
I0
ssg60
I2013
stp234
a(Vchamptrophy-2013-warmups
(dp235
g24
(dp236
Vinns
p237
I0
sVc
I0
sVro
p238
I0
sVm
I1
sVs
I0
ssg28
(dp239
Vinns
p240
I0
sV10w
p241
I0
sVnb
p242
I0
sVmaid
p243
I0
sVwb
p244
I0
sVbbmw
p245
I0
sV6s
p246
I0
sVbbmr
p247
I0
sVbbir
p248
I0
sVbbiw
p249
I0
sVa
V-
sVb
I0
sVe
V-
sVd
I0
sVwmaid
p250
I0
sV4w
p251
I0
sVm
I1
sV4s
p252
I0
sVr
I0
sVw
I0
sVsr
p253
V-
sVov
p254
V-
sV5w
p255
I0
ssg46
(dp256
Va
V26.00
p257
sVb
I33
sVinns
p258
I1
sVno
p259
I0
sVsr
p260
V78.78
p261
sVm
I1
sV4s
p262
I4
sV6s
p263
I0
sVhs
p264
V26
p265
sVr
V26
p266
sV100s
p267
I0
sV50s
p268
I0
ssg60
I2013
stp269
a(Vchamptrophy-2013
(dp270
g24
(dp271
Vinns
p272
I1
sVc
I1
sVro
p273
I0
sVm
I4
sVs
I0
ssg28
(dp274
Vinns
p275
I0
sV10w
p276
I0
sVnb
p277
I0
sVmaid
p278
I0
sVwb
p279
I0
sVbbmw
p280
I0
sV6s
p281
I0
sVbbmr
p282
I0
sVbbir
p283
I0
sVbbiw
p284
I0
sVa
V-
sVb
I0
sVe
V-
sVd
I0
sVwmaid
p285
I0
sV4w
p286
I0
sVm
I4
sV4s
p287
I0
sVr
I0
sVw
I0
sVsr
p288
V-
sVov
p289
V-
sV5w
p290
I0
ssg46
(dp291
Va
V37.66
p292
sVb
I104
sVinns
p293
I4
sVno
p294
I1
sVsr
p295
V108.65
p296
sVm
I4
sV4s
p297
I8
sV6s
p298
I5
sVhs
p299
V56*
p300
sVr
V113
p301
sV100s
p302
I0
sV50s
p303
I1
ssg60
I2013
stp304
a(Vipl2013
(dp305
g24
(dp306
Vinns
p307
I8
sVc
I8
sVro
p308
I0
sVm
I12
sVs
I0
ssg28
(dp309
Vinns
p310
I0
sV10w
p311
I0
sVnb
p312
I0
sVmaid
p313
I0
sVwb
p314
I0
sVbbmw
p315
I0
sV6s
p316
I0
sVbbmr
p317
I0
sVbbir
p318
I0
sVbbiw
p319
I0
sVa
V-
sVb
I0
sVe
V-
sVd
I0
sVwmaid
p320
I0
sV4w
p321
I0
sVm
I12
sV4s
p322
I0
sVr
I0
sVw
I0
sVsr
p323
V-
sVov
p324
V-
sV5w
p325
I0
ssg46
(dp326
Va
V59.71
p327
sVb
I254
sVinns
p328
I12
sVno
p329
I5
sVsr
p330
V164.56
p331
sVm
I12
sV4s
p332
I28
sV6s
p333
I24
sVhs
p334
V101*
p335
sVr
V418
p336
sV100s
p337
I1
sV50s
p338
I3
ssg60
I2013
stp339
a(Vsa-pak-2-2013
(dp340
g24
(dp341
Vinns
p342
I0
sVc
I0
sVro
p343
I0
sVm
I5
sVs
I0
ssg28
(dp344
Vinns
p345
I0
sV10w
p346
I0
sVnb
p347
I0
sVmaid
p348
I0
sVwb
p349
I0
sVbbmw
p350
I0
sV6s
p351
I0
sVbbmr
p352
I0
sVbbir
p353
I0
sVbbiw
p354
I0
sVa
V-
sVb
I0
sVe
V-
sVd
I0
sVwmaid
p355
I0
sV4w
p356
I0
sVm
I5
sV4s
p357
I0
sVr
I0
sVw
I0
sVsr
p358
V-
sVov
p359
V-
sV5w
p360
I0
ssg46
(dp361
Va
V35.50
p362
sVb
I68
sVinns
p363
I5
sVno
p364
I3
sVsr
p365
V104.41
p366
sVm
I5
sV4s
p367
I6
sV6s
p368
I2
sVhs
p369
V24
p370
sVr
V71
p371
sV100s
p372
I0
sV50s
p373
I0
ssg60
I2013
stp374
a(Vipl2012
(dp375
g24
(dp376
Vinns
p377
I1
sVc
I1
sVro
p378
I1
sVm
I6
sVs
I0
ssg28
(dp379
Vinns
p380
I0
sV10w
p381
I0
sVnb
p382
I0
sVmaid
p383
I0
sVwb
p384
I0
sVbbmw
p385
I0
sV6s
p386
I0
sVbbmr
p387
I0
sVbbir
p388
I0
sVbbiw
p389
I0
sVa
V-
sVb
I0
sVe
V-
sVd
I0
sVwmaid
p390
I0
sV4w
p391
I0
sVm
I6
sV4s
p392
I0
sVr
I0
sVw
I0
sVsr
p393
V-
sVov
p394
V-
sV5w
p395
I0
ssg46
(dp396
Va
V32.66
p397
sVb
I75
sVinns
p398
I6
sVno
p399
I3
sVsr
p400
V130.66
p401
sVm
I6
sV4s
p402
I6
sV6s
p403
I4
sVhs
p404
V34*
p405
sVr
V98
p406
sV100s
p407
I0
sV50s
p408
I0
ssg60
I2012
stp409
a(Vclt20-2012
(dp410
g24
(dp411
Vinns
p412
I2
sVc
I3
sVro
p413
I0
sVm
I2
sVs
I0
ssg28
(dp414
Vinns
p415
I0
sV10w
p416
I0
sVnb
p417
I0
sVmaid
p418
I0
sVwb
p419
I0
sVbbmw
p420
I0
sV6s
p421
I0
sVbbmr
p422
I0
sVbbir
p423
I0
sVbbiw
p424
I0
sVa
V-
sVb
I0
sVe
V-
sVd
I0
sVwmaid
p425
I0
sV4w
p426
I0
sVm
I2
sV4s
p427
I0
sVr
I0
sVw
I0
sVsr
p428
V-
sVov
p429
V-
sV5w
p430
I0
ssg46
(dp431
Va
V67.00
p432
sVb
I55
sVinns
p433
I2
sVno
p434
I1
sVsr
p435
V121.81
p436
sVm
I2
sV4s
p437
I5
sV6s
p438
I2
sVhs
p439
V39*
p440
sVr
V67
p441
sV100s
p442
I0
sV50s
p443
I0
ssg60
I2012
stp444
a(Vsa-nz-2012
p445
(dp446
g24
(dp447
Vinns
p448
I1
sVc
I2
sVro
p449
I0
sVm
I4
sVs
I0
ssg28
(dp450
Vinns
p451
I0
sV10w
p452
I0
sVnb
p453
I0
sVmaid
p454
I0
sVwb
p455
I0
sVbbmw
p456
I0
sV6s
p457
I0
sVbbmr
p458
I0
sVbbir
p459
I0
sVbbiw
p460
I0
sVa
V-
sVb
I0
sVe
V-
sVd
I0
sVwmaid
p461
I0
sV4w
p462
I0
sVm
I4
sV4s
p463
I0
sVr
I0
sVw
I0
sVsr
p464
V-
sVov
p465
V-
sV5w
p466
I0
ssg46
(dp467
Va
V25.33
p468
sVb
I52
sVinns
p469
I3
sVno
p470
I0
sVsr
p471
V146.15
p472
sVm
I4
sV4s
p473
I8
sV6s
p474
I2
sVhs
p475
V33
p476
sVr
V76
p477
sV100s
p478
I0
sV50s
p479
I0
ssg60
I2012
stp480
asb.