(iplayer
Player
p1
(dp2
S'is_batsman'
p3
I00
sS'name'
p4
S'Morne Morkel'
p5
sS'dob'
p6
S'1984/10/06'
p7
sS'price'
p8
S'900000'
p9
sS'is_allrounder'
p10
I00
sS'is_overseas'
p11
I01
sS'team'
p12
S'KKR'
p13
sS'nationality'
p14
S'South African'
p15
sS'is_bowler'
p16
I01
sS'is_keeper'
p17
I00
sS'id'
p18
S'169'
p19
sS'is_uncapped'
p20
I00
sS'tournamentStats'
p21
(lp22
(Vsa-aus-2014
(dp23
S'fieldingStats'
p24
(dp25
Vinns
p26
I0
sVc
I0
sVro
p27
I0
sVm
I3
sVs
I0
ssS'bowlingStats'
p28
(dp29
Vinns
p30
I6
sV10w
p31
I0
sVnb
p32
I6
sVmaid
p33
I18
sVwb
p34
I4
sVbbmw
p35
I4
sV6s
p36
I1
sVbbmr
p37
I109
sVbbir
p38
I63
sVbbiw
p39
I3
sVa
V63.50
p40
sVb
I623
sVe
V3.66
p41
sVd
I460
sVwmaid
p42
I0
sV4w
p43
I0
sVm
I3
sV4s
p44
I54
sVr
I381
sVw
I6
sVsr
p45
V103.83
p46
sVov
p47
V103.83
p48
sV5w
p49
I0
ssS'battingStats'
p50
(dp51
Va
V1.80
p52
sVb
I20
sVinns
p53
I5
sVno
p54
I0
sVsr
p55
V45.00
p56
sVm
I3
sV4s
p57
I1
sV6s
p58
I0
sVhs
p59
V7
sVr
V9
sV100s
p60
I0
sV50s
p61
I0
ssS'year'
p62
I2014
stp63
a(Vworldt20-2014
(dp64
g24
(dp65
Vinns
p66
I0
sVc
I0
sVro
p67
I0
sVm
I2
sVs
I0
ssg28
(dp68
Vinns
p69
I2
sV10w
p70
I0
sVnb
p71
I0
sVmaid
p72
I0
sVwb
p73
I2
sVbbmw
p74
I2
sV6s
p75
I5
sVbbmr
p76
I31
sVbbir
p77
I31
sVbbiw
p78
I2
sVa
V40.50
p79
sVb
I42
sVe
V11.57
p80
sVd
I13
sVwmaid
p81
I0
sV4w
p82
I0
sVm
I2
sV4s
p83
I7
sVr
I81
sVw
I2
sVsr
p84
V21.00
p85
sVov
p86
V7.00
p87
sV5w
p88
I0
ssg50
(dp89
Va
V-
sVinns
p90
I1
sVno
p91
I1
sVsr
p92
V-
sVm
I2
sV4s
p93
I0
sV6s
p94
I0
sVhs
p95
V0*
p96
sVr
V0
sV100s
p97
I0
sV50s
p98
I0
ssg62
I2014
stp99
a(Vsl-sa-2013
(dp100
g24
(dp101
Vinns
p102
I1
sVc
I0
sVro
p103
I1
sVm
I8
sVs
I0
ssg28
(dp104
Vinns
p105
I8
sV10w
p106
I0
sVnb
p107
I1
sVmaid
p108
I4
sVwb
p109
I25
sVbbmw
p110
I3
sV6s
p111
I2
sVbbmr
p112
I34
sVbbir
p113
I34
sVbbiw
p114
I3
sVa
V30.18
p115
sVb
I355
sVe
V5.61
p116
sVd
I215
sVwmaid
p117
I1
sV4w
p118
I0
sVm
I8
sV4s
p119
I49
sVr
I332
sVw
I11
sVsr
p120
V32.27
p121
sVov
p122
V59.16
p123
sV5w
p124
I0
ssg50
(dp125
Va
V0.00
p126
sVb
I8
sVinns
p127
I3
sVno
p128
I0
sVsr
p129
V0.00
p130
sVm
I8
sV4s
p131
I0
sV6s
p132
I0
sVhs
p133
V0*
p134
sVr
V0
sV100s
p135
I0
sV50s
p136
I0
ssg62
I2013
stp137
a(Vsa-ind-2013
(dp138
g24
(dp139
Vinns
p140
I1
sVc
I1
sVro
p141
I0
sVm
I4
sVs
I0
ssg28
(dp142
Vinns
p143
I6
sV10w
p144
I0
sVnb
p145
I3
sVmaid
p146
I26
sVwb
p147
I5
sVbbmw
p148
I3
sV6s
p149
I1
sVbbmr
p150
I38
sVbbir
p151
I34
sVbbiw
p152
I3
sVa
V20.55
p153
sVb
I471
sVe
V2.35
p154
sVd
I381
sVwmaid
p155
I4
sV4w
p156
I0
sVm
I4
sV4s
p157
I23
sVr
I185
sVw
I9
sVsr
p158
V52.33
p159
sVov
p160
V78.50
p161
sV5w
p162
I0
ssg50
(dp163
Va
V3.50
p164
sVb
I11
sVinns
p165
I2
sVno
p166
I0
sVsr
p167
V63.63
p168
sVm
I4
sV4s
p169
I1
sV6s
p170
I0
sVhs
p171
V7
sVr
V7
sV100s
p172
I0
sV50s
p173
I0
ssg62
I2013
stp174
a(Vsa-pak-2013
(dp175
g24
(dp176
Vinns
p177
I0
sVc
I0
sVro
p178
I0
sVm
I2
sVs
I0
ssg28
(dp179
Vinns
p180
I4
sV10w
p181
I0
sVnb
p182
I4
sVmaid
p183
I16
sVwb
p184
I1
sVbbmw
p185
I2
sV6s
p186
I0
sVbbmr
p187
I67
sVbbir
p188
I59
sVbbiw
p189
I2
sVa
V41.75
p190
sVb
I328
sVe
V3.05
p191
sVd
I256
sVwmaid
p192
I2
sV4w
p193
I0
sVm
I2
sV4s
p194
I26
sVr
I167
sVw
I4
sVsr
p195
V82.00
p196
sVov
p197
V54.66
p198
sV5w
p199
I0
ssg50
(dp200
Va
V8.00
p201
sVb
I10
sVinns
p202
I2
sVno
p203
I1
sVsr
p204
V80.00
p205
sVm
I2
sV4s
p206
I2
sV6s
p207
I0
sVhs
p208
V8*
p209
sVr
V8
sV100s
p210
I0
sV50s
p211
I0
ssg62
I2013
stp212
a(Vclt20-2013
(dp213
g24
(dp214
Vinns
p215
I2
sVc
I2
sVro
p216
I0
sVm
I4
sVs
I0
ssg28
(dp217
Vinns
p218
I4
sV10w
p219
I0
sVnb
p220
I0
sVmaid
p221
I1
sVwb
p222
I3
sVbbmw
p223
I1
sV6s
p224
I8
sVbbmr
p225
I26
sVbbir
p226
I26
sVbbiw
p227
I1
sVa
V48.00
p228
sVb
I96
sVe
V9.00
p229
sVd
I44
sVwmaid
p230
I0
sV4w
p231
I0
sVm
I4
sV4s
p232
I17
sVr
I144
sVw
I3
sVsr
p233
V32.00
p234
sVov
p235
V16.00
p236
sV5w
p237
I0
ssg50
(dp238
Va
V0.00
p239
sVb
I1
sVinns
p240
I1
sVno
p241
I0
sVsr
p242
V0.00
p243
sVm
I4
sV4s
p244
I0
sV6s
p245
I0
sVhs
p246
V0*
p247
sVr
V0
sV100s
p248
I0
sV50s
p249
I0
ssg62
I2013
stp250
a(Vpak-sa-2013
(dp251
g24
(dp252
Vinns
p253
I2
sVc
I3
sVro
p254
I0
sVm
I6
sVs
I0
ssg28
(dp255
Vinns
p256
I8
sV10w
p257
I0
sVnb
p258
I1
sVmaid
p259
I17
sVwb
p260
I4
sVbbmw
p261
I3
sV6s
p262
I3
sVbbmr
p263
I38
sVbbir
p264
I38
sVbbiw
p265
I3
sVa
V27.33
p266
sVb
I543
sVe
V2.71
p267
sVd
I413
sVwmaid
p268
I3
sV4w
p269
I0
sVm
I6
sV4s
p270
I25
sVr
I246
sVw
I9
sVsr
p271
V60.33
p272
sVov
p273
V90.50
p274
sV5w
p275
I0
ssg50
(dp276
Va
V4.50
p277
sVb
I42
sVinns
p278
I6
sVno
p279
I2
sVsr
p280
V42.85
p281
sVm
I6
sV4s
p282
I2
sV6s
p283
I0
sVhs
p284
V7
sVr
V18
p285
sV100s
p286
I0
sV50s
p287
I0
ssg62
I2013
stp288
a(Vchamptrophy-2013-warmups
(dp289
g24
(dp290
Vinns
p291
I1
sVc
I1
sVro
p292
I0
sVm
I1
sVs
I0
ssg28
(dp293
Vinns
p294
I1
sV10w
p295
I0
sVnb
p296
I0
sVmaid
p297
I1
sVwb
p298
I0
sVbbmw
p299
I0
sV6s
p300
I0
sVbbmr
p301
I23
sVbbir
p302
I23
sVbbiw
p303
I0
sVa
V-
sVb
I36
sVe
V3.83
p304
sVd
I27
sVwmaid
p305
I0
sV4w
p306
I0
sVm
I1
sV4s
p307
I5
sVr
I23
sVw
I0
sVsr
p308
V-
sVov
p309
V6.00
p310
sV5w
p311
I0
ssg50
(dp312
Va
V-
sVinns
p313
I0
sVno
p314
I0
sVsr
p315
V-
sVm
I1
sV4s
p316
I0
sV6s
p317
I0
sVhs
p318
V0*
p319
sVr
V0
sV100s
p320
I0
sV50s
p321
I0
ssg62
I2013
stp322
a(Vchamptrophy-2013
(dp323
g24
(dp324
Vinns
p325
I0
sVc
I0
sVro
p326
I0
sVm
I1
sVs
I0
ssg28
(dp327
Vinns
p328
I1
sV10w
p329
I0
sVnb
p330
I1
sVmaid
p331
I0
sVwb
p332
I0
sVbbmw
p333
I0
sV6s
p334
I0
sVbbmr
p335
I27
sVbbir
p336
I27
sVbbiw
p337
I0
sVa
V-
sVb
I41
sVe
V3.95
p338
sVd
I27
sVwmaid
p339
I0
sV4w
p340
I0
sVm
I1
sV4s
p341
I4
sVr
I27
sVw
I0
sVsr
p342
V-
sVov
p343
V6.83
p344
sV5w
p345
I0
ssg50
(dp346
Va
V8.00
p347
sVb
I11
sVinns
p348
I1
sVno
p349
I0
sVsr
p350
V72.72
p351
sVm
I1
sV4s
p352
I1
sV6s
p353
I0
sVhs
p354
V8
sVr
V8
sV100s
p355
I0
sV50s
p356
I0
ssg62
I2013
stp357
a(Vipl2013
(dp358
g24
(dp359
Vinns
p360
I1
sVc
I0
sVro
p361
I1
sVm
I10
sVs
I0
ssg28
(dp362
Vinns
p363
I10
sV10w
p364
I0
sVnb
p365
I3
sVmaid
p366
I0
sVwb
p367
I4
sVbbmw
p368
I2
sV6s
p369
I10
sVbbmr
p370
I27
sVbbir
p371
I27
sVbbiw
p372
I2
sVa
V47.85
p373
sVb
I240
sVe
V8.37
p374
sVd
I91
sVwmaid
p375
I0
sV4w
p376
I0
sVm
I10
sV4s
p377
I33
sVr
I335
sVw
I7
sVsr
p378
V34.28
p379
sVov
p380
V40.00
p381
sV5w
p382
I0
ssg50
(dp383
Va
V11.40
p384
sVb
I29
sVinns
p385
I6
sVno
p386
I1
sVsr
p387
V196.55
p388
sVm
I10
sV4s
p389
I6
sV6s
p390
I3
sVhs
p391
V23*
p392
sVr
V57
p393
sV100s
p394
I0
sV50s
p395
I0
ssg62
I2013
stp396
a(Vsa-pak-2-2013
(dp397
g24
(dp398
Vinns
p399
I0
sVc
I0
sVro
p400
I0
sVm
I3
sVs
I0
ssg28
(dp401
Vinns
p402
I3
sV10w
p403
I0
sVnb
p404
I0
sVmaid
p405
I0
sVwb
p406
I2
sVbbmw
p407
I3
sV6s
p408
I3
sVbbmr
p409
I39
sVbbir
p410
I39
sVbbiw
p411
I3
sVa
V28.66
p412
sVb
I90
sVe
V5.73
p413
sVd
I48
sVwmaid
p414
I0
sV4w
p415
I0
sVm
I3
sV4s
p416
I7
sVr
I86
sVw
I3
sVsr
p417
V30.00
p418
sVov
p419
V15.00
p420
sV5w
p421
I0
ssg50
(dp422
Va
V25.00
p423
sVb
I23
sVinns
p424
I2
sVno
p425
I1
sVsr
p426
V108.69
p427
sVm
I3
sV4s
p428
I3
sV6s
p429
I1
sVhs
p430
V17
p431
sVr
V25
p432
sV100s
p433
I0
sV50s
p434
I0
ssg62
I2013
stp435
a(Vipl2012
(dp436
g24
(dp437
Vinns
p438
I1
sVc
I1
sVro
p439
I0
sVm
I16
sVs
I0
ssg28
(dp440
Vinns
p441
I16
sV10w
p442
I0
sVnb
p443
I1
sVmaid
p444
I1
sVwb
p445
I10
sVbbmw
p446
I4
sV6s
p447
I9
sVbbmr
p448
I20
sVbbir
p449
I20
sVbbiw
p450
I4
sVa
V18.12
p451
sVb
I378
sVe
V7.19
p452
sVd
I154
sVwmaid
p453
I1
sV4w
p454
I1
sVm
I16
sV4s
p455
I50
sVr
I453
sVw
I25
sVsr
p456
V15.12
p457
sVov
p458
V63.00
p459
sV5w
p460
I0
ssg50
(dp461
Va
V1.50
p462
sVb
I5
sVinns
p463
I4
sVno
p464
I2
sVsr
p465
V60.00
p466
sVm
I16
sV4s
p467
I0
sV6s
p468
I0
sVhs
p469
V2*
p470
sVr
V3
sV100s
p471
I0
sV50s
p472
I0
ssg62
I2012
stp473
a(Vaus-sa-2012
(dp474
g24
(dp475
Vinns
p476
I0
sVc
I0
sVro
p477
I0
sVm
I3
sVs
I0
ssg28
(dp478
Vinns
p479
I5
sV10w
p480
I0
sVnb
p481
I3
sVmaid
p482
I23
sVwb
p483
I1
sVbbmw
p484
I8
sV6s
p485
I1
sVbbmr
p486
I196
sVbbir
p487
I146
sVbbiw
p488
I5
sVa
V28.50
p489
sVb
I654
sVe
V3.66
p490
sVd
I490
sVwmaid
p491
I6
sV4w
p492
I0
sVm
I3
sV4s
p493
I63
sVr
I399
sVw
I14
sVsr
p494
V46.71
p495
sVov
p496
V109.00
p497
sV5w
p498
I1
ssg50
(dp499
Va
V7.75
p500
sVb
I44
sVinns
p501
I5
sVno
p502
I1
sVsr
p503
V70.45
p504
sVm
I3
sV4s
p505
I7
sV6s
p506
I0
sVhs
p507
V17
p508
sVr
V31
p509
sV100s
p510
I0
sV50s
p511
I0
ssg62
I2012
stp512
a(Vclt20-2012
(dp513
g24
(dp514
Vinns
p515
I0
sVc
I0
sVro
p516
I0
sVm
I4
sVs
I0
ssg28
(dp517
Vinns
p518
I3
sV10w
p519
I0
sVnb
p520
I1
sVmaid
p521
I1
sVwb
p522
I2
sVbbmw
p523
I3
sV6s
p524
I2
sVbbmr
p525
I19
sVbbir
p526
I19
sVbbiw
p527
I3
sVa
V12.66
p528
sVb
I72
sVe
V6.33
p529
sVd
I32
sVwmaid
p530
I1
sV4w
p531
I0
sVm
I4
sV4s
p532
I8
sVr
I76
sVw
I6
sVsr
p533
V12.00
p534
sVov
p535
V12.00
p536
sV5w
p537
I0
ssg50
(dp538
Va
V-
sVb
I16
sVinns
p539
I1
sVno
p540
I1
sVsr
p541
V112.50
p542
sVm
I4
sV4s
p543
I1
sV6s
p544
I1
sVhs
p545
V18*
p546
sVr
V18
p547
sV100s
p548
I0
sV50s
p549
I0
ssg62
I2012
stp550
a(Vpre-worldt20-2012
(dp551
g24
(dp552
Vinns
p553
I1
sVc
I1
sVro
p554
I0
sVm
I2
sVs
I0
ssg28
(dp555
Vinns
p556
I2
sV10w
p557
I0
sVnb
p558
I0
sVmaid
p559
I0
sVwb
p560
I3
sVbbmw
p561
I2
sV6s
p562
I1
sVbbmr
p563
I28
sVbbir
p564
I28
sVbbiw
p565
I2
sVa
V18.00
p566
sVb
I24
sVe
V9.00
p567
sVd
I11
sVwmaid
p568
I0
sV4w
p569
I0
sVm
I2
sV4s
p570
I4
sVr
I36
sVw
I2
sVsr
p571
V12.00
p572
sVov
p573
V4.00
p574
sV5w
p575
I0
ssg50
(dp576
Va
V-
sVinns
p577
I0
sVno
p578
I0
sVsr
p579
V-
sVm
I2
sV4s
p580
I0
sV6s
p581
I0
sVhs
p582
V0*
p583
sVr
V0
sV100s
p584
I0
sV50s
p585
I0
ssg62
I2012
stp586
a(Vworldt20-2012
(dp587
g24
(dp588
Vinns
p589
I1
sVc
I1
sVro
p590
I0
sVm
I6
sVs
I0
ssg28
(dp591
Vinns
p592
I6
sV10w
p593
I0
sVnb
p594
I2
sVmaid
p595
I0
sVwb
p596
I3
sVbbmw
p597
I2
sV6s
p598
I5
sVbbmr
p599
I16
sVbbir
p600
I16
sVbbiw
p601
I2
sVa
V26.66
p602
sVb
I124
sVe
V7.74
p603
sVd
I43
sVwmaid
p604
I0
sV4w
p605
I0
sVm
I6
sV4s
p606
I14
sVr
I160
sVw
I6
sVsr
p607
V20.66
p608
sVov
p609
V20.66
p610
sV5w
p611
I0
ssg50
(dp612
Va
V6.00
p613
sVb
I3
sVinns
p614
I1
sVno
p615
I0
sVsr
p616
V200.00
p617
sVm
I6
sV4s
p618
I0
sV6s
p619
I1
sVhs
p620
V6
sVr
V6
sV100s
p621
I0
sV50s
p622
I0
ssg62
I2012
stp623
a(Vsa-nz-2012
p624
(dp625
g24
(dp626
Vinns
p627
I1
sVc
I1
sVro
p628
I0
sVm
I4
sVs
I0
ssg28
(dp629
Vinns
p630
I6
sV10w
p631
I0
sVnb
p632
I1
sVmaid
p633
I20
sVwb
p634
I4
sVbbmw
p635
I4
sV6s
p636
I1
sVbbmr
p637
I64
sVbbir
p638
I14
sVbbiw
p639
I3
sVa
V27.42
p640
sVb
I382
sVe
V3.01
p641
sVd
I301
sVwmaid
p642
I2
sV4w
p643
I0
sVm
I4
sV4s
p644
I28
sVr
I192
sVw
I7
sVsr
p645
V54.57
p646
sVov
p647
V63.66
p648
sV5w
p649
I0
ssg50
(dp650
Va
V-
sVinns
p651
I0
sVno
p652
I0
sVsr
p653
V-
sVm
I4
sV4s
p654
I0
sV6s
p655
I0
sVhs
p656
V0*
p657
sVr
V0
sV100s
p658
I0
sV50s
p659
I0
ssg62
I2012
stp660
a(Vipl2011
(dp661
g24
(dp662
Vinns
p663
I1
sVc
I1
sVro
p664
I0
sVm
I11
sVs
I0
ssg28
(dp665
Vinns
p666
I11
sV10w
p667
I0
sVnb
p668
I4
sVmaid
p669
I0
sVwb
p670
I12
sVbbmw
p671
I3
sV6s
p672
I9
sVbbmr
p673
I18
sVbbir
p674
I18
sVbbiw
p675
I3
sVa
V25.00
p676
sVb
I258
sVe
V7.55
p677
sVd
I115
sVwmaid
p678
I0
sV4w
p679
I0
sVm
I11
sV4s
p680
I41
sVr
I325
sVw
I13
sVsr
p681
V19.84
p682
sVov
p683
V43.00
p684
sV5w
p685
I0
ssg50
(dp686
Va
V20.00
p687
sVb
I25
sVinns
p688
I5
sVno
p689
I3
sVsr
p690
V160.00
p691
sVm
I11
sV4s
p692
I3
sV6s
p693
I2
sVhs
p694
V16*
p695
sVr
V40
p696
sV100s
p697
I0
sV50s
p698
I0
ssg62
I2011
stp699
a(Vipl2010
(dp700
g24
(dp701
Vinns
p702
I1
sVc
I1
sVro
p703
I0
sVm
I2
sVs
I0
ssg28
(dp704
Vinns
p705
I2
sV10w
p706
I0
sVnb
p707
I0
sVmaid
p708
I0
sVwb
p709
I4
sVbbmw
p710
I0
sV6s
p711
I1
sVbbmr
p712
I0
sVbbir
p713
I0
sVbbiw
p714
I0
sVa
V-
sVb
I42
sVe
V9.42
p715
sVd
I15
sVwmaid
p716
I0
sV4w
p717
I0
sVm
I2
sV4s
p718
I10
sVr
I66
sVw
I0
sVsr
p719
V-
sVov
p720
V7.00
p721
sV5w
p722
I0
ssg50
(dp723
Va
V9.00
p724
sVb
I16
sVinns
p725
I2
sVno
p726
I1
sVsr
p727
V56.25
p728
sVm
I2
sV4s
p729
I1
sV6s
p730
I0
sVhs
p731
V7*
p732
sVr
V9
sV100s
p733
I0
sV50s
p734
I0
ssg62
I2010
stp735
a(Vipl2009
(dp736
g24
(dp737
Vinns
p738
I1
sVc
I1
sVro
p739
I1
sVm
I2
sVs
I0
ssg28
(dp740
Vinns
p741
I2
sV10w
p742
I0
sVnb
p743
I0
sVmaid
p744
I0
sVwb
p745
I2
sVbbmw
p746
I0
sV6s
p747
I1
sVbbmr
p748
I0
sVbbir
p749
I0
sVbbiw
p750
I0
sVa
V-
sVb
I42
sVe
V5.71
p751
sVd
I20
sVwmaid
p752
I0
sV4w
p753
I0
sVm
I2
sV4s
p754
I3
sVr
I40
sVw
I0
sVsr
p755
V-
sVov
p756
V7.00
p757
sV5w
p758
I0
ssg50
(dp759
Va
V8.00
p760
sVb
I8
sVinns
p761
I1
sVno
p762
I0
sVsr
p763
V100.00
p764
sVm
I2
sV4s
p765
I1
sV6s
p766
I0
sVhs
p767
V8
sVr
V8
sV100s
p768
I0
sV50s
p769
I0
ssg62
I2009
stp770
asb.