(iplayer
Player
p1
(dp2
S'is_batsman'
p3
I00
sS'name'
p4
S'Mohit Sharma'
p5
sS'dob'
p6
S'1991/12/19'
p7
sS'price'
p8
S'800000'
p9
sS'is_allrounder'
p10
I00
sS'is_overseas'
p11
I00
sS'team'
p12
S'CSK'
p13
sS'nationality'
p14
S'Indian'
p15
sS'is_bowler'
p16
I01
sS'is_keeper'
p17
I00
sS'id'
p18
S'1107'
p19
sS'is_uncapped'
p20
I00
sS'tournamentStats'
p21
(lp22
(Vind-wi-2013
(dp23
S'fieldingStats'
p24
(dp25
Vinns
p26
I0
sVc
I0
sVro
p27
I0
sVm
I2
sVs
I0
ssS'bowlingStats'
p28
(dp29
Vinns
p30
I2
sV10w
p31
I0
sVnb
p32
I0
sVmaid
p33
I0
sVwb
p34
I2
sVbbmw
p35
I1
sV6s
p36
I2
sVbbmr
p37
I48
sVbbir
p38
I48
sVbbiw
p39
I1
sVa
V95.00
p40
sVb
I81
sVe
V7.03
p41
sVd
I38
sVwmaid
p42
I0
sV4w
p43
I0
sVm
I2
sV4s
p44
I12
sVr
I95
sVw
I1
sVsr
p45
V81.00
p46
sVov
p47
V13.50
p48
sV5w
p49
I0
ssS'battingStats'
p50
(dp51
Va
V-
sVinns
p52
I0
sVno
p53
I0
sVsr
p54
V-
sVm
I2
sV4s
p55
I0
sV6s
p56
I0
sVhs
p57
V0*
p58
sVr
V0
sV100s
p59
I0
sV50s
p60
I0
ssS'year'
p61
I2013
stp62
a(Vzim-ind-2013
(dp63
g24
(dp64
Vinns
p65
I1
sVc
I1
sVro
p66
I0
sVm
I2
sVs
I0
ssg28
(dp67
Vinns
p68
I2
sV10w
p69
I0
sVnb
p70
I0
sVmaid
p71
I3
sVwb
p72
I2
sVbbmw
p73
I2
sV6s
p74
I0
sVbbmr
p75
I26
sVbbir
p76
I26
sVbbiw
p77
I2
sVa
V17.00
p78
sVb
I96
sVe
V3.18
p79
sVd
I71
sVwmaid
p80
I1
sV4w
p81
I0
sVm
I2
sV4s
p82
I6
sVr
I51
sVw
I3
sVsr
p83
V32.00
p84
sVov
p85
V16.00
p86
sV5w
p87
I0
ssg50
(dp88
Va
V-
sVinns
p89
I0
sVno
p90
I0
sVsr
p91
V-
sVm
I2
sV4s
p92
I0
sV6s
p93
I0
sVhs
p94
V0*
p95
sVr
V0
sV100s
p96
I0
sV50s
p97
I0
ssg61
I2013
stp98
a(Vipl2013
(dp99
g24
(dp100
Vinns
p101
I2
sVc
I2
sVro
p102
I1
sVm
I15
sVs
I0
ssg28
(dp103
Vinns
p104
I15
sV10w
p105
I0
sVnb
p106
I0
sVmaid
p107
I0
sVwb
p108
I7
sVbbmw
p109
I3
sV6s
p110
I7
sVbbmr
p111
I10
sVbbir
p112
I10
sVbbiw
p113
I3
sVa
V16.30
p114
sVb
I304
sVe
V6.43
p115
sVd
I161
sVwmaid
p116
I0
sV4w
p117
I0
sVm
I15
sV4s
p118
I44
sVr
I326
sVw
I20
sVsr
p119
V15.20
p120
sVov
p121
V50.66
p122
sV5w
p123
I0
ssg50
(dp124
Va
V0.00
p125
sVb
I5
sVinns
p126
I2
sVno
p127
I1
sVsr
p128
V0.00
p129
sVm
I15
sV4s
p130
I0
sV6s
p131
I0
sVhs
p132
V0*
p133
sVr
V0
sV100s
p134
I0
sV50s
p135
I0
ssg61
I2013
stp136
a(Vclt20-2013
(dp137
g24
(dp138
Vinns
p139
I2
sVc
I2
sVro
p140
I0
sVm
I5
sVs
I0
ssg28
(dp141
Vinns
p142
I4
sV10w
p143
I0
sVnb
p144
I0
sVmaid
p145
I0
sVwb
p146
I2
sVbbmw
p147
I2
sV6s
p148
I4
sVbbmr
p149
I35
sVbbir
p150
I35
sVbbiw
p151
I2
sVa
V46.66
p152
sVb
I90
sVe
V9.33
p153
sVd
I37
sVwmaid
p154
I0
sV4w
p155
I0
sVm
I5
sV4s
p156
I19
sVr
I140
sVw
I3
sVsr
p157
V30.00
p158
sVov
p159
V15.00
p160
sV5w
p161
I0
ssg50
(dp162
Va
V-
sVb
I1
sVinns
p163
I1
sVno
p164
I1
sVsr
p165
V0.00
p166
sVm
I5
sV4s
p167
I0
sV6s
p168
I0
sVhs
p169
V0*
p170
sVr
V0
sV100s
p171
I0
sV50s
p172
I0
ssg61
I2013
stp173
a(Vsa-ind-2013
p174
(dp175
g24
(dp176
Vinns
p177
I0
sVc
I0
sVro
p178
I0
sVm
I1
sVs
I0
ssg28
(dp179
Vinns
p180
I1
sV10w
p181
I0
sVnb
p182
I1
sVmaid
p183
I0
sVwb
p184
I0
sVbbmw
p185
I0
sV6s
p186
I3
sVbbmr
p187
I82
sVbbir
p188
I82
sVbbiw
p189
I0
sVa
V-
sVb
I60
sVe
V8.20
p190
sVd
I27
sVwmaid
p191
I0
sV4w
p192
I0
sVm
I1
sV4s
p193
I10
sVr
I82
sVw
I0
sVsr
p194
V-
sVov
p195
V10.00
p196
sV5w
p197
I0
ssg50
(dp198
Va
V-
sVb
I5
sVinns
p199
I1
sVno
p200
I1
sVsr
p201
V0.00
p202
sVm
I1
sV4s
p203
I0
sV6s
p204
I0
sVhs
p205
V0*
p206
sVr
V0
sV100s
p207
I0
sV50s
p208
I0
ssg61
I2013
stp209
asb.