(iplayer
Player
p1
(dp2
S'is_batsman'
p3
I00
sS'name'
p4
S'Ashish Nehra'
p5
sS'dob'
p6
S'1979/04/29'
p7
sS'price'
p8
S'850000'
p9
sS'is_allrounder'
p10
I00
sS'is_overseas'
p11
I00
sS'team'
p12
S'CSK'
p13
sS'nationality'
p14
S'Indian'
p15
sS'is_bowler'
p16
I01
sS'is_keeper'
p17
I00
sS'id'
p18
S'115'
p19
sS'is_uncapped'
p20
I00
sS'tournamentStats'
p21
(lp22
(Vipl2013
p23
(dp24
S'fieldingStats'
p25
(dp26
Vinns
p27
I1
sVc
I1
sVro
p28
I0
sVm
I10
sVs
I0
ssS'bowlingStats'
p29
(dp30
Vinns
p31
I10
sV10w
p32
I0
sVnb
p33
I0
sVmaid
p34
I0
sVwb
p35
I5
sVbbmw
p36
I2
sV6s
p37
I13
sVbbmr
p38
I35
sVbbir
p39
I35
sVbbiw
p40
I2
sVa
V28.72
p41
sVb
I216
sVe
V8.77
p42
sVd
I84
sVwmaid
p43
I0
sV4w
p44
I0
sVm
I10
sV4s
p45
I34
sVr
I316
sVw
I11
sVsr
p46
V19.63
p47
sVov
p48
V36.00
p49
sV5w
p50
I0
ssS'battingStats'
p51
(dp52
Va
V0.25
p53
sVb
I8
sVinns
p54
I4
sVno
p55
I0
sVsr
p56
V12.50
p57
sVm
I10
sV4s
p58
I0
sV6s
p59
I0
sVhs
p60
V1
sVr
V1
sV100s
p61
I0
sV50s
p62
I0
ssS'year'
p63
I2013
stp64
a(Vipl2012
(dp65
g25
(dp66
Vinns
p67
I1
sVc
I1
sVro
p68
I0
sVm
I13
sVs
I0
ssg29
(dp69
Vinns
p70
I13
sV10w
p71
I0
sVnb
p72
I2
sVmaid
p73
I0
sVwb
p74
I1
sVbbmw
p75
I3
sV6s
p76
I14
sVbbmr
p77
I23
sVbbir
p78
I23
sVbbiw
p79
I3
sVa
V36.54
p80
sVb
I288
sVe
V8.37
p81
sVd
I99
sVwmaid
p82
I0
sV4w
p83
I0
sVm
I13
sV4s
p84
I43
sVr
I402
sVw
I11
sVsr
p85
V26.18
p86
sVov
p87
V48.00
p88
sV5w
p89
I0
ssg51
(dp90
Va
V-
sVb
I12
sVinns
p91
I2
sVno
p92
I2
sVsr
p93
V91.66
p94
sVm
I13
sV4s
p95
I1
sV6s
p96
I0
sVhs
p97
V9*
p98
sVr
V11
p99
sV100s
p100
I0
sV50s
p101
I0
ssg63
I2012
stp102
a(Vipl2010
(dp103
g25
(dp104
Vinns
p105
I2
sVc
I2
sVro
p106
I0
sVm
I4
sVs
I0
ssg29
(dp107
Vinns
p108
I4
sV10w
p109
I0
sVnb
p110
I0
sVmaid
p111
I0
sVwb
p112
I1
sVbbmw
p113
I3
sV6s
p114
I2
sVbbmr
p115
I26
sVbbir
p116
I26
sVbbiw
p117
I3
sVa
V16.00
p118
sVb
I84
sVe
V6.85
p119
sVd
I37
sVwmaid
p120
I0
sV4w
p121
I0
sVm
I4
sV4s
p122
I11
sVr
I96
sVw
I6
sVsr
p123
V14.00
p124
sVov
p125
V14.00
p126
sV5w
p127
I0
ssg51
(dp128
Va
V23.00
p129
sVb
I20
sVinns
p130
I2
sVno
p131
I1
sVsr
p132
V115.00
p133
sVm
I4
sV4s
p134
I2
sV6s
p135
I1
sVhs
p136
V22*
p137
sVr
V23
p138
sV100s
p139
I0
sV50s
p140
I0
ssg63
I2010
stp141
a(Vipl2009
(dp142
g25
(dp143
Vinns
p144
I4
sVc
I5
sVro
p145
I2
sVm
I13
sVs
I0
ssg29
(dp146
Vinns
p147
I13
sV10w
p148
I0
sVnb
p149
I5
sVmaid
p150
I1
sVwb
p151
I15
sVbbmw
p152
I3
sV6s
p153
I9
sVbbmr
p154
I27
sVbbir
p155
I27
sVbbiw
p156
I3
sVa
V18.21
p157
sVb
I306
sVe
V6.78
p158
sVd
I139
sVwmaid
p159
I1
sV4w
p160
I0
sVm
I13
sV4s
p161
I30
sVr
I346
sVw
I19
sVsr
p162
V16.10
p163
sVov
p164
V51.00
p165
sV5w
p166
I0
ssg51
(dp167
Va
V-
sVb
I1
sVinns
p168
I2
sVno
p169
I2
sVsr
p170
V100.00
p171
sVm
I13
sV4s
p172
I0
sV6s
p173
I0
sVhs
p174
V1*
p175
sVr
V1
sV100s
p176
I0
sV50s
p177
I0
ssg63
I2009
stp178
a(Vclt20-2009
(dp179
g25
(dp180
Vinns
p181
I0
sVc
I0
sVro
p182
I0
sVm
I3
sVs
I0
ssg29
(dp183
Vinns
p184
I3
sV10w
p185
I0
sVnb
p186
I0
sVmaid
p187
I0
sVwb
p188
I8
sVbbmw
p189
I0
sV6s
p190
I2
sVbbmr
p191
I0
sVbbir
p192
I0
sVbbiw
p193
I0
sVa
V-
sVb
I61
sVe
V6.49
p194
sVd
I32
sVwmaid
p195
I0
sV4w
p196
I0
sVm
I3
sV4s
p197
I6
sVr
I66
sVw
I0
sVsr
p198
V-
sVov
p199
V10.16
p200
sV5w
p201
I0
ssg51
(dp202
Va
V-
sVinns
p203
I0
sVno
p204
I0
sVsr
p205
V-
sVm
I3
sV4s
p206
I0
sV6s
p207
I0
sVhs
p208
V0*
p209
sVr
V0
sV100s
p210
I0
sV50s
p211
I0
ssg63
I2009
stp212
a(Vipl2008
(dp213
g25
(dp214
Vinns
p215
I6
sVc
I8
sVro
p216
I0
sVm
I14
sVs
I0
ssg29
(dp217
Vinns
p218
I14
sV10w
p219
I0
sVnb
p220
I1
sVmaid
p221
I0
sVwb
p222
I10
sVbbmw
p223
I3
sV6s
p224
I8
sVbbmr
p225
I13
sVbbir
p226
I13
sVbbiw
p227
I3
sVa
V29.00
p228
sVb
I269
sVe
V7.76
p229
sVd
I120
sVwmaid
p230
I0
sV4w
p231
I0
sVm
I14
sV4s
p232
I48
sVr
I348
sVw
I12
sVsr
p233
V22.41
p234
sVov
p235
V44.83
p236
sV5w
p237
I0
ssg51
(dp238
Va
V3.00
p239
sVb
I13
sVinns
p240
I4
sVno
p241
I3
sVsr
p242
V23.07
p243
sVm
I14
sV4s
p244
I0
sV6s
p245
I0
sVhs
p246
V2*
p247
sVr
V3
sV100s
p248
I0
sV50s
p249
I0
ssg63
I2008
stp250
asb.