(iplayer
Player
p1
(dp2
S'is_batsman'
p3
I00
sS'name'
p4
S'Mitchell Starc'
p5
sS'dob'
p6
S'1990/01/30'
p7
sS'price'
p8
S'900000'
p9
sS'is_allrounder'
p10
I00
sS'is_overseas'
p11
I01
sS'team'
p12
S'RCB'
p13
sS'nationality'
p14
S'Australian'
p15
sS'is_bowler'
p16
I01
sS'is_keeper'
p17
I00
sS'id'
p18
S'490'
p19
sS'is_uncapped'
p20
I00
sS'tournamentStats'
p21
(lp22
(Vsa-aus-2014
(dp23
S'fieldingStats'
p24
(dp25
Vinns
p26
I0
sVc
I0
sVro
p27
I0
sVm
I2
sVs
I0
ssS'bowlingStats'
p28
(dp29
Vinns
p30
I2
sV10w
p31
I0
sVnb
p32
I0
sVmaid
p33
I1
sVwb
p34
I3
sVbbmw
p35
I2
sV6s
p36
I3
sVbbmr
p37
I16
sVbbir
p38
I16
sVbbiw
p39
I2
sVa
V20.00
p40
sVb
I36
sVe
V6.66
p41
sVd
I21
sVwmaid
p42
I0
sV4w
p43
I0
sVm
I2
sV4s
p44
I2
sVr
I40
sVw
I2
sVsr
p45
V18.00
p46
sVov
p47
V6.00
p48
sV5w
p49
I0
ssS'battingStats'
p50
(dp51
Va
V-
sVinns
p52
I0
sVno
p53
I0
sVsr
p54
V-
sVm
I2
sV4s
p55
I0
sV6s
p56
I0
sVhs
p57
V0*
p58
sVr
V0
sV100s
p59
I0
sV50s
p60
I0
ssS'year'
p61
I2014
stp62
a(Vworldt20-2014
(dp63
g24
(dp64
Vinns
p65
I0
sVc
I0
sVro
p66
I0
sVm
I1
sVs
I0
ssg28
(dp67
Vinns
p68
I1
sV10w
p69
I0
sVnb
p70
I0
sVmaid
p71
I0
sVwb
p72
I1
sVbbmw
p73
I1
sV6s
p74
I1
sVbbmr
p75
I35
sVbbir
p76
I35
sVbbiw
p77
I1
sVa
V35.00
p78
sVb
I24
sVe
V8.75
p79
sVd
I11
sVwmaid
p80
I0
sV4w
p81
I0
sVm
I1
sV4s
p82
I5
sVr
I35
sVw
I1
sVsr
p83
V24.00
p84
sVov
p85
V4.00
p86
sV5w
p87
I0
ssg50
(dp88
Va
V3.00
p89
sVb
I2
sVinns
p90
I1
sVno
p91
I0
sVsr
p92
V150.00
p93
sVm
I1
sV4s
p94
I0
sV6s
p95
I0
sVhs
p96
V3
sVr
V3
sV100s
p97
I0
sV50s
p98
I0
ssg61
I2014
stp99
a(Vaus-eng-2013
(dp100
g24
(dp101
Vinns
p102
I2
sVc
I2
sVro
p103
I0
sVm
I2
sVs
I0
ssg28
(dp104
Vinns
p105
I2
sV10w
p106
I0
sVnb
p107
I0
sVmaid
p108
I0
sVwb
p109
I1
sVbbmw
p110
I1
sV6s
p111
I0
sVbbmr
p112
I8
sVbbir
p113
I8
sVbbiw
p114
I1
sVa
V13.50
p115
sVb
I38
sVe
V4.26
p116
sVd
I20
sVwmaid
p117
I0
sV4w
p118
I0
sVm
I2
sV4s
p119
I3
sVr
I27
sVw
I2
sVsr
p120
V19.00
p121
sVov
p122
V6.33
p123
sV5w
p124
I0
ssg50
(dp125
Va
V-
sVinns
p126
I0
sVno
p127
I0
sVsr
p128
V-
sVm
I2
sV4s
p129
I0
sV6s
p130
I0
sVhs
p131
V0*
p132
sVr
V0
sV100s
p133
I0
sV50s
p134
I0
ssg61
I2013
stp135
a(Vind-aus-2013
(dp136
g24
(dp137
Vinns
p138
I1
sVc
I1
sVro
p139
I0
sVm
I2
sVs
I0
ssg28
(dp140
Vinns
p141
I3
sV10w
p142
I0
sVnb
p143
I0
sVmaid
p144
I9
sVwb
p145
I3
sVbbmw
p146
I2
sV6s
p147
I0
sVbbmr
p148
I125
sVbbir
p149
I74
sVbbiw
p150
I2
sVa
V100.00
p151
sVb
I351
sVe
V3.41
p152
sVd
I251
sVwmaid
p153
I0
sV4w
p154
I0
sVm
I2
sV4s
p155
I30
sVr
I200
sVw
I2
sVsr
p156
V175.50
p157
sVov
p158
V58.50
p159
sV5w
p160
I0
ssg50
(dp161
Va
V36.25
p162
sVb
I254
sVinns
p163
I4
sVno
p164
I0
sVsr
p165
V57.08
p166
sVm
I2
sV4s
p167
I18
sV6s
p168
I0
sVhs
p169
V99
p170
sVr
V145
p171
sV100s
p172
I0
sV50s
p173
I1
ssg61
I2013
stp174
a(Vchamptrophy-2013-warmups
(dp175
g24
(dp176
Vinns
p177
I0
sVc
I0
sVro
p178
I0
sVm
I2
sVs
I0
ssg28
(dp179
Vinns
p180
I2
sV10w
p181
I0
sVnb
p182
I1
sVmaid
p183
I1
sVwb
p184
I6
sVbbmw
p185
I4
sV6s
p186
I1
sVbbmr
p187
I29
sVbbir
p188
I29
sVbbiw
p189
I4
sVa
V17.00
p190
sVb
I102
sVe
V6.00
p191
sVd
I60
sVwmaid
p192
I1
sV4w
p193
I1
sVm
I2
sV4s
p194
I14
sVr
I102
sVw
I6
sVsr
p195
V17.00
p196
sVov
p197
V17.00
p198
sV5w
p199
I0
ssg50
(dp200
Va
V0.00
p201
sVb
I4
sVinns
p202
I1
sVno
p203
I0
sVsr
p204
V0.00
p205
sVm
I2
sV4s
p206
I0
sV6s
p207
I0
sVhs
p208
V0*
p209
sVr
V0
sV100s
p210
I0
sV50s
p211
I0
ssg61
I2013
stp212
a(Vchamptrophy-2013
(dp213
g24
(dp214
Vinns
p215
I0
sVc
I0
sVro
p216
I0
sVm
I1
sVs
I0
ssg28
(dp217
Vinns
p218
I1
sV10w
p219
I0
sVnb
p220
I1
sVmaid
p221
I0
sVwb
p222
I1
sVbbmw
p223
I1
sV6s
p224
I1
sVbbmr
p225
I75
sVbbir
p226
I75
sVbbiw
p227
I1
sVa
V75.00
p228
sVb
I60
sVe
V7.50
p229
sVd
I23
sVwmaid
p230
I0
sV4w
p231
I0
sVm
I1
sV4s
p232
I6
sVr
I75
sVw
I1
sVsr
p233
V60.00
p234
sVov
p235
V10.00
p236
sV5w
p237
I0
ssg50
(dp238
Va
V5.00
p239
sVb
I8
sVinns
p240
I1
sVno
p241
I0
sVsr
p242
V62.50
p243
sVm
I1
sV4s
p244
I0
sV6s
p245
I0
sVhs
p246
V5
sVr
V5
sV100s
p247
I0
sV50s
p248
I0
ssg61
I2013
stp249
a(Vbigbash-2013
(dp250
g24
(dp251
Vinns
p252
I0
sVc
I0
sVro
p253
I0
sVm
I1
sVs
I0
ssg28
(dp254
Vinns
p255
I1
sV10w
p256
I0
sVnb
p257
I0
sVmaid
p258
I0
sVwb
p259
I1
sVbbmw
p260
I2
sV6s
p261
I1
sVbbmr
p262
I37
sVbbir
p263
I37
sVbbiw
p264
I2
sVa
V18.50
p265
sVb
I24
sVe
V9.25
p266
sVd
I9
sVwmaid
p267
I0
sV4w
p268
I0
sVm
I1
sV4s
p269
I5
sVr
I37
sVw
I2
sVsr
p270
V12.00
p271
sVov
p272
V4.00
p273
sV5w
p274
I0
ssg50
(dp275
Va
V-
sVinns
p276
I0
sVno
p277
I0
sVsr
p278
V-
sVm
I1
sV4s
p279
I0
sV6s
p280
I0
sVhs
p281
V0*
p282
sVr
V0
sV100s
p283
I0
sV50s
p284
I0
ssg61
I2013
stp285
a(Vaus-wi-2013
(dp286
g24
(dp287
Vinns
p288
I0
sVc
I0
sVro
p289
I0
sVm
I3
sVs
I0
ssg28
(dp290
Vinns
p291
I3
sV10w
p292
I0
sVnb
p293
I1
sVmaid
p294
I3
sVwb
p295
I5
sVbbmw
p296
I5
sV6s
p297
I0
sVbbmr
p298
I20
sVbbir
p299
I20
sVbbiw
p300
I5
sVa
V9.27
p301
sVb
I131
sVe
V4.67
p302
sVd
I85
sVwmaid
p303
I1
sV4w
p304
I0
sVm
I3
sV4s
p305
I15
sVr
I102
sVw
I11
sVsr
p306
V11.90
p307
sVov
p308
V21.83
p309
sV5w
p310
I2
ssg50
(dp311
Va
V-
sVinns
p312
I0
sVno
p313
I0
sVsr
p314
V-
sVm
I3
sV4s
p315
I0
sV6s
p316
I0
sVhs
p317
V0*
p318
sVr
V0
sV100s
p319
I0
sV50s
p320
I0
ssg61
I2013
stp321
a(Veng-aus-2013
(dp322
g24
(dp323
Vinns
p324
I2
sVc
I1
sVro
p325
I1
sVm
I3
sVs
I0
ssg28
(dp326
Vinns
p327
I6
sV10w
p328
I0
sVnb
p329
I5
sVmaid
p330
I24
sVwb
p331
I4
sVbbmw
p332
I5
sV6s
p333
I0
sVbbmr
p334
I135
sVbbir
p335
I76
sVbbiw
p336
I3
sVa
V32.45
p337
sVb
I720
sVe
V2.97
p338
sVd
I560
sVwmaid
p339
I2
sV4w
p340
I0
sVm
I3
sV4s
p341
I54
sVr
I357
sVw
I11
sVsr
p342
V65.45
p343
sVov
p344
V120.00
p345
sV5w
p346
I0
ssg50
(dp347
Va
V26.00
p348
sVb
I113
sVinns
p349
I6
sVno
p350
I2
sVsr
p351
V92.03
p352
sVm
I3
sV4s
p353
I13
sV6s
p354
I0
sVhs
p355
V66*
p356
sVr
V104
p357
sV100s
p358
I0
sV50s
p359
I1
ssg61
I2013
stp360
a(Vaus-sa-2012
(dp361
g24
(dp362
Vinns
p363
I0
sVc
I0
sVro
p364
I0
sVm
I1
sVs
I0
ssg28
(dp365
Vinns
p366
I2
sV10w
p367
I0
sVnb
p368
I0
sVmaid
p369
I6
sVwb
p370
I1
sVbbmw
p371
I8
sV6s
p372
I0
sVbbmr
p373
I209
sVbbir
p374
I154
sVbbiw
p375
I6
sVa
V26.12
p376
sVb
I269
sVe
V4.66
p377
sVd
I179
sVwmaid
p378
I1
sV4w
p379
I0
sVm
I1
sV4s
p380
I34
sVr
I209
sVw
I8
sVsr
p381
V33.62
p382
sVov
p383
V44.83
p384
sV5w
p385
I1
ssg50
(dp386
Va
V-
sVb
I46
sVinns
p387
I2
sVno
p388
I2
sVsr
p389
V147.82
p390
sVm
I1
sV4s
p391
I9
sV6s
p392
I2
sVhs
p393
V68*
p394
sVr
V68
p395
sV100s
p396
I0
sV50s
p397
I1
ssg61
I2012
stp398
a(Vclt20-2012
(dp399
g24
(dp400
Vinns
p401
I2
sVc
I2
sVro
p402
I0
sVm
I6
sVs
I0
ssg28
(dp403
Vinns
p404
I6
sV10w
p405
I0
sVnb
p406
I0
sVmaid
p407
I1
sVwb
p408
I5
sVbbmw
p409
I3
sV6s
p410
I7
sVbbmr
p411
I19
sVbbir
p412
I19
sVbbiw
p413
I3
sVa
V12.35
p414
sVb
I144
sVe
V7.20
p415
sVd
I72
sVwmaid
p416
I1
sV4w
p417
I0
sVm
I6
sV4s
p418
I18
sVr
I173
sVw
I14
sVsr
p419
V10.28
p420
sVov
p421
V24.00
p422
sV5w
p423
I0
ssg50
(dp424
Va
V-
sVb
I1
sVinns
p425
I1
sVno
p426
I1
sVsr
p427
V0.00
p428
sVm
I6
sV4s
p429
I0
sV6s
p430
I0
sVhs
p431
V0*
p432
sVr
V0
sV100s
p433
I0
sV50s
p434
I0
ssg61
I2012
stp435
a(Vpre-worldt20-2012
(dp436
g24
(dp437
Vinns
p438
I0
sVc
I0
sVro
p439
I0
sVm
I2
sVs
I0
ssg28
(dp440
Vinns
p441
I2
sV10w
p442
I0
sVnb
p443
I0
sVmaid
p444
I0
sVwb
p445
I2
sVbbmw
p446
I3
sV6s
p447
I0
sVbbmr
p448
I11
sVbbir
p449
I11
sVbbiw
p450
I3
sVa
V7.00
p451
sVb
I43
sVe
V3.90
p452
sVd
I26
sVwmaid
p453
I0
sV4w
p454
I0
sVm
I2
sV4s
p455
I2
sVr
I28
sVw
I4
sVsr
p456
V10.75
p457
sVov
p458
V7.16
p459
sV5w
p460
I0
ssg50
(dp461
Va
V-
sVinns
p462
I0
sVno
p463
I0
sVsr
p464
V-
sVm
I2
sV4s
p465
I0
sV6s
p466
I0
sVhs
p467
V0*
p468
sVr
V0
sV100s
p469
I0
sV50s
p470
I0
ssg61
I2012
stp471
a(Vbigbash-2012
(dp472
g24
(dp473
Vinns
p474
I0
sVc
I0
sVro
p475
I0
sVm
I1
sVs
I0
ssg28
(dp476
Vinns
p477
I1
sV10w
p478
I0
sVnb
p479
I0
sVmaid
p480
I0
sVwb
p481
I2
sVbbmw
p482
I2
sV6s
p483
I1
sVbbmr
p484
I27
sVbbir
p485
I27
sVbbiw
p486
I2
sVa
V13.50
p487
sVb
I24
sVe
V6.75
p488
sVd
I13
sVwmaid
p489
I0
sV4w
p490
I0
sVm
I1
sV4s
p491
I2
sVr
I27
sVw
I2
sVsr
p492
V12.00
p493
sVov
p494
V4.00
p495
sV5w
p496
I0
ssg50
(dp497
Va
V-
sVinns
p498
I0
sVno
p499
I0
sVsr
p500
V-
sVm
I1
sV4s
p501
I0
sV6s
p502
I0
sVhs
p503
V0*
p504
sVr
V0
sV100s
p505
I0
sV50s
p506
I0
ssg61
I2012
stp507
a(Vaus-sl-2012
(dp508
g24
(dp509
Vinns
p510
I3
sVc
I3
sVro
p511
I0
sVm
I8
sVs
I0
ssg28
(dp512
Vinns
p513
I10
sV10w
p514
I0
sVnb
p515
I3
sVmaid
p516
I11
sVwb
p517
I16
sVbbmw
p518
I6
sV6s
p519
I1
sVbbmr
p520
I167
sVbbir
p521
I63
sVbbiw
p522
I5
sVa
V31.42
p523
sVb
I688
sVe
V3.83
p524
sVd
I484
sVwmaid
p525
I3
sV4w
p526
I0
sVm
I8
sV4s
p527
I54
sVr
I440
sVw
I14
sVsr
p528
V49.14
p529
sVov
p530
V114.66
p531
sV5w
p532
I1
ssg50
(dp533
Va
V40.50
p534
sVb
I72
sVinns
p535
I4
sVno
p536
I2
sVsr
p537
V112.50
p538
sVm
I8
sV4s
p539
I10
sV6s
p540
I0
sVhs
p541
V52*
p542
sVr
V81
p543
sV100s
p544
I0
sV50s
p545
I1
ssg61
I2012
stp546
a(Vworldt20-2012
(dp547
g24
(dp548
Vinns
p549
I2
sVc
I1
sVro
p550
I1
sVm
I8
sVs
I0
ssg28
(dp551
Vinns
p552
I7
sV10w
p553
I0
sVnb
p554
I0
sVmaid
p555
I0
sVwb
p556
I9
sVbbmw
p557
I3
sV6s
p558
I5
sVbbmr
p559
I20
sVbbir
p560
I20
sVbbiw
p561
I3
sVa
V16.33
p562
sVb
I168
sVe
V7.00
p563
sVd
I70
sVwmaid
p564
I0
sV4w
p565
I0
sVm
I8
sV4s
p566
I20
sVr
I196
sVw
I12
sVsr
p567
V14.00
p568
sVov
p569
V28.00
p570
sV5w
p571
I0
ssg50
(dp572
Va
V3.00
p573
sVb
I8
sVinns
p574
I2
sVno
p575
I1
sVsr
p576
V37.50
p577
sVm
I8
sV4s
p578
I0
sV6s
p579
I0
sVhs
p580
V2
sVr
V3
sV100s
p581
I0
sV50s
p582
I0
ssg61
I2012
stp583
a(Vclt20-2011
p584
(dp585
g24
(dp586
Vinns
p587
I1
sVc
I1
sVro
p588
I0
sVm
I5
sVs
I0
ssg28
(dp589
Vinns
p590
I5
sV10w
p591
I0
sVnb
p592
I1
sVmaid
p593
I0
sVwb
p594
I3
sVbbmw
p595
I2
sV6s
p596
I2
sVbbmr
p597
I21
sVbbir
p598
I21
sVbbiw
p599
I2
sVa
V35.50
p600
sVb
I101
sVe
V8.43
p601
sVd
I44
sVwmaid
p602
I0
sV4w
p603
I0
sVm
I5
sV4s
p604
I22
sVr
I142
sVw
I4
sVsr
p605
V25.25
p606
sVov
p607
V16.83
p608
sV5w
p609
I0
ssg50
(dp610
Va
V1.00
p611
sVb
I2
sVinns
p612
I1
sVno
p613
I0
sVsr
p614
V50.00
p615
sVm
I5
sV4s
p616
I0
sV6s
p617
I0
sVhs
p618
V1
sVr
V1
sV100s
p619
I0
sV50s
p620
I0
ssg61
I2011
stp621
asb.