(iplayer
Player
p1
(dp2
S'is_batsman'
p3
I00
sS'name'
p4
S'Mitchell Johnson'
p5
sS'dob'
p6
S'1981/11/02'
p7
sS'price'
p8
S'950000'
p9
sS'is_allrounder'
p10
I01
sS'is_overseas'
p11
I01
sS'team'
p12
S'KXIP'
p13
sS'nationality'
p14
S'Australian'
p15
sS'is_bowler'
p16
I01
sS'is_keeper'
p17
I00
sS'id'
p18
S'213'
p19
sS'is_uncapped'
p20
I00
sS'tournamentStats'
p21
(lp22
(Vsa-aus-2014
(dp23
S'fieldingStats'
p24
(dp25
Vinns
p26
I1
sVc
I1
sVro
p27
I0
sVm
I3
sVs
I0
ssS'bowlingStats'
p28
(dp29
Vinns
p30
I6
sV10w
p31
I1
sVnb
p32
I1
sVmaid
p33
I26
sVwb
p34
I4
sVbbmw
p35
I12
sV6s
p36
I2
sVbbmr
p37
I127
sVbbir
p38
I68
sVbbiw
p39
I7
sVa
V17.36
p40
sVb
I758
sVe
V3.02
p41
sVd
I567
sVwmaid
p42
I2
sV4w
p43
I1
sVm
I3
sV4s
p44
I46
sVr
I382
sVw
I22
sVsr
p45
V34.45
p46
sVov
p47
V126.33
p48
sV5w
p49
I2
ssS'battingStats'
p50
(dp51
Va
V16.50
p52
sVb
I89
sVinns
p53
I4
sVno
p54
I0
sVsr
p55
V74.15
p56
sVm
I3
sV4s
p57
I10
sV6s
p58
I1
sVhs
p59
V33
p60
sVr
V66
p61
sV100s
p62
I0
sV50s
p63
I0
ssS'year'
p64
I2014
stp65
a(Veng-aus-2013
(dp66
g24
(dp67
Vinns
p68
I1
sVc
I1
sVro
p69
I0
sVm
I4
sVs
I0
ssg28
(dp70
Vinns
p71
I4
sV10w
p72
I0
sVnb
p73
I0
sVmaid
p74
I3
sVwb
p75
I11
sVbbmw
p76
I2
sV6s
p77
I1
sVbbmr
p78
I21
sVbbir
p79
I21
sVbbiw
p80
I2
sVa
V28.20
p81
sVb
I207
sVe
V4.08
p82
sVd
I133
sVwmaid
p83
I1
sV4w
p84
I0
sVm
I4
sV4s
p85
I13
sVr
I141
sVw
I5
sVsr
p86
V41.40
p87
sVov
p88
V34.50
p89
sV5w
p90
I0
ssg50
(dp91
Va
V6.00
p92
sVb
I12
sVinns
p93
I3
sVno
p94
I1
sVsr
p95
V100.00
p96
sVm
I4
sV4s
p97
I1
sV6s
p98
I0
sVhs
p99
V6*
p100
sVr
V12
p101
sV100s
p102
I0
sV50s
p103
I0
ssg64
I2013
stp104
a(Vaus-eng-2013
(dp105
g24
(dp106
Vinns
p107
I1
sVc
I2
sVro
p108
I0
sVm
I2
sVs
I0
ssg28
(dp109
Vinns
p110
I2
sV10w
p111
I0
sVnb
p112
I0
sVmaid
p113
I0
sVwb
p114
I7
sVbbmw
p115
I1
sV6s
p116
I3
sVbbmr
p117
I59
sVbbir
p118
I59
sVbbiw
p119
I1
sVa
V131.00
p120
sVb
I120
sVe
V6.55
p121
sVd
I59
sVwmaid
p122
I0
sV4w
p123
I0
sVm
I2
sV4s
p124
I11
sVr
I131
sVw
I1
sVsr
p125
V120.00
p126
sVov
p127
V20.00
p128
sV5w
p129
I0
ssg50
(dp130
Va
V3.50
p131
sVb
I18
sVinns
p132
I2
sVno
p133
I0
sVsr
p134
V38.88
p135
sVm
I2
sV4s
p136
I1
sV6s
p137
I0
sVhs
p138
V6
sVr
V7
sV100s
p139
I0
sV50s
p140
I0
ssg64
I2013
stp141
a(Vind-aus-2-2013
(dp142
g24
(dp143
Vinns
p144
I0
sVc
I0
sVro
p145
I0
sVm
I5
sVs
I0
ssg28
(dp146
Vinns
p147
I5
sV10w
p148
I0
sVnb
p149
I0
sVmaid
p150
I2
sVwb
p151
I15
sVbbmw
p152
I4
sV6s
p153
I0
sVbbmr
p154
I46
sVbbir
p155
I46
sVbbiw
p156
I4
sVa
V33.42
p157
sVb
I247
sVe
V5.68
p158
sVd
I136
sVwmaid
p159
I0
sV4w
p160
I1
sVm
I5
sV4s
p161
I35
sVr
I234
sVw
I7
sVsr
p162
V35.28
p163
sVov
p164
V41.16
p165
sV5w
p166
I0
ssg50
(dp167
Va
V17.00
p168
sVb
I38
sVinns
p169
I3
sVno
p170
I1
sVsr
p171
V89.47
p172
sVm
I5
sV4s
p173
I3
sV6s
p174
I1
sVhs
p175
V25
p176
sVr
V34
p177
sV100s
p178
I0
sV50s
p179
I0
ssg64
I2013
stp180
a(Vclt20-2013
(dp181
g24
(dp182
Vinns
p183
I0
sVc
I0
sVro
p184
I0
sVm
I3
sVs
I0
ssg28
(dp185
Vinns
p186
I3
sV10w
p187
I0
sVnb
p188
I0
sVmaid
p189
I0
sVwb
p190
I6
sVbbmw
p191
I1
sV6s
p192
I1
sVbbmr
p193
I31
sVbbir
p194
I31
sVbbiw
p195
I1
sVa
V51.00
p196
sVb
I66
sVe
V9.27
p197
sVd
I28
sVwmaid
p198
I0
sV4w
p199
I0
sVm
I3
sV4s
p200
I18
sVr
I102
sVw
I2
sVsr
p201
V33.00
p202
sVov
p203
V11.00
p204
sV5w
p205
I0
ssg50
(dp206
Va
V-
sVinns
p207
I0
sVno
p208
I0
sVsr
p209
V-
sVm
I3
sV4s
p210
I0
sV6s
p211
I0
sVhs
p212
V0*
p213
sVr
V0
sV100s
p214
I0
sV50s
p215
I0
ssg64
I2013
stp216
a(Vind-aus-2013
(dp217
g24
(dp218
Vinns
p219
I0
sVc
I0
sVro
p220
I0
sVm
I1
sVs
I0
ssg28
(dp221
Vinns
p222
I2
sV10w
p223
I0
sVnb
p224
I0
sVmaid
p225
I3
sVwb
p226
I0
sVbbmw
p227
I0
sV6s
p228
I0
sVbbmr
p229
I60
sVbbir
p230
I0
sVbbiw
p231
I0
sVa
V-
sVb
I114
sVe
V3.15
p232
sVd
I83
sVwmaid
p233
I0
sV4w
p234
I0
sVm
I1
sV4s
p235
I8
sVr
I60
sVw
I0
sVsr
p236
V-
sVov
p237
V19.00
p238
sV5w
p239
I0
ssg50
(dp240
Va
V1.50
p241
sVb
I23
sVinns
p242
I2
sVno
p243
I0
sVsr
p244
V13.04
p245
sVm
I1
sV4s
p246
I0
sV6s
p247
I0
sVhs
p248
V3
sVr
V3
sV100s
p249
I0
sV50s
p250
I0
ssg64
I2013
stp251
a(Vchamptrophy-2013-warmups
(dp252
g24
(dp253
Vinns
p254
I2
sVc
I1
sVro
p255
I1
sVm
I2
sVs
I0
ssg28
(dp256
Vinns
p257
I2
sV10w
p258
I0
sVnb
p259
I0
sVmaid
p260
I0
sVwb
p261
I3
sVbbmw
p262
I1
sV6s
p263
I1
sVbbmr
p264
I52
sVbbir
p265
I52
sVbbiw
p266
I1
sVa
V118.00
p267
sVb
I121
sVe
V5.85
p268
sVd
I61
sVwmaid
p269
I0
sV4w
p270
I0
sVm
I2
sV4s
p271
I13
sVr
I118
sVw
I1
sVsr
p272
V121.00
p273
sVov
p274
V20.16
p275
sV5w
p276
I0
ssg50
(dp277
Va
V2.00
p278
sVb
I9
sVinns
p279
I1
sVno
p280
I0
sVsr
p281
V22.22
p282
sVm
I2
sV4s
p283
I0
sV6s
p284
I0
sVhs
p285
V2
sVr
V2
sV100s
p286
I0
sV50s
p287
I0
ssg64
I2013
stp288
a(Vchamptrophy-2013
(dp289
g24
(dp290
Vinns
p291
I0
sVc
I0
sVro
p292
I0
sVm
I3
sVs
I0
ssg28
(dp293
Vinns
p294
I3
sV10w
p295
I0
sVnb
p296
I1
sVmaid
p297
I0
sVwb
p298
I1
sVbbmw
p299
I3
sV6s
p300
I0
sVbbmr
p301
I48
sVbbir
p302
I48
sVbbiw
p303
I3
sVa
V36.66
p304
sVb
I132
sVe
V5.00
p305
sVd
I62
sVwmaid
p306
I0
sV4w
p307
I0
sVm
I3
sV4s
p308
I11
sVr
I110
sVw
I3
sVsr
p309
V44.00
p310
sVov
p311
V22.00
p312
sV5w
p313
I0
ssg50
(dp314
Va
V6.66
p315
sVb
I20
sVinns
p316
I3
sVno
p317
I0
sVsr
p318
V100.00
p319
sVm
I3
sV4s
p320
I3
sV6s
p321
I0
sVhs
p322
V8
sVr
V20
p323
sV100s
p324
I0
sV50s
p325
I0
ssg64
I2013
stp326
a(Vaus-wi-2013
(dp327
g24
(dp328
Vinns
p329
I1
sVc
I0
sVro
p330
I1
sVm
I5
sVs
I0
ssg28
(dp331
Vinns
p332
I5
sV10w
p333
I0
sVnb
p334
I0
sVmaid
p335
I3
sVwb
p336
I12
sVbbmw
p337
I3
sV6s
p338
I3
sVbbmr
p339
I36
sVbbir
p340
I36
sVbbiw
p341
I3
sVa
V27.42
p342
sVb
I258
sVe
V4.46
p343
sVd
I159
sVwmaid
p344
I0
sV4w
p345
I0
sVm
I5
sV4s
p346
I20
sVr
I192
sVw
I7
sVsr
p347
V36.85
p348
sVov
p349
V43.00
p350
sV5w
p351
I0
ssg50
(dp352
Va
V-
sVb
I22
sVinns
p353
I2
sVno
p354
I2
sVsr
p355
V109.09
p356
sVm
I5
sV4s
p357
I2
sV6s
p358
I0
sVhs
p359
V16*
p360
sVr
V24
p361
sV100s
p362
I0
sV50s
p363
I0
ssg64
I2013
stp364
a(Vipl2013
p365
(dp366
g24
(dp367
Vinns
p368
I7
sVc
I7
sVro
p369
I1
sVm
I17
sVs
I0
ssg28
(dp370
Vinns
p371
I17
sV10w
p372
I0
sVnb
p373
I0
sVmaid
p374
I0
sVwb
p375
I19
sVbbmw
p376
I3
sV6s
p377
I9
sVbbmr
p378
I27
sVbbir
p379
I27
sVbbiw
p380
I3
sVa
V19.12
p381
sVb
I384
sVe
V7.17
p382
sVd
I188
sVwmaid
p383
I0
sV4w
p384
I0
sVm
I17
sV4s
p385
I60
sVr
I459
sVw
I24
sVsr
p386
V16.00
p387
sVov
p388
V64.00
p389
sV5w
p390
I0
ssg50
(dp391
Va
V9.75
p392
sVb
I36
sVinns
p393
I6
sVno
p394
I2
sVsr
p395
V108.33
p396
sVm
I17
sV4s
p397
I2
sV6s
p398
I2
sVhs
p399
V11
p400
sVr
V39
p401
sV100s
p402
I0
sV50s
p403
I0
ssg64
I2013
stp404
a(Vclt20-2012
(dp405
g24
(dp406
Vinns
p407
I1
sVc
I1
sVro
p408
I0
sVm
I3
sVs
I0
ssg28
(dp409
Vinns
p410
I2
sV10w
p411
I0
sVnb
p412
I0
sVmaid
p413
I0
sVwb
p414
I3
sVbbmw
p415
I0
sV6s
p416
I3
sVbbmr
p417
I0
sVbbir
p418
I0
sVbbiw
p419
I0
sVa
V-
sVb
I42
sVe
V8.85
p420
sVd
I16
sVwmaid
p421
I0
sV4w
p422
I0
sVm
I3
sV4s
p423
I6
sVr
I62
sVw
I0
sVsr
p424
V-
sVov
p425
V7.00
p426
sV5w
p427
I0
ssg50
(dp428
Va
V35.00
p429
sVb
I35
sVinns
p430
I3
sVno
p431
I2
sVsr
p432
V100.00
p433
sVm
I3
sV4s
p434
I4
sV6s
p435
I0
sVhs
p436
V30
p437
sVr
V35
p438
sV100s
p439
I0
sV50s
p440
I0
ssg64
I2012
stp441
a(Vaus-sa-2012
(dp442
g24
(dp443
Vinns
p444
I1
sVc
I4
sVro
p445
I0
sVm
I1
sVs
I0
ssg28
(dp446
Vinns
p447
I2
sV10w
p448
I0
sVnb
p449
I0
sVmaid
p450
I4
sVwb
p451
I1
sVbbmw
p452
I6
sV6s
p453
I0
sVbbmr
p454
I164
sVbbir
p455
I110
sVbbiw
p456
I4
sVa
V27.33
p457
sVb
I252
sVe
V3.90
p458
sVd
I167
sVwmaid
p459
I2
sV4w
p460
I1
sVm
I1
sV4s
p461
I20
sVr
I164
sVw
I6
sVsr
p462
V42.00
p463
sVov
p464
V42.00
p465
sV5w
p466
I0
ssg50
(dp467
Va
V5.00
p468
sVb
I35
sVinns
p469
I2
sVno
p470
I0
sVsr
p471
V28.57
p472
sVm
I1
sV4s
p473
I0
sV6s
p474
I0
sVhs
p475
V7
sVr
V10
p476
sV100s
p477
I0
sV50s
p478
I0
ssg64
I2012
stp479
a(Vaus-sl-2012
(dp480
g24
(dp481
Vinns
p482
I1
sVc
I1
sVro
p483
I0
sVm
I4
sVs
I0
ssg28
(dp484
Vinns
p485
I3
sV10w
p486
I0
sVnb
p487
I0
sVmaid
p488
I1
sVwb
p489
I4
sVbbmw
p490
I3
sV6s
p491
I0
sVbbmr
p492
I11
sVbbir
p493
I11
sVbbiw
p494
I3
sVa
V14.14
p495
sVb
I132
sVe
V4.50
p496
sVd
I76
sVwmaid
p497
I0
sV4w
p498
I0
sVm
I4
sV4s
p499
I12
sVr
I99
sVw
I7
sVsr
p500
V18.85
p501
sVov
p502
V22.00
p503
sV5w
p504
I0
ssg50
(dp505
Va
V6.00
p506
sVb
I41
sVinns
p507
I2
sVno
p508
I0
sVsr
p509
V29.26
p510
sVm
I4
sV4s
p511
I0
sV6s
p512
I0
sVhs
p513
V10
p514
sVr
V12
p515
sV100s
p516
I0
sV50s
p517
I0
ssg64
I2012
stp518
asb.