(iplayer
Player
p1
(dp2
S'is_batsman'
p3
I00
sS'name'
p4
S'Shadab Jakati'
p5
sS'dob'
p6
S'1980/11/27'
p7
sS'price'
p8
S'750000'
p9
sS'is_allrounder'
p10
I00
sS'is_overseas'
p11
I00
sS'team'
p12
S'RCB'
p13
sS'nationality'
p14
S'Indian'
p15
sS'is_bowler'
p16
I01
sS'is_keeper'
p17
I00
sS'id'
p18
S'10'
p19
sS'is_uncapped'
p20
I01
sS'tournamentStats'
p21
(lp22
(Vipl2012
(dp23
S'fieldingStats'
p24
(dp25
Vinns
p26
I4
sVc
I4
sVro
p27
I0
sVm
I15
sVs
I0
ssS'bowlingStats'
p28
(dp29
Vinns
p30
I15
sV10w
p31
I0
sVnb
p32
I0
sVmaid
p33
I0
sVwb
p34
I2
sVbbmw
p35
I2
sV6s
p36
I13
sVbbmr
p37
I14
sVbbir
p38
I14
sVbbiw
p39
I2
sVa
V37.22
p40
sVb
I246
sVe
V8.17
p41
sVd
I76
sVwmaid
p42
I0
sV4w
p43
I0
sVm
I15
sV4s
p44
I28
sVr
I335
sVw
I9
sVsr
p45
V27.33
p46
sVov
p47
V41.00
p48
sV5w
p49
I0
ssS'battingStats'
p50
(dp51
Va
V-
sVb
I12
sVinns
p52
I2
sVno
p53
I2
sVsr
p54
V58.33
p55
sVm
I15
sV4s
p56
I0
sV6s
p57
I0
sVhs
p58
V6*
p59
sVr
V7
sV100s
p60
I0
sV50s
p61
I0
ssS'year'
p62
I2012
stp63
a(Vipl2011
(dp64
g24
(dp65
Vinns
p66
I8
sVc
I9
sVro
p67
I0
sVm
I15
sVs
I0
ssg28
(dp68
Vinns
p69
I14
sV10w
p70
I0
sVnb
p71
I1
sVmaid
p72
I0
sVwb
p73
I3
sVbbmw
p74
I2
sV6s
p75
I11
sVbbmr
p76
I21
sVbbir
p77
I21
sVbbiw
p78
I2
sVa
V33.60
p79
sVb
I265
sVe
V7.60
p80
sVd
I80
sVwmaid
p81
I0
sV4w
p82
I0
sVm
I15
sV4s
p83
I21
sVr
I336
sVw
I10
sVsr
p84
V26.50
p85
sVov
p86
V44.16
p87
sV5w
p88
I0
ssg50
(dp89
Va
V-
sVinns
p90
I1
sVno
p91
I1
sVsr
p92
V-
sVm
I15
sV4s
p93
I0
sV6s
p94
I0
sVhs
p95
V0*
p96
sVr
V0
sV100s
p97
I0
sV50s
p98
I0
ssg62
I2011
stp99
a(Vclt20-2011
p100
(dp101
g24
(dp102
Vinns
p103
I2
sVc
I2
sVro
p104
I0
sVm
I4
sVs
I0
ssg28
(dp105
Vinns
p106
I4
sV10w
p107
I0
sVnb
p108
I0
sVmaid
p109
I0
sVwb
p110
I2
sVbbmw
p111
I2
sV6s
p112
I6
sVbbmr
p113
I18
sVbbir
p114
I18
sVbbiw
p115
I2
sVa
V48.00
p116
sVb
I78
sVe
V7.38
p117
sVd
I26
sVwmaid
p118
I0
sV4w
p119
I0
sVm
I4
sV4s
p120
I4
sVr
I96
sVw
I2
sVsr
p121
V39.00
p122
sVov
p123
V13.00
p124
sV5w
p125
I0
ssg50
(dp126
Va
V-
sVinns
p127
I1
sVno
p128
I1
sVsr
p129
V-
sVm
I4
sV4s
p130
I0
sV6s
p131
I0
sVhs
p132
V0*
p133
sVr
V0
sV100s
p134
I0
sV50s
p135
I0
ssg62
I2011
stp136
a(Vclt20-2010
(dp137
g24
(dp138
Vinns
p139
I0
sVc
I0
sVro
p140
I0
sVm
I1
sVs
I0
ssg28
(dp141
Vinns
p142
I1
sV10w
p143
I0
sVnb
p144
I0
sVmaid
p145
I0
sVwb
p146
I0
sVbbmw
p147
I1
sV6s
p148
I2
sVbbmr
p149
I27
sVbbir
p150
I27
sVbbiw
p151
I1
sVa
V27.00
p152
sVb
I24
sVe
V6.75
p153
sVd
I10
sVwmaid
p154
I0
sV4w
p155
I0
sVm
I1
sV4s
p156
I1
sVr
I27
sVw
I1
sVsr
p157
V24.00
p158
sVov
p159
V4.00
p160
sV5w
p161
I0
ssg50
(dp162
Va
V-
sVinns
p163
I0
sVno
p164
I0
sVsr
p165
V-
sVm
I1
sV4s
p166
I0
sV6s
p167
I0
sVhs
p168
V0*
p169
sVr
V0
sV100s
p170
I0
sV50s
p171
I0
ssg62
I2010
stp172
a(Vipl2010
(dp173
g24
(dp174
Vinns
p175
I2
sVc
I1
sVro
p176
I1
sVm
I11
sVs
I0
ssg28
(dp177
Vinns
p178
I11
sV10w
p179
I0
sVnb
p180
I0
sVmaid
p181
I1
sVwb
p182
I4
sVbbmw
p183
I2
sV6s
p184
I13
sVbbmr
p185
I17
sVbbir
p186
I17
sVbbiw
p187
I2
sVa
V22.38
p188
sVb
I228
sVe
V7.65
p189
sVd
I82
sVwmaid
p190
I1
sV4w
p191
I0
sVm
I11
sV4s
p192
I20
sVr
I291
sVw
I13
sVsr
p193
V17.53
p194
sVov
p195
V38.00
p196
sV5w
p197
I0
ssg50
(dp198
Va
V-
sVinns
p199
I2
sVno
p200
I2
sVsr
p201
V-
sVm
I11
sV4s
p202
I0
sV6s
p203
I0
sVhs
p204
V0*
p205
sVr
V0
sV100s
p206
I0
sV50s
p207
I0
ssg62
I2010
stp208
a(Vipl2009
(dp209
g24
(dp210
Vinns
p211
I2
sVc
I3
sVro
p212
I0
sVm
I9
sVs
I0
ssg28
(dp213
Vinns
p214
I8
sV10w
p215
I0
sVnb
p216
I0
sVmaid
p217
I0
sVwb
p218
I1
sVbbmw
p219
I4
sV6s
p220
I10
sVbbmr
p221
I22
sVbbir
p222
I22
sVbbiw
p223
I4
sVa
V16.69
p224
sVb
I174
sVe
V7.48
p225
sVd
I61
sVwmaid
p226
I0
sV4w
p227
I2
sVm
I9
sV4s
p228
I13
sVr
I217
sVw
I13
sVsr
p229
V13.38
p230
sVov
p231
V29.00
p232
sV5w
p233
I0
ssg50
(dp234
Va
V20.00
p235
sVb
I15
sVinns
p236
I2
sVno
p237
I1
sVsr
p238
V133.33
p239
sVm
I9
sV4s
p240
I3
sV6s
p241
I0
sVhs
p242
V13
p243
sVr
V20
p244
sV100s
p245
I0
sV50s
p246
I0
ssg62
I2009
stp247
asb.