(iplayer
Player
p1
(dp2
S'is_batsman'
p3
I00
sS'name'
p4
S'Quinton de Kock'
p5
sS'dob'
p6
S'1992/12/17'
p7
sS'price'
p8
S'950000'
p9
sS'is_allrounder'
p10
I00
sS'is_overseas'
p11
I01
sS'team'
p12
S'DD'
p13
sS'nationality'
p14
S'South African'
p15
sS'is_bowler'
p16
I00
sS'is_keeper'
p17
I01
sS'id'
p18
S'834'
p19
sS'is_uncapped'
p20
I00
sS'tournamentStats'
p21
(lp22
(Vworldt20-2014
(dp23
S'fieldingStats'
p24
(dp25
Vinns
p26
I3
sVc
I4
sVro
p27
I0
sVm
I3
sVs
I2
ssS'bowlingStats'
p28
(dp29
Vinns
p30
I0
sV10w
p31
I0
sVnb
p32
I0
sVmaid
p33
I0
sVwb
p34
I0
sVbbmw
p35
I0
sV6s
p36
I0
sVbbmr
p37
I0
sVbbir
p38
I0
sVbbiw
p39
I0
sVa
V-
sVb
I0
sVe
V-
sVd
I0
sVwmaid
p40
I0
sV4w
p41
I0
sVm
I3
sV4s
p42
I0
sVr
I0
sVw
I0
sVsr
p43
V-
sVov
p44
V-
sV5w
p45
I0
ssS'battingStats'
p46
(dp47
Va
V9.66
p48
sVb
I28
sVinns
p49
I3
sVno
p50
I0
sVsr
p51
V103.57
p52
sVm
I3
sV4s
p53
I4
sV6s
p54
I1
sVhs
p55
V25
p56
sVr
V29
p57
sV100s
p58
I0
sV50s
p59
I0
ssS'year'
p60
I2014
stp61
a(Vsa-aus-2014
(dp62
g24
(dp63
Vinns
p64
I0
sVc
I0
sVro
p65
I0
sVm
I3
sVs
I0
ssg28
(dp66
Vinns
p67
I0
sV10w
p68
I0
sVnb
p69
I0
sVmaid
p70
I0
sVwb
p71
I0
sVbbmw
p72
I0
sV6s
p73
I0
sVbbmr
p74
I0
sVbbir
p75
I0
sVbbiw
p76
I0
sVa
V-
sVb
I0
sVe
V-
sVd
I0
sVwmaid
p77
I0
sV4w
p78
I0
sVm
I3
sV4s
p79
I0
sVr
I0
sVw
I0
sVsr
p80
V-
sVov
p81
V-
sV5w
p82
I0
ssg46
(dp83
Va
V41.00
p84
sVb
I135
sVinns
p85
I4
sVno
p86
I1
sVsr
p87
V91.11
p88
sVm
I3
sV4s
p89
I8
sV6s
p90
I6
sVhs
p91
V41*
p92
sVr
V123
p93
sV100s
p94
I0
sV50s
p95
I0
ssg60
I2014
stp96
a(Vsl-sa-2013
(dp97
g24
(dp98
Vinns
p99
I5
sVc
I7
sVro
p100
I0
sVm
I6
sVs
I1
ssg28
(dp101
Vinns
p102
I0
sV10w
p103
I0
sVnb
p104
I0
sVmaid
p105
I0
sVwb
p106
I0
sVbbmw
p107
I0
sV6s
p108
I0
sVbbmr
p109
I0
sVbbir
p110
I0
sVbbiw
p111
I0
sVa
V-
sVb
I0
sVe
V-
sVd
I0
sVwmaid
p112
I0
sV4w
p113
I0
sVm
I6
sV4s
p114
I0
sVr
I0
sVw
I0
sVsr
p115
V-
sVov
p116
V-
sV5w
p117
I0
ssg46
(dp118
Va
V15.83
p119
sVb
I107
sVinns
p120
I6
sVno
p121
I0
sVsr
p122
V88.78
p123
sVm
I6
sV4s
p124
I17
sV6s
p125
I0
sVhs
p126
V27
p127
sVr
V95
p128
sV100s
p129
I0
sV50s
p130
I0
ssg60
I2013
stp131
a(Vsa-ind-2013
(dp132
g24
(dp133
Vinns
p134
I2
sVc
I6
sVro
p135
I0
sVm
I3
sVs
I0
ssg28
(dp136
Vinns
p137
I0
sV10w
p138
I0
sVnb
p139
I0
sVmaid
p140
I0
sVwb
p141
I0
sVbbmw
p142
I0
sV6s
p143
I0
sVbbmr
p144
I0
sVbbir
p145
I0
sVbbiw
p146
I0
sVa
V-
sVb
I0
sVe
V-
sVd
I0
sVwmaid
p147
I0
sV4w
p148
I0
sVm
I3
sV4s
p149
I0
sVr
I0
sVw
I0
sVsr
p150
V-
sVov
p151
V-
sV5w
p152
I0
ssg46
(dp153
Va
V114.00
p154
sVb
I359
sVinns
p155
I3
sVno
p156
I0
sVsr
p157
V95.26
p158
sVm
I3
sV4s
p159
I36
sV6s
p160
I5
sVhs
p161
V135
p162
sVr
V342
p163
sV100s
p164
I3
sV50s
p165
I0
ssg60
I2013
stp166
a(Vclt20-2013
(dp167
g24
(dp168
Vinns
p169
I1
sVc
I1
sVro
p170
I0
sVm
I3
sVs
I0
ssg28
(dp171
Vinns
p172
I0
sV10w
p173
I0
sVnb
p174
I0
sVmaid
p175
I0
sVwb
p176
I0
sVbbmw
p177
I0
sV6s
p178
I0
sVbbmr
p179
I0
sVbbir
p180
I0
sVbbiw
p181
I0
sVa
V-
sVb
I0
sVe
V-
sVd
I0
sVwmaid
p182
I0
sV4w
p183
I0
sVm
I3
sV4s
p184
I0
sVr
I0
sVw
I0
sVsr
p185
V-
sVov
p186
V-
sV5w
p187
I0
ssg46
(dp188
Va
V73.00
p189
sVb
I95
sVinns
p190
I3
sVno
p191
I1
sVsr
p192
V153.68
p193
sVm
I3
sV4s
p194
I16
sV6s
p195
I6
sVhs
p196
V109*
p197
sVr
V146
p198
sV100s
p199
I1
sV50s
p200
I0
ssg60
I2013
stp201
a(Vpak-sa-2013
(dp202
g24
(dp203
Vinns
p204
I4
sVc
I6
sVro
p205
I1
sVm
I5
sVs
I2
ssg28
(dp206
Vinns
p207
I0
sV10w
p208
I0
sVnb
p209
I0
sVmaid
p210
I0
sVwb
p211
I0
sVbbmw
p212
I0
sV6s
p213
I0
sVbbmr
p214
I0
sVbbir
p215
I0
sVbbiw
p216
I0
sVa
V-
sVb
I0
sVe
V-
sVd
I0
sVwmaid
p217
I0
sV4w
p218
I0
sVm
I5
sV4s
p219
I0
sVr
I0
sVw
I0
sVsr
p220
V-
sVov
p221
V-
sV5w
p222
I0
ssg46
(dp223
Va
V66.00
p224
sVb
I290
sVinns
p225
I5
sVno
p226
I1
sVsr
p227
V91.03
p228
sVm
I5
sV4s
p229
I28
sV6s
p230
I3
sVhs
p231
V112
p232
sVr
V264
p233
sV100s
p234
I1
sV50s
p235
I0
ssg60
I2013
stp236
a(Vipl2013
(dp237
g24
(dp238
Vinns
p239
I3
sVc
I3
sVro
p240
I0
sVm
I3
sVs
I1
ssg28
(dp241
Vinns
p242
I0
sV10w
p243
I0
sVnb
p244
I0
sVmaid
p245
I0
sVwb
p246
I0
sVbbmw
p247
I0
sV6s
p248
I0
sVbbmr
p249
I0
sVbbir
p250
I0
sVbbiw
p251
I0
sVa
V-
sVb
I0
sVe
V-
sVd
I0
sVwmaid
p252
I0
sV4w
p253
I0
sVm
I3
sV4s
p254
I0
sVr
I0
sVw
I0
sVsr
p255
V-
sVov
p256
V-
sV5w
p257
I0
ssg46
(dp258
Va
V2.00
p259
sVb
I15
sVinns
p260
I3
sVno
p261
I0
sVsr
p262
V40.00
p263
sVm
I3
sV4s
p264
I1
sV6s
p265
I0
sVhs
p266
V4
sVr
V6
sV100s
p267
I0
sV50s
p268
I0
ssg60
I2013
stp269
a(Vsa-pak-2-2013
(dp270
g24
(dp271
Vinns
p272
I4
sVc
I10
sVro
p273
I0
sVm
I5
sVs
I1
ssg28
(dp274
Vinns
p275
I0
sV10w
p276
I0
sVnb
p277
I0
sVmaid
p278
I0
sVwb
p279
I0
sVbbmw
p280
I0
sV6s
p281
I0
sVbbmr
p282
I0
sVbbir
p283
I0
sVbbiw
p284
I0
sVa
V-
sVb
I0
sVe
V-
sVd
I0
sVwmaid
p285
I0
sV4w
p286
I0
sVm
I5
sV4s
p287
I0
sVr
I0
sVw
I0
sVsr
p288
V-
sVov
p289
V-
sV5w
p290
I0
ssg46
(dp291
Va
V30.00
p292
sVb
I151
sVinns
p293
I5
sVno
p294
I0
sVsr
p295
V99.33
p296
sVm
I5
sV4s
p297
I21
sV6s
p298
I1
sVhs
p299
V47
p300
sVr
V150
p301
sV100s
p302
I0
sV50s
p303
I0
ssg60
I2013
stp304
a(Vclt20-2012
(dp305
g24
(dp306
Vinns
p307
I2
sVc
I2
sVro
p308
I0
sVm
I6
sVs
I0
ssg28
(dp309
Vinns
p310
I0
sV10w
p311
I0
sVnb
p312
I0
sVmaid
p313
I0
sVwb
p314
I0
sVbbmw
p315
I0
sV6s
p316
I0
sVbbmr
p317
I0
sVbbir
p318
I0
sVbbiw
p319
I0
sVa
V-
sVb
I0
sVe
V-
sVd
I0
sVwmaid
p320
I0
sV4w
p321
I0
sVm
I6
sV4s
p322
I0
sVr
I0
sVw
I0
sVsr
p323
V-
sVov
p324
V-
sV5w
p325
I0
ssg46
(dp326
Va
V20.80
p327
sVb
I110
sVinns
p328
I6
sVno
p329
I1
sVsr
p330
V94.54
p331
sVm
I6
sV4s
p332
I10
sV6s
p333
I4
sVhs
p334
V51*
p335
sVr
V104
p336
sV100s
p337
I0
sV50s
p338
I1
ssg60
I2012
stp339
a(Vsa-nz-2012
p340
(dp341
g24
(dp342
Vinns
p343
I3
sVc
I6
sVro
p344
I0
sVm
I5
sVs
I0
ssg28
(dp345
Vinns
p346
I0
sV10w
p347
I0
sVnb
p348
I0
sVmaid
p349
I0
sVwb
p350
I0
sVbbmw
p351
I0
sV6s
p352
I0
sVbbmr
p353
I0
sVbbir
p354
I0
sVbbiw
p355
I0
sVa
V-
sVb
I0
sVe
V-
sVd
I0
sVwmaid
p356
I0
sV4w
p357
I0
sVm
I5
sV4s
p358
I0
sVr
I0
sVw
I0
sVsr
p359
V-
sVov
p360
V-
sV5w
p361
I0
ssg46
(dp362
Va
V39.50
p363
sVb
I99
sVinns
p364
I5
sVno
p365
I3
sVsr
p366
V79.79
p367
sVm
I5
sV4s
p368
I10
sV6s
p369
I0
sVhs
p370
V31
p371
sVr
V79
p372
sV100s
p373
I0
sV50s
p374
I0
ssg60
I2012
stp375
asb.