(iplayer
Player
p1
(dp2
S'is_batsman'
p3
I01
sS'name'
p4
S'Gautam Gambhir'
p5
sS'dob'
p6
S'1981/10/14'
p7
sS'price'
p8
S'950000'
p9
sS'is_allrounder'
p10
I00
sS'is_overseas'
p11
I00
sS'team'
p12
S'KKR'
p13
sS'nationality'
p14
S'Indian'
p15
sS'is_bowler'
p16
I00
sS'is_keeper'
p17
I00
sS'id'
p18
S'84'
p19
sS'is_uncapped'
p20
I00
sS'tournamentStats'
p21
(lp22
(Vipl2013
(dp23
S'fieldingStats'
p24
(dp25
Vinns
p26
I2
sVc
I2
sVro
p27
I0
sVm
I16
sVs
I0
ssS'bowlingStats'
p28
(dp29
Vinns
p30
I0
sV10w
p31
I0
sVnb
p32
I0
sVmaid
p33
I0
sVwb
p34
I0
sVbbmw
p35
I0
sV6s
p36
I0
sVbbmr
p37
I0
sVbbir
p38
I0
sVbbiw
p39
I0
sVa
V-
sVb
I0
sVe
V-
sVd
I0
sVwmaid
p40
I0
sV4w
p41
I0
sVm
I16
sV4s
p42
I0
sVr
I0
sVw
I0
sVsr
p43
V-
sVov
p44
V-
sV5w
p45
I0
ssS'battingStats'
p46
(dp47
Va
V25.37
p48
sVb
I343
sVinns
p49
I16
sVno
p50
I0
sVsr
p51
V118.36
p52
sVm
I16
sV4s
p53
I51
sV6s
p54
I5
sVhs
p55
V60
p56
sVr
V406
p57
sV100s
p58
I0
sV50s
p59
I4
ssS'year'
p60
I2013
stp61
a(Vipl2012
(dp62
g24
(dp63
Vinns
p64
I7
sVc
I4
sVro
p65
I3
sVm
I17
sVs
I0
ssg28
(dp66
Vinns
p67
I0
sV10w
p68
I0
sVnb
p69
I0
sVmaid
p70
I0
sVwb
p71
I0
sVbbmw
p72
I0
sV6s
p73
I0
sVbbmr
p74
I0
sVbbir
p75
I0
sVbbiw
p76
I0
sVa
V-
sVb
I0
sVe
V-
sVd
I0
sVwmaid
p77
I0
sV4w
p78
I0
sVm
I17
sV4s
p79
I0
sVr
I0
sVw
I0
sVsr
p80
V-
sVov
p81
V-
sV5w
p82
I0
ssg46
(dp83
Va
V39.33
p84
sVb
I411
sVinns
p85
I17
sVno
p86
I2
sVsr
p87
V143.55
p88
sVm
I17
sV4s
p89
I64
sV6s
p90
I17
sVhs
p91
V93
p92
sVr
V590
p93
sV100s
p94
I0
sV50s
p95
I6
ssg60
I2012
stp96
a(Vind-pak-2012-13
(dp97
g24
(dp98
Vinns
p99
I0
sVc
I0
sVro
p100
I0
sVm
I5
sVs
I0
ssg28
(dp101
Vinns
p102
I0
sV10w
p103
I0
sVnb
p104
I0
sVmaid
p105
I0
sVwb
p106
I0
sVbbmw
p107
I0
sV6s
p108
I0
sVbbmr
p109
I0
sVbbir
p110
I0
sVbbiw
p111
I0
sVa
V-
sVb
I0
sVe
V-
sVd
I0
sVwmaid
p112
I0
sV4w
p113
I0
sVm
I5
sV4s
p114
I0
sVr
I0
sVw
I0
sVsr
p115
V-
sVov
p116
V-
sV5w
p117
I0
ssg46
(dp118
Va
V19.60
p119
sVb
I121
sVinns
p120
I5
sVno
p121
I0
sVsr
p122
V80.99
p123
sVm
I5
sV4s
p124
I9
sV6s
p125
I1
sVhs
p126
V43
p127
sVr
V98
p128
sV100s
p129
I0
sV50s
p130
I0
ssg60
I2012
stp131
a(Vclt20-2012
(dp132
g24
(dp133
Vinns
p134
I0
sVc
I0
sVro
p135
I0
sVm
I4
sVs
I0
ssg28
(dp136
Vinns
p137
I0
sV10w
p138
I0
sVnb
p139
I0
sVmaid
p140
I0
sVwb
p141
I0
sVbbmw
p142
I0
sV6s
p143
I0
sVbbmr
p144
I0
sVbbir
p145
I0
sVbbiw
p146
I0
sVa
V-
sVb
I0
sVe
V-
sVd
I0
sVwmaid
p147
I0
sV4w
p148
I0
sVm
I4
sV4s
p149
I0
sVr
I0
sVw
I0
sVsr
p150
V-
sVov
p151
V-
sV5w
p152
I0
ssg46
(dp153
Va
V16.33
p154
sVb
I46
sVinns
p155
I3
sVno
p156
I0
sVsr
p157
V106.52
p158
sVm
I4
sV4s
p159
I5
sV6s
p160
I1
sVhs
p161
V44
p162
sVr
V49
p163
sV100s
p164
I0
sV50s
p165
I0
ssg60
I2012
stp166
a(Vpre-worldt20-2012
(dp167
g24
(dp168
Vinns
p169
I0
sVc
I0
sVro
p170
I0
sVm
I1
sVs
I0
ssg28
(dp171
Vinns
p172
I0
sV10w
p173
I0
sVnb
p174
I0
sVmaid
p175
I0
sVwb
p176
I0
sVbbmw
p177
I0
sV6s
p178
I0
sVbbmr
p179
I0
sVbbir
p180
I0
sVbbiw
p181
I0
sVa
V-
sVb
I0
sVe
V-
sVd
I0
sVwmaid
p182
I0
sV4w
p183
I0
sVm
I1
sV4s
p184
I0
sVr
I0
sVw
I0
sVsr
p185
V-
sVov
p186
V-
sV5w
p187
I0
ssg46
(dp188
Va
V-
sVinns
p189
I0
sVno
p190
I0
sVsr
p191
V-
sVm
I1
sV4s
p192
I0
sV6s
p193
I0
sVhs
p194
V0*
p195
sVr
V0
sV100s
p196
I0
sV50s
p197
I0
ssg60
I2012
stp198
a(Vworldt20-2012
(dp199
g24
(dp200
Vinns
p201
I4
sVc
I4
sVro
p202
I1
sVm
I7
sVs
I0
ssg28
(dp203
Vinns
p204
I0
sV10w
p205
I0
sVnb
p206
I0
sVmaid
p207
I0
sVwb
p208
I0
sVbbmw
p209
I0
sV6s
p210
I0
sVbbmr
p211
I0
sVbbir
p212
I0
sVbbiw
p213
I0
sVa
V-
sVb
I0
sVe
V-
sVd
I0
sVwmaid
p214
I0
sV4w
p215
I0
sVm
I7
sV4s
p216
I0
sVr
I0
sVw
I0
sVsr
p217
V-
sVov
p218
V-
sV5w
p219
I0
ssg46
(dp220
Va
V15.83
p221
sVb
I92
sVinns
p222
I7
sVno
p223
I1
sVsr
p224
V103.26
p225
sVm
I7
sV4s
p226
I13
sV6s
p227
I0
sVhs
p228
V45
p229
sVr
V95
p230
sV100s
p231
I0
sV50s
p232
I0
ssg60
I2012
stp233
a(Vind-eng-2012-13
(dp234
g24
(dp235
Vinns
p236
I2
sVc
I2
sVro
p237
I0
sVm
I4
sVs
I0
ssg28
(dp238
Vinns
p239
I1
sV10w
p240
I0
sVnb
p241
I0
sVmaid
p242
I0
sVwb
p243
I0
sVbbmw
p244
I0
sV6s
p245
I0
sVbbmr
p246
I0
sVbbir
p247
I4
sVbbiw
p248
I0
sVa
V-
sVb
I12
sVe
V2.00
p249
sVd
I8
sVwmaid
p250
I0
sV4w
p251
I0
sVm
I4
sV4s
p252
I0
sVr
I4
sVw
I0
sVsr
p253
V-
sVov
p254
V2.00
p255
sV5w
p256
I0
ssg46
(dp257
Va
V41.83
p258
sVb
I576
sVinns
p259
I6
sVno
p260
I0
sVsr
p261
V43.57
p262
sVm
I4
sV4s
p263
I31
sV6s
p264
I1
sVhs
p265
V65
p266
sVr
V251
p267
sV100s
p268
I0
sV50s
p269
I2
ssg60
I2012
stp270
a(Vipl2011
(dp271
g24
(dp272
Vinns
p273
I3
sVc
I1
sVro
p274
I2
sVm
I15
sVs
I0
ssg28
(dp275
Vinns
p276
I0
sV10w
p277
I0
sVnb
p278
I0
sVmaid
p279
I0
sVwb
p280
I0
sVbbmw
p281
I0
sV6s
p282
I0
sVbbmr
p283
I0
sVbbir
p284
I0
sVbbiw
p285
I0
sVa
V-
sVb
I0
sVe
V-
sVd
I0
sVwmaid
p286
I0
sV4w
p287
I0
sVm
I15
sV4s
p288
I0
sVr
I0
sVw
I0
sVsr
p289
V-
sVov
p290
V-
sV5w
p291
I0
ssg46
(dp292
Va
V34.36
p293
sVb
I317
sVinns
p294
I15
sVno
p295
I4
sVsr
p296
V119.24
p297
sVm
I15
sV4s
p298
I44
sV6s
p299
I3
sVhs
p300
V75*
p301
sVr
V378
p302
sV100s
p303
I0
sV50s
p304
I2
ssg60
I2011
stp305
a(Vclt20-2011
p306
(dp307
g24
(dp308
Vinns
p309
I1
sVc
I1
sVro
p310
I0
sVm
I4
sVs
I0
ssg28
(dp311
Vinns
p312
I0
sV10w
p313
I0
sVnb
p314
I0
sVmaid
p315
I0
sVwb
p316
I0
sVbbmw
p317
I0
sV6s
p318
I0
sVbbmr
p319
I0
sVbbir
p320
I0
sVbbiw
p321
I0
sVa
V-
sVb
I0
sVe
V-
sVd
I0
sVwmaid
p322
I0
sV4w
p323
I0
sVm
I4
sV4s
p324
I0
sVr
I0
sVw
I0
sVsr
p325
V-
sVov
p326
V-
sV5w
p327
I0
ssg46
(dp328
Va
V48.50
p329
sVb
I64
sVinns
p330
I4
sVno
p331
I2
sVsr
p332
V151.56
p333
sVm
I4
sV4s
p334
I8
sV6s
p335
I5
sVhs
p336
V55*
p337
sVr
V97
p338
sV100s
p339
I0
sV50s
p340
I1
ssg60
I2011
stp341
a(Vipl2010
(dp342
g24
(dp343
Vinns
p344
I4
sVc
I3
sVro
p345
I1
sVm
I11
sVs
I0
ssg28
(dp346
Vinns
p347
I0
sV10w
p348
I0
sVnb
p349
I0
sVmaid
p350
I0
sVwb
p351
I0
sVbbmw
p352
I0
sV6s
p353
I0
sVbbmr
p354
I0
sVbbir
p355
I0
sVbbiw
p356
I0
sVa
V-
sVb
I0
sVe
V-
sVd
I0
sVwmaid
p357
I0
sV4w
p358
I0
sVm
I11
sV4s
p359
I0
sVr
I0
sVw
I0
sVsr
p360
V-
sVov
p361
V-
sV5w
p362
I0
ssg46
(dp363
Va
V30.77
p364
sVb
I217
sVinns
p365
I10
sVno
p366
I1
sVsr
p367
V127.64
p368
sVm
I11
sV4s
p369
I32
sV6s
p370
I2
sVhs
p371
V72
p372
sVr
V277
p373
sV100s
p374
I0
sV50s
p375
I2
ssg60
I2010
stp376
a(Vipl2009
(dp377
g24
(dp378
Vinns
p379
I1
sVc
I2
sVro
p380
I0
sVm
I15
sVs
I0
ssg28
(dp381
Vinns
p382
I0
sV10w
p383
I0
sVnb
p384
I0
sVmaid
p385
I0
sVwb
p386
I0
sVbbmw
p387
I0
sV6s
p388
I0
sVbbmr
p389
I0
sVbbir
p390
I0
sVbbiw
p391
I0
sVa
V-
sVb
I0
sVe
V-
sVd
I0
sVwmaid
p392
I0
sV4w
p393
I0
sVm
I15
sV4s
p394
I0
sVr
I0
sVw
I0
sVsr
p395
V-
sVov
p396
V-
sV5w
p397
I0
ssg46
(dp398
Va
V22.00
p399
sVb
I278
sVinns
p400
I15
sVno
p401
I2
sVsr
p402
V102.87
p403
sVm
I15
sV4s
p404
I32
sV6s
p405
I2
sVhs
p406
V71*
p407
sVr
V286
p408
sV100s
p409
I0
sV50s
p410
I1
ssg60
I2009
stp411
a(Vclt20-2009
(dp412
g24
(dp413
Vinns
p414
I0
sVc
I0
sVro
p415
I0
sVm
I4
sVs
I0
ssg28
(dp416
Vinns
p417
I0
sV10w
p418
I0
sVnb
p419
I0
sVmaid
p420
I0
sVwb
p421
I0
sVbbmw
p422
I0
sV6s
p423
I0
sVbbmr
p424
I0
sVbbir
p425
I0
sVbbiw
p426
I0
sVa
V-
sVb
I0
sVe
V-
sVd
I0
sVwmaid
p427
I0
sV4w
p428
I0
sVm
I4
sV4s
p429
I0
sVr
I0
sVw
I0
sVsr
p430
V-
sVov
p431
V-
sV5w
p432
I0
ssg46
(dp433
Va
V4.50
p434
sVb
I36
sVinns
p435
I4
sVno
p436
I0
sVsr
p437
V50.00
p438
sVm
I4
sV4s
p439
I2
sV6s
p440
I0
sVhs
p441
V11
p442
sVr
V18
p443
sV100s
p444
I0
sV50s
p445
I0
ssg60
I2009
stp446
a(Vipl2008
(dp447
g24
(dp448
Vinns
p449
I2
sVc
I2
sVro
p450
I0
sVm
I14
sVs
I0
ssg28
(dp451
Vinns
p452
I0
sV10w
p453
I0
sVnb
p454
I0
sVmaid
p455
I0
sVwb
p456
I0
sVbbmw
p457
I0
sV6s
p458
I0
sVbbmr
p459
I0
sVbbir
p460
I0
sVbbiw
p461
I0
sVa
V-
sVb
I0
sVe
V-
sVd
I0
sVwmaid
p462
I0
sV4w
p463
I0
sVm
I14
sV4s
p464
I0
sVr
I0
sVw
I0
sVsr
p465
V-
sVov
p466
V-
sV5w
p467
I0
ssg46
(dp468
Va
V41.07
p469
sVb
I379
sVinns
p470
I14
sVno
p471
I1
sVsr
p472
V140.89
p473
sVm
I14
sV4s
p474
I68
sV6s
p475
I8
sVhs
p476
V86
p477
sVr
V534
p478
sV100s
p479
I0
sV50s
p480
I5
ssg60
I2008
stp481
asb.